---
triple:          'arm64-apple-darwin'
binary-path:     'libsentrysdk.macos.debug.framework/libsentrysdk.macos.debug'
relocations:
  - { offset: 0x3A4E0, size: 0x8, addend: 0x0, symName: __ZNSt3__116__throw_bad_castB8nn190102Ev, symObjAddr: 0x72A4, symBinAddr: 0x75B8, symSize: 0xC }
  - { offset: 0x3A4FF, size: 0x8, addend: 0x0, symName: __ZN12LegacyLoggerD2Ev, symObjAddr: 0x72B0, symBinAddr: 0x75C4, symSize: 0x118 }
  - { offset: 0x3C124, size: 0x8, addend: 0x0, symName: __ZSt28__throw_bad_array_new_lengthB8nn190102v, symObjAddr: 0x1E8C, symBinAddr: 0x264C, symSize: 0xC }
  - { offset: 0x3C142, size: 0x8, addend: 0x0, symName: __ZN11SentryEvent10StackFrameD2Ev, symObjAddr: 0x1E98, symBinAddr: 0x2734, symSize: 0xB0 }
  - { offset: 0x3E7B5, size: 0x8, addend: 0x0, symName: __ZN6sentry4util5printIJA200_cA10_ciA2_cEEEvNS_5LevelERKN5godot7VariantEDpRKT_, symObjAddr: 0x3E9C, symBinAddr: 0x43D4, symSize: 0x1E8 }
  - { offset: 0x3EC8A, size: 0x8, addend: 0x0, symName: __ZN6sentry4util5printIJA15_cPKcA3_cA10_cS4_A2_cS6_iS7_S2_S4_S7_A16_cS4_EEEvNS_5LevelERKN5godot7VariantEDpRKT_, symObjAddr: 0x432C, symBinAddr: 0x4864, symSize: 0x284 }
  - { offset: 0x3F1CC, size: 0x8, addend: 0x0, symName: __ZN6sentry4util5printIJPKcEEEvNS_5LevelERKN5godot7VariantEDpRKT_, symObjAddr: 0x5CAC, symBinAddr: 0x60D8, symSize: 0x25C }
  - { offset: 0x3F53C, size: 0x8, addend: 0x0, symName: __ZN6sentry4util5printIJN5godot6StringEEEEvNS_5LevelERKNS2_7VariantEDpRKT_, symObjAddr: 0x5A78, symBinAddr: 0x5EA4, symSize: 0x234 }
  - { offset: 0x3F88A, size: 0x8, addend: 0x0, symName: __ZN6sentry4util5printIJiEEEvNS_5LevelERKN5godot7VariantEDpRKT_, symObjAddr: 0x5F08, symBinAddr: 0x6334, symSize: 0x234 }
  - { offset: 0x3FC21, size: 0x8, addend: 0x0, symName: __ZN6sentry4util5printIJEEEvNS_5LevelERKN5godot7VariantEDpRKT_, symObjAddr: 0x613C, symBinAddr: 0x6568, symSize: 0x200 }
  - { offset: 0x40182, size: 0x8, addend: 0x0, symName: __ZN12LegacyLogger17_process_log_fileEv, symObjAddr: 0x0, symBinAddr: 0xC18, symSize: 0x580 }
  - { offset: 0x401A8, size: 0x8, addend: 0x0, symName: __ZZN12LegacyLogger17_process_log_fileEvE11first_print, symObjAddr: 0x13DB2C, symBinAddr: 0x1D1148, symSize: 0x0 }
  - { offset: 0x4122D, size: 0x8, addend: 0x0, symName: __ZN12_GLOBAL__N_111error_typesE, symObjAddr: 0x83C0, symBinAddr: 0x1D08E0, symSize: 0x0 }
  - { offset: 0x41247, size: 0x8, addend: 0x0, symName: __ZN12_GLOBAL__N_118error_type_as_enumE, symObjAddr: 0x8CA4, symBinAddr: 0x1BC490, symSize: 0x0 }
  - { offset: 0x4127F, size: 0x8, addend: 0x0, symName: __ZN5godot6Object22_gde_binding_callbacksE, symObjAddr: 0x8FE8, symBinAddr: 0x1C9038, symSize: 0x0 }
  - { offset: 0x41293, size: 0x8, addend: 0x0, symName: __ZN5godot16ClassDBSingleton22_gde_binding_callbacksE, symObjAddr: 0x9000, symBinAddr: 0x1C9050, symSize: 0x0 }
  - { offset: 0x412A7, size: 0x8, addend: 0x0, symName: __ZN5godot10RefCounted22_gde_binding_callbacksE, symObjAddr: 0x9018, symBinAddr: 0x1C9068, symSize: 0x0 }
  - { offset: 0x412BB, size: 0x8, addend: 0x0, symName: __ZN5godot6Logger22_gde_binding_callbacksE, symObjAddr: 0x9070, symBinAddr: 0x1C90C0, symSize: 0x0 }
  - { offset: 0x412CF, size: 0x8, addend: 0x0, symName: __ZN5godot13DisplayServer22_gde_binding_callbacksE, symObjAddr: 0x9088, symBinAddr: 0x1C90D8, symSize: 0x0 }
  - { offset: 0x412E3, size: 0x8, addend: 0x0, symName: __ZN5godot4Node22_gde_binding_callbacksE, symObjAddr: 0x90A0, symBinAddr: 0x1C90F0, symSize: 0x0 }
  - { offset: 0x412F7, size: 0x8, addend: 0x0, symName: __ZN5godot5Timer22_gde_binding_callbacksE, symObjAddr: 0x90B8, symBinAddr: 0x1C9108, symSize: 0x0 }
  - { offset: 0x4130B, size: 0x8, addend: 0x0, symName: __ZN5godot10ConfigFile22_gde_binding_callbacksE, symObjAddr: 0x90D0, symBinAddr: 0x1C9120, symSize: 0x0 }
  - { offset: 0x4131F, size: 0x8, addend: 0x0, symName: __ZN5godot15ScriptBacktrace22_gde_binding_callbacksE, symObjAddr: 0x9128, symBinAddr: 0x1C9178, symSize: 0x0 }
  - { offset: 0x41333, size: 0x8, addend: 0x0, symName: __ZN5godot2OS22_gde_binding_callbacksE, symObjAddr: 0x9180, symBinAddr: 0x1C91D0, symSize: 0x0 }
  - { offset: 0x41347, size: 0x8, addend: 0x0, symName: __ZN5godot15ProjectSettings22_gde_binding_callbacksE, symObjAddr: 0x9198, symBinAddr: 0x1C91E8, symSize: 0x0 }
  - { offset: 0x4135B, size: 0x8, addend: 0x0, symName: __ZN5godot14ResourceLoader22_gde_binding_callbacksE, symObjAddr: 0x91B0, symBinAddr: 0x1C9200, symSize: 0x0 }
  - { offset: 0x4136F, size: 0x8, addend: 0x0, symName: __ZN5godot8Resource22_gde_binding_callbacksE, symObjAddr: 0x91C8, symBinAddr: 0x1C9218, symSize: 0x0 }
  - { offset: 0x41383, size: 0x8, addend: 0x0, symName: __ZN5godot6Script22_gde_binding_callbacksE, symObjAddr: 0x91E0, symBinAddr: 0x1C9230, symSize: 0x0 }
  - { offset: 0x429B5, size: 0x8, addend: 0x0, symName: ___cxx_global_var_init, symObjAddr: 0x7F28, symBinAddr: 0x77F0, symSize: 0x4C }
  - { offset: 0x42A3C, size: 0x8, addend: 0x0, symName: ___cxx_global_var_init.1, symObjAddr: 0x7F74, symBinAddr: 0x783C, symSize: 0x4C }
  - { offset: 0x42AC3, size: 0x8, addend: 0x0, symName: ___cxx_global_var_init.2, symObjAddr: 0x7FC0, symBinAddr: 0x7888, symSize: 0x4C }
  - { offset: 0x42B4A, size: 0x8, addend: 0x0, symName: ___cxx_global_var_init.3, symObjAddr: 0x800C, symBinAddr: 0x78D4, symSize: 0x4C }
  - { offset: 0x42BD1, size: 0x8, addend: 0x0, symName: ___cxx_global_var_init.4, symObjAddr: 0x8058, symBinAddr: 0x7920, symSize: 0x4C }
  - { offset: 0x42C58, size: 0x8, addend: 0x0, symName: ___cxx_global_var_init.5, symObjAddr: 0x80A4, symBinAddr: 0x796C, symSize: 0x4C }
  - { offset: 0x42CDF, size: 0x8, addend: 0x0, symName: ___cxx_global_var_init.6, symObjAddr: 0x80F0, symBinAddr: 0x79B8, symSize: 0x4C }
  - { offset: 0x42D66, size: 0x8, addend: 0x0, symName: ___cxx_global_var_init.7, symObjAddr: 0x813C, symBinAddr: 0x7A04, symSize: 0x4C }
  - { offset: 0x42DED, size: 0x8, addend: 0x0, symName: ___cxx_global_var_init.8, symObjAddr: 0x8188, symBinAddr: 0x7A50, symSize: 0x4C }
  - { offset: 0x42E74, size: 0x8, addend: 0x0, symName: ___cxx_global_var_init.9, symObjAddr: 0x81D4, symBinAddr: 0x7A9C, symSize: 0x4C }
  - { offset: 0x42EFB, size: 0x8, addend: 0x0, symName: ___cxx_global_var_init.10, symObjAddr: 0x8220, symBinAddr: 0x7AE8, symSize: 0x4C }
  - { offset: 0x42F82, size: 0x8, addend: 0x0, symName: ___cxx_global_var_init.11, symObjAddr: 0x826C, symBinAddr: 0x7B34, symSize: 0x4C }
  - { offset: 0x43009, size: 0x8, addend: 0x0, symName: ___cxx_global_var_init.12, symObjAddr: 0x82B8, symBinAddr: 0x7B80, symSize: 0x4C }
  - { offset: 0x43090, size: 0x8, addend: 0x0, symName: ___cxx_global_var_init.13, symObjAddr: 0x8304, symBinAddr: 0x7BCC, symSize: 0x4C }
  - { offset: 0x43A46, size: 0x8, addend: 0x0, symName: __ZNSt3__112__hash_tableINS_17__hash_value_typeINS_4pairINS_12basic_stringIcNS_11char_traitsIcEENS_9allocatorIcEEEEiEENS_6chrono10time_pointINSA_12steady_clockENSA_8durationIxNS_5ratioILl1ELl1000000000EEEEEEEEENS_22__unordered_map_hasherIS9_SI_N12LegacyLogger14SourceLineHashENS_8equal_toIS9_EELb1EEENS_21__unordered_map_equalIS9_SI_SN_SL_Lb1EEENS6_ISI_EEE4findIS9_EENS_15__hash_iteratorIPNS_11__hash_nodeISI_PvEEEERKT_, symObjAddr: 0x3244, symBinAddr: 0x38D8, symSize: 0x174 }
  - { offset: 0x43DD8, size: 0x8, addend: 0x0, symName: __ZN12LegacyLogger10_log_errorEPKcS1_iS1_N6sentry14GodotErrorTypeE, symObjAddr: 0x9B8, symBinAddr: 0x1198, symSize: 0x880 }
  - { offset: 0x44FA5, size: 0x8, addend: 0x0, symName: __ZNSt3__112__hash_tableINS_17__hash_value_typeINS_4pairINS_12basic_stringIcNS_11char_traitsIcEENS_9allocatorIcEEEEiEENS_6chrono10time_pointINSA_12steady_clockENSA_8durationIxNS_5ratioILl1ELl1000000000EEEEEEEEENS_22__unordered_map_hasherIS9_SI_N12LegacyLogger14SourceLineHashENS_8equal_toIS9_EELb1EEENS_21__unordered_map_equalIS9_SI_SN_SL_Lb1EEENS6_ISI_EEE25__emplace_unique_key_argsIS9_JRKNS_21piecewise_construct_tENS_5tupleIJRKS9_EEENSX_IJEEEEEENS2_INS_15__hash_iteratorIPNS_11__hash_nodeISI_PvEEEEbEERKT_DpOT0_, symObjAddr: 0x3864, symBinAddr: 0x3E84, symSize: 0x380 }
  - { offset: 0x4757A, size: 0x8, addend: 0x0, symName: __ZNK12LegacyLogger19_get_script_contextERKN5godot6StringEiRS1_RNS0_17PackedStringArrayES6_, symObjAddr: 0x1210, symBinAddr: 0x1A18, symSize: 0x358 }
  - { offset: 0x47B09, size: 0x8, addend: 0x0, symName: __ZN5godot7CowDataIN11SentryEvent10StackFrameEE6resizeILb0EEENS_5ErrorEx, symObjAddr: 0x4C30, symBinAddr: 0x5168, symSize: 0x2D8 }
  - { offset: 0x482D8, size: 0x8, addend: 0x0, symName: __ZN5godot7CowDataIN11SentryEvent10StackFrameEE14_copy_on_writeEv, symObjAddr: 0x4FEC, symBinAddr: 0x54A8, symSize: 0x48 }
  - { offset: 0x48589, size: 0x8, addend: 0x0, symName: __ZN11SentryEvent10StackFrameD2Ev, symObjAddr: 0x1E98, symBinAddr: 0x2734, symSize: 0xB0 }
  - { offset: 0x48776, size: 0x8, addend: 0x0, symName: __ZNSt3__15dequeINS_6chrono10time_pointINS1_12steady_clockENS1_8durationIxNS_5ratioILl1ELl1000000000EEEEEEENS_9allocatorIS8_EEE19__add_back_capacityEv, symObjAddr: 0x515C, symBinAddr: 0x54F0, symSize: 0x428 }
  - { offset: 0x498C4, size: 0x8, addend: 0x0, symName: __ZNSt3__114__split_bufferIPNS_6chrono10time_pointINS1_12steady_clockENS1_8durationIxNS_5ratioILl1ELl1000000000EEEEEEENS_9allocatorIS9_EEE9push_backEOS9_, symObjAddr: 0x567C, symBinAddr: 0x5918, symSize: 0x184 }
  - { offset: 0x498CF, size: 0x8, addend: 0x0, symName: __ZN12LegacyLogger10_log_errorEPKcS1_iS1_N6sentry14GodotErrorTypeE.cold.1, symObjAddr: 0x7474, symBinAddr: 0x1189D4, symSize: 0x54 }
  - { offset: 0x49BBA, size: 0x8, addend: 0x0, symName: __ZN5godot6Object7cast_toINS_6ScriptEEEPT_PS0_, symObjAddr: 0x5990, symBinAddr: 0x5DBC, symSize: 0xE8 }
  - { offset: 0x49C58, size: 0x8, addend: 0x0, symName: __ZN11SentryEvent10StackFrameC1ERKS0_, symObjAddr: 0x1588, symBinAddr: 0x1D70, symSize: 0x84 }
  - { offset: 0x4A019, size: 0x8, addend: 0x0, symName: __ZN12LegacyLogger22_trim_error_timepointsEv, symObjAddr: 0x1638, symBinAddr: 0x1DF4, symSize: 0x88 }
  - { offset: 0x4A045, size: 0x8, addend: 0x0, symName: __ZN12LegacyLogger22_trim_error_timepointsEv, symObjAddr: 0x1638, symBinAddr: 0x1DF4, symSize: 0x88 }
  - { offset: 0x4A064, size: 0x8, addend: 0x0, symName: __ZN12LegacyLogger22_trim_error_timepointsEv, symObjAddr: 0x1638, symBinAddr: 0x1DF4, symSize: 0x88 }
  - { offset: 0x4A744, size: 0x8, addend: 0x0, symName: __ZN12LegacyLogger13_notificationEi, symObjAddr: 0x16C0, symBinAddr: 0x1E7C, symSize: 0x224 }
  - { offset: 0x4AA38, size: 0x8, addend: 0x0, symName: __ZN12LegacyLogger6_setupEv, symObjAddr: 0x18E4, symBinAddr: 0x20A0, symSize: 0x330 }
  - { offset: 0x4AFB7, size: 0x8, addend: 0x0, symName: __ZN12LegacyLogger6_setupEv.cold.5, symObjAddr: 0x75E4, symBinAddr: 0x118B44, symSize: 0x20 }
  - { offset: 0x4AFCF, size: 0x8, addend: 0x0, symName: __ZN12LegacyLogger6_setupEv.cold.4, symObjAddr: 0x75C4, symBinAddr: 0x118B24, symSize: 0x20 }
  - { offset: 0x4AFE7, size: 0x8, addend: 0x0, symName: __ZN12LegacyLogger6_setupEv.cold.1, symObjAddr: 0x74C8, symBinAddr: 0x118A28, symSize: 0x38 }
  - { offset: 0x4AFFF, size: 0x8, addend: 0x0, symName: __ZN12LegacyLogger6_setupEv.cold.3, symObjAddr: 0x758C, symBinAddr: 0x118AEC, symSize: 0x38 }
  - { offset: 0x4B017, size: 0x8, addend: 0x0, symName: __ZN12LegacyLogger6_setupEv.cold.2, symObjAddr: 0x7500, symBinAddr: 0x118A60, symSize: 0x8C }
  - { offset: 0x4B408, size: 0x8, addend: 0x0, symName: __ZN12LegacyLoggerC2Ev, symObjAddr: 0x1C20, symBinAddr: 0x23D0, symSize: 0x258 }
  - { offset: 0x4B8DE, size: 0x8, addend: 0x0, symName: __ZNSt3__113basic_filebufIcNS_11char_traitsIcEEEC2Ev, symObjAddr: 0x64AC, symBinAddr: 0x6934, symSize: 0x104 }
  - { offset: 0x4B9CD, size: 0x8, addend: 0x0, symName: __ZN12LegacyLoggerC1Ev, symObjAddr: 0x1E68, symBinAddr: 0x2628, symSize: 0x4 }
  - { offset: 0x4B9FC, size: 0x8, addend: 0x0, symName: __ZN12LegacyLoggerC1Ev, symObjAddr: 0x1E68, symBinAddr: 0x2628, symSize: 0x4 }
  - { offset: 0x4BA10, size: 0x8, addend: 0x0, symName: __ZNK12LegacyLogger19_is_extension_classEv, symObjAddr: 0x1E6C, symBinAddr: 0x262C, symSize: 0x8 }
  - { offset: 0x4BA37, size: 0x8, addend: 0x0, symName: __ZN12LegacyLoggerD1Ev, symObjAddr: 0x1E74, symBinAddr: 0x2634, symSize: 0x4 }
  - { offset: 0x4BA5B, size: 0x8, addend: 0x0, symName: __ZN12LegacyLoggerD1Ev, symObjAddr: 0x1E74, symBinAddr: 0x2634, symSize: 0x4 }
  - { offset: 0x4BA6F, size: 0x8, addend: 0x0, symName: __ZN12LegacyLoggerD2Ev, symObjAddr: 0x72B0, symBinAddr: 0x75C4, symSize: 0x118 }
  - { offset: 0x4C154, size: 0x8, addend: 0x0, symName: __ZN12LegacyLoggerD0Ev, symObjAddr: 0x1E78, symBinAddr: 0x2638, symSize: 0x14 }
  - { offset: 0x4C2CF, size: 0x8, addend: 0x0, symName: __ZNK5godot7Wrapped19_is_extension_classEv, symObjAddr: 0x1F48, symBinAddr: 0x27E4, symSize: 0x8 }
  - { offset: 0x4C3CF, size: 0x8, addend: 0x0, symName: __ZN5godot6ObjectD1Ev, symObjAddr: 0x1F50, symBinAddr: 0x27EC, symSize: 0x74 }
  - { offset: 0x4C556, size: 0x8, addend: 0x0, symName: __ZN5godot4ListINS_12PropertyInfoENS_16DefaultAllocatorEE5_Data5eraseEPNS3_7ElementE, symObjAddr: 0x2150, symBinAddr: 0x29A4, symSize: 0xB8 }
  - { offset: 0x4C65D, size: 0x8, addend: 0x0, symName: __ZN5godot6ObjectD1Ev.cold.1, symObjAddr: 0x7604, symBinAddr: 0x118B64, symSize: 0x1C }
  - { offset: 0x4C679, size: 0x8, addend: 0x0, symName: __ZN5godot6ObjectD1Ev.cold.1, symObjAddr: 0x7604, symBinAddr: 0x118B64, symSize: 0x1C }
  - { offset: 0x4C68E, size: 0x8, addend: 0x0, symName: __ZN5godot6ObjectD1Ev.cold.1, symObjAddr: 0x7604, symBinAddr: 0x118B64, symSize: 0x1C }
  - { offset: 0x4C6A3, size: 0x8, addend: 0x0, symName: __ZN5godot6ObjectD1Ev.cold.1, symObjAddr: 0x7604, symBinAddr: 0x118B64, symSize: 0x1C }
  - { offset: 0x4C6B8, size: 0x8, addend: 0x0, symName: __ZN5godot6ObjectD1Ev.cold.1, symObjAddr: 0x7604, symBinAddr: 0x118B64, symSize: 0x1C }
  - { offset: 0x4C6E8, size: 0x8, addend: 0x0, symName: __ZN5godot6ObjectD0Ev, symObjAddr: 0x1FDC, symBinAddr: 0x2860, symSize: 0x68 }
  - { offset: 0x4C815, size: 0x8, addend: 0x0, symName: __ZN5godot6ObjectD0Ev.cold.1, symObjAddr: 0x7620, symBinAddr: 0x118B80, symSize: 0x1C }
  - { offset: 0x4C831, size: 0x8, addend: 0x0, symName: __ZN5godot6ObjectD0Ev.cold.1, symObjAddr: 0x7620, symBinAddr: 0x118B80, symSize: 0x1C }
  - { offset: 0x4C846, size: 0x8, addend: 0x0, symName: __ZN5godot6ObjectD0Ev.cold.1, symObjAddr: 0x7620, symBinAddr: 0x118B80, symSize: 0x1C }
  - { offset: 0x4C85B, size: 0x8, addend: 0x0, symName: __ZN5godot6ObjectD0Ev.cold.1, symObjAddr: 0x7620, symBinAddr: 0x118B80, symSize: 0x1C }
  - { offset: 0x4C870, size: 0x8, addend: 0x0, symName: __ZN5godot6ObjectD0Ev.cold.1, symObjAddr: 0x7620, symBinAddr: 0x118B80, symSize: 0x1C }
  - { offset: 0x4C885, size: 0x8, addend: 0x0, symName: __ZN5godot6ObjectD0Ev.cold.1, symObjAddr: 0x7620, symBinAddr: 0x118B80, symSize: 0x1C }
  - { offset: 0x4C89C, size: 0x8, addend: 0x0, symName: __ZN5godot7WrappedD1Ev, symObjAddr: 0x2050, symBinAddr: 0x28C8, symSize: 0x74 }
  - { offset: 0x4CA0B, size: 0x8, addend: 0x0, symName: __ZN5godot7WrappedD1Ev.cold.1, symObjAddr: 0x763C, symBinAddr: 0x118B9C, symSize: 0x1C }
  - { offset: 0x4CA27, size: 0x8, addend: 0x0, symName: __ZN5godot7WrappedD1Ev.cold.1, symObjAddr: 0x763C, symBinAddr: 0x118B9C, symSize: 0x1C }
  - { offset: 0x4CA3C, size: 0x8, addend: 0x0, symName: __ZN5godot7WrappedD1Ev.cold.1, symObjAddr: 0x763C, symBinAddr: 0x118B9C, symSize: 0x1C }
  - { offset: 0x4CA51, size: 0x8, addend: 0x0, symName: __ZN5godot7WrappedD1Ev.cold.1, symObjAddr: 0x763C, symBinAddr: 0x118B9C, symSize: 0x1C }
  - { offset: 0x4CA80, size: 0x8, addend: 0x0, symName: __ZN5godot7WrappedD0Ev, symObjAddr: 0x20DC, symBinAddr: 0x293C, symSize: 0x68 }
  - { offset: 0x4CB95, size: 0x8, addend: 0x0, symName: __ZN5godot7WrappedD0Ev.cold.1, symObjAddr: 0x7658, symBinAddr: 0x118BB8, symSize: 0x1C }
  - { offset: 0x4CBB1, size: 0x8, addend: 0x0, symName: __ZN5godot7WrappedD0Ev.cold.1, symObjAddr: 0x7658, symBinAddr: 0x118BB8, symSize: 0x1C }
  - { offset: 0x4CBC6, size: 0x8, addend: 0x0, symName: __ZN5godot7WrappedD0Ev.cold.1, symObjAddr: 0x7658, symBinAddr: 0x118BB8, symSize: 0x1C }
  - { offset: 0x4CBDB, size: 0x8, addend: 0x0, symName: __ZN5godot7WrappedD0Ev.cold.1, symObjAddr: 0x7658, symBinAddr: 0x118BB8, symSize: 0x1C }
  - { offset: 0x4CBF0, size: 0x8, addend: 0x0, symName: __ZN5godot7WrappedD0Ev.cold.1, symObjAddr: 0x7658, symBinAddr: 0x118BB8, symSize: 0x1C }
  - { offset: 0x4CC76, size: 0x8, addend: 0x0, symName: __ZN5godot4ListINS_12PropertyInfoENS_16DefaultAllocatorEE5_Data5eraseEPNS3_7ElementE.cold.2, symObjAddr: 0x7694, symBinAddr: 0x118BF4, symSize: 0x20 }
  - { offset: 0x4CC8E, size: 0x8, addend: 0x0, symName: __ZN5godot4ListINS_12PropertyInfoENS_16DefaultAllocatorEE5_Data5eraseEPNS3_7ElementE.cold.1, symObjAddr: 0x7674, symBinAddr: 0x118BD4, symSize: 0x20 }
  - { offset: 0x4CCDE, size: 0x8, addend: 0x0, symName: __ZN5godot5TimerD1Ev, symObjAddr: 0x2234, symBinAddr: 0x2A5C, symSize: 0x74 }
  - { offset: 0x4CE95, size: 0x8, addend: 0x0, symName: __ZN5godot5TimerD1Ev.cold.1, symObjAddr: 0x76B4, symBinAddr: 0x118C14, symSize: 0x1C }
  - { offset: 0x4CEB1, size: 0x8, addend: 0x0, symName: __ZN5godot5TimerD1Ev.cold.1, symObjAddr: 0x76B4, symBinAddr: 0x118C14, symSize: 0x1C }
  - { offset: 0x4CEC6, size: 0x8, addend: 0x0, symName: __ZN5godot5TimerD1Ev.cold.1, symObjAddr: 0x76B4, symBinAddr: 0x118C14, symSize: 0x1C }
  - { offset: 0x4CEDB, size: 0x8, addend: 0x0, symName: __ZN5godot5TimerD1Ev.cold.1, symObjAddr: 0x76B4, symBinAddr: 0x118C14, symSize: 0x1C }
  - { offset: 0x4CEF0, size: 0x8, addend: 0x0, symName: __ZN5godot5TimerD1Ev.cold.1, symObjAddr: 0x76B4, symBinAddr: 0x118C14, symSize: 0x1C }
  - { offset: 0x4CF05, size: 0x8, addend: 0x0, symName: __ZN5godot5TimerD1Ev.cold.1, symObjAddr: 0x76B4, symBinAddr: 0x118C14, symSize: 0x1C }
  - { offset: 0x4CF1A, size: 0x8, addend: 0x0, symName: __ZN5godot5TimerD1Ev.cold.1, symObjAddr: 0x76B4, symBinAddr: 0x118C14, symSize: 0x1C }
  - { offset: 0x4CF4E, size: 0x8, addend: 0x0, symName: __ZN5godot5TimerD0Ev, symObjAddr: 0x22C0, symBinAddr: 0x2AD0, symSize: 0x68 }
  - { offset: 0x4D0AD, size: 0x8, addend: 0x0, symName: __ZN5godot5TimerD0Ev.cold.1, symObjAddr: 0x76D0, symBinAddr: 0x118C30, symSize: 0x1C }
  - { offset: 0x4D0C9, size: 0x8, addend: 0x0, symName: __ZN5godot5TimerD0Ev.cold.1, symObjAddr: 0x76D0, symBinAddr: 0x118C30, symSize: 0x1C }
  - { offset: 0x4D0DE, size: 0x8, addend: 0x0, symName: __ZN5godot5TimerD0Ev.cold.1, symObjAddr: 0x76D0, symBinAddr: 0x118C30, symSize: 0x1C }
  - { offset: 0x4D0F3, size: 0x8, addend: 0x0, symName: __ZN5godot5TimerD0Ev.cold.1, symObjAddr: 0x76D0, symBinAddr: 0x118C30, symSize: 0x1C }
  - { offset: 0x4D108, size: 0x8, addend: 0x0, symName: __ZN5godot5TimerD0Ev.cold.1, symObjAddr: 0x76D0, symBinAddr: 0x118C30, symSize: 0x1C }
  - { offset: 0x4D11D, size: 0x8, addend: 0x0, symName: __ZN5godot5TimerD0Ev.cold.1, symObjAddr: 0x76D0, symBinAddr: 0x118C30, symSize: 0x1C }
  - { offset: 0x4D132, size: 0x8, addend: 0x0, symName: __ZN5godot5TimerD0Ev.cold.1, symObjAddr: 0x76D0, symBinAddr: 0x118C30, symSize: 0x1C }
  - { offset: 0x4D147, size: 0x8, addend: 0x0, symName: __ZN5godot5TimerD0Ev.cold.1, symObjAddr: 0x76D0, symBinAddr: 0x118C30, symSize: 0x1C }
  - { offset: 0x4D167, size: 0x8, addend: 0x0, symName: __ZN5godot8internal23EngineClassRegistrationINS_6ObjectEE8callbackEv, symObjAddr: 0x2334, symBinAddr: 0x2B38, symSize: 0x38 }
  - { offset: 0x4D1B3, size: 0x8, addend: 0x0, symName: __ZN5godot8internal23EngineClassRegistrationINS_6ObjectEE8callbackEv.cold.1, symObjAddr: 0x76EC, symBinAddr: 0x118C4C, symSize: 0x5C }
  - { offset: 0x4D22B, size: 0x8, addend: 0x0, symName: __ZN5godot6Object28_gde_binding_create_callbackEPvS1_, symObjAddr: 0x237C, symBinAddr: 0x2B70, symSize: 0x44 }
  - { offset: 0x4D2AC, size: 0x8, addend: 0x0, symName: __ZN5godot6Object26_gde_binding_free_callbackEPvS1_S1_, symObjAddr: 0x23C0, symBinAddr: 0x2BB4, symSize: 0x34 }
  - { offset: 0x4D306, size: 0x8, addend: 0x0, symName: __ZN5godot6Object31_gde_binding_reference_callbackEPvS1_h, symObjAddr: 0x23F4, symBinAddr: 0x2BE8, symSize: 0x8 }
  - { offset: 0x4D34E, size: 0x8, addend: 0x0, symName: __ZN5godot8internal23EngineClassRegistrationINS_16ClassDBSingletonEE8callbackEv, symObjAddr: 0x23FC, symBinAddr: 0x2BF0, symSize: 0x38 }
  - { offset: 0x4D39A, size: 0x8, addend: 0x0, symName: __ZN5godot8internal23EngineClassRegistrationINS_16ClassDBSingletonEE8callbackEv.cold.1, symObjAddr: 0x7748, symBinAddr: 0x118CA8, symSize: 0x5C }
  - { offset: 0x4D412, size: 0x8, addend: 0x0, symName: __ZN5godot16ClassDBSingleton28_gde_binding_create_callbackEPvS1_, symObjAddr: 0x2444, symBinAddr: 0x2C28, symSize: 0x48 }
  - { offset: 0x4D4B9, size: 0x8, addend: 0x0, symName: __ZN5godot16ClassDBSingleton26_gde_binding_free_callbackEPvS1_S1_, symObjAddr: 0x248C, symBinAddr: 0x2C70, symSize: 0x34 }
  - { offset: 0x4D513, size: 0x8, addend: 0x0, symName: __ZN5godot16ClassDBSingleton31_gde_binding_reference_callbackEPvS1_h, symObjAddr: 0x24C0, symBinAddr: 0x2CA4, symSize: 0x8 }
  - { offset: 0x4D55B, size: 0x8, addend: 0x0, symName: __ZN5godot8internal23EngineClassRegistrationINS_10RefCountedEE8callbackEv, symObjAddr: 0x24C8, symBinAddr: 0x2CAC, symSize: 0x38 }
  - { offset: 0x4D5A7, size: 0x8, addend: 0x0, symName: __ZN5godot8internal23EngineClassRegistrationINS_10RefCountedEE8callbackEv.cold.1, symObjAddr: 0x77A4, symBinAddr: 0x118D04, symSize: 0x5C }
  - { offset: 0x4D61F, size: 0x8, addend: 0x0, symName: __ZN5godot10RefCounted28_gde_binding_create_callbackEPvS1_, symObjAddr: 0x2510, symBinAddr: 0x2CE4, symSize: 0x44 }
  - { offset: 0x4D6C6, size: 0x8, addend: 0x0, symName: __ZN5godot10RefCounted26_gde_binding_free_callbackEPvS1_S1_, symObjAddr: 0x2554, symBinAddr: 0x2D28, symSize: 0x34 }
  - { offset: 0x4D720, size: 0x8, addend: 0x0, symName: __ZN5godot10RefCounted31_gde_binding_reference_callbackEPvS1_h, symObjAddr: 0x2588, symBinAddr: 0x2D5C, symSize: 0x8 }
  - { offset: 0x4D77D, size: 0x8, addend: 0x0, symName: __ZN5godot10RefCountedD1Ev, symObjAddr: 0x2590, symBinAddr: 0x2D64, symSize: 0x74 }
  - { offset: 0x4D91C, size: 0x8, addend: 0x0, symName: __ZN5godot10RefCountedD1Ev.cold.1, symObjAddr: 0x7800, symBinAddr: 0x118D60, symSize: 0x1C }
  - { offset: 0x4D938, size: 0x8, addend: 0x0, symName: __ZN5godot10RefCountedD1Ev.cold.1, symObjAddr: 0x7800, symBinAddr: 0x118D60, symSize: 0x1C }
  - { offset: 0x4D94D, size: 0x8, addend: 0x0, symName: __ZN5godot10RefCountedD1Ev.cold.1, symObjAddr: 0x7800, symBinAddr: 0x118D60, symSize: 0x1C }
  - { offset: 0x4D962, size: 0x8, addend: 0x0, symName: __ZN5godot10RefCountedD1Ev.cold.1, symObjAddr: 0x7800, symBinAddr: 0x118D60, symSize: 0x1C }
  - { offset: 0x4D977, size: 0x8, addend: 0x0, symName: __ZN5godot10RefCountedD1Ev.cold.1, symObjAddr: 0x7800, symBinAddr: 0x118D60, symSize: 0x1C }
  - { offset: 0x4D98C, size: 0x8, addend: 0x0, symName: __ZN5godot10RefCountedD1Ev.cold.1, symObjAddr: 0x7800, symBinAddr: 0x118D60, symSize: 0x1C }
  - { offset: 0x4D9BF, size: 0x8, addend: 0x0, symName: __ZN5godot10RefCountedD0Ev, symObjAddr: 0x261C, symBinAddr: 0x2DD8, symSize: 0x68 }
  - { offset: 0x4DB06, size: 0x8, addend: 0x0, symName: __ZN5godot10RefCountedD0Ev.cold.1, symObjAddr: 0x781C, symBinAddr: 0x118D7C, symSize: 0x1C }
  - { offset: 0x4DB22, size: 0x8, addend: 0x0, symName: __ZN5godot10RefCountedD0Ev.cold.1, symObjAddr: 0x781C, symBinAddr: 0x118D7C, symSize: 0x1C }
  - { offset: 0x4DB37, size: 0x8, addend: 0x0, symName: __ZN5godot10RefCountedD0Ev.cold.1, symObjAddr: 0x781C, symBinAddr: 0x118D7C, symSize: 0x1C }
  - { offset: 0x4DB4C, size: 0x8, addend: 0x0, symName: __ZN5godot10RefCountedD0Ev.cold.1, symObjAddr: 0x781C, symBinAddr: 0x118D7C, symSize: 0x1C }
  - { offset: 0x4DB61, size: 0x8, addend: 0x0, symName: __ZN5godot10RefCountedD0Ev.cold.1, symObjAddr: 0x781C, symBinAddr: 0x118D7C, symSize: 0x1C }
  - { offset: 0x4DB76, size: 0x8, addend: 0x0, symName: __ZN5godot10RefCountedD0Ev.cold.1, symObjAddr: 0x781C, symBinAddr: 0x118D7C, symSize: 0x1C }
  - { offset: 0x4DB8B, size: 0x8, addend: 0x0, symName: __ZN5godot10RefCountedD0Ev.cold.1, symObjAddr: 0x781C, symBinAddr: 0x118D7C, symSize: 0x1C }
  - { offset: 0x4DBAA, size: 0x8, addend: 0x0, symName: __ZN5godot8internal23EngineClassRegistrationINS_6LoggerEE8callbackEv, symObjAddr: 0x2690, symBinAddr: 0x2E40, symSize: 0x38 }
  - { offset: 0x4DBF6, size: 0x8, addend: 0x0, symName: __ZN5godot8internal23EngineClassRegistrationINS_6LoggerEE8callbackEv.cold.1, symObjAddr: 0x7838, symBinAddr: 0x118D98, symSize: 0x5C }
  - { offset: 0x4DC6E, size: 0x8, addend: 0x0, symName: __ZN5godot6Logger28_gde_binding_create_callbackEPvS1_, symObjAddr: 0x26D8, symBinAddr: 0x2E78, symSize: 0x48 }
  - { offset: 0x4DD3B, size: 0x8, addend: 0x0, symName: __ZN5godot6Logger26_gde_binding_free_callbackEPvS1_S1_, symObjAddr: 0x2720, symBinAddr: 0x2EC0, symSize: 0x34 }
  - { offset: 0x4DD95, size: 0x8, addend: 0x0, symName: __ZN5godot6Logger31_gde_binding_reference_callbackEPvS1_h, symObjAddr: 0x2754, symBinAddr: 0x2EF4, symSize: 0x8 }
  - { offset: 0x4DDDD, size: 0x8, addend: 0x0, symName: __ZN5godot8internal23EngineClassRegistrationINS_13DisplayServerEE8callbackEv, symObjAddr: 0x275C, symBinAddr: 0x2EFC, symSize: 0x38 }
  - { offset: 0x4DE29, size: 0x8, addend: 0x0, symName: __ZN5godot8internal23EngineClassRegistrationINS_13DisplayServerEE8callbackEv.cold.1, symObjAddr: 0x7894, symBinAddr: 0x118DF4, symSize: 0x5C }
  - { offset: 0x4DEA1, size: 0x8, addend: 0x0, symName: __ZN5godot13DisplayServer28_gde_binding_create_callbackEPvS1_, symObjAddr: 0x27A4, symBinAddr: 0x2F34, symSize: 0x48 }
  - { offset: 0x4DF48, size: 0x8, addend: 0x0, symName: __ZN5godot13DisplayServer26_gde_binding_free_callbackEPvS1_S1_, symObjAddr: 0x27EC, symBinAddr: 0x2F7C, symSize: 0x34 }
  - { offset: 0x4DFA2, size: 0x8, addend: 0x0, symName: __ZN5godot13DisplayServer31_gde_binding_reference_callbackEPvS1_h, symObjAddr: 0x2820, symBinAddr: 0x2FB0, symSize: 0x8 }
  - { offset: 0x4DFEA, size: 0x8, addend: 0x0, symName: __ZN5godot8internal23EngineClassRegistrationINS_4NodeEE8callbackEv, symObjAddr: 0x2828, symBinAddr: 0x2FB8, symSize: 0x38 }
  - { offset: 0x4E036, size: 0x8, addend: 0x0, symName: __ZN5godot8internal23EngineClassRegistrationINS_4NodeEE8callbackEv.cold.1, symObjAddr: 0x78F0, symBinAddr: 0x118E50, symSize: 0x5C }
  - { offset: 0x4E0AE, size: 0x8, addend: 0x0, symName: __ZN5godot4Node28_gde_binding_create_callbackEPvS1_, symObjAddr: 0x2870, symBinAddr: 0x2FF0, symSize: 0x48 }
  - { offset: 0x4E155, size: 0x8, addend: 0x0, symName: __ZN5godot4Node26_gde_binding_free_callbackEPvS1_S1_, symObjAddr: 0x28B8, symBinAddr: 0x3038, symSize: 0x34 }
  - { offset: 0x4E1AF, size: 0x8, addend: 0x0, symName: __ZN5godot4Node31_gde_binding_reference_callbackEPvS1_h, symObjAddr: 0x28EC, symBinAddr: 0x306C, symSize: 0x8 }
  - { offset: 0x4E1F7, size: 0x8, addend: 0x0, symName: __ZN5godot8internal23EngineClassRegistrationINS_5TimerEE8callbackEv, symObjAddr: 0x28F4, symBinAddr: 0x3074, symSize: 0x38 }
  - { offset: 0x4E243, size: 0x8, addend: 0x0, symName: __ZN5godot8internal23EngineClassRegistrationINS_5TimerEE8callbackEv.cold.1, symObjAddr: 0x794C, symBinAddr: 0x118EAC, symSize: 0x5C }
  - { offset: 0x4E2BB, size: 0x8, addend: 0x0, symName: __ZN5godot5Timer28_gde_binding_create_callbackEPvS1_, symObjAddr: 0x293C, symBinAddr: 0x30AC, symSize: 0x44 }
  - { offset: 0x4E388, size: 0x8, addend: 0x0, symName: __ZN5godot5Timer26_gde_binding_free_callbackEPvS1_S1_, symObjAddr: 0x2980, symBinAddr: 0x30F0, symSize: 0x34 }
  - { offset: 0x4E3E2, size: 0x8, addend: 0x0, symName: __ZN5godot5Timer31_gde_binding_reference_callbackEPvS1_h, symObjAddr: 0x29B4, symBinAddr: 0x3124, symSize: 0x8 }
  - { offset: 0x4E42A, size: 0x8, addend: 0x0, symName: __ZN5godot8internal23EngineClassRegistrationINS_10ConfigFileEE8callbackEv, symObjAddr: 0x29BC, symBinAddr: 0x312C, symSize: 0x38 }
  - { offset: 0x4E476, size: 0x8, addend: 0x0, symName: __ZN5godot8internal23EngineClassRegistrationINS_10ConfigFileEE8callbackEv.cold.1, symObjAddr: 0x79A8, symBinAddr: 0x118F08, symSize: 0x5C }
  - { offset: 0x4E4EE, size: 0x8, addend: 0x0, symName: __ZN5godot10ConfigFile28_gde_binding_create_callbackEPvS1_, symObjAddr: 0x2A04, symBinAddr: 0x3164, symSize: 0x44 }
  - { offset: 0x4E5BB, size: 0x8, addend: 0x0, symName: __ZN5godot10ConfigFile26_gde_binding_free_callbackEPvS1_S1_, symObjAddr: 0x2A48, symBinAddr: 0x31A8, symSize: 0x34 }
  - { offset: 0x4E615, size: 0x8, addend: 0x0, symName: __ZN5godot10ConfigFile31_gde_binding_reference_callbackEPvS1_h, symObjAddr: 0x2A7C, symBinAddr: 0x31DC, symSize: 0x8 }
  - { offset: 0x4E672, size: 0x8, addend: 0x0, symName: __ZN5godot10ConfigFileD1Ev, symObjAddr: 0x2A84, symBinAddr: 0x31E4, symSize: 0x74 }
  - { offset: 0x4E829, size: 0x8, addend: 0x0, symName: __ZN5godot10ConfigFileD1Ev.cold.1, symObjAddr: 0x7A04, symBinAddr: 0x118F64, symSize: 0x1C }
  - { offset: 0x4E845, size: 0x8, addend: 0x0, symName: __ZN5godot10ConfigFileD1Ev.cold.1, symObjAddr: 0x7A04, symBinAddr: 0x118F64, symSize: 0x1C }
  - { offset: 0x4E85A, size: 0x8, addend: 0x0, symName: __ZN5godot10ConfigFileD1Ev.cold.1, symObjAddr: 0x7A04, symBinAddr: 0x118F64, symSize: 0x1C }
  - { offset: 0x4E86F, size: 0x8, addend: 0x0, symName: __ZN5godot10ConfigFileD1Ev.cold.1, symObjAddr: 0x7A04, symBinAddr: 0x118F64, symSize: 0x1C }
  - { offset: 0x4E884, size: 0x8, addend: 0x0, symName: __ZN5godot10ConfigFileD1Ev.cold.1, symObjAddr: 0x7A04, symBinAddr: 0x118F64, symSize: 0x1C }
  - { offset: 0x4E899, size: 0x8, addend: 0x0, symName: __ZN5godot10ConfigFileD1Ev.cold.1, symObjAddr: 0x7A04, symBinAddr: 0x118F64, symSize: 0x1C }
  - { offset: 0x4E8AE, size: 0x8, addend: 0x0, symName: __ZN5godot10ConfigFileD1Ev.cold.1, symObjAddr: 0x7A04, symBinAddr: 0x118F64, symSize: 0x1C }
  - { offset: 0x4E8E2, size: 0x8, addend: 0x0, symName: __ZN5godot10ConfigFileD0Ev, symObjAddr: 0x2B10, symBinAddr: 0x3258, symSize: 0x68 }
  - { offset: 0x4EA41, size: 0x8, addend: 0x0, symName: __ZN5godot10ConfigFileD0Ev.cold.1, symObjAddr: 0x7A20, symBinAddr: 0x118F80, symSize: 0x1C }
  - { offset: 0x4EA5D, size: 0x8, addend: 0x0, symName: __ZN5godot10ConfigFileD0Ev.cold.1, symObjAddr: 0x7A20, symBinAddr: 0x118F80, symSize: 0x1C }
  - { offset: 0x4EA72, size: 0x8, addend: 0x0, symName: __ZN5godot10ConfigFileD0Ev.cold.1, symObjAddr: 0x7A20, symBinAddr: 0x118F80, symSize: 0x1C }
  - { offset: 0x4EA87, size: 0x8, addend: 0x0, symName: __ZN5godot10ConfigFileD0Ev.cold.1, symObjAddr: 0x7A20, symBinAddr: 0x118F80, symSize: 0x1C }
  - { offset: 0x4EA9C, size: 0x8, addend: 0x0, symName: __ZN5godot10ConfigFileD0Ev.cold.1, symObjAddr: 0x7A20, symBinAddr: 0x118F80, symSize: 0x1C }
  - { offset: 0x4EAB1, size: 0x8, addend: 0x0, symName: __ZN5godot10ConfigFileD0Ev.cold.1, symObjAddr: 0x7A20, symBinAddr: 0x118F80, symSize: 0x1C }
  - { offset: 0x4EAC6, size: 0x8, addend: 0x0, symName: __ZN5godot10ConfigFileD0Ev.cold.1, symObjAddr: 0x7A20, symBinAddr: 0x118F80, symSize: 0x1C }
  - { offset: 0x4EADB, size: 0x8, addend: 0x0, symName: __ZN5godot10ConfigFileD0Ev.cold.1, symObjAddr: 0x7A20, symBinAddr: 0x118F80, symSize: 0x1C }
  - { offset: 0x4EAFB, size: 0x8, addend: 0x0, symName: __ZN5godot8internal23EngineClassRegistrationINS_15ScriptBacktraceEE8callbackEv, symObjAddr: 0x2B84, symBinAddr: 0x32C0, symSize: 0x38 }
  - { offset: 0x4EB47, size: 0x8, addend: 0x0, symName: __ZN5godot8internal23EngineClassRegistrationINS_15ScriptBacktraceEE8callbackEv.cold.1, symObjAddr: 0x7A3C, symBinAddr: 0x118F9C, symSize: 0x5C }
  - { offset: 0x4EBBF, size: 0x8, addend: 0x0, symName: __ZN5godot15ScriptBacktrace28_gde_binding_create_callbackEPvS1_, symObjAddr: 0x2BCC, symBinAddr: 0x32F8, symSize: 0x44 }
  - { offset: 0x4EC8C, size: 0x8, addend: 0x0, symName: __ZN5godot15ScriptBacktrace26_gde_binding_free_callbackEPvS1_S1_, symObjAddr: 0x2C10, symBinAddr: 0x333C, symSize: 0x34 }
  - { offset: 0x4ECE6, size: 0x8, addend: 0x0, symName: __ZN5godot15ScriptBacktrace31_gde_binding_reference_callbackEPvS1_h, symObjAddr: 0x2C44, symBinAddr: 0x3370, symSize: 0x8 }
  - { offset: 0x4ED43, size: 0x8, addend: 0x0, symName: __ZN5godot15ScriptBacktraceD1Ev, symObjAddr: 0x2C4C, symBinAddr: 0x3378, symSize: 0x74 }
  - { offset: 0x4EEFA, size: 0x8, addend: 0x0, symName: __ZN5godot15ScriptBacktraceD1Ev.cold.1, symObjAddr: 0x7A98, symBinAddr: 0x118FF8, symSize: 0x1C }
  - { offset: 0x4EF16, size: 0x8, addend: 0x0, symName: __ZN5godot15ScriptBacktraceD1Ev.cold.1, symObjAddr: 0x7A98, symBinAddr: 0x118FF8, symSize: 0x1C }
  - { offset: 0x4EF2B, size: 0x8, addend: 0x0, symName: __ZN5godot15ScriptBacktraceD1Ev.cold.1, symObjAddr: 0x7A98, symBinAddr: 0x118FF8, symSize: 0x1C }
  - { offset: 0x4EF40, size: 0x8, addend: 0x0, symName: __ZN5godot15ScriptBacktraceD1Ev.cold.1, symObjAddr: 0x7A98, symBinAddr: 0x118FF8, symSize: 0x1C }
  - { offset: 0x4EF55, size: 0x8, addend: 0x0, symName: __ZN5godot15ScriptBacktraceD1Ev.cold.1, symObjAddr: 0x7A98, symBinAddr: 0x118FF8, symSize: 0x1C }
  - { offset: 0x4EF6A, size: 0x8, addend: 0x0, symName: __ZN5godot15ScriptBacktraceD1Ev.cold.1, symObjAddr: 0x7A98, symBinAddr: 0x118FF8, symSize: 0x1C }
  - { offset: 0x4EF7F, size: 0x8, addend: 0x0, symName: __ZN5godot15ScriptBacktraceD1Ev.cold.1, symObjAddr: 0x7A98, symBinAddr: 0x118FF8, symSize: 0x1C }
  - { offset: 0x4EFB3, size: 0x8, addend: 0x0, symName: __ZN5godot15ScriptBacktraceD0Ev, symObjAddr: 0x2CD8, symBinAddr: 0x33EC, symSize: 0x68 }
  - { offset: 0x4F112, size: 0x8, addend: 0x0, symName: __ZN5godot15ScriptBacktraceD0Ev.cold.1, symObjAddr: 0x7AB4, symBinAddr: 0x119014, symSize: 0x1C }
  - { offset: 0x4F12E, size: 0x8, addend: 0x0, symName: __ZN5godot15ScriptBacktraceD0Ev.cold.1, symObjAddr: 0x7AB4, symBinAddr: 0x119014, symSize: 0x1C }
  - { offset: 0x4F143, size: 0x8, addend: 0x0, symName: __ZN5godot15ScriptBacktraceD0Ev.cold.1, symObjAddr: 0x7AB4, symBinAddr: 0x119014, symSize: 0x1C }
  - { offset: 0x4F158, size: 0x8, addend: 0x0, symName: __ZN5godot15ScriptBacktraceD0Ev.cold.1, symObjAddr: 0x7AB4, symBinAddr: 0x119014, symSize: 0x1C }
  - { offset: 0x4F16D, size: 0x8, addend: 0x0, symName: __ZN5godot15ScriptBacktraceD0Ev.cold.1, symObjAddr: 0x7AB4, symBinAddr: 0x119014, symSize: 0x1C }
  - { offset: 0x4F182, size: 0x8, addend: 0x0, symName: __ZN5godot15ScriptBacktraceD0Ev.cold.1, symObjAddr: 0x7AB4, symBinAddr: 0x119014, symSize: 0x1C }
  - { offset: 0x4F197, size: 0x8, addend: 0x0, symName: __ZN5godot15ScriptBacktraceD0Ev.cold.1, symObjAddr: 0x7AB4, symBinAddr: 0x119014, symSize: 0x1C }
  - { offset: 0x4F1AC, size: 0x8, addend: 0x0, symName: __ZN5godot15ScriptBacktraceD0Ev.cold.1, symObjAddr: 0x7AB4, symBinAddr: 0x119014, symSize: 0x1C }
  - { offset: 0x4F1CC, size: 0x8, addend: 0x0, symName: __ZN5godot8internal23EngineClassRegistrationINS_2OSEE8callbackEv, symObjAddr: 0x2D4C, symBinAddr: 0x3454, symSize: 0x38 }
  - { offset: 0x4F218, size: 0x8, addend: 0x0, symName: __ZN5godot8internal23EngineClassRegistrationINS_2OSEE8callbackEv.cold.1, symObjAddr: 0x7AD0, symBinAddr: 0x119030, symSize: 0x5C }
  - { offset: 0x4F290, size: 0x8, addend: 0x0, symName: __ZN5godot2OS28_gde_binding_create_callbackEPvS1_, symObjAddr: 0x2D94, symBinAddr: 0x348C, symSize: 0x48 }
  - { offset: 0x4F337, size: 0x8, addend: 0x0, symName: __ZN5godot2OS26_gde_binding_free_callbackEPvS1_S1_, symObjAddr: 0x2DDC, symBinAddr: 0x34D4, symSize: 0x34 }
  - { offset: 0x4F391, size: 0x8, addend: 0x0, symName: __ZN5godot2OS31_gde_binding_reference_callbackEPvS1_h, symObjAddr: 0x2E10, symBinAddr: 0x3508, symSize: 0x8 }
  - { offset: 0x4F3D9, size: 0x8, addend: 0x0, symName: __ZN5godot8internal23EngineClassRegistrationINS_15ProjectSettingsEE8callbackEv, symObjAddr: 0x2E18, symBinAddr: 0x3510, symSize: 0x38 }
  - { offset: 0x4F425, size: 0x8, addend: 0x0, symName: __ZN5godot8internal23EngineClassRegistrationINS_15ProjectSettingsEE8callbackEv.cold.1, symObjAddr: 0x7B2C, symBinAddr: 0x11908C, symSize: 0x5C }
  - { offset: 0x4F49D, size: 0x8, addend: 0x0, symName: __ZN5godot15ProjectSettings28_gde_binding_create_callbackEPvS1_, symObjAddr: 0x2E60, symBinAddr: 0x3548, symSize: 0x48 }
  - { offset: 0x4F544, size: 0x8, addend: 0x0, symName: __ZN5godot15ProjectSettings26_gde_binding_free_callbackEPvS1_S1_, symObjAddr: 0x2EA8, symBinAddr: 0x3590, symSize: 0x34 }
  - { offset: 0x4F59E, size: 0x8, addend: 0x0, symName: __ZN5godot15ProjectSettings31_gde_binding_reference_callbackEPvS1_h, symObjAddr: 0x2EDC, symBinAddr: 0x35C4, symSize: 0x8 }
  - { offset: 0x4F5E6, size: 0x8, addend: 0x0, symName: __ZN5godot8internal23EngineClassRegistrationINS_14ResourceLoaderEE8callbackEv, symObjAddr: 0x2EE4, symBinAddr: 0x35CC, symSize: 0x38 }
  - { offset: 0x4F632, size: 0x8, addend: 0x0, symName: __ZN5godot8internal23EngineClassRegistrationINS_14ResourceLoaderEE8callbackEv.cold.1, symObjAddr: 0x7B88, symBinAddr: 0x1190E8, symSize: 0x5C }
  - { offset: 0x4F6AA, size: 0x8, addend: 0x0, symName: __ZN5godot14ResourceLoader28_gde_binding_create_callbackEPvS1_, symObjAddr: 0x2F2C, symBinAddr: 0x3604, symSize: 0x48 }
  - { offset: 0x4F751, size: 0x8, addend: 0x0, symName: __ZN5godot14ResourceLoader26_gde_binding_free_callbackEPvS1_S1_, symObjAddr: 0x2F74, symBinAddr: 0x364C, symSize: 0x34 }
  - { offset: 0x4F7AB, size: 0x8, addend: 0x0, symName: __ZN5godot14ResourceLoader31_gde_binding_reference_callbackEPvS1_h, symObjAddr: 0x2FA8, symBinAddr: 0x3680, symSize: 0x8 }
  - { offset: 0x4F7F3, size: 0x8, addend: 0x0, symName: __ZN5godot8internal23EngineClassRegistrationINS_8ResourceEE8callbackEv, symObjAddr: 0x2FB0, symBinAddr: 0x3688, symSize: 0x38 }
  - { offset: 0x4F83F, size: 0x8, addend: 0x0, symName: __ZN5godot8internal23EngineClassRegistrationINS_8ResourceEE8callbackEv.cold.1, symObjAddr: 0x7BE4, symBinAddr: 0x119144, symSize: 0x5C }
  - { offset: 0x4F8B7, size: 0x8, addend: 0x0, symName: __ZN5godot8Resource28_gde_binding_create_callbackEPvS1_, symObjAddr: 0x2FF8, symBinAddr: 0x36C0, symSize: 0x48 }
  - { offset: 0x4F984, size: 0x8, addend: 0x0, symName: __ZN5godot8Resource26_gde_binding_free_callbackEPvS1_S1_, symObjAddr: 0x3040, symBinAddr: 0x3708, symSize: 0x34 }
  - { offset: 0x4F9DE, size: 0x8, addend: 0x0, symName: __ZN5godot8Resource31_gde_binding_reference_callbackEPvS1_h, symObjAddr: 0x3074, symBinAddr: 0x373C, symSize: 0x8 }
  - { offset: 0x4FA26, size: 0x8, addend: 0x0, symName: __ZN5godot8internal23EngineClassRegistrationINS_6ScriptEE8callbackEv, symObjAddr: 0x307C, symBinAddr: 0x3744, symSize: 0x38 }
  - { offset: 0x4FA72, size: 0x8, addend: 0x0, symName: __ZN5godot8internal23EngineClassRegistrationINS_6ScriptEE8callbackEv.cold.1, symObjAddr: 0x7C40, symBinAddr: 0x1191A0, symSize: 0x5C }
  - { offset: 0x4FAEA, size: 0x8, addend: 0x0, symName: __ZN5godot6Script28_gde_binding_create_callbackEPvS1_, symObjAddr: 0x30C4, symBinAddr: 0x377C, symSize: 0x44 }
  - { offset: 0x4FBDD, size: 0x8, addend: 0x0, symName: __ZN5godot6Script26_gde_binding_free_callbackEPvS1_S1_, symObjAddr: 0x3108, symBinAddr: 0x37C0, symSize: 0x34 }
  - { offset: 0x4FC37, size: 0x8, addend: 0x0, symName: __ZN5godot6Script31_gde_binding_reference_callbackEPvS1_h, symObjAddr: 0x313C, symBinAddr: 0x37F4, symSize: 0x8 }
  - { offset: 0x4FCB0, size: 0x8, addend: 0x0, symName: __ZN5godot6ScriptD1Ev, symObjAddr: 0x3144, symBinAddr: 0x37FC, symSize: 0x74 }
  - { offset: 0x4FE7F, size: 0x8, addend: 0x0, symName: __ZN5godot6ScriptD1Ev.cold.1, symObjAddr: 0x7C9C, symBinAddr: 0x1191FC, symSize: 0x1C }
  - { offset: 0x4FE9B, size: 0x8, addend: 0x0, symName: __ZN5godot6ScriptD1Ev.cold.1, symObjAddr: 0x7C9C, symBinAddr: 0x1191FC, symSize: 0x1C }
  - { offset: 0x4FEB0, size: 0x8, addend: 0x0, symName: __ZN5godot6ScriptD1Ev.cold.1, symObjAddr: 0x7C9C, symBinAddr: 0x1191FC, symSize: 0x1C }
  - { offset: 0x4FEC5, size: 0x8, addend: 0x0, symName: __ZN5godot6ScriptD1Ev.cold.1, symObjAddr: 0x7C9C, symBinAddr: 0x1191FC, symSize: 0x1C }
  - { offset: 0x4FEDA, size: 0x8, addend: 0x0, symName: __ZN5godot6ScriptD1Ev.cold.1, symObjAddr: 0x7C9C, symBinAddr: 0x1191FC, symSize: 0x1C }
  - { offset: 0x4FEEF, size: 0x8, addend: 0x0, symName: __ZN5godot6ScriptD1Ev.cold.1, symObjAddr: 0x7C9C, symBinAddr: 0x1191FC, symSize: 0x1C }
  - { offset: 0x4FF04, size: 0x8, addend: 0x0, symName: __ZN5godot6ScriptD1Ev.cold.1, symObjAddr: 0x7C9C, symBinAddr: 0x1191FC, symSize: 0x1C }
  - { offset: 0x4FF19, size: 0x8, addend: 0x0, symName: __ZN5godot6ScriptD1Ev.cold.1, symObjAddr: 0x7C9C, symBinAddr: 0x1191FC, symSize: 0x1C }
  - { offset: 0x4FF4E, size: 0x8, addend: 0x0, symName: __ZN5godot6ScriptD0Ev, symObjAddr: 0x31D0, symBinAddr: 0x3870, symSize: 0x68 }
  - { offset: 0x500C5, size: 0x8, addend: 0x0, symName: __ZN5godot6ScriptD0Ev.cold.1, symObjAddr: 0x7CB8, symBinAddr: 0x119218, symSize: 0x1C }
  - { offset: 0x500E1, size: 0x8, addend: 0x0, symName: __ZN5godot6ScriptD0Ev.cold.1, symObjAddr: 0x7CB8, symBinAddr: 0x119218, symSize: 0x1C }
  - { offset: 0x500F6, size: 0x8, addend: 0x0, symName: __ZN5godot6ScriptD0Ev.cold.1, symObjAddr: 0x7CB8, symBinAddr: 0x119218, symSize: 0x1C }
  - { offset: 0x5010B, size: 0x8, addend: 0x0, symName: __ZN5godot6ScriptD0Ev.cold.1, symObjAddr: 0x7CB8, symBinAddr: 0x119218, symSize: 0x1C }
  - { offset: 0x50120, size: 0x8, addend: 0x0, symName: __ZN5godot6ScriptD0Ev.cold.1, symObjAddr: 0x7CB8, symBinAddr: 0x119218, symSize: 0x1C }
  - { offset: 0x50135, size: 0x8, addend: 0x0, symName: __ZN5godot6ScriptD0Ev.cold.1, symObjAddr: 0x7CB8, symBinAddr: 0x119218, symSize: 0x1C }
  - { offset: 0x5014A, size: 0x8, addend: 0x0, symName: __ZN5godot6ScriptD0Ev.cold.1, symObjAddr: 0x7CB8, symBinAddr: 0x119218, symSize: 0x1C }
  - { offset: 0x5015F, size: 0x8, addend: 0x0, symName: __ZN5godot6ScriptD0Ev.cold.1, symObjAddr: 0x7CB8, symBinAddr: 0x119218, symSize: 0x1C }
  - { offset: 0x50174, size: 0x8, addend: 0x0, symName: __ZN5godot6ScriptD0Ev.cold.1, symObjAddr: 0x7CB8, symBinAddr: 0x119218, symSize: 0x1C }
  - { offset: 0x502F8, size: 0x8, addend: 0x0, symName: __ZNKSt3__121__murmur2_or_cityhashImLm64EEclB8nn190102EPKvm, symObjAddr: 0x3418, symBinAddr: 0x3A4C, symSize: 0x438 }
  - { offset: 0x51465, size: 0x8, addend: 0x0, symName: __ZNSt3__112basic_stringIcNS_11char_traitsIcEENS_9allocatorIcEEE25__init_copy_ctor_externalEPKcm, symObjAddr: 0x3C74, symBinAddr: 0x4204, symSize: 0x78 }
  - { offset: 0x5166B, size: 0x8, addend: 0x0, symName: __ZNSt3__112__hash_tableINS_17__hash_value_typeINS_4pairINS_12basic_stringIcNS_11char_traitsIcEENS_9allocatorIcEEEEiEENS_6chrono10time_pointINSA_12steady_clockENSA_8durationIxNS_5ratioILl1ELl1000000000EEEEEEEEENS_22__unordered_map_hasherIS9_SI_N12LegacyLogger14SourceLineHashENS_8equal_toIS9_EELb1EEENS_21__unordered_map_equalIS9_SI_SN_SL_Lb1EEENS6_ISI_EEE11__do_rehashILb1EEEvm, symObjAddr: 0x3CFC, symBinAddr: 0x427C, symSize: 0x158 }
  - { offset: 0x51676, size: 0x8, addend: 0x0, symName: __ZNSt3__112__hash_tableINS_17__hash_value_typeINS_4pairINS_12basic_stringIcNS_11char_traitsIcEENS_9allocatorIcEEEEiEENS_6chrono10time_pointINSA_12steady_clockENSA_8durationIxNS_5ratioILl1ELl1000000000EEEEEEEEENS_22__unordered_map_hasherIS9_SI_N12LegacyLogger14SourceLineHashENS_8equal_toIS9_EELb1EEENS_21__unordered_map_equalIS9_SI_SN_SL_Lb1EEENS6_ISI_EEE11__do_rehashILb1EEEvm, symObjAddr: 0x3CFC, symBinAddr: 0x427C, symSize: 0x158 }
  - { offset: 0x51B26, size: 0x8, addend: 0x0, symName: __ZN6sentry4util5printIJA200_cA10_ciA2_cEEEvNS_5LevelERKN5godot7VariantEDpRKT_, symObjAddr: 0x3E9C, symBinAddr: 0x43D4, symSize: 0x1E8 }
  - { offset: 0x51C59, size: 0x8, addend: 0x0, symName: __ZN5godot16UtilityFunctions8printerrIJNS_7VariantEA200_cA10_ciA2_cEEEvRKS2_DpRKT_, symObjAddr: 0x41D8, symBinAddr: 0x4710, symSize: 0x154 }
  - { offset: 0x51DFB, size: 0x8, addend: 0x0, symName: __ZN5godot16UtilityFunctions5printIJNS_7VariantEA200_cA10_ciA2_cEEEvRKS2_DpRKT_, symObjAddr: 0x4084, symBinAddr: 0x45BC, symSize: 0x154 }
  - { offset: 0x5201E, size: 0x8, addend: 0x0, symName: __ZN5godot16UtilityFunctions8printerrIJNS_7VariantEA15_cPKcA3_cA10_cS5_A2_cS7_iS8_S3_S5_S8_A16_cS5_EEEvRKS2_DpRKT_, symObjAddr: 0x48A4, symBinAddr: 0x4DDC, symSize: 0x2F4 }
  - { offset: 0x52418, size: 0x8, addend: 0x0, symName: __ZN5godot16UtilityFunctions5printIJNS_7VariantEA15_cPKcA3_cA10_cS5_A2_cS7_iS8_S3_S5_S8_A16_cS5_EEEvRKS2_DpRKT_, symObjAddr: 0x45B0, symBinAddr: 0x4AE8, symSize: 0x2F4 }
  - { offset: 0x5286C, size: 0x8, addend: 0x0, symName: __ZNSt3__15arrayIN5godot7VariantELm16EED2Ev, symObjAddr: 0x4B98, symBinAddr: 0x50D0, symSize: 0x98 }
  - { offset: 0x52A25, size: 0x8, addend: 0x0, symName: __ZN5godot7CowDataIN11SentryEvent10StackFrameEE6resizeILb0EEENS_5ErrorEx.cold.4, symObjAddr: 0x7D34, symBinAddr: 0x119294, symSize: 0x20 }
  - { offset: 0x52A3D, size: 0x8, addend: 0x0, symName: __ZN5godot7CowDataIN11SentryEvent10StackFrameEE6resizeILb0EEENS_5ErrorEx.cold.5, symObjAddr: 0x7D54, symBinAddr: 0x1192B4, symSize: 0x20 }
  - { offset: 0x52A55, size: 0x8, addend: 0x0, symName: __ZN5godot7CowDataIN11SentryEvent10StackFrameEE6resizeILb0EEENS_5ErrorEx.cold.2, symObjAddr: 0x7CF4, symBinAddr: 0x119254, symSize: 0x20 }
  - { offset: 0x52A71, size: 0x8, addend: 0x0, symName: __ZN5godot7CowDataIN11SentryEvent10StackFrameEE6resizeILb0EEENS_5ErrorEx.cold.2, symObjAddr: 0x7CF4, symBinAddr: 0x119254, symSize: 0x20 }
  - { offset: 0x52A84, size: 0x8, addend: 0x0, symName: __ZN5godot7CowDataIN11SentryEvent10StackFrameEE6resizeILb0EEENS_5ErrorEx.cold.1, symObjAddr: 0x7CD4, symBinAddr: 0x119234, symSize: 0x20 }
  - { offset: 0x52AA0, size: 0x8, addend: 0x0, symName: __ZN5godot7CowDataIN11SentryEvent10StackFrameEE6resizeILb0EEENS_5ErrorEx.cold.1, symObjAddr: 0x7CD4, symBinAddr: 0x119234, symSize: 0x20 }
  - { offset: 0x52AB3, size: 0x8, addend: 0x0, symName: __ZN5godot7CowDataIN11SentryEvent10StackFrameEE6resizeILb0EEENS_5ErrorEx.cold.3, symObjAddr: 0x7D14, symBinAddr: 0x119274, symSize: 0x20 }
  - { offset: 0x52ACB, size: 0x8, addend: 0x0, symName: __ZN5godot7CowDataIN11SentryEvent10StackFrameEE6_unrefEv, symObjAddr: 0x4F84, symBinAddr: 0x5440, symSize: 0x68 }
  - { offset: 0x52C19, size: 0x8, addend: 0x0, symName: __ZN5godot7CowDataIN11SentryEvent10StackFrameEE14_copy_on_writeEv.cold.1, symObjAddr: 0x7D74, symBinAddr: 0x1192D4, symSize: 0xF0 }
  - { offset: 0x5333F, size: 0x8, addend: 0x0, symName: __ZNSt3__114__split_bufferIPNS_6chrono10time_pointINS1_12steady_clockENS1_8durationIxNS_5ratioILl1ELl1000000000EEEEEEENS_9allocatorIS9_EEE9push_backEOS9_, symObjAddr: 0x567C, symBinAddr: 0x5918, symSize: 0x184 }
  - { offset: 0x537F5, size: 0x8, addend: 0x0, symName: __ZNSt3__114__split_bufferIPNS_6chrono10time_pointINS1_12steady_clockENS1_8durationIxNS_5ratioILl1ELl1000000000EEEEEEENS_9allocatorIS9_EEE10push_frontEOS9_, symObjAddr: 0x5800, symBinAddr: 0x5A9C, symSize: 0x190 }
  - { offset: 0x53800, size: 0x8, addend: 0x0, symName: __ZNSt3__114__split_bufferIPNS_6chrono10time_pointINS1_12steady_clockENS1_8durationIxNS_5ratioILl1ELl1000000000EEEEEEENS_9allocatorIS9_EEE10push_frontEOS9_, symObjAddr: 0x5800, symBinAddr: 0x5A9C, symSize: 0x190 }
  - { offset: 0x53CEE, size: 0x8, addend: 0x0, symName: __ZN5godot6Object7cast_toINS_6ScriptEEEPT_PS0_, symObjAddr: 0x5990, symBinAddr: 0x5DBC, symSize: 0xE8 }
  - { offset: 0x53CF9, size: 0x8, addend: 0x0, symName: __ZN5godot6Object7cast_toINS_6ScriptEEEPT_PS0_.cold.1, symObjAddr: 0x7E64, symBinAddr: 0x1193C4, symSize: 0x5C }
  - { offset: 0x540D3, size: 0x8, addend: 0x0, symName: __ZNK5godot27CallableCustomMethodPointerI12LegacyLoggerJEE10get_objectEv, symObjAddr: 0x633C, symBinAddr: 0x6768, symSize: 0x8 }
  - { offset: 0x540FA, size: 0x8, addend: 0x0, symName: __ZNK5godot27CallableCustomMethodPointerI12LegacyLoggerJEE18get_argument_countERb, symObjAddr: 0x6344, symBinAddr: 0x6770, symSize: 0x10 }
  - { offset: 0x5412F, size: 0x8, addend: 0x0, symName: __ZNK5godot27CallableCustomMethodPointerI12LegacyLoggerJEE4callEPPKNS_7VariantEiRS3_R20GDExtensionCallError, symObjAddr: 0x6354, symBinAddr: 0x6780, symSize: 0x34 }
  - { offset: 0x541F7, size: 0x8, addend: 0x0, symName: __ZN5godot27CallableCustomMethodPointerI12LegacyLoggerJEED1Ev, symObjAddr: 0x6374, symBinAddr: 0x67B4, symSize: 0x4 }
  - { offset: 0x54222, size: 0x8, addend: 0x0, symName: __ZN5godot27CallableCustomMethodPointerI12LegacyLoggerJEED0Ev, symObjAddr: 0x6378, symBinAddr: 0x67B8, symSize: 0x4 }
  - { offset: 0x542B0, size: 0x8, addend: 0x0, symName: __ZNSt3__114basic_ifstreamIcNS_11char_traitsIcEEED1Ev, symObjAddr: 0x637C, symBinAddr: 0x67BC, symSize: 0x5C }
  - { offset: 0x543BA, size: 0x8, addend: 0x0, symName: __ZNSt3__113basic_filebufIcNS_11char_traitsIcEEE4syncEv, symObjAddr: 0x6B08, symBinAddr: 0x6E30, symSize: 0x238 }
  - { offset: 0x54697, size: 0x8, addend: 0x0, symName: __ZNSt3__113basic_filebufIcNS_11char_traitsIcEEE9underflowEv, symObjAddr: 0x6D6C, symBinAddr: 0x7068, symSize: 0x274 }
  - { offset: 0x546A2, size: 0x8, addend: 0x0, symName: __ZNSt3__114basic_ifstreamIcNS_11char_traitsIcEEED0Ev, symObjAddr: 0x6458, symBinAddr: 0x6818, symSize: 0x5C }
  - { offset: 0x546DA, size: 0x8, addend: 0x0, symName: __ZTv0_n24_NSt3__114basic_ifstreamIcNS_11char_traitsIcEEED1Ev, symObjAddr: 0x646C, symBinAddr: 0x6874, symSize: 0x5C }
  - { offset: 0x5471B, size: 0x8, addend: 0x0, symName: __ZTv0_n24_NSt3__114basic_ifstreamIcNS_11char_traitsIcEEED0Ev, symObjAddr: 0x647C, symBinAddr: 0x68D0, symSize: 0x64 }
  - { offset: 0x54782, size: 0x8, addend: 0x0, symName: __ZNSt3__113basic_filebufIcNS_11char_traitsIcEEED1Ev, symObjAddr: 0x65B0, symBinAddr: 0x6A38, symSize: 0x4 }
  - { offset: 0x54854, size: 0x8, addend: 0x0, symName: __ZNSt3__113basic_filebufIcNS_11char_traitsIcEEED0Ev, symObjAddr: 0x6644, symBinAddr: 0x6A3C, symSize: 0x14 }
  - { offset: 0x54984, size: 0x8, addend: 0x0, symName: __ZNSt3__113basic_filebufIcNS_11char_traitsIcEEE5imbueERKNS_6localeE, symObjAddr: 0x66DC, symBinAddr: 0x6A50, symSize: 0xEC }
  - { offset: 0x54A90, size: 0x8, addend: 0x0, symName: __ZNSt3__113basic_filebufIcNS_11char_traitsIcEEE6setbufEPcl, symObjAddr: 0x67D8, symBinAddr: 0x6B3C, symSize: 0x144 }
  - { offset: 0x54B61, size: 0x8, addend: 0x0, symName: __ZNSt3__113basic_filebufIcNS_11char_traitsIcEEE7seekoffExNS_8ios_base7seekdirEj, symObjAddr: 0x693C, symBinAddr: 0x6C80, symSize: 0x100 }
  - { offset: 0x54CC9, size: 0x8, addend: 0x0, symName: __ZNSt3__113basic_filebufIcNS_11char_traitsIcEEE7seekposENS_4fposI11__mbstate_tEEj, symObjAddr: 0x6A4C, symBinAddr: 0x6D80, symSize: 0xB0 }
  - { offset: 0x54D2A, size: 0x8, addend: 0x0, symName: __ZNSt3__113basic_filebufIcNS_11char_traitsIcEEE7seekposENS_4fposI11__mbstate_tEEj, symObjAddr: 0x6A4C, symBinAddr: 0x6D80, symSize: 0xB0 }
  - { offset: 0x54FA5, size: 0x8, addend: 0x0, symName: __ZNSt3__113basic_filebufIcNS_11char_traitsIcEEE9underflowEv, symObjAddr: 0x6D6C, symBinAddr: 0x7068, symSize: 0x274 }
  - { offset: 0x55359, size: 0x8, addend: 0x0, symName: __ZNSt3__113basic_filebufIcNS_11char_traitsIcEEE9pbackfailEi, symObjAddr: 0x7020, symBinAddr: 0x72DC, symSize: 0x5C }
  - { offset: 0x553A6, size: 0x8, addend: 0x0, symName: __ZNSt3__113basic_filebufIcNS_11char_traitsIcEEE9pbackfailEi, symObjAddr: 0x7020, symBinAddr: 0x72DC, symSize: 0x5C }
  - { offset: 0x5552B, size: 0x8, addend: 0x0, symName: __ZNSt3__113basic_filebufIcNS_11char_traitsIcEEE8overflowEi, symObjAddr: 0x707C, symBinAddr: 0x7338, symSize: 0x1EC }
  - { offset: 0x559F4, size: 0x8, addend: 0x0, symName: __ZNSt3__15dequeINS_6chrono10time_pointINS1_12steady_clockENS1_8durationIxNS_5ratioILl1ELl1000000000EEEEEEENS_9allocatorIS8_EEED2B8nn190102Ev, symObjAddr: 0x73AC, symBinAddr: 0x76DC, symSize: 0xC8 }
  - { offset: 0x55E5F, size: 0x8, addend: 0x0, symName: __ZN12LegacyLoggerD2Ev.cold.1, symObjAddr: 0x7EC0, symBinAddr: 0x119420, symSize: 0x1C }
  - { offset: 0x55E7B, size: 0x8, addend: 0x0, symName: __ZN12LegacyLoggerD2Ev.cold.1, symObjAddr: 0x7EC0, symBinAddr: 0x119420, symSize: 0x1C }
  - { offset: 0x55E90, size: 0x8, addend: 0x0, symName: __ZN12LegacyLoggerD2Ev.cold.1, symObjAddr: 0x7EC0, symBinAddr: 0x119420, symSize: 0x1C }
  - { offset: 0x55EA5, size: 0x8, addend: 0x0, symName: __ZN12LegacyLoggerD2Ev.cold.1, symObjAddr: 0x7EC0, symBinAddr: 0x119420, symSize: 0x1C }
  - { offset: 0x55EBA, size: 0x8, addend: 0x0, symName: __ZN12LegacyLoggerD2Ev.cold.1, symObjAddr: 0x7EC0, symBinAddr: 0x119420, symSize: 0x1C }
  - { offset: 0x55ECF, size: 0x8, addend: 0x0, symName: __ZN12LegacyLoggerD2Ev.cold.1, symObjAddr: 0x7EC0, symBinAddr: 0x119420, symSize: 0x1C }
  - { offset: 0x55FE4, size: 0x8, addend: 0x0, symName: _OUTLINED_FUNCTION_0, symObjAddr: 0x7EDC, symBinAddr: 0x77A4, symSize: 0x10 }
  - { offset: 0x55FFC, size: 0x8, addend: 0x0, symName: _OUTLINED_FUNCTION_1, symObjAddr: 0x7EEC, symBinAddr: 0x77B4, symSize: 0xC }
  - { offset: 0x56014, size: 0x8, addend: 0x0, symName: _OUTLINED_FUNCTION_2, symObjAddr: 0x7EF8, symBinAddr: 0x77C0, symSize: 0xC }
  - { offset: 0x5602C, size: 0x8, addend: 0x0, symName: _OUTLINED_FUNCTION_3, symObjAddr: 0x7F04, symBinAddr: 0x77CC, symSize: 0x8 }
  - { offset: 0x56044, size: 0x8, addend: 0x0, symName: _OUTLINED_FUNCTION_4, symObjAddr: 0x7F0C, symBinAddr: 0x77D4, symSize: 0x8 }
  - { offset: 0x5605C, size: 0x8, addend: 0x0, symName: _OUTLINED_FUNCTION_5, symObjAddr: 0x7F14, symBinAddr: 0x77DC, symSize: 0x8 }
  - { offset: 0x56074, size: 0x8, addend: 0x0, symName: _OUTLINED_FUNCTION_6, symObjAddr: 0x7F1C, symBinAddr: 0x77E4, symSize: 0xC }
  - { offset: 0x5F230, size: 0x8, addend: 0x0, symName: __ZN5godot25call_with_ptr_args_helperI12SentryLoggerJRKNS_6StringES4_iS4_S4_biRKNS_10TypedArrayINS_15ScriptBacktraceEEEEJLm0ELm1ELm2ELm3ELm4ELm5ELm6ELm7EEEEvPT_MSA_FvDpT0_EPKPKvNS_13IndexSequenceIJXspT1_EEEE, symObjAddr: 0x7474, symBinAddr: 0xEE10, symSize: 0x184 }
  - { offset: 0x7C8C1, size: 0x8, addend: 0x0, symName: __ZNSt3__127__tree_balance_after_insertB8nn190102IPNS_16__tree_node_baseIPvEEEEvT_S5_, symObjAddr: 0x30D4, symBinAddr: 0x9E0C, symSize: 0x19C }
  - { offset: 0x7DE15, size: 0x8, addend: 0x0, symName: __ZNSt3__112__hash_tableINS_17__hash_value_typeIN5godot10StringNameEPK35GDExtensionInstanceBindingCallbacksEENS_22__unordered_map_hasherIS3_S7_NS_4hashIS3_EENS_8equal_toIS3_EELb1EEENS_21__unordered_map_equalIS3_S7_SC_SA_Lb1EEENS_9allocatorIS7_EEE11__do_rehashILb1EEEvm, symObjAddr: 0x1EA4, symBinAddr: 0x8F94, symSize: 0x158 }
  - { offset: 0x7E161, size: 0x8, addend: 0x0, symName: __ZN5godot6Engine22_gde_binding_callbacksE, symObjAddr: 0xA230, symBinAddr: 0x1C9480, symSize: 0x0 }
  - { offset: 0x7E175, size: 0x8, addend: 0x0, symName: __ZN5godot8MainLoop22_gde_binding_callbacksE, symObjAddr: 0xA248, symBinAddr: 0x1C9498, symSize: 0x0 }
  - { offset: 0x7E189, size: 0x8, addend: 0x0, symName: __ZN5godot9SceneTree22_gde_binding_callbacksE, symObjAddr: 0xA260, symBinAddr: 0x1C94B0, symSize: 0x0 }
  - { offset: 0x7E19D, size: 0x8, addend: 0x0, symName: __ZN5godot8Viewport22_gde_binding_callbacksE, symObjAddr: 0xA2D8, symBinAddr: 0x1C9528, symSize: 0x0 }
  - { offset: 0x7E1B1, size: 0x8, addend: 0x0, symName: __ZN5godot6Window22_gde_binding_callbacksE, symObjAddr: 0xA398, symBinAddr: 0x1C95E8, symSize: 0x0 }
  - { offset: 0x7E1C5, size: 0x8, addend: 0x0, symName: __ZN18SentryLoggerLimits22_gde_binding_callbacksE, symObjAddr: 0xA3B0, symBinAddr: 0x1C9600, symSize: 0x0 }
  - { offset: 0x7E5E4, size: 0x8, addend: 0x0, symName: __ZN13SentryOptions22_gde_binding_callbacksE, symObjAddr: 0xA408, symBinAddr: 0x1C9658, symSize: 0x0 }
  - { offset: 0x7E611, size: 0x8, addend: 0x0, symName: __ZN13RuntimeConfig22_gde_binding_callbacksE, symObjAddr: 0xA420, symBinAddr: 0x1C9670, symSize: 0x0 }
  - { offset: 0x7E62A, size: 0x8, addend: 0x0, symName: __ZN19SentryConfiguration22_gde_binding_callbacksE, symObjAddr: 0xA438, symBinAddr: 0x1C9688, symSize: 0x0 }
  - { offset: 0x7EDC4, size: 0x8, addend: 0x0, symName: __ZN10SentryUser22_gde_binding_callbacksE, symObjAddr: 0xA4F8, symBinAddr: 0x1C9748, symSize: 0x0 }
  - { offset: 0x7F1F0, size: 0x8, addend: 0x0, symName: __ZN9SentrySDK22_gde_binding_callbacksE, symObjAddr: 0xA550, symBinAddr: 0x1C97A0, symSize: 0x0 }
  - { offset: 0x80020, size: 0x8, addend: 0x0, symName: __ZN11SentryEvent22_gde_binding_callbacksE, symObjAddr: 0xA568, symBinAddr: 0x1C97B8, symSize: 0x0 }
  - { offset: 0x8059A, size: 0x8, addend: 0x0, symName: __ZN13DisabledEvent22_gde_binding_callbacksE, symObjAddr: 0xA580, symBinAddr: 0x1C97D0, symSize: 0x0 }
  - { offset: 0x80B5C, size: 0x8, addend: 0x0, symName: __ZN12SentryLogger22_gde_binding_callbacksE, symObjAddr: 0xA690, symBinAddr: 0x1C98E0, symSize: 0x0 }
  - { offset: 0x80B70, size: 0x8, addend: 0x0, symName: __ZN11NativeEvent22_gde_binding_callbacksE, symObjAddr: 0xA6A8, symBinAddr: 0x1C98F8, symSize: 0x0 }
  - { offset: 0x830AD, size: 0x8, addend: 0x0, symName: ___cxx_global_var_init, symObjAddr: 0x9798, symBinAddr: 0xF7D0, symSize: 0x4C }
  - { offset: 0x83134, size: 0x8, addend: 0x0, symName: ___cxx_global_var_init.1, symObjAddr: 0x97E4, symBinAddr: 0xF81C, symSize: 0x4C }
  - { offset: 0x831BB, size: 0x8, addend: 0x0, symName: ___cxx_global_var_init.2, symObjAddr: 0x9830, symBinAddr: 0xF868, symSize: 0x4C }
  - { offset: 0x83242, size: 0x8, addend: 0x0, symName: ___cxx_global_var_init.3, symObjAddr: 0x987C, symBinAddr: 0xF8B4, symSize: 0x4C }
  - { offset: 0x832C9, size: 0x8, addend: 0x0, symName: ___cxx_global_var_init.4, symObjAddr: 0x98C8, symBinAddr: 0xF900, symSize: 0x4C }
  - { offset: 0x83350, size: 0x8, addend: 0x0, symName: ___cxx_global_var_init.5, symObjAddr: 0x9914, symBinAddr: 0xF94C, symSize: 0x4C }
  - { offset: 0x833D7, size: 0x8, addend: 0x0, symName: ___cxx_global_var_init.6, symObjAddr: 0x9960, symBinAddr: 0xF998, symSize: 0x4C }
  - { offset: 0x8345E, size: 0x8, addend: 0x0, symName: ___cxx_global_var_init.7, symObjAddr: 0x99AC, symBinAddr: 0xF9E4, symSize: 0x4C }
  - { offset: 0x834E5, size: 0x8, addend: 0x0, symName: ___cxx_global_var_init.8, symObjAddr: 0x99F8, symBinAddr: 0xFA30, symSize: 0x4C }
  - { offset: 0x8356C, size: 0x8, addend: 0x0, symName: ___cxx_global_var_init.9, symObjAddr: 0x9A44, symBinAddr: 0xFA7C, symSize: 0x4C }
  - { offset: 0x835F3, size: 0x8, addend: 0x0, symName: ___cxx_global_var_init.10, symObjAddr: 0x9A90, symBinAddr: 0xFAC8, symSize: 0x4C }
  - { offset: 0x8367A, size: 0x8, addend: 0x0, symName: ___cxx_global_var_init.11, symObjAddr: 0x9ADC, symBinAddr: 0xFB14, symSize: 0x4C }
  - { offset: 0x83701, size: 0x8, addend: 0x0, symName: ___cxx_global_var_init.12, symObjAddr: 0x9B28, symBinAddr: 0xFB60, symSize: 0x4C }
  - { offset: 0x83867, size: 0x8, addend: 0x0, symName: __Z17initialize_moduleN5godot25ModuleInitializationLevelE, symObjAddr: 0x0, symBinAddr: 0x7C18, symSize: 0x19C }
  - { offset: 0x83B78, size: 0x8, addend: 0x0, symName: __ZN5godot7ClassDB15_register_classI18SentryLoggerLimitsLb0EEEvbbb, symObjAddr: 0x1458, symBinAddr: 0x83B0, symSize: 0x3EC }
  - { offset: 0x844BE, size: 0x8, addend: 0x0, symName: __ZN5godot7ClassDB15_register_classI13SentryOptionsLb0EEEvbbb, symObjAddr: 0x3E28, symBinAddr: 0xAB08, symSize: 0x3EC }
  - { offset: 0x84E04, size: 0x8, addend: 0x0, symName: __ZN5godot7ClassDB15_register_classI13RuntimeConfigLb0EEEvbbb, symObjAddr: 0x441C, symBinAddr: 0xB280, symSize: 0x3E8 }
  - { offset: 0x8574A, size: 0x8, addend: 0x0, symName: __ZN5godot7ClassDB15_register_classI19SentryConfigurationLb0EEEvbbb, symObjAddr: 0x4A0C, symBinAddr: 0xB9F4, symSize: 0x3EC }
  - { offset: 0x86090, size: 0x8, addend: 0x0, symName: __ZN5godot7ClassDB15_register_classI10SentryUserLb0EEEvbbb, symObjAddr: 0x52A4, symBinAddr: 0xC464, symSize: 0x3EC }
  - { offset: 0x869D6, size: 0x8, addend: 0x0, symName: __ZN5godot7ClassDB15_register_classI9SentrySDKLb0EEEvbbb, symObjAddr: 0x59FC, symBinAddr: 0xCDB0, symSize: 0x3EC }
  - { offset: 0x8731C, size: 0x8, addend: 0x0, symName: __ZN5godot7ClassDB15_register_classI11SentryEventLb1EEEvbbb, symObjAddr: 0x5FF0, symBinAddr: 0xD528, symSize: 0x3F0 }
  - { offset: 0x87C62, size: 0x8, addend: 0x0, symName: __ZN5godot7ClassDB15_register_classI13DisabledEventLb0EEEvbbb, symObjAddr: 0x6570, symBinAddr: 0xDB80, symSize: 0x3F8 }
  - { offset: 0x885BE, size: 0x8, addend: 0x0, symName: __ZN5godot7ClassDB15_register_classI12SentryLoggerLb0EEEvbbb, symObjAddr: 0x6D84, symBinAddr: 0xE59C, symSize: 0x3EC }
  - { offset: 0x88F12, size: 0x8, addend: 0x0, symName: __ZN5godot7ClassDB15_register_classI11NativeEventLb0EEEvbbb, symObjAddr: 0x768C, symBinAddr: 0xF028, symSize: 0x3F8 }
  - { offset: 0x89873, size: 0x8, addend: 0x0, symName: __Z17initialize_moduleN5godot25ModuleInitializationLevelE.cold.1, symObjAddr: 0x7C5C, symBinAddr: 0x11943C, symSize: 0x5C }
  - { offset: 0x898E3, size: 0x8, addend: 0x0, symName: __Z19uninitialize_moduleN5godot25ModuleInitializationLevelE, symObjAddr: 0x188, symBinAddr: 0x7DB4, symSize: 0x40 }
  - { offset: 0x8994F, size: 0x8, addend: 0x0, symName: _gdextension_init, symObjAddr: 0x1C8, symBinAddr: 0x7DF4, symSize: 0x60 }
  - { offset: 0x899B0, size: 0x8, addend: 0x0, symName: __ZN5godot8internal23EngineClassRegistrationINS_6ObjectEE8callbackEv.cold.1, symObjAddr: 0x7CB8, symBinAddr: 0x119498, symSize: 0x5C }
  - { offset: 0x89B78, size: 0x8, addend: 0x0, symName: __ZN5godot6ObjectD1Ev.cold.1, symObjAddr: 0x7D14, symBinAddr: 0x1194F4, symSize: 0x1C }
  - { offset: 0x89B94, size: 0x8, addend: 0x0, symName: __ZN5godot6ObjectD1Ev.cold.1, symObjAddr: 0x7D14, symBinAddr: 0x1194F4, symSize: 0x1C }
  - { offset: 0x89BA9, size: 0x8, addend: 0x0, symName: __ZN5godot6ObjectD1Ev.cold.1, symObjAddr: 0x7D14, symBinAddr: 0x1194F4, symSize: 0x1C }
  - { offset: 0x89BBE, size: 0x8, addend: 0x0, symName: __ZN5godot6ObjectD1Ev.cold.1, symObjAddr: 0x7D14, symBinAddr: 0x1194F4, symSize: 0x1C }
  - { offset: 0x89BD3, size: 0x8, addend: 0x0, symName: __ZN5godot6ObjectD1Ev.cold.1, symObjAddr: 0x7D14, symBinAddr: 0x1194F4, symSize: 0x1C }
  - { offset: 0x89C03, size: 0x8, addend: 0x0, symName: __ZN5godot6ObjectD0Ev.cold.1, symObjAddr: 0x7D30, symBinAddr: 0x119510, symSize: 0x1C }
  - { offset: 0x89C1F, size: 0x8, addend: 0x0, symName: __ZN5godot6ObjectD0Ev.cold.1, symObjAddr: 0x7D30, symBinAddr: 0x119510, symSize: 0x1C }
  - { offset: 0x89C34, size: 0x8, addend: 0x0, symName: __ZN5godot6ObjectD0Ev.cold.1, symObjAddr: 0x7D30, symBinAddr: 0x119510, symSize: 0x1C }
  - { offset: 0x89C49, size: 0x8, addend: 0x0, symName: __ZN5godot6ObjectD0Ev.cold.1, symObjAddr: 0x7D30, symBinAddr: 0x119510, symSize: 0x1C }
  - { offset: 0x89C5E, size: 0x8, addend: 0x0, symName: __ZN5godot6ObjectD0Ev.cold.1, symObjAddr: 0x7D30, symBinAddr: 0x119510, symSize: 0x1C }
  - { offset: 0x89C73, size: 0x8, addend: 0x0, symName: __ZN5godot6ObjectD0Ev.cold.1, symObjAddr: 0x7D30, symBinAddr: 0x119510, symSize: 0x1C }
  - { offset: 0x89C8A, size: 0x8, addend: 0x0, symName: __ZN5godot7WrappedD1Ev.cold.1, symObjAddr: 0x7D4C, symBinAddr: 0x11952C, symSize: 0x1C }
  - { offset: 0x89CA6, size: 0x8, addend: 0x0, symName: __ZN5godot7WrappedD1Ev.cold.1, symObjAddr: 0x7D4C, symBinAddr: 0x11952C, symSize: 0x1C }
  - { offset: 0x89CBB, size: 0x8, addend: 0x0, symName: __ZN5godot7WrappedD1Ev.cold.1, symObjAddr: 0x7D4C, symBinAddr: 0x11952C, symSize: 0x1C }
  - { offset: 0x89CD0, size: 0x8, addend: 0x0, symName: __ZN5godot7WrappedD1Ev.cold.1, symObjAddr: 0x7D4C, symBinAddr: 0x11952C, symSize: 0x1C }
  - { offset: 0x89CFF, size: 0x8, addend: 0x0, symName: __ZN5godot7WrappedD0Ev.cold.1, symObjAddr: 0x7D68, symBinAddr: 0x119548, symSize: 0x1C }
  - { offset: 0x89D1B, size: 0x8, addend: 0x0, symName: __ZN5godot7WrappedD0Ev.cold.1, symObjAddr: 0x7D68, symBinAddr: 0x119548, symSize: 0x1C }
  - { offset: 0x89D30, size: 0x8, addend: 0x0, symName: __ZN5godot7WrappedD0Ev.cold.1, symObjAddr: 0x7D68, symBinAddr: 0x119548, symSize: 0x1C }
  - { offset: 0x89D45, size: 0x8, addend: 0x0, symName: __ZN5godot7WrappedD0Ev.cold.1, symObjAddr: 0x7D68, symBinAddr: 0x119548, symSize: 0x1C }
  - { offset: 0x89D5A, size: 0x8, addend: 0x0, symName: __ZN5godot7WrappedD0Ev.cold.1, symObjAddr: 0x7D68, symBinAddr: 0x119548, symSize: 0x1C }
  - { offset: 0x89DE0, size: 0x8, addend: 0x0, symName: __ZN5godot4ListINS_12PropertyInfoENS_16DefaultAllocatorEE5_Data5eraseEPNS3_7ElementE.cold.2, symObjAddr: 0x7DA4, symBinAddr: 0x119584, symSize: 0x20 }
  - { offset: 0x89DF8, size: 0x8, addend: 0x0, symName: __ZN5godot4ListINS_12PropertyInfoENS_16DefaultAllocatorEE5_Data5eraseEPNS3_7ElementE.cold.1, symObjAddr: 0x7D84, symBinAddr: 0x119564, symSize: 0x20 }
  - { offset: 0x89E17, size: 0x8, addend: 0x0, symName: __ZN5godot8internal23EngineClassRegistrationINS_16ClassDBSingletonEE8callbackEv.cold.1, symObjAddr: 0x7DC4, symBinAddr: 0x1195A4, symSize: 0x5C }
  - { offset: 0x89E4C, size: 0x8, addend: 0x0, symName: __ZN5godot8internal23EngineClassRegistrationINS_10RefCountedEE8callbackEv.cold.1, symObjAddr: 0x7E20, symBinAddr: 0x119600, symSize: 0x5C }
  - { offset: 0x89E96, size: 0x8, addend: 0x0, symName: __ZN5godot10RefCountedD1Ev.cold.1, symObjAddr: 0x7E7C, symBinAddr: 0x11965C, symSize: 0x1C }
  - { offset: 0x89EB2, size: 0x8, addend: 0x0, symName: __ZN5godot10RefCountedD1Ev.cold.1, symObjAddr: 0x7E7C, symBinAddr: 0x11965C, symSize: 0x1C }
  - { offset: 0x89EC7, size: 0x8, addend: 0x0, symName: __ZN5godot10RefCountedD1Ev.cold.1, symObjAddr: 0x7E7C, symBinAddr: 0x11965C, symSize: 0x1C }
  - { offset: 0x89EDC, size: 0x8, addend: 0x0, symName: __ZN5godot10RefCountedD1Ev.cold.1, symObjAddr: 0x7E7C, symBinAddr: 0x11965C, symSize: 0x1C }
  - { offset: 0x89EF1, size: 0x8, addend: 0x0, symName: __ZN5godot10RefCountedD1Ev.cold.1, symObjAddr: 0x7E7C, symBinAddr: 0x11965C, symSize: 0x1C }
  - { offset: 0x89F06, size: 0x8, addend: 0x0, symName: __ZN5godot10RefCountedD1Ev.cold.1, symObjAddr: 0x7E7C, symBinAddr: 0x11965C, symSize: 0x1C }
  - { offset: 0x89F39, size: 0x8, addend: 0x0, symName: __ZN5godot10RefCountedD0Ev.cold.1, symObjAddr: 0x7E98, symBinAddr: 0x119678, symSize: 0x1C }
  - { offset: 0x89F55, size: 0x8, addend: 0x0, symName: __ZN5godot10RefCountedD0Ev.cold.1, symObjAddr: 0x7E98, symBinAddr: 0x119678, symSize: 0x1C }
  - { offset: 0x89F6A, size: 0x8, addend: 0x0, symName: __ZN5godot10RefCountedD0Ev.cold.1, symObjAddr: 0x7E98, symBinAddr: 0x119678, symSize: 0x1C }
  - { offset: 0x89F7F, size: 0x8, addend: 0x0, symName: __ZN5godot10RefCountedD0Ev.cold.1, symObjAddr: 0x7E98, symBinAddr: 0x119678, symSize: 0x1C }
  - { offset: 0x89F94, size: 0x8, addend: 0x0, symName: __ZN5godot10RefCountedD0Ev.cold.1, symObjAddr: 0x7E98, symBinAddr: 0x119678, symSize: 0x1C }
  - { offset: 0x89FA9, size: 0x8, addend: 0x0, symName: __ZN5godot10RefCountedD0Ev.cold.1, symObjAddr: 0x7E98, symBinAddr: 0x119678, symSize: 0x1C }
  - { offset: 0x89FBE, size: 0x8, addend: 0x0, symName: __ZN5godot10RefCountedD0Ev.cold.1, symObjAddr: 0x7E98, symBinAddr: 0x119678, symSize: 0x1C }
  - { offset: 0x89FDD, size: 0x8, addend: 0x0, symName: __ZN5godot8internal23EngineClassRegistrationINS_10ConfigFileEE8callbackEv.cold.1, symObjAddr: 0x7EB4, symBinAddr: 0x119694, symSize: 0x5C }
  - { offset: 0x8A027, size: 0x8, addend: 0x0, symName: __ZN5godot10ConfigFileD1Ev.cold.1, symObjAddr: 0x7F10, symBinAddr: 0x1196F0, symSize: 0x1C }
  - { offset: 0x8A043, size: 0x8, addend: 0x0, symName: __ZN5godot10ConfigFileD1Ev.cold.1, symObjAddr: 0x7F10, symBinAddr: 0x1196F0, symSize: 0x1C }
  - { offset: 0x8A058, size: 0x8, addend: 0x0, symName: __ZN5godot10ConfigFileD1Ev.cold.1, symObjAddr: 0x7F10, symBinAddr: 0x1196F0, symSize: 0x1C }
  - { offset: 0x8A06D, size: 0x8, addend: 0x0, symName: __ZN5godot10ConfigFileD1Ev.cold.1, symObjAddr: 0x7F10, symBinAddr: 0x1196F0, symSize: 0x1C }
  - { offset: 0x8A082, size: 0x8, addend: 0x0, symName: __ZN5godot10ConfigFileD1Ev.cold.1, symObjAddr: 0x7F10, symBinAddr: 0x1196F0, symSize: 0x1C }
  - { offset: 0x8A097, size: 0x8, addend: 0x0, symName: __ZN5godot10ConfigFileD1Ev.cold.1, symObjAddr: 0x7F10, symBinAddr: 0x1196F0, symSize: 0x1C }
  - { offset: 0x8A0AC, size: 0x8, addend: 0x0, symName: __ZN5godot10ConfigFileD1Ev.cold.1, symObjAddr: 0x7F10, symBinAddr: 0x1196F0, symSize: 0x1C }
  - { offset: 0x8A0E0, size: 0x8, addend: 0x0, symName: __ZN5godot10ConfigFileD0Ev.cold.1, symObjAddr: 0x7F2C, symBinAddr: 0x11970C, symSize: 0x1C }
  - { offset: 0x8A0FC, size: 0x8, addend: 0x0, symName: __ZN5godot10ConfigFileD0Ev.cold.1, symObjAddr: 0x7F2C, symBinAddr: 0x11970C, symSize: 0x1C }
  - { offset: 0x8A111, size: 0x8, addend: 0x0, symName: __ZN5godot10ConfigFileD0Ev.cold.1, symObjAddr: 0x7F2C, symBinAddr: 0x11970C, symSize: 0x1C }
  - { offset: 0x8A126, size: 0x8, addend: 0x0, symName: __ZN5godot10ConfigFileD0Ev.cold.1, symObjAddr: 0x7F2C, symBinAddr: 0x11970C, symSize: 0x1C }
  - { offset: 0x8A13B, size: 0x8, addend: 0x0, symName: __ZN5godot10ConfigFileD0Ev.cold.1, symObjAddr: 0x7F2C, symBinAddr: 0x11970C, symSize: 0x1C }
  - { offset: 0x8A150, size: 0x8, addend: 0x0, symName: __ZN5godot10ConfigFileD0Ev.cold.1, symObjAddr: 0x7F2C, symBinAddr: 0x11970C, symSize: 0x1C }
  - { offset: 0x8A165, size: 0x8, addend: 0x0, symName: __ZN5godot10ConfigFileD0Ev.cold.1, symObjAddr: 0x7F2C, symBinAddr: 0x11970C, symSize: 0x1C }
  - { offset: 0x8A17A, size: 0x8, addend: 0x0, symName: __ZN5godot10ConfigFileD0Ev.cold.1, symObjAddr: 0x7F2C, symBinAddr: 0x11970C, symSize: 0x1C }
  - { offset: 0x8A19A, size: 0x8, addend: 0x0, symName: __ZN5godot8internal23EngineClassRegistrationINS_6LoggerEE8callbackEv.cold.1, symObjAddr: 0x7F48, symBinAddr: 0x119728, symSize: 0x5C }
  - { offset: 0x8A1CF, size: 0x8, addend: 0x0, symName: __ZN5godot8internal23EngineClassRegistrationINS_13DisplayServerEE8callbackEv.cold.1, symObjAddr: 0x7FA4, symBinAddr: 0x119784, symSize: 0x5C }
  - { offset: 0x8A204, size: 0x8, addend: 0x0, symName: __ZN5godot8internal23EngineClassRegistrationINS_4NodeEE8callbackEv.cold.1, symObjAddr: 0x8000, symBinAddr: 0x1197E0, symSize: 0x5C }
  - { offset: 0x8A25E, size: 0x8, addend: 0x0, symName: __ZN5godot8internal23EngineClassRegistrationINS_15ScriptBacktraceEE8callbackEv.cold.1, symObjAddr: 0x805C, symBinAddr: 0x11983C, symSize: 0x5C }
  - { offset: 0x8A2A8, size: 0x8, addend: 0x0, symName: __ZN5godot15ScriptBacktraceD1Ev.cold.1, symObjAddr: 0x80B8, symBinAddr: 0x119898, symSize: 0x1C }
  - { offset: 0x8A2C4, size: 0x8, addend: 0x0, symName: __ZN5godot15ScriptBacktraceD1Ev.cold.1, symObjAddr: 0x80B8, symBinAddr: 0x119898, symSize: 0x1C }
  - { offset: 0x8A2D9, size: 0x8, addend: 0x0, symName: __ZN5godot15ScriptBacktraceD1Ev.cold.1, symObjAddr: 0x80B8, symBinAddr: 0x119898, symSize: 0x1C }
  - { offset: 0x8A2EE, size: 0x8, addend: 0x0, symName: __ZN5godot15ScriptBacktraceD1Ev.cold.1, symObjAddr: 0x80B8, symBinAddr: 0x119898, symSize: 0x1C }
  - { offset: 0x8A303, size: 0x8, addend: 0x0, symName: __ZN5godot15ScriptBacktraceD1Ev.cold.1, symObjAddr: 0x80B8, symBinAddr: 0x119898, symSize: 0x1C }
  - { offset: 0x8A318, size: 0x8, addend: 0x0, symName: __ZN5godot15ScriptBacktraceD1Ev.cold.1, symObjAddr: 0x80B8, symBinAddr: 0x119898, symSize: 0x1C }
  - { offset: 0x8A32D, size: 0x8, addend: 0x0, symName: __ZN5godot15ScriptBacktraceD1Ev.cold.1, symObjAddr: 0x80B8, symBinAddr: 0x119898, symSize: 0x1C }
  - { offset: 0x8A361, size: 0x8, addend: 0x0, symName: __ZN5godot15ScriptBacktraceD0Ev.cold.1, symObjAddr: 0x80D4, symBinAddr: 0x1198B4, symSize: 0x1C }
  - { offset: 0x8A37D, size: 0x8, addend: 0x0, symName: __ZN5godot15ScriptBacktraceD0Ev.cold.1, symObjAddr: 0x80D4, symBinAddr: 0x1198B4, symSize: 0x1C }
  - { offset: 0x8A392, size: 0x8, addend: 0x0, symName: __ZN5godot15ScriptBacktraceD0Ev.cold.1, symObjAddr: 0x80D4, symBinAddr: 0x1198B4, symSize: 0x1C }
  - { offset: 0x8A3A7, size: 0x8, addend: 0x0, symName: __ZN5godot15ScriptBacktraceD0Ev.cold.1, symObjAddr: 0x80D4, symBinAddr: 0x1198B4, symSize: 0x1C }
  - { offset: 0x8A3BC, size: 0x8, addend: 0x0, symName: __ZN5godot15ScriptBacktraceD0Ev.cold.1, symObjAddr: 0x80D4, symBinAddr: 0x1198B4, symSize: 0x1C }
  - { offset: 0x8A3D1, size: 0x8, addend: 0x0, symName: __ZN5godot15ScriptBacktraceD0Ev.cold.1, symObjAddr: 0x80D4, symBinAddr: 0x1198B4, symSize: 0x1C }
  - { offset: 0x8A3E6, size: 0x8, addend: 0x0, symName: __ZN5godot15ScriptBacktraceD0Ev.cold.1, symObjAddr: 0x80D4, symBinAddr: 0x1198B4, symSize: 0x1C }
  - { offset: 0x8A3FB, size: 0x8, addend: 0x0, symName: __ZN5godot15ScriptBacktraceD0Ev.cold.1, symObjAddr: 0x80D4, symBinAddr: 0x1198B4, symSize: 0x1C }
  - { offset: 0x8A41B, size: 0x8, addend: 0x0, symName: __ZN5godot8internal23EngineClassRegistrationINS_6EngineEE8callbackEv, symObjAddr: 0xE64, symBinAddr: 0x7E54, symSize: 0x38 }
  - { offset: 0x8A467, size: 0x8, addend: 0x0, symName: __ZN5godot8internal23EngineClassRegistrationINS_6EngineEE8callbackEv.cold.1, symObjAddr: 0x80F0, symBinAddr: 0x1198D0, symSize: 0x5C }
  - { offset: 0x8A4DF, size: 0x8, addend: 0x0, symName: __ZN5godot6Engine28_gde_binding_create_callbackEPvS1_, symObjAddr: 0xEAC, symBinAddr: 0x7E8C, symSize: 0x48 }
  - { offset: 0x8A586, size: 0x8, addend: 0x0, symName: __ZN5godot6Engine26_gde_binding_free_callbackEPvS1_S1_, symObjAddr: 0xEF4, symBinAddr: 0x7ED4, symSize: 0x34 }
  - { offset: 0x8A5E0, size: 0x8, addend: 0x0, symName: __ZN5godot6Engine31_gde_binding_reference_callbackEPvS1_h, symObjAddr: 0xF28, symBinAddr: 0x7F08, symSize: 0x8 }
  - { offset: 0x8A628, size: 0x8, addend: 0x0, symName: __ZN5godot8internal23EngineClassRegistrationINS_8MainLoopEE8callbackEv, symObjAddr: 0xF30, symBinAddr: 0x7F10, symSize: 0x38 }
  - { offset: 0x8A674, size: 0x8, addend: 0x0, symName: __ZN5godot8internal23EngineClassRegistrationINS_8MainLoopEE8callbackEv.cold.1, symObjAddr: 0x814C, symBinAddr: 0x11992C, symSize: 0x5C }
  - { offset: 0x8A6F1, size: 0x8, addend: 0x0, symName: __ZN5godot8MainLoop28_gde_binding_create_callbackEPvS1_, symObjAddr: 0xF78, symBinAddr: 0x7F48, symSize: 0x48 }
  - { offset: 0x8A798, size: 0x8, addend: 0x0, symName: __ZN5godot8MainLoop26_gde_binding_free_callbackEPvS1_S1_, symObjAddr: 0xFC0, symBinAddr: 0x7F90, symSize: 0x34 }
  - { offset: 0x8A7F2, size: 0x8, addend: 0x0, symName: __ZN5godot8MainLoop31_gde_binding_reference_callbackEPvS1_h, symObjAddr: 0xFF4, symBinAddr: 0x7FC4, symSize: 0x8 }
  - { offset: 0x8A83A, size: 0x8, addend: 0x0, symName: __ZN5godot8internal23EngineClassRegistrationINS_9SceneTreeEE8callbackEv, symObjAddr: 0xFFC, symBinAddr: 0x7FCC, symSize: 0x38 }
  - { offset: 0x8A886, size: 0x8, addend: 0x0, symName: __ZN5godot8internal23EngineClassRegistrationINS_9SceneTreeEE8callbackEv.cold.1, symObjAddr: 0x81A8, symBinAddr: 0x119988, symSize: 0x5C }
  - { offset: 0x8A8FE, size: 0x8, addend: 0x0, symName: __ZN5godot9SceneTree28_gde_binding_create_callbackEPvS1_, symObjAddr: 0x1044, symBinAddr: 0x8004, symSize: 0x44 }
  - { offset: 0x8A9CB, size: 0x8, addend: 0x0, symName: __ZN5godot9SceneTree26_gde_binding_free_callbackEPvS1_S1_, symObjAddr: 0x1088, symBinAddr: 0x8048, symSize: 0x34 }
  - { offset: 0x8AA25, size: 0x8, addend: 0x0, symName: __ZN5godot9SceneTree31_gde_binding_reference_callbackEPvS1_h, symObjAddr: 0x10BC, symBinAddr: 0x807C, symSize: 0x8 }
  - { offset: 0x8AA9E, size: 0x8, addend: 0x0, symName: __ZN5godot9SceneTreeD1Ev, symObjAddr: 0x10C4, symBinAddr: 0x8084, symSize: 0x74 }
  - { offset: 0x8AC55, size: 0x8, addend: 0x0, symName: __ZN5godot9SceneTreeD1Ev.cold.1, symObjAddr: 0x8204, symBinAddr: 0x1199E4, symSize: 0x1C }
  - { offset: 0x8AC71, size: 0x8, addend: 0x0, symName: __ZN5godot9SceneTreeD1Ev.cold.1, symObjAddr: 0x8204, symBinAddr: 0x1199E4, symSize: 0x1C }
  - { offset: 0x8AC86, size: 0x8, addend: 0x0, symName: __ZN5godot9SceneTreeD1Ev.cold.1, symObjAddr: 0x8204, symBinAddr: 0x1199E4, symSize: 0x1C }
  - { offset: 0x8AC9B, size: 0x8, addend: 0x0, symName: __ZN5godot9SceneTreeD1Ev.cold.1, symObjAddr: 0x8204, symBinAddr: 0x1199E4, symSize: 0x1C }
  - { offset: 0x8ACB0, size: 0x8, addend: 0x0, symName: __ZN5godot9SceneTreeD1Ev.cold.1, symObjAddr: 0x8204, symBinAddr: 0x1199E4, symSize: 0x1C }
  - { offset: 0x8ACC5, size: 0x8, addend: 0x0, symName: __ZN5godot9SceneTreeD1Ev.cold.1, symObjAddr: 0x8204, symBinAddr: 0x1199E4, symSize: 0x1C }
  - { offset: 0x8ACDA, size: 0x8, addend: 0x0, symName: __ZN5godot9SceneTreeD1Ev.cold.1, symObjAddr: 0x8204, symBinAddr: 0x1199E4, symSize: 0x1C }
  - { offset: 0x8AD0E, size: 0x8, addend: 0x0, symName: __ZN5godot9SceneTreeD0Ev, symObjAddr: 0x1150, symBinAddr: 0x80F8, symSize: 0x68 }
  - { offset: 0x8AE6D, size: 0x8, addend: 0x0, symName: __ZN5godot9SceneTreeD0Ev.cold.1, symObjAddr: 0x8220, symBinAddr: 0x119A00, symSize: 0x1C }
  - { offset: 0x8AE89, size: 0x8, addend: 0x0, symName: __ZN5godot9SceneTreeD0Ev.cold.1, symObjAddr: 0x8220, symBinAddr: 0x119A00, symSize: 0x1C }
  - { offset: 0x8AE9E, size: 0x8, addend: 0x0, symName: __ZN5godot9SceneTreeD0Ev.cold.1, symObjAddr: 0x8220, symBinAddr: 0x119A00, symSize: 0x1C }
  - { offset: 0x8AEB3, size: 0x8, addend: 0x0, symName: __ZN5godot9SceneTreeD0Ev.cold.1, symObjAddr: 0x8220, symBinAddr: 0x119A00, symSize: 0x1C }
  - { offset: 0x8AEC8, size: 0x8, addend: 0x0, symName: __ZN5godot9SceneTreeD0Ev.cold.1, symObjAddr: 0x8220, symBinAddr: 0x119A00, symSize: 0x1C }
  - { offset: 0x8AEDD, size: 0x8, addend: 0x0, symName: __ZN5godot9SceneTreeD0Ev.cold.1, symObjAddr: 0x8220, symBinAddr: 0x119A00, symSize: 0x1C }
  - { offset: 0x8AEF2, size: 0x8, addend: 0x0, symName: __ZN5godot9SceneTreeD0Ev.cold.1, symObjAddr: 0x8220, symBinAddr: 0x119A00, symSize: 0x1C }
  - { offset: 0x8AF07, size: 0x8, addend: 0x0, symName: __ZN5godot9SceneTreeD0Ev.cold.1, symObjAddr: 0x8220, symBinAddr: 0x119A00, symSize: 0x1C }
  - { offset: 0x8AF27, size: 0x8, addend: 0x0, symName: __ZN5godot8internal23EngineClassRegistrationINS_8ViewportEE8callbackEv, symObjAddr: 0x11C4, symBinAddr: 0x8160, symSize: 0x38 }
  - { offset: 0x8AF73, size: 0x8, addend: 0x0, symName: __ZN5godot8internal23EngineClassRegistrationINS_8ViewportEE8callbackEv.cold.1, symObjAddr: 0x823C, symBinAddr: 0x119A1C, symSize: 0x5C }
  - { offset: 0x8AFEB, size: 0x8, addend: 0x0, symName: __ZN5godot8Viewport28_gde_binding_create_callbackEPvS1_, symObjAddr: 0x120C, symBinAddr: 0x8198, symSize: 0x44 }
  - { offset: 0x8B0B8, size: 0x8, addend: 0x0, symName: __ZN5godot8Viewport26_gde_binding_free_callbackEPvS1_S1_, symObjAddr: 0x1250, symBinAddr: 0x81DC, symSize: 0x34 }
  - { offset: 0x8B112, size: 0x8, addend: 0x0, symName: __ZN5godot8Viewport31_gde_binding_reference_callbackEPvS1_h, symObjAddr: 0x1284, symBinAddr: 0x8210, symSize: 0x8 }
  - { offset: 0x8B18B, size: 0x8, addend: 0x0, symName: __ZN5godot8ViewportD1Ev, symObjAddr: 0x128C, symBinAddr: 0x8218, symSize: 0x74 }
  - { offset: 0x8B342, size: 0x8, addend: 0x0, symName: __ZN5godot8ViewportD1Ev.cold.1, symObjAddr: 0x8298, symBinAddr: 0x119A78, symSize: 0x1C }
  - { offset: 0x8B35E, size: 0x8, addend: 0x0, symName: __ZN5godot8ViewportD1Ev.cold.1, symObjAddr: 0x8298, symBinAddr: 0x119A78, symSize: 0x1C }
  - { offset: 0x8B373, size: 0x8, addend: 0x0, symName: __ZN5godot8ViewportD1Ev.cold.1, symObjAddr: 0x8298, symBinAddr: 0x119A78, symSize: 0x1C }
  - { offset: 0x8B388, size: 0x8, addend: 0x0, symName: __ZN5godot8ViewportD1Ev.cold.1, symObjAddr: 0x8298, symBinAddr: 0x119A78, symSize: 0x1C }
  - { offset: 0x8B39D, size: 0x8, addend: 0x0, symName: __ZN5godot8ViewportD1Ev.cold.1, symObjAddr: 0x8298, symBinAddr: 0x119A78, symSize: 0x1C }
  - { offset: 0x8B3B2, size: 0x8, addend: 0x0, symName: __ZN5godot8ViewportD1Ev.cold.1, symObjAddr: 0x8298, symBinAddr: 0x119A78, symSize: 0x1C }
  - { offset: 0x8B3C7, size: 0x8, addend: 0x0, symName: __ZN5godot8ViewportD1Ev.cold.1, symObjAddr: 0x8298, symBinAddr: 0x119A78, symSize: 0x1C }
  - { offset: 0x8B3FB, size: 0x8, addend: 0x0, symName: __ZN5godot8ViewportD0Ev, symObjAddr: 0x1318, symBinAddr: 0x828C, symSize: 0x68 }
  - { offset: 0x8B55A, size: 0x8, addend: 0x0, symName: __ZN5godot8ViewportD0Ev.cold.1, symObjAddr: 0x82B4, symBinAddr: 0x119A94, symSize: 0x1C }
  - { offset: 0x8B576, size: 0x8, addend: 0x0, symName: __ZN5godot8ViewportD0Ev.cold.1, symObjAddr: 0x82B4, symBinAddr: 0x119A94, symSize: 0x1C }
  - { offset: 0x8B58B, size: 0x8, addend: 0x0, symName: __ZN5godot8ViewportD0Ev.cold.1, symObjAddr: 0x82B4, symBinAddr: 0x119A94, symSize: 0x1C }
  - { offset: 0x8B5A0, size: 0x8, addend: 0x0, symName: __ZN5godot8ViewportD0Ev.cold.1, symObjAddr: 0x82B4, symBinAddr: 0x119A94, symSize: 0x1C }
  - { offset: 0x8B5B5, size: 0x8, addend: 0x0, symName: __ZN5godot8ViewportD0Ev.cold.1, symObjAddr: 0x82B4, symBinAddr: 0x119A94, symSize: 0x1C }
  - { offset: 0x8B5CA, size: 0x8, addend: 0x0, symName: __ZN5godot8ViewportD0Ev.cold.1, symObjAddr: 0x82B4, symBinAddr: 0x119A94, symSize: 0x1C }
  - { offset: 0x8B5DF, size: 0x8, addend: 0x0, symName: __ZN5godot8ViewportD0Ev.cold.1, symObjAddr: 0x82B4, symBinAddr: 0x119A94, symSize: 0x1C }
  - { offset: 0x8B5F4, size: 0x8, addend: 0x0, symName: __ZN5godot8ViewportD0Ev.cold.1, symObjAddr: 0x82B4, symBinAddr: 0x119A94, symSize: 0x1C }
  - { offset: 0x8B614, size: 0x8, addend: 0x0, symName: __ZN5godot8internal23EngineClassRegistrationINS_6WindowEE8callbackEv, symObjAddr: 0x138C, symBinAddr: 0x82F4, symSize: 0x38 }
  - { offset: 0x8B660, size: 0x8, addend: 0x0, symName: __ZN5godot8internal23EngineClassRegistrationINS_6WindowEE8callbackEv.cold.1, symObjAddr: 0x82D0, symBinAddr: 0x119AB0, symSize: 0x5C }
  - { offset: 0x8B6DD, size: 0x8, addend: 0x0, symName: __ZN5godot6Window28_gde_binding_create_callbackEPvS1_, symObjAddr: 0x13D4, symBinAddr: 0x832C, symSize: 0x48 }
  - { offset: 0x8B7D0, size: 0x8, addend: 0x0, symName: __ZN5godot6Window26_gde_binding_free_callbackEPvS1_S1_, symObjAddr: 0x141C, symBinAddr: 0x8374, symSize: 0x34 }
  - { offset: 0x8B82A, size: 0x8, addend: 0x0, symName: __ZN5godot6Window31_gde_binding_reference_callbackEPvS1_h, symObjAddr: 0x1450, symBinAddr: 0x83A8, symSize: 0x8 }
  - { offset: 0x8BF2D, size: 0x8, addend: 0x0, symName: __ZNSt3__112__hash_tableINS_17__hash_value_typeIN5godot10StringNameEPK35GDExtensionInstanceBindingCallbacksEENS_22__unordered_map_hasherIS3_S7_NS_4hashIS3_EENS_8equal_toIS3_EELb1EEENS_21__unordered_map_equalIS3_S7_SC_SA_Lb1EEENS_9allocatorIS7_EEE25__emplace_unique_key_argsIS3_JRKNS_21piecewise_construct_tENS_5tupleIJRKS3_EEENSN_IJEEEEEENS_4pairINS_15__hash_iteratorIPNS_11__hash_nodeIS7_PvEEEEbEERKT_DpOT0_, symObjAddr: 0x1B70, symBinAddr: 0x8CC4, symSize: 0x2D0 }
  - { offset: 0x8C731, size: 0x8, addend: 0x0, symName: __ZNSt3__112__hash_tableINS_17__hash_value_typeIN5godot10StringNameENS2_7ClassDB9ClassInfoEEENS_22__unordered_map_hasherIS3_S6_NS_4hashIS3_EENS_8equal_toIS3_EELb1EEENS_21__unordered_map_equalIS3_S6_SB_S9_Lb1EEENS_9allocatorIS6_EEE25__emplace_unique_key_argsIS3_JRKNS_21piecewise_construct_tENS_5tupleIJRKS3_EEENSM_IJEEEEEENS_4pairINS_15__hash_iteratorIPNS_11__hash_nodeIS6_PvEEEEbEERKT_DpOT0_, symObjAddr: 0x217C, symBinAddr: 0x90EC, symSize: 0x360 }
  - { offset: 0x8D3B0, size: 0x8, addend: 0x0, symName: __ZN5godot7ClassDB9ClassInfoaSERKS1_, symObjAddr: 0x1784, symBinAddr: 0x879C, symSize: 0xAC }
  - { offset: 0x8D742, size: 0x8, addend: 0x0, symName: __ZNSt3__16vectorIN5godot10StringNameENS_9allocatorIS2_EEE21__push_back_slow_pathIRKS2_EEPS2_OT_, symObjAddr: 0x3994, symBinAddr: 0xA69C, symSize: 0x114 }
  - { offset: 0x8DC21, size: 0x8, addend: 0x0, symName: __ZN5godot7ClassDB9ClassInfoD2Ev, symObjAddr: 0x3D6C, symBinAddr: 0xAA4C, symSize: 0xBC }
  - { offset: 0x8E4A2, size: 0x8, addend: 0x0, symName: __ZN5godot7ClassDB15_register_classI18SentryLoggerLimitsLb0EEEvbbb.cold.1, symObjAddr: 0x832C, symBinAddr: 0x119B0C, symSize: 0x5C }
  - { offset: 0x8E4D0, size: 0x8, addend: 0x0, symName: __ZN5godot7ClassDB15_register_classI18SentryLoggerLimitsLb0EEEvbbb.cold.2, symObjAddr: 0x8388, symBinAddr: 0x119B68, symSize: 0x58 }
  - { offset: 0x8E4FE, size: 0x8, addend: 0x0, symName: __ZN5godot7ClassDB15_register_classI18SentryLoggerLimitsLb0EEEvbbb.cold.3, symObjAddr: 0x83E0, symBinAddr: 0x119BC0, symSize: 0x58 }
  - { offset: 0x8E542, size: 0x8, addend: 0x0, symName: __ZN5godot7ClassDB15_register_classI18SentryLoggerLimitsLb0EEEvbbb.cold.4, symObjAddr: 0x8438, symBinAddr: 0x119C18, symSize: 0x58 }
  - { offset: 0x8E6E6, size: 0x8, addend: 0x0, symName: __ZNSt3__112__hash_tableINS_17__hash_value_typeIN5godot10StringNameEPNS2_10MethodBindEEENS_22__unordered_map_hasherIS3_S6_NS_4hashIS3_EENS_8equal_toIS3_EELb1EEENS_21__unordered_map_equalIS3_S6_SB_S9_Lb1EEENS_9allocatorIS6_EEE14__assign_multiINS_21__hash_const_iteratorIPNS_11__hash_nodeIS6_PvEEEEEEvT_SP_, symObjAddr: 0x26D4, symBinAddr: 0x95A4, symSize: 0x100 }
  - { offset: 0x8ED10, size: 0x8, addend: 0x0, symName: __ZNSt3__16__treeIN5godot10StringNameENS_4lessIS2_EENS_9allocatorIS2_EEE14__assign_multiINS_21__tree_const_iteratorIS2_PNS_11__tree_nodeIS2_PvEElEEEEvT_SF_, symObjAddr: 0x2D94, symBinAddr: 0x9B8C, symSize: 0x280 }
  - { offset: 0x8F333, size: 0x8, addend: 0x0, symName: __ZNSt3__112__hash_tableINS_17__hash_value_typeIN5godot10StringNameENS2_7ClassDB9ClassInfo13VirtualMethodEEENS_22__unordered_map_hasherIS3_S7_NS_4hashIS3_EENS_8equal_toIS3_EELb1EEENS_21__unordered_map_equalIS3_S7_SC_SA_Lb1EEENS_9allocatorIS7_EEE14__assign_multiINS_21__hash_const_iteratorIPNS_11__hash_nodeIS7_PvEEEEEEvT_SQ_, symObjAddr: 0x32D4, symBinAddr: 0xA0B4, symSize: 0x100 }
  - { offset: 0x8F95F, size: 0x8, addend: 0x0, symName: __ZN18SentryLoggerLimits8set_bindEPvPKvS2_, symObjAddr: 0x1830, symBinAddr: 0x8848, symSize: 0x8 }
  - { offset: 0x8F9A0, size: 0x8, addend: 0x0, symName: __ZN18SentryLoggerLimits8get_bindEPvPKvS0_, symObjAddr: 0x1838, symBinAddr: 0x8850, symSize: 0x8 }
  - { offset: 0x8F9FC, size: 0x8, addend: 0x0, symName: __ZN18SentryLoggerLimits22get_property_list_bindEPvPj, symObjAddr: 0x1840, symBinAddr: 0x8858, symSize: 0x40 }
  - { offset: 0x8FA8D, size: 0x8, addend: 0x0, symName: __ZN18SentryLoggerLimits22get_property_list_bindEPvPj.cold.1, symObjAddr: 0x8490, symBinAddr: 0x119C70, symSize: 0x28 }
  - { offset: 0x8FAA5, size: 0x8, addend: 0x0, symName: __ZN18SentryLoggerLimits23free_property_list_bindEPvPK23GDExtensionPropertyInfoj, symObjAddr: 0x1880, symBinAddr: 0x8898, symSize: 0x58 }
  - { offset: 0x8FBCA, size: 0x8, addend: 0x0, symName: __ZN18SentryLoggerLimits24property_can_revert_bindEPvPKv, symObjAddr: 0x18D8, symBinAddr: 0x88F0, symSize: 0x8 }
  - { offset: 0x8FBFD, size: 0x8, addend: 0x0, symName: __ZN18SentryLoggerLimits24property_get_revert_bindEPvPKvS0_, symObjAddr: 0x18E0, symBinAddr: 0x88F8, symSize: 0x8 }
  - { offset: 0x8FC5F, size: 0x8, addend: 0x0, symName: __ZN18SentryLoggerLimits22validate_property_bindEPvP23GDExtensionPropertyInfo, symObjAddr: 0x18E8, symBinAddr: 0x8900, symSize: 0xD0 }
  - { offset: 0x8FDEB, size: 0x8, addend: 0x0, symName: __ZN18SentryLoggerLimits17notification_bindEPvih, symObjAddr: 0x19A0, symBinAddr: 0x89D0, symSize: 0x4 }
  - { offset: 0x8FE2A, size: 0x8, addend: 0x0, symName: __ZN18SentryLoggerLimits14to_string_bindEPvPhS0_, symObjAddr: 0x19A4, symBinAddr: 0x89D4, symSize: 0x7C }
  - { offset: 0x8FEA4, size: 0x8, addend: 0x0, symName: __ZNK5godot6Object10_to_stringEv, symObjAddr: 0x3B84, symBinAddr: 0xA888, symSize: 0xE0 }
  - { offset: 0x8FFBE, size: 0x8, addend: 0x0, symName: __ZN5godot7ClassDB21_create_instance_funcI18SentryLoggerLimitsEEPvS3_h, symObjAddr: 0x1A20, symBinAddr: 0x8A50, symSize: 0x100 }
  - { offset: 0x900FC, size: 0x8, addend: 0x0, symName: __ZN5godot7ClassDB21_create_instance_funcI18SentryLoggerLimitsEEPvS3_h.cold.1, symObjAddr: 0x84B8, symBinAddr: 0x119C98, symSize: 0x5C }
  - { offset: 0x90156, size: 0x8, addend: 0x0, symName: __ZN18SentryLoggerLimits4freeEPvS0_, symObjAddr: 0x1B18, symBinAddr: 0x8B50, symSize: 0x3C }
  - { offset: 0x901B2, size: 0x8, addend: 0x0, symName: __ZN5godot7ClassDB23_recreate_instance_funcI18SentryLoggerLimitsEEPvS3_S3_, symObjAddr: 0x1B54, symBinAddr: 0x8B8C, symSize: 0x124 }
  - { offset: 0x901EE, size: 0x8, addend: 0x0, symName: __ZN18SentryLoggerLimits28_gde_binding_create_callbackEPvS0_, symObjAddr: 0x1B5C, symBinAddr: 0x8CB0, symSize: 0x8 }
  - { offset: 0x90219, size: 0x8, addend: 0x0, symName: __ZN18SentryLoggerLimits26_gde_binding_free_callbackEPvS0_S0_, symObjAddr: 0x1B64, symBinAddr: 0x8CB8, symSize: 0x4 }
  - { offset: 0x9024C, size: 0x8, addend: 0x0, symName: __ZN18SentryLoggerLimits31_gde_binding_reference_callbackEPvS0_h, symObjAddr: 0x1B68, symBinAddr: 0x8CBC, symSize: 0x8 }
  - { offset: 0x9075F, size: 0x8, addend: 0x0, symName: __ZNSt3__112__hash_tableINS_17__hash_value_typeIN5godot10StringNameEPK35GDExtensionInstanceBindingCallbacksEENS_22__unordered_map_hasherIS3_S7_NS_4hashIS3_EENS_8equal_toIS3_EELb1EEENS_21__unordered_map_equalIS3_S7_SC_SA_Lb1EEENS_9allocatorIS7_EEE11__do_rehashILb1EEEvm, symObjAddr: 0x1EA4, symBinAddr: 0x8F94, symSize: 0x158 }
  - { offset: 0x911AF, size: 0x8, addend: 0x0, symName: __ZNSt3__112__hash_tableINS_17__hash_value_typeIN5godot10StringNameENS2_7ClassDB9ClassInfoEEENS_22__unordered_map_hasherIS3_S6_NS_4hashIS3_EENS_8equal_toIS3_EELb1EEENS_21__unordered_map_equalIS3_S6_SB_S9_Lb1EEENS_9allocatorIS6_EEE11__do_rehashILb1EEEvm, symObjAddr: 0x2534, symBinAddr: 0x944C, symSize: 0x158 }
  - { offset: 0x9165F, size: 0x8, addend: 0x0, symName: __ZNSt3__112__hash_tableINS_17__hash_value_typeIN5godot10StringNameEPNS2_10MethodBindEEENS_22__unordered_map_hasherIS3_S6_NS_4hashIS3_EENS_8equal_toIS3_EELb1EEENS_21__unordered_map_equalIS3_S6_SB_S9_Lb1EEENS_9allocatorIS6_EEE14__assign_multiINS_21__hash_const_iteratorIPNS_11__hash_nodeIS6_PvEEEEEEvT_SP_, symObjAddr: 0x26D4, symBinAddr: 0x95A4, symSize: 0x100 }
  - { offset: 0x91C18, size: 0x8, addend: 0x0, symName: __ZNSt3__112__hash_tableINS_17__hash_value_typeIN5godot10StringNameEPNS2_10MethodBindEEENS_22__unordered_map_hasherIS3_S6_NS_4hashIS3_EENS_8equal_toIS3_EELb1EEENS_21__unordered_map_equalIS3_S6_SB_S9_Lb1EEENS_9allocatorIS6_EEE19__node_insert_multiEPNS_11__hash_nodeIS6_PvEE, symObjAddr: 0x27D4, symBinAddr: 0x96A4, symSize: 0x124 }
  - { offset: 0x91EC8, size: 0x8, addend: 0x0, symName: __ZNSt3__112__hash_tableINS_17__hash_value_typeIN5godot10StringNameEPNS2_10MethodBindEEENS_22__unordered_map_hasherIS3_S6_NS_4hashIS3_EENS_8equal_toIS3_EELb1EEENS_21__unordered_map_equalIS3_S6_SB_S9_Lb1EEENS_9allocatorIS6_EEE27__node_insert_multi_prepareEmRS6_, symObjAddr: 0x28F8, symBinAddr: 0x97C8, symSize: 0x210 }
  - { offset: 0x92257, size: 0x8, addend: 0x0, symName: __ZNSt3__112__hash_tableINS_17__hash_value_typeIN5godot10StringNameEPNS2_10MethodBindEEENS_22__unordered_map_hasherIS3_S6_NS_4hashIS3_EENS_8equal_toIS3_EELb1EEENS_21__unordered_map_equalIS3_S6_SB_S9_Lb1EEENS_9allocatorIS6_EEE11__do_rehashILb0EEEvm, symObjAddr: 0x2B74, symBinAddr: 0x99D8, symSize: 0x1B4 }
  - { offset: 0x92752, size: 0x8, addend: 0x0, symName: __ZNSt3__16__treeIN5godot10StringNameENS_4lessIS2_EENS_9allocatorIS2_EEE14__assign_multiINS_21__tree_const_iteratorIS2_PNS_11__tree_nodeIS2_PvEElEEEEvT_SF_, symObjAddr: 0x2D94, symBinAddr: 0x9B8C, symSize: 0x280 }
  - { offset: 0x92C1A, size: 0x8, addend: 0x0, symName: __ZNSt3__16__treeIN5godot10StringNameENS_4lessIS2_EENS_9allocatorIS2_EEE7destroyEPNS_11__tree_nodeIS2_PvEE, symObjAddr: 0x3288, symBinAddr: 0x9FA8, symSize: 0x4C }
  - { offset: 0x932EE, size: 0x8, addend: 0x0, symName: __ZNSt3__112__hash_tableINS_17__hash_value_typeIN5godot10StringNameENS2_7ClassDB9ClassInfo13VirtualMethodEEENS_22__unordered_map_hasherIS3_S7_NS_4hashIS3_EENS_8equal_toIS3_EELb1EEENS_21__unordered_map_equalIS3_S7_SC_SA_Lb1EEENS_9allocatorIS7_EEE19__node_insert_multiEPNS_11__hash_nodeIS7_PvEE, symObjAddr: 0x33D4, symBinAddr: 0xA1B4, symSize: 0x124 }
  - { offset: 0x9359E, size: 0x8, addend: 0x0, symName: __ZNSt3__112__hash_tableINS_17__hash_value_typeIN5godot10StringNameENS2_7ClassDB9ClassInfo13VirtualMethodEEENS_22__unordered_map_hasherIS3_S7_NS_4hashIS3_EENS_8equal_toIS3_EELb1EEENS_21__unordered_map_equalIS3_S7_SC_SA_Lb1EEENS_9allocatorIS7_EEE27__node_insert_multi_prepareEmRS7_, symObjAddr: 0x34F8, symBinAddr: 0xA2D8, symSize: 0x210 }
  - { offset: 0x9392D, size: 0x8, addend: 0x0, symName: __ZNSt3__112__hash_tableINS_17__hash_value_typeIN5godot10StringNameENS2_7ClassDB9ClassInfo13VirtualMethodEEENS_22__unordered_map_hasherIS3_S7_NS_4hashIS3_EENS_8equal_toIS3_EELb1EEENS_21__unordered_map_equalIS3_S7_SC_SA_Lb1EEENS_9allocatorIS7_EEE11__do_rehashILb0EEEvm, symObjAddr: 0x3774, symBinAddr: 0xA4E8, symSize: 0x1B4 }
  - { offset: 0x93E28, size: 0x8, addend: 0x0, symName: __ZNSt3__16vectorIN5godot10StringNameENS_9allocatorIS2_EEE21__push_back_slow_pathIRKS2_EEPS2_OT_, symObjAddr: 0x3994, symBinAddr: 0xA69C, symSize: 0x114 }
  - { offset: 0x9431E, size: 0x8, addend: 0x0, symName: __ZNK18SentryLoggerLimits19_is_extension_classEv, symObjAddr: 0x3C64, symBinAddr: 0xA968, symSize: 0x8 }
  - { offset: 0x94361, size: 0x8, addend: 0x0, symName: __ZN18SentryLoggerLimitsD1Ev, symObjAddr: 0x3C6C, symBinAddr: 0xA970, symSize: 0x74 }
  - { offset: 0x94518, size: 0x8, addend: 0x0, symName: __ZN18SentryLoggerLimitsD1Ev.cold.1, symObjAddr: 0x8514, symBinAddr: 0x119D50, symSize: 0x1C }
  - { offset: 0x94534, size: 0x8, addend: 0x0, symName: __ZN18SentryLoggerLimitsD1Ev.cold.1, symObjAddr: 0x8514, symBinAddr: 0x119D50, symSize: 0x1C }
  - { offset: 0x94549, size: 0x8, addend: 0x0, symName: __ZN18SentryLoggerLimitsD1Ev.cold.1, symObjAddr: 0x8514, symBinAddr: 0x119D50, symSize: 0x1C }
  - { offset: 0x9455E, size: 0x8, addend: 0x0, symName: __ZN18SentryLoggerLimitsD1Ev.cold.1, symObjAddr: 0x8514, symBinAddr: 0x119D50, symSize: 0x1C }
  - { offset: 0x94573, size: 0x8, addend: 0x0, symName: __ZN18SentryLoggerLimitsD1Ev.cold.1, symObjAddr: 0x8514, symBinAddr: 0x119D50, symSize: 0x1C }
  - { offset: 0x94588, size: 0x8, addend: 0x0, symName: __ZN18SentryLoggerLimitsD1Ev.cold.1, symObjAddr: 0x8514, symBinAddr: 0x119D50, symSize: 0x1C }
  - { offset: 0x9459D, size: 0x8, addend: 0x0, symName: __ZN18SentryLoggerLimitsD1Ev.cold.1, symObjAddr: 0x8514, symBinAddr: 0x119D50, symSize: 0x1C }
  - { offset: 0x945D1, size: 0x8, addend: 0x0, symName: __ZN18SentryLoggerLimitsD0Ev, symObjAddr: 0x3CF8, symBinAddr: 0xA9E4, symSize: 0x68 }
  - { offset: 0x94730, size: 0x8, addend: 0x0, symName: __ZN18SentryLoggerLimitsD0Ev.cold.1, symObjAddr: 0x8530, symBinAddr: 0x119D6C, symSize: 0x1C }
  - { offset: 0x9474C, size: 0x8, addend: 0x0, symName: __ZN18SentryLoggerLimitsD0Ev.cold.1, symObjAddr: 0x8530, symBinAddr: 0x119D6C, symSize: 0x1C }
  - { offset: 0x94761, size: 0x8, addend: 0x0, symName: __ZN18SentryLoggerLimitsD0Ev.cold.1, symObjAddr: 0x8530, symBinAddr: 0x119D6C, symSize: 0x1C }
  - { offset: 0x94776, size: 0x8, addend: 0x0, symName: __ZN18SentryLoggerLimitsD0Ev.cold.1, symObjAddr: 0x8530, symBinAddr: 0x119D6C, symSize: 0x1C }
  - { offset: 0x9478B, size: 0x8, addend: 0x0, symName: __ZN18SentryLoggerLimitsD0Ev.cold.1, symObjAddr: 0x8530, symBinAddr: 0x119D6C, symSize: 0x1C }
  - { offset: 0x947A0, size: 0x8, addend: 0x0, symName: __ZN18SentryLoggerLimitsD0Ev.cold.1, symObjAddr: 0x8530, symBinAddr: 0x119D6C, symSize: 0x1C }
  - { offset: 0x947B5, size: 0x8, addend: 0x0, symName: __ZN18SentryLoggerLimitsD0Ev.cold.1, symObjAddr: 0x8530, symBinAddr: 0x119D6C, symSize: 0x1C }
  - { offset: 0x947CA, size: 0x8, addend: 0x0, symName: __ZN18SentryLoggerLimitsD0Ev.cold.1, symObjAddr: 0x8530, symBinAddr: 0x119D6C, symSize: 0x1C }
  - { offset: 0x949F0, size: 0x8, addend: 0x0, symName: __ZN5godot7ClassDB15_register_classI13SentryOptionsLb0EEEvbbb.cold.1, symObjAddr: 0x854C, symBinAddr: 0x119D88, symSize: 0x5C }
  - { offset: 0x94A1E, size: 0x8, addend: 0x0, symName: __ZN5godot7ClassDB15_register_classI13SentryOptionsLb0EEEvbbb.cold.2, symObjAddr: 0x85A8, symBinAddr: 0x119DE4, symSize: 0x58 }
  - { offset: 0x94A4C, size: 0x8, addend: 0x0, symName: __ZN5godot7ClassDB15_register_classI13SentryOptionsLb0EEEvbbb.cold.3, symObjAddr: 0x8600, symBinAddr: 0x119E3C, symSize: 0x58 }
  - { offset: 0x94A90, size: 0x8, addend: 0x0, symName: __ZN5godot7ClassDB15_register_classI13SentryOptionsLb0EEEvbbb.cold.4, symObjAddr: 0x8658, symBinAddr: 0x119E94, symSize: 0x58 }
  - { offset: 0x94ABF, size: 0x8, addend: 0x0, symName: __ZN13SentryOptions8set_bindEPvPKvS2_, symObjAddr: 0x4154, symBinAddr: 0xAEF4, symSize: 0x8 }
  - { offset: 0x94B00, size: 0x8, addend: 0x0, symName: __ZN13SentryOptions8get_bindEPvPKvS0_, symObjAddr: 0x415C, symBinAddr: 0xAEFC, symSize: 0x8 }
  - { offset: 0x94B41, size: 0x8, addend: 0x0, symName: __ZN13SentryOptions22get_property_list_bindEPvPj, symObjAddr: 0x4164, symBinAddr: 0xAF04, symSize: 0x40 }
  - { offset: 0x94BD2, size: 0x8, addend: 0x0, symName: __ZN13SentryOptions22get_property_list_bindEPvPj.cold.1, symObjAddr: 0x86B0, symBinAddr: 0x119EEC, symSize: 0x28 }
  - { offset: 0x94BEA, size: 0x8, addend: 0x0, symName: __ZN13SentryOptions23free_property_list_bindEPvPK23GDExtensionPropertyInfoj, symObjAddr: 0x41A4, symBinAddr: 0xAF44, symSize: 0x58 }
  - { offset: 0x94D0F, size: 0x8, addend: 0x0, symName: __ZN13SentryOptions24property_can_revert_bindEPvPKv, symObjAddr: 0x41FC, symBinAddr: 0xAF9C, symSize: 0x8 }
  - { offset: 0x94D42, size: 0x8, addend: 0x0, symName: __ZN13SentryOptions24property_get_revert_bindEPvPKvS0_, symObjAddr: 0x4204, symBinAddr: 0xAFA4, symSize: 0x8 }
  - { offset: 0x94D83, size: 0x8, addend: 0x0, symName: __ZN13SentryOptions22validate_property_bindEPvP23GDExtensionPropertyInfo, symObjAddr: 0x420C, symBinAddr: 0xAFAC, symSize: 0xD0 }
  - { offset: 0x94E4F, size: 0x8, addend: 0x0, symName: __ZN13SentryOptions17notification_bindEPvih, symObjAddr: 0x42C4, symBinAddr: 0xB07C, symSize: 0x4 }
  - { offset: 0x94E8E, size: 0x8, addend: 0x0, symName: __ZN13SentryOptions14to_string_bindEPvPhS0_, symObjAddr: 0x42C8, symBinAddr: 0xB080, symSize: 0x7C }
  - { offset: 0x94F2C, size: 0x8, addend: 0x0, symName: __ZN5godot7ClassDB21_create_instance_funcI13SentryOptionsEEPvS3_h, symObjAddr: 0x4344, symBinAddr: 0xB0FC, symSize: 0x88 }
  - { offset: 0x94FC0, size: 0x8, addend: 0x0, symName: __ZN5godot7ClassDB21_create_instance_funcI13SentryOptionsEEPvS3_h.cold.1, symObjAddr: 0x86D8, symBinAddr: 0x119F14, symSize: 0x5C }
  - { offset: 0x9501A, size: 0x8, addend: 0x0, symName: __ZN13SentryOptions4freeEPvS0_, symObjAddr: 0x43C4, symBinAddr: 0xB184, symSize: 0x3C }
  - { offset: 0x95076, size: 0x8, addend: 0x0, symName: __ZN5godot7ClassDB23_recreate_instance_funcI13SentryOptionsEEPvS3_S3_, symObjAddr: 0x4400, symBinAddr: 0xB1C0, symSize: 0xAC }
  - { offset: 0x950B2, size: 0x8, addend: 0x0, symName: __ZN13SentryOptions28_gde_binding_create_callbackEPvS0_, symObjAddr: 0x4408, symBinAddr: 0xB26C, symSize: 0x8 }
  - { offset: 0x950DD, size: 0x8, addend: 0x0, symName: __ZN13SentryOptions26_gde_binding_free_callbackEPvS0_S0_, symObjAddr: 0x4410, symBinAddr: 0xB274, symSize: 0x4 }
  - { offset: 0x95110, size: 0x8, addend: 0x0, symName: __ZN13SentryOptions31_gde_binding_reference_callbackEPvS0_h, symObjAddr: 0x4414, symBinAddr: 0xB278, symSize: 0x8 }
  - { offset: 0x9515A, size: 0x8, addend: 0x0, symName: __ZN5godot7ClassDB15_register_classI13RuntimeConfigLb0EEEvbbb.cold.1, symObjAddr: 0x8734, symBinAddr: 0x119FCC, symSize: 0x5C }
  - { offset: 0x95188, size: 0x8, addend: 0x0, symName: __ZN5godot7ClassDB15_register_classI13RuntimeConfigLb0EEEvbbb.cold.2, symObjAddr: 0x8790, symBinAddr: 0x11A028, symSize: 0x58 }
  - { offset: 0x951B6, size: 0x8, addend: 0x0, symName: __ZN5godot7ClassDB15_register_classI13RuntimeConfigLb0EEEvbbb.cold.3, symObjAddr: 0x87E8, symBinAddr: 0x11A080, symSize: 0x58 }
  - { offset: 0x951FA, size: 0x8, addend: 0x0, symName: __ZN5godot7ClassDB15_register_classI13RuntimeConfigLb0EEEvbbb.cold.4, symObjAddr: 0x8840, symBinAddr: 0x11A0D8, symSize: 0x58 }
  - { offset: 0x95229, size: 0x8, addend: 0x0, symName: __ZN13RuntimeConfig8set_bindEPvPKvS2_, symObjAddr: 0x4744, symBinAddr: 0xB668, symSize: 0x8 }
  - { offset: 0x9526A, size: 0x8, addend: 0x0, symName: __ZN13RuntimeConfig8get_bindEPvPKvS0_, symObjAddr: 0x474C, symBinAddr: 0xB670, symSize: 0x8 }
  - { offset: 0x952AB, size: 0x8, addend: 0x0, symName: __ZN13RuntimeConfig22get_property_list_bindEPvPj, symObjAddr: 0x4754, symBinAddr: 0xB678, symSize: 0x40 }
  - { offset: 0x9533C, size: 0x8, addend: 0x0, symName: __ZN13RuntimeConfig22get_property_list_bindEPvPj.cold.1, symObjAddr: 0x8898, symBinAddr: 0x11A130, symSize: 0x28 }
  - { offset: 0x95354, size: 0x8, addend: 0x0, symName: __ZN13RuntimeConfig23free_property_list_bindEPvPK23GDExtensionPropertyInfoj, symObjAddr: 0x4794, symBinAddr: 0xB6B8, symSize: 0x58 }
  - { offset: 0x95479, size: 0x8, addend: 0x0, symName: __ZN13RuntimeConfig24property_can_revert_bindEPvPKv, symObjAddr: 0x47EC, symBinAddr: 0xB710, symSize: 0x8 }
  - { offset: 0x954AC, size: 0x8, addend: 0x0, symName: __ZN13RuntimeConfig24property_get_revert_bindEPvPKvS0_, symObjAddr: 0x47F4, symBinAddr: 0xB718, symSize: 0x8 }
  - { offset: 0x954ED, size: 0x8, addend: 0x0, symName: __ZN13RuntimeConfig22validate_property_bindEPvP23GDExtensionPropertyInfo, symObjAddr: 0x47FC, symBinAddr: 0xB720, symSize: 0xD0 }
  - { offset: 0x955B9, size: 0x8, addend: 0x0, symName: __ZN13RuntimeConfig17notification_bindEPvih, symObjAddr: 0x48B4, symBinAddr: 0xB7F0, symSize: 0x4 }
  - { offset: 0x955F8, size: 0x8, addend: 0x0, symName: __ZN13RuntimeConfig14to_string_bindEPvPhS0_, symObjAddr: 0x48B8, symBinAddr: 0xB7F4, symSize: 0x7C }
  - { offset: 0x95696, size: 0x8, addend: 0x0, symName: __ZN5godot7ClassDB21_create_instance_funcI13RuntimeConfigEEPvS3_h, symObjAddr: 0x4934, symBinAddr: 0xB870, symSize: 0x88 }
  - { offset: 0x9572A, size: 0x8, addend: 0x0, symName: __ZN5godot7ClassDB21_create_instance_funcI13RuntimeConfigEEPvS3_h.cold.1, symObjAddr: 0x88C0, symBinAddr: 0x11A158, symSize: 0x5C }
  - { offset: 0x95784, size: 0x8, addend: 0x0, symName: __ZN13RuntimeConfig4freeEPvS0_, symObjAddr: 0x49B4, symBinAddr: 0xB8F8, symSize: 0x3C }
  - { offset: 0x957E0, size: 0x8, addend: 0x0, symName: __ZN5godot7ClassDB23_recreate_instance_funcI13RuntimeConfigEEPvS3_S3_, symObjAddr: 0x49F0, symBinAddr: 0xB934, symSize: 0xAC }
  - { offset: 0x9581C, size: 0x8, addend: 0x0, symName: __ZN13RuntimeConfig28_gde_binding_create_callbackEPvS0_, symObjAddr: 0x49F8, symBinAddr: 0xB9E0, symSize: 0x8 }
  - { offset: 0x95847, size: 0x8, addend: 0x0, symName: __ZN13RuntimeConfig26_gde_binding_free_callbackEPvS0_S0_, symObjAddr: 0x4A00, symBinAddr: 0xB9E8, symSize: 0x4 }
  - { offset: 0x9587A, size: 0x8, addend: 0x0, symName: __ZN13RuntimeConfig31_gde_binding_reference_callbackEPvS0_h, symObjAddr: 0x4A04, symBinAddr: 0xB9EC, symSize: 0x8 }
  - { offset: 0x958C4, size: 0x8, addend: 0x0, symName: __ZN5godot7ClassDB15_register_classI19SentryConfigurationLb0EEEvbbb.cold.1, symObjAddr: 0x891C, symBinAddr: 0x11A210, symSize: 0x5C }
  - { offset: 0x958F2, size: 0x8, addend: 0x0, symName: __ZN5godot7ClassDB15_register_classI19SentryConfigurationLb0EEEvbbb.cold.2, symObjAddr: 0x8978, symBinAddr: 0x11A26C, symSize: 0x58 }
  - { offset: 0x95920, size: 0x8, addend: 0x0, symName: __ZN5godot7ClassDB15_register_classI19SentryConfigurationLb0EEEvbbb.cold.3, symObjAddr: 0x89D0, symBinAddr: 0x11A2C4, symSize: 0x58 }
  - { offset: 0x95964, size: 0x8, addend: 0x0, symName: __ZN5godot7ClassDB15_register_classI19SentryConfigurationLb0EEEvbbb.cold.4, symObjAddr: 0x8A28, symBinAddr: 0x11A31C, symSize: 0x58 }
  - { offset: 0x95993, size: 0x8, addend: 0x0, symName: __ZN19SentryConfiguration8set_bindEPvPKvS2_, symObjAddr: 0x4D38, symBinAddr: 0xBDE0, symSize: 0x8 }
  - { offset: 0x959D4, size: 0x8, addend: 0x0, symName: __ZN19SentryConfiguration8get_bindEPvPKvS0_, symObjAddr: 0x4D40, symBinAddr: 0xBDE8, symSize: 0x8 }
  - { offset: 0x95A15, size: 0x8, addend: 0x0, symName: __ZN19SentryConfiguration22get_property_list_bindEPvPj, symObjAddr: 0x4D48, symBinAddr: 0xBDF0, symSize: 0x40 }
  - { offset: 0x95AA6, size: 0x8, addend: 0x0, symName: __ZN19SentryConfiguration22get_property_list_bindEPvPj.cold.1, symObjAddr: 0x8A80, symBinAddr: 0x11A374, symSize: 0x28 }
  - { offset: 0x95ABE, size: 0x8, addend: 0x0, symName: __ZN19SentryConfiguration23free_property_list_bindEPvPK23GDExtensionPropertyInfoj, symObjAddr: 0x4D88, symBinAddr: 0xBE30, symSize: 0x58 }
  - { offset: 0x95BE3, size: 0x8, addend: 0x0, symName: __ZN19SentryConfiguration24property_can_revert_bindEPvPKv, symObjAddr: 0x4DE0, symBinAddr: 0xBE88, symSize: 0x8 }
  - { offset: 0x95C16, size: 0x8, addend: 0x0, symName: __ZN19SentryConfiguration24property_get_revert_bindEPvPKvS0_, symObjAddr: 0x4DE8, symBinAddr: 0xBE90, symSize: 0x8 }
  - { offset: 0x95C57, size: 0x8, addend: 0x0, symName: __ZN19SentryConfiguration22validate_property_bindEPvP23GDExtensionPropertyInfo, symObjAddr: 0x4DF0, symBinAddr: 0xBE98, symSize: 0xD0 }
  - { offset: 0x95D23, size: 0x8, addend: 0x0, symName: __ZN19SentryConfiguration17notification_bindEPvih, symObjAddr: 0x4EA8, symBinAddr: 0xBF68, symSize: 0xC }
  - { offset: 0x95D7F, size: 0x8, addend: 0x0, symName: __ZN19SentryConfiguration14to_string_bindEPvPhS0_, symObjAddr: 0x4EB4, symBinAddr: 0xBF74, symSize: 0x7C }
  - { offset: 0x95DF9, size: 0x8, addend: 0x0, symName: __ZNK5godot4Node10_to_stringEv, symObjAddr: 0x5080, symBinAddr: 0xC264, symSize: 0xFC }
  - { offset: 0x95ED4, size: 0x8, addend: 0x0, symName: __ZN5godot7ClassDB21_create_instance_funcI19SentryConfigurationEEPvS3_h, symObjAddr: 0x4F30, symBinAddr: 0xBFF0, symSize: 0x100 }
  - { offset: 0x96012, size: 0x8, addend: 0x0, symName: __ZN5godot7ClassDB21_create_instance_funcI19SentryConfigurationEEPvS3_h.cold.1, symObjAddr: 0x8AA8, symBinAddr: 0x11A39C, symSize: 0x5C }
  - { offset: 0x9606C, size: 0x8, addend: 0x0, symName: __ZN19SentryConfiguration4freeEPvS0_, symObjAddr: 0x5028, symBinAddr: 0xC0F0, symSize: 0x3C }
  - { offset: 0x960C8, size: 0x8, addend: 0x0, symName: __ZN5godot7ClassDB23_recreate_instance_funcI19SentryConfigurationEEPvS3_S3_, symObjAddr: 0x5064, symBinAddr: 0xC12C, symSize: 0x124 }
  - { offset: 0x96104, size: 0x8, addend: 0x0, symName: __ZN19SentryConfiguration28_gde_binding_create_callbackEPvS0_, symObjAddr: 0x506C, symBinAddr: 0xC250, symSize: 0x8 }
  - { offset: 0x9612F, size: 0x8, addend: 0x0, symName: __ZN19SentryConfiguration26_gde_binding_free_callbackEPvS0_S0_, symObjAddr: 0x5074, symBinAddr: 0xC258, symSize: 0x4 }
  - { offset: 0x96162, size: 0x8, addend: 0x0, symName: __ZN19SentryConfiguration31_gde_binding_reference_callbackEPvS0_h, symObjAddr: 0x5078, symBinAddr: 0xC25C, symSize: 0x8 }
  - { offset: 0x96197, size: 0x8, addend: 0x0, symName: __ZNK19SentryConfiguration19_is_extension_classEv, symObjAddr: 0x517C, symBinAddr: 0xC360, symSize: 0x8 }
  - { offset: 0x961DA, size: 0x8, addend: 0x0, symName: __ZN19SentryConfigurationD1Ev, symObjAddr: 0x5184, symBinAddr: 0xC368, symSize: 0x84 }
  - { offset: 0x96391, size: 0x8, addend: 0x0, symName: __ZN19SentryConfigurationD1Ev.cold.1, symObjAddr: 0x8B04, symBinAddr: 0x11A454, symSize: 0x1C }
  - { offset: 0x963AD, size: 0x8, addend: 0x0, symName: __ZN19SentryConfigurationD1Ev.cold.1, symObjAddr: 0x8B04, symBinAddr: 0x11A454, symSize: 0x1C }
  - { offset: 0x963C2, size: 0x8, addend: 0x0, symName: __ZN19SentryConfigurationD1Ev.cold.1, symObjAddr: 0x8B04, symBinAddr: 0x11A454, symSize: 0x1C }
  - { offset: 0x963D7, size: 0x8, addend: 0x0, symName: __ZN19SentryConfigurationD1Ev.cold.1, symObjAddr: 0x8B04, symBinAddr: 0x11A454, symSize: 0x1C }
  - { offset: 0x963EC, size: 0x8, addend: 0x0, symName: __ZN19SentryConfigurationD1Ev.cold.1, symObjAddr: 0x8B04, symBinAddr: 0x11A454, symSize: 0x1C }
  - { offset: 0x96401, size: 0x8, addend: 0x0, symName: __ZN19SentryConfigurationD1Ev.cold.1, symObjAddr: 0x8B04, symBinAddr: 0x11A454, symSize: 0x1C }
  - { offset: 0x96416, size: 0x8, addend: 0x0, symName: __ZN19SentryConfigurationD1Ev.cold.1, symObjAddr: 0x8B04, symBinAddr: 0x11A454, symSize: 0x1C }
  - { offset: 0x9644A, size: 0x8, addend: 0x0, symName: __ZN19SentryConfigurationD0Ev, symObjAddr: 0x5220, symBinAddr: 0xC3EC, symSize: 0x78 }
  - { offset: 0x965A9, size: 0x8, addend: 0x0, symName: __ZN19SentryConfigurationD0Ev.cold.1, symObjAddr: 0x8B20, symBinAddr: 0x11A470, symSize: 0x1C }
  - { offset: 0x965C5, size: 0x8, addend: 0x0, symName: __ZN19SentryConfigurationD0Ev.cold.1, symObjAddr: 0x8B20, symBinAddr: 0x11A470, symSize: 0x1C }
  - { offset: 0x965DA, size: 0x8, addend: 0x0, symName: __ZN19SentryConfigurationD0Ev.cold.1, symObjAddr: 0x8B20, symBinAddr: 0x11A470, symSize: 0x1C }
  - { offset: 0x965EF, size: 0x8, addend: 0x0, symName: __ZN19SentryConfigurationD0Ev.cold.1, symObjAddr: 0x8B20, symBinAddr: 0x11A470, symSize: 0x1C }
  - { offset: 0x96604, size: 0x8, addend: 0x0, symName: __ZN19SentryConfigurationD0Ev.cold.1, symObjAddr: 0x8B20, symBinAddr: 0x11A470, symSize: 0x1C }
  - { offset: 0x96619, size: 0x8, addend: 0x0, symName: __ZN19SentryConfigurationD0Ev.cold.1, symObjAddr: 0x8B20, symBinAddr: 0x11A470, symSize: 0x1C }
  - { offset: 0x9662E, size: 0x8, addend: 0x0, symName: __ZN19SentryConfigurationD0Ev.cold.1, symObjAddr: 0x8B20, symBinAddr: 0x11A470, symSize: 0x1C }
  - { offset: 0x96643, size: 0x8, addend: 0x0, symName: __ZN19SentryConfigurationD0Ev.cold.1, symObjAddr: 0x8B20, symBinAddr: 0x11A470, symSize: 0x1C }
  - { offset: 0x96671, size: 0x8, addend: 0x0, symName: __ZN5godot7ClassDB15_register_classI10SentryUserLb0EEEvbbb.cold.1, symObjAddr: 0x8B3C, symBinAddr: 0x11A48C, symSize: 0x5C }
  - { offset: 0x9669F, size: 0x8, addend: 0x0, symName: __ZN5godot7ClassDB15_register_classI10SentryUserLb0EEEvbbb.cold.2, symObjAddr: 0x8B98, symBinAddr: 0x11A4E8, symSize: 0x58 }
  - { offset: 0x966CD, size: 0x8, addend: 0x0, symName: __ZN5godot7ClassDB15_register_classI10SentryUserLb0EEEvbbb.cold.3, symObjAddr: 0x8BF0, symBinAddr: 0x11A540, symSize: 0x58 }
  - { offset: 0x96711, size: 0x8, addend: 0x0, symName: __ZN5godot7ClassDB15_register_classI10SentryUserLb0EEEvbbb.cold.4, symObjAddr: 0x8C48, symBinAddr: 0x11A598, symSize: 0x58 }
  - { offset: 0x96740, size: 0x8, addend: 0x0, symName: __ZN10SentryUser8set_bindEPvPKvS2_, symObjAddr: 0x55D0, symBinAddr: 0xC850, symSize: 0x8 }
  - { offset: 0x96781, size: 0x8, addend: 0x0, symName: __ZN10SentryUser8get_bindEPvPKvS0_, symObjAddr: 0x55D8, symBinAddr: 0xC858, symSize: 0x8 }
  - { offset: 0x967C2, size: 0x8, addend: 0x0, symName: __ZN10SentryUser22get_property_list_bindEPvPj, symObjAddr: 0x55E0, symBinAddr: 0xC860, symSize: 0x40 }
  - { offset: 0x96853, size: 0x8, addend: 0x0, symName: __ZN10SentryUser22get_property_list_bindEPvPj.cold.1, symObjAddr: 0x8CA0, symBinAddr: 0x11A5F0, symSize: 0x28 }
  - { offset: 0x9686B, size: 0x8, addend: 0x0, symName: __ZN10SentryUser23free_property_list_bindEPvPK23GDExtensionPropertyInfoj, symObjAddr: 0x5620, symBinAddr: 0xC8A0, symSize: 0x58 }
  - { offset: 0x96990, size: 0x8, addend: 0x0, symName: __ZN10SentryUser24property_can_revert_bindEPvPKv, symObjAddr: 0x5678, symBinAddr: 0xC8F8, symSize: 0x8 }
  - { offset: 0x969C3, size: 0x8, addend: 0x0, symName: __ZN10SentryUser24property_get_revert_bindEPvPKvS0_, symObjAddr: 0x5680, symBinAddr: 0xC900, symSize: 0x8 }
  - { offset: 0x96A04, size: 0x8, addend: 0x0, symName: __ZN10SentryUser22validate_property_bindEPvP23GDExtensionPropertyInfo, symObjAddr: 0x5688, symBinAddr: 0xC908, symSize: 0xD0 }
  - { offset: 0x96AD0, size: 0x8, addend: 0x0, symName: __ZN10SentryUser17notification_bindEPvih, symObjAddr: 0x5740, symBinAddr: 0xC9D8, symSize: 0x4 }
  - { offset: 0x96B0F, size: 0x8, addend: 0x0, symName: __ZN10SentryUser14to_string_bindEPvPhS0_, symObjAddr: 0x5744, symBinAddr: 0xC9DC, symSize: 0x7C }
  - { offset: 0x96BCF, size: 0x8, addend: 0x0, symName: __ZN5godot7ClassDB21_create_instance_funcI10SentryUserEEPvS3_h, symObjAddr: 0x57C0, symBinAddr: 0xCA58, symSize: 0x118 }
  - { offset: 0x96D0D, size: 0x8, addend: 0x0, symName: __ZN5godot7ClassDB21_create_instance_funcI10SentryUserEEPvS3_h.cold.1, symObjAddr: 0x8CC8, symBinAddr: 0x11A618, symSize: 0x5C }
  - { offset: 0x96D67, size: 0x8, addend: 0x0, symName: __ZN10SentryUser4freeEPvS0_, symObjAddr: 0x58D0, symBinAddr: 0xCB70, symSize: 0x3C }
  - { offset: 0x96DC3, size: 0x8, addend: 0x0, symName: __ZN5godot7ClassDB23_recreate_instance_funcI10SentryUserEEPvS3_S3_, symObjAddr: 0x590C, symBinAddr: 0xCBAC, symSize: 0x134 }
  - { offset: 0x96DFF, size: 0x8, addend: 0x0, symName: __ZN10SentryUser28_gde_binding_create_callbackEPvS0_, symObjAddr: 0x5914, symBinAddr: 0xCCE0, symSize: 0x8 }
  - { offset: 0x96E2A, size: 0x8, addend: 0x0, symName: __ZN10SentryUser26_gde_binding_free_callbackEPvS0_S0_, symObjAddr: 0x591C, symBinAddr: 0xCCE8, symSize: 0x4 }
  - { offset: 0x96E5D, size: 0x8, addend: 0x0, symName: __ZN10SentryUser31_gde_binding_reference_callbackEPvS0_h, symObjAddr: 0x5920, symBinAddr: 0xCCEC, symSize: 0x8 }
  - { offset: 0x96E92, size: 0x8, addend: 0x0, symName: __ZNK10SentryUser19_is_extension_classEv, symObjAddr: 0x5928, symBinAddr: 0xCCF4, symSize: 0x8 }
  - { offset: 0x96EB9, size: 0x8, addend: 0x0, symName: __ZN10SentryUserD1Ev, symObjAddr: 0x5930, symBinAddr: 0xCCFC, symSize: 0x4 }
  - { offset: 0x96EDD, size: 0x8, addend: 0x0, symName: __ZN10SentryUserD1Ev, symObjAddr: 0x5930, symBinAddr: 0xCCFC, symSize: 0x4 }
  - { offset: 0x96EF1, size: 0x8, addend: 0x0, symName: __ZN10SentryUserD2Ev, symObjAddr: 0x5948, symBinAddr: 0xCD14, symSize: 0x9C }
  - { offset: 0x970B6, size: 0x8, addend: 0x0, symName: __ZN10SentryUserD0Ev, symObjAddr: 0x5934, symBinAddr: 0xCD00, symSize: 0x14 }
  - { offset: 0x97116, size: 0x8, addend: 0x0, symName: __ZN10SentryUserD2Ev.cold.1, symObjAddr: 0x8D24, symBinAddr: 0x11A6D0, symSize: 0x1C }
  - { offset: 0x97132, size: 0x8, addend: 0x0, symName: __ZN10SentryUserD2Ev.cold.1, symObjAddr: 0x8D24, symBinAddr: 0x11A6D0, symSize: 0x1C }
  - { offset: 0x97147, size: 0x8, addend: 0x0, symName: __ZN10SentryUserD2Ev.cold.1, symObjAddr: 0x8D24, symBinAddr: 0x11A6D0, symSize: 0x1C }
  - { offset: 0x9715C, size: 0x8, addend: 0x0, symName: __ZN10SentryUserD2Ev.cold.1, symObjAddr: 0x8D24, symBinAddr: 0x11A6D0, symSize: 0x1C }
  - { offset: 0x97171, size: 0x8, addend: 0x0, symName: __ZN10SentryUserD2Ev.cold.1, symObjAddr: 0x8D24, symBinAddr: 0x11A6D0, symSize: 0x1C }
  - { offset: 0x97186, size: 0x8, addend: 0x0, symName: __ZN10SentryUserD2Ev.cold.1, symObjAddr: 0x8D24, symBinAddr: 0x11A6D0, symSize: 0x1C }
  - { offset: 0x971AB, size: 0x8, addend: 0x0, symName: __ZN5godot7ClassDB15_register_classI9SentrySDKLb0EEEvbbb.cold.1, symObjAddr: 0x8D40, symBinAddr: 0x11A6EC, symSize: 0x5C }
  - { offset: 0x971D9, size: 0x8, addend: 0x0, symName: __ZN5godot7ClassDB15_register_classI9SentrySDKLb0EEEvbbb.cold.2, symObjAddr: 0x8D9C, symBinAddr: 0x11A748, symSize: 0x58 }
  - { offset: 0x97207, size: 0x8, addend: 0x0, symName: __ZN5godot7ClassDB15_register_classI9SentrySDKLb0EEEvbbb.cold.3, symObjAddr: 0x8DF4, symBinAddr: 0x11A7A0, symSize: 0x58 }
  - { offset: 0x9724B, size: 0x8, addend: 0x0, symName: __ZN5godot7ClassDB15_register_classI9SentrySDKLb0EEEvbbb.cold.4, symObjAddr: 0x8E4C, symBinAddr: 0x11A7F8, symSize: 0x58 }
  - { offset: 0x9727A, size: 0x8, addend: 0x0, symName: __ZN9SentrySDK8set_bindEPvPKvS2_, symObjAddr: 0x5D28, symBinAddr: 0xD19C, symSize: 0x8 }
  - { offset: 0x972BB, size: 0x8, addend: 0x0, symName: __ZN9SentrySDK8get_bindEPvPKvS0_, symObjAddr: 0x5D30, symBinAddr: 0xD1A4, symSize: 0x8 }
  - { offset: 0x972FC, size: 0x8, addend: 0x0, symName: __ZN9SentrySDK22get_property_list_bindEPvPj, symObjAddr: 0x5D38, symBinAddr: 0xD1AC, symSize: 0x40 }
  - { offset: 0x9738D, size: 0x8, addend: 0x0, symName: __ZN9SentrySDK22get_property_list_bindEPvPj.cold.1, symObjAddr: 0x8EA4, symBinAddr: 0x11A850, symSize: 0x28 }
  - { offset: 0x973A5, size: 0x8, addend: 0x0, symName: __ZN9SentrySDK23free_property_list_bindEPvPK23GDExtensionPropertyInfoj, symObjAddr: 0x5D78, symBinAddr: 0xD1EC, symSize: 0x58 }
  - { offset: 0x974CA, size: 0x8, addend: 0x0, symName: __ZN9SentrySDK24property_can_revert_bindEPvPKv, symObjAddr: 0x5DD0, symBinAddr: 0xD244, symSize: 0x8 }
  - { offset: 0x974FD, size: 0x8, addend: 0x0, symName: __ZN9SentrySDK24property_get_revert_bindEPvPKvS0_, symObjAddr: 0x5DD8, symBinAddr: 0xD24C, symSize: 0x8 }
  - { offset: 0x9753E, size: 0x8, addend: 0x0, symName: __ZN9SentrySDK22validate_property_bindEPvP23GDExtensionPropertyInfo, symObjAddr: 0x5DE0, symBinAddr: 0xD254, symSize: 0xD0 }
  - { offset: 0x9760A, size: 0x8, addend: 0x0, symName: __ZN9SentrySDK17notification_bindEPvih, symObjAddr: 0x5E98, symBinAddr: 0xD324, symSize: 0x4 }
  - { offset: 0x97649, size: 0x8, addend: 0x0, symName: __ZN9SentrySDK14to_string_bindEPvPhS0_, symObjAddr: 0x5E9C, symBinAddr: 0xD328, symSize: 0x7C }
  - { offset: 0x976C3, size: 0x8, addend: 0x0, symName: __ZN5godot7ClassDB21_create_instance_funcI9SentrySDKEEPvS3_h, symObjAddr: 0x5F18, symBinAddr: 0xD3A4, symSize: 0x88 }
  - { offset: 0x97757, size: 0x8, addend: 0x0, symName: __ZN5godot7ClassDB21_create_instance_funcI9SentrySDKEEPvS3_h.cold.1, symObjAddr: 0x8ECC, symBinAddr: 0x11A878, symSize: 0x5C }
  - { offset: 0x977B1, size: 0x8, addend: 0x0, symName: __ZN9SentrySDK4freeEPvS0_, symObjAddr: 0x5F98, symBinAddr: 0xD42C, symSize: 0x3C }
  - { offset: 0x9780D, size: 0x8, addend: 0x0, symName: __ZN5godot7ClassDB23_recreate_instance_funcI9SentrySDKEEPvS3_S3_, symObjAddr: 0x5FD4, symBinAddr: 0xD468, symSize: 0xAC }
  - { offset: 0x97849, size: 0x8, addend: 0x0, symName: __ZN9SentrySDK28_gde_binding_create_callbackEPvS0_, symObjAddr: 0x5FDC, symBinAddr: 0xD514, symSize: 0x8 }
  - { offset: 0x97874, size: 0x8, addend: 0x0, symName: __ZN9SentrySDK26_gde_binding_free_callbackEPvS0_S0_, symObjAddr: 0x5FE4, symBinAddr: 0xD51C, symSize: 0x4 }
  - { offset: 0x978A7, size: 0x8, addend: 0x0, symName: __ZN9SentrySDK31_gde_binding_reference_callbackEPvS0_h, symObjAddr: 0x5FE8, symBinAddr: 0xD520, symSize: 0x8 }
  - { offset: 0x978F1, size: 0x8, addend: 0x0, symName: __ZN5godot7ClassDB15_register_classI11SentryEventLb1EEEvbbb.cold.1, symObjAddr: 0x8F28, symBinAddr: 0x11A930, symSize: 0x5C }
  - { offset: 0x9791F, size: 0x8, addend: 0x0, symName: __ZN5godot7ClassDB15_register_classI11SentryEventLb1EEEvbbb.cold.2, symObjAddr: 0x8F84, symBinAddr: 0x11A98C, symSize: 0x58 }
  - { offset: 0x9794D, size: 0x8, addend: 0x0, symName: __ZN5godot7ClassDB15_register_classI11SentryEventLb1EEEvbbb.cold.3, symObjAddr: 0x8FDC, symBinAddr: 0x11A9E4, symSize: 0x58 }
  - { offset: 0x97991, size: 0x8, addend: 0x0, symName: __ZN5godot7ClassDB15_register_classI11SentryEventLb1EEEvbbb.cold.4, symObjAddr: 0x9034, symBinAddr: 0x11AA3C, symSize: 0x58 }
  - { offset: 0x979C0, size: 0x8, addend: 0x0, symName: __ZN11SentryEvent8set_bindEPvPKvS2_, symObjAddr: 0x6320, symBinAddr: 0xD918, symSize: 0x8 }
  - { offset: 0x97A01, size: 0x8, addend: 0x0, symName: __ZN11SentryEvent8get_bindEPvPKvS0_, symObjAddr: 0x6328, symBinAddr: 0xD920, symSize: 0x8 }
  - { offset: 0x97A42, size: 0x8, addend: 0x0, symName: __ZN11SentryEvent22get_property_list_bindEPvPj, symObjAddr: 0x6330, symBinAddr: 0xD928, symSize: 0x40 }
  - { offset: 0x97AD3, size: 0x8, addend: 0x0, symName: __ZN11SentryEvent22get_property_list_bindEPvPj.cold.1, symObjAddr: 0x908C, symBinAddr: 0x11AA94, symSize: 0x28 }
  - { offset: 0x97AEB, size: 0x8, addend: 0x0, symName: __ZN11SentryEvent23free_property_list_bindEPvPK23GDExtensionPropertyInfoj, symObjAddr: 0x6370, symBinAddr: 0xD968, symSize: 0x58 }
  - { offset: 0x97C10, size: 0x8, addend: 0x0, symName: __ZN11SentryEvent24property_can_revert_bindEPvPKv, symObjAddr: 0x63C8, symBinAddr: 0xD9C0, symSize: 0x8 }
  - { offset: 0x97C43, size: 0x8, addend: 0x0, symName: __ZN11SentryEvent24property_get_revert_bindEPvPKvS0_, symObjAddr: 0x63D0, symBinAddr: 0xD9C8, symSize: 0x8 }
  - { offset: 0x97C84, size: 0x8, addend: 0x0, symName: __ZN11SentryEvent22validate_property_bindEPvP23GDExtensionPropertyInfo, symObjAddr: 0x63D8, symBinAddr: 0xD9D0, symSize: 0xD0 }
  - { offset: 0x97D33, size: 0x8, addend: 0x0, symName: __ZN11SentryEvent17notification_bindEPvih, symObjAddr: 0x6490, symBinAddr: 0xDAA0, symSize: 0x4 }
  - { offset: 0x97D72, size: 0x8, addend: 0x0, symName: __ZN11SentryEvent14to_string_bindEPvPhS0_, symObjAddr: 0x6494, symBinAddr: 0xDAA4, symSize: 0x7C }
  - { offset: 0x97DD4, size: 0x8, addend: 0x0, symName: __ZN5godot7ClassDB21_create_instance_funcI11SentryEventEEPvS3_h, symObjAddr: 0x6510, symBinAddr: 0xDB20, symSize: 0x8 }
  - { offset: 0x97E10, size: 0x8, addend: 0x0, symName: __ZN11SentryEvent4freeEPvS0_, symObjAddr: 0x6518, symBinAddr: 0xDB28, symSize: 0x3C }
  - { offset: 0x97E6C, size: 0x8, addend: 0x0, symName: __ZN5godot7ClassDB23_recreate_instance_funcI11SentryEventEEPvS3_S3_, symObjAddr: 0x6554, symBinAddr: 0xDB64, symSize: 0x8 }
  - { offset: 0x97EA8, size: 0x8, addend: 0x0, symName: __ZN11SentryEvent28_gde_binding_create_callbackEPvS0_, symObjAddr: 0x655C, symBinAddr: 0xDB6C, symSize: 0x8 }
  - { offset: 0x97ED3, size: 0x8, addend: 0x0, symName: __ZN11SentryEvent26_gde_binding_free_callbackEPvS0_S0_, symObjAddr: 0x6564, symBinAddr: 0xDB74, symSize: 0x4 }
  - { offset: 0x97F06, size: 0x8, addend: 0x0, symName: __ZN11SentryEvent31_gde_binding_reference_callbackEPvS0_h, symObjAddr: 0x6568, symBinAddr: 0xDB78, symSize: 0x8 }
  - { offset: 0x97F50, size: 0x8, addend: 0x0, symName: __ZN5godot7ClassDB15_register_classI13DisabledEventLb0EEEvbbb.cold.1, symObjAddr: 0x90B4, symBinAddr: 0x11AABC, symSize: 0x5C }
  - { offset: 0x97F7E, size: 0x8, addend: 0x0, symName: __ZN5godot7ClassDB15_register_classI13DisabledEventLb0EEEvbbb.cold.2, symObjAddr: 0x9110, symBinAddr: 0x11AB18, symSize: 0x58 }
  - { offset: 0x97FAC, size: 0x8, addend: 0x0, symName: __ZN5godot7ClassDB15_register_classI13DisabledEventLb0EEEvbbb.cold.3, symObjAddr: 0x9168, symBinAddr: 0x11AB70, symSize: 0x58 }
  - { offset: 0x97FF0, size: 0x8, addend: 0x0, symName: __ZN5godot7ClassDB15_register_classI13DisabledEventLb0EEEvbbb.cold.4, symObjAddr: 0x91C0, symBinAddr: 0x11ABC8, symSize: 0x58 }
  - { offset: 0x9801F, size: 0x8, addend: 0x0, symName: __ZN13DisabledEvent8set_bindEPvPKvS2_, symObjAddr: 0x68A8, symBinAddr: 0xDF78, symSize: 0x8 }
  - { offset: 0x98060, size: 0x8, addend: 0x0, symName: __ZN13DisabledEvent8get_bindEPvPKvS0_, symObjAddr: 0x68B0, symBinAddr: 0xDF80, symSize: 0x8 }
  - { offset: 0x980A1, size: 0x8, addend: 0x0, symName: __ZN13DisabledEvent23free_property_list_bindEPvPK23GDExtensionPropertyInfoj, symObjAddr: 0x68B8, symBinAddr: 0xDF88, symSize: 0x58 }
  - { offset: 0x981C6, size: 0x8, addend: 0x0, symName: __ZN13DisabledEvent24property_can_revert_bindEPvPKv, symObjAddr: 0x6910, symBinAddr: 0xDFE0, symSize: 0x8 }
  - { offset: 0x981F9, size: 0x8, addend: 0x0, symName: __ZN13DisabledEvent24property_get_revert_bindEPvPKvS0_, symObjAddr: 0x6918, symBinAddr: 0xDFE8, symSize: 0x8 }
  - { offset: 0x9827C, size: 0x8, addend: 0x0, symName: __ZN13DisabledEvent22validate_property_bindEPvP23GDExtensionPropertyInfo, symObjAddr: 0x6920, symBinAddr: 0xDFF0, symSize: 0xE0 }
  - { offset: 0x98370, size: 0x8, addend: 0x0, symName: __ZN13DisabledEvent17notification_bindEPvih, symObjAddr: 0x69E8, symBinAddr: 0xE0D0, symSize: 0x4 }
  - { offset: 0x983E6, size: 0x8, addend: 0x0, symName: __ZN13DisabledEvent14to_string_bindEPvPhS0_, symObjAddr: 0x69EC, symBinAddr: 0xE0D4, symSize: 0x7C }
  - { offset: 0x98502, size: 0x8, addend: 0x0, symName: __ZN5godot7ClassDB21_create_instance_funcI13DisabledEventEEPvS3_h, symObjAddr: 0x6A68, symBinAddr: 0xE150, symSize: 0x124 }
  - { offset: 0x9865E, size: 0x8, addend: 0x0, symName: __ZN5godot7ClassDB21_create_instance_funcI13DisabledEventEEPvS3_h.cold.1, symObjAddr: 0x9218, symBinAddr: 0x11AC20, symSize: 0x5C }
  - { offset: 0x986B8, size: 0x8, addend: 0x0, symName: __ZN13DisabledEvent4freeEPvS0_, symObjAddr: 0x6B84, symBinAddr: 0xE274, symSize: 0x3C }
  - { offset: 0x98714, size: 0x8, addend: 0x0, symName: __ZN5godot7ClassDB23_recreate_instance_funcI13DisabledEventEEPvS3_S3_, symObjAddr: 0x6BC0, symBinAddr: 0xE2B0, symSize: 0x148 }
  - { offset: 0x98750, size: 0x8, addend: 0x0, symName: __ZN13DisabledEvent28_gde_binding_create_callbackEPvS0_, symObjAddr: 0x6BC8, symBinAddr: 0xE3F8, symSize: 0x8 }
  - { offset: 0x9877B, size: 0x8, addend: 0x0, symName: __ZN13DisabledEvent26_gde_binding_free_callbackEPvS0_S0_, symObjAddr: 0x6BD0, symBinAddr: 0xE400, symSize: 0x4 }
  - { offset: 0x987AE, size: 0x8, addend: 0x0, symName: __ZN13DisabledEvent31_gde_binding_reference_callbackEPvS0_h, symObjAddr: 0x6BD4, symBinAddr: 0xE404, symSize: 0x8 }
  - { offset: 0x987E3, size: 0x8, addend: 0x0, symName: __ZNK13DisabledEvent19_is_extension_classEv, symObjAddr: 0x6BDC, symBinAddr: 0xE40C, symSize: 0x8 }
  - { offset: 0x9880A, size: 0x8, addend: 0x0, symName: __ZN13DisabledEventD1Ev, symObjAddr: 0x6BE4, symBinAddr: 0xE414, symSize: 0x4 }
  - { offset: 0x9882E, size: 0x8, addend: 0x0, symName: __ZN13DisabledEventD1Ev, symObjAddr: 0x6BE4, symBinAddr: 0xE414, symSize: 0x4 }
  - { offset: 0x98842, size: 0x8, addend: 0x0, symName: __ZN13DisabledEventD2Ev, symObjAddr: 0x6CC0, symBinAddr: 0xE4F0, symSize: 0xAC }
  - { offset: 0x98A1F, size: 0x8, addend: 0x0, symName: __ZN13DisabledEventD0Ev, symObjAddr: 0x6BE8, symBinAddr: 0xE418, symSize: 0x14 }
  - { offset: 0x98A7F, size: 0x8, addend: 0x0, symName: __ZNK13DisabledEvent6get_idEv, symObjAddr: 0x6BFC, symBinAddr: 0xE42C, symSize: 0x10 }
  - { offset: 0x98AA6, size: 0x8, addend: 0x0, symName: __ZN13DisabledEvent11set_messageERKN5godot6StringE, symObjAddr: 0x6C0C, symBinAddr: 0xE43C, symSize: 0x8 }
  - { offset: 0x98ADB, size: 0x8, addend: 0x0, symName: __ZNK13DisabledEvent11get_messageEv, symObjAddr: 0x6C14, symBinAddr: 0xE444, symSize: 0xC }
  - { offset: 0x98B02, size: 0x8, addend: 0x0, symName: __ZN13DisabledEvent13set_timestampERKN5godot6StringE, symObjAddr: 0x6C20, symBinAddr: 0xE450, symSize: 0x8 }
  - { offset: 0x98B37, size: 0x8, addend: 0x0, symName: __ZNK13DisabledEvent13get_timestampEv, symObjAddr: 0x6C28, symBinAddr: 0xE458, symSize: 0xC }
  - { offset: 0x98B5E, size: 0x8, addend: 0x0, symName: __ZNK13DisabledEvent12get_platformEv, symObjAddr: 0x6C34, symBinAddr: 0xE464, symSize: 0x10 }
  - { offset: 0x98B85, size: 0x8, addend: 0x0, symName: __ZN13DisabledEvent9set_levelEN6sentry5LevelE, symObjAddr: 0x6C44, symBinAddr: 0xE474, symSize: 0x8 }
  - { offset: 0x98BB8, size: 0x8, addend: 0x0, symName: __ZNK13DisabledEvent9get_levelEv, symObjAddr: 0x6C4C, symBinAddr: 0xE47C, symSize: 0x8 }
  - { offset: 0x98BDF, size: 0x8, addend: 0x0, symName: __ZN13DisabledEvent10set_loggerERKN5godot6StringE, symObjAddr: 0x6C54, symBinAddr: 0xE484, symSize: 0x8 }
  - { offset: 0x98C14, size: 0x8, addend: 0x0, symName: __ZNK13DisabledEvent10get_loggerEv, symObjAddr: 0x6C5C, symBinAddr: 0xE48C, symSize: 0xC }
  - { offset: 0x98C3B, size: 0x8, addend: 0x0, symName: __ZN13DisabledEvent11set_releaseERKN5godot6StringE, symObjAddr: 0x6C68, symBinAddr: 0xE498, symSize: 0x8 }
  - { offset: 0x98C70, size: 0x8, addend: 0x0, symName: __ZNK13DisabledEvent11get_releaseEv, symObjAddr: 0x6C70, symBinAddr: 0xE4A0, symSize: 0xC }
  - { offset: 0x98C97, size: 0x8, addend: 0x0, symName: __ZN13DisabledEvent8set_distERKN5godot6StringE, symObjAddr: 0x6C7C, symBinAddr: 0xE4AC, symSize: 0x8 }
  - { offset: 0x98CCC, size: 0x8, addend: 0x0, symName: __ZNK13DisabledEvent8get_distEv, symObjAddr: 0x6C84, symBinAddr: 0xE4B4, symSize: 0xC }
  - { offset: 0x98CF3, size: 0x8, addend: 0x0, symName: __ZN13DisabledEvent15set_environmentERKN5godot6StringE, symObjAddr: 0x6C90, symBinAddr: 0xE4C0, symSize: 0x8 }
  - { offset: 0x98D28, size: 0x8, addend: 0x0, symName: __ZNK13DisabledEvent15get_environmentEv, symObjAddr: 0x6C98, symBinAddr: 0xE4C8, symSize: 0xC }
  - { offset: 0x98D4F, size: 0x8, addend: 0x0, symName: __ZN13DisabledEvent7set_tagERKN5godot6StringES3_, symObjAddr: 0x6CA4, symBinAddr: 0xE4D4, symSize: 0x4 }
  - { offset: 0x98D90, size: 0x8, addend: 0x0, symName: __ZN13DisabledEvent10remove_tagERKN5godot6StringE, symObjAddr: 0x6CA8, symBinAddr: 0xE4D8, symSize: 0x4 }
  - { offset: 0x98DC3, size: 0x8, addend: 0x0, symName: __ZN13DisabledEvent7get_tagERKN5godot6StringE, symObjAddr: 0x6CAC, symBinAddr: 0xE4DC, symSize: 0x10 }
  - { offset: 0x98DFA, size: 0x8, addend: 0x0, symName: __ZN13DisabledEvent13add_exceptionERKN5godot6StringES3_RKNS0_6VectorIN11SentryEvent10StackFrameEEE, symObjAddr: 0x6CBC, symBinAddr: 0xE4EC, symSize: 0x4 }
  - { offset: 0x98E63, size: 0x8, addend: 0x0, symName: __ZN13DisabledEventD2Ev.cold.1, symObjAddr: 0x9274, symBinAddr: 0x11ACD8, symSize: 0x1C }
  - { offset: 0x98E7F, size: 0x8, addend: 0x0, symName: __ZN13DisabledEventD2Ev.cold.1, symObjAddr: 0x9274, symBinAddr: 0x11ACD8, symSize: 0x1C }
  - { offset: 0x98E94, size: 0x8, addend: 0x0, symName: __ZN13DisabledEventD2Ev.cold.1, symObjAddr: 0x9274, symBinAddr: 0x11ACD8, symSize: 0x1C }
  - { offset: 0x98EA9, size: 0x8, addend: 0x0, symName: __ZN13DisabledEventD2Ev.cold.1, symObjAddr: 0x9274, symBinAddr: 0x11ACD8, symSize: 0x1C }
  - { offset: 0x98EBE, size: 0x8, addend: 0x0, symName: __ZN13DisabledEventD2Ev.cold.1, symObjAddr: 0x9274, symBinAddr: 0x11ACD8, symSize: 0x1C }
  - { offset: 0x98ED3, size: 0x8, addend: 0x0, symName: __ZN13DisabledEventD2Ev.cold.1, symObjAddr: 0x9274, symBinAddr: 0x11ACD8, symSize: 0x1C }
  - { offset: 0x98EE8, size: 0x8, addend: 0x0, symName: __ZN13DisabledEventD2Ev.cold.1, symObjAddr: 0x9274, symBinAddr: 0x11ACD8, symSize: 0x1C }
  - { offset: 0x98F15, size: 0x8, addend: 0x0, symName: __ZN5godot6Logger17register_virtualsI12SentryLoggerS0_EEvv, symObjAddr: 0x7378, symBinAddr: 0xED14, symSize: 0xEC }
  - { offset: 0x99008, size: 0x8, addend: 0x0, symName: __ZN5godot7ClassDB15_register_classI12SentryLoggerLb0EEEvbbb.cold.1, symObjAddr: 0x9290, symBinAddr: 0x11ACF4, symSize: 0x5C }
  - { offset: 0x99036, size: 0x8, addend: 0x0, symName: __ZN5godot7ClassDB15_register_classI12SentryLoggerLb0EEEvbbb.cold.2, symObjAddr: 0x92EC, symBinAddr: 0x11AD50, symSize: 0x58 }
  - { offset: 0x99064, size: 0x8, addend: 0x0, symName: __ZN5godot7ClassDB15_register_classI12SentryLoggerLb0EEEvbbb.cold.3, symObjAddr: 0x9344, symBinAddr: 0x11ADA8, symSize: 0x58 }
  - { offset: 0x990A8, size: 0x8, addend: 0x0, symName: __ZN5godot7ClassDB15_register_classI12SentryLoggerLb0EEEvbbb.cold.4, symObjAddr: 0x939C, symBinAddr: 0x11AE00, symSize: 0x58 }
  - { offset: 0x990D7, size: 0x8, addend: 0x0, symName: __ZN12SentryLogger8set_bindEPvPKvS2_, symObjAddr: 0x70B0, symBinAddr: 0xE988, symSize: 0x8 }
  - { offset: 0x99118, size: 0x8, addend: 0x0, symName: __ZN12SentryLogger8get_bindEPvPKvS0_, symObjAddr: 0x70B8, symBinAddr: 0xE990, symSize: 0x8 }
  - { offset: 0x99159, size: 0x8, addend: 0x0, symName: __ZN12SentryLogger22get_property_list_bindEPvPj, symObjAddr: 0x70C0, symBinAddr: 0xE998, symSize: 0x40 }
  - { offset: 0x991EA, size: 0x8, addend: 0x0, symName: __ZN12SentryLogger22get_property_list_bindEPvPj.cold.1, symObjAddr: 0x93F4, symBinAddr: 0x11AE58, symSize: 0x28 }
  - { offset: 0x99202, size: 0x8, addend: 0x0, symName: __ZN12SentryLogger23free_property_list_bindEPvPK23GDExtensionPropertyInfoj, symObjAddr: 0x7100, symBinAddr: 0xE9D8, symSize: 0x58 }
  - { offset: 0x99327, size: 0x8, addend: 0x0, symName: __ZN12SentryLogger24property_can_revert_bindEPvPKv, symObjAddr: 0x7158, symBinAddr: 0xEA30, symSize: 0x8 }
  - { offset: 0x9935A, size: 0x8, addend: 0x0, symName: __ZN12SentryLogger24property_get_revert_bindEPvPKvS0_, symObjAddr: 0x7160, symBinAddr: 0xEA38, symSize: 0x8 }
  - { offset: 0x9939B, size: 0x8, addend: 0x0, symName: __ZN12SentryLogger22validate_property_bindEPvP23GDExtensionPropertyInfo, symObjAddr: 0x7168, symBinAddr: 0xEA40, symSize: 0xD0 }
  - { offset: 0x99467, size: 0x8, addend: 0x0, symName: __ZN12SentryLogger17notification_bindEPvih, symObjAddr: 0x7220, symBinAddr: 0xEB10, symSize: 0x4 }
  - { offset: 0x994A6, size: 0x8, addend: 0x0, symName: __ZN12SentryLogger14to_string_bindEPvPhS0_, symObjAddr: 0x7224, symBinAddr: 0xEB14, symSize: 0x7C }
  - { offset: 0x99544, size: 0x8, addend: 0x0, symName: __ZN5godot7ClassDB21_create_instance_funcI12SentryLoggerEEPvS3_h, symObjAddr: 0x72A0, symBinAddr: 0xEB90, symSize: 0x88 }
  - { offset: 0x995D8, size: 0x8, addend: 0x0, symName: __ZN5godot7ClassDB21_create_instance_funcI12SentryLoggerEEPvS3_h.cold.1, symObjAddr: 0x941C, symBinAddr: 0x11AE80, symSize: 0x5C }
  - { offset: 0x99632, size: 0x8, addend: 0x0, symName: __ZN12SentryLogger4freeEPvS0_, symObjAddr: 0x7320, symBinAddr: 0xEC18, symSize: 0x3C }
  - { offset: 0x9968E, size: 0x8, addend: 0x0, symName: __ZN5godot7ClassDB23_recreate_instance_funcI12SentryLoggerEEPvS3_S3_, symObjAddr: 0x735C, symBinAddr: 0xEC54, symSize: 0xAC }
  - { offset: 0x996CA, size: 0x8, addend: 0x0, symName: __ZN12SentryLogger28_gde_binding_create_callbackEPvS0_, symObjAddr: 0x7364, symBinAddr: 0xED00, symSize: 0x8 }
  - { offset: 0x996F5, size: 0x8, addend: 0x0, symName: __ZN12SentryLogger26_gde_binding_free_callbackEPvS0_S0_, symObjAddr: 0x736C, symBinAddr: 0xED08, symSize: 0x4 }
  - { offset: 0x99728, size: 0x8, addend: 0x0, symName: __ZN12SentryLogger31_gde_binding_reference_callbackEPvS0_h, symObjAddr: 0x7370, symBinAddr: 0xED0C, symSize: 0x8 }
  - { offset: 0x9975D, size: 0x8, addend: 0x0, symName: __ZN5godot6Logger17register_virtualsI12SentryLoggerS0_EEvv.cold.1, symObjAddr: 0x9478, symBinAddr: 0x11AF38, symSize: 0x5C }
  - { offset: 0x9978B, size: 0x8, addend: 0x0, symName: __ZN5godot6Logger17register_virtualsI12SentryLoggerS0_EEvv.cold.2, symObjAddr: 0x94D4, symBinAddr: 0x11AF94, symSize: 0x58 }
  - { offset: 0x9983C, size: 0x8, addend: 0x0, symName: __ZZN5godot6Logger17register_virtualsI12SentryLoggerS0_EEvvENUlPvPKPKvS3_E_8__invokeES3_S7_S3_, symObjAddr: 0x7464, symBinAddr: 0xEE00, symSize: 0x10 }
  - { offset: 0x999DE, size: 0x8, addend: 0x0, symName: __ZN5godot25call_with_ptr_args_helperI12SentryLoggerJRKNS_6StringES4_iS4_S4_biRKNS_10TypedArrayINS_15ScriptBacktraceEEEEJLm0ELm1ELm2ELm3ELm4ELm5ELm6ELm7EEEEvPT_MSA_FvDpT0_EPKPKvNS_13IndexSequenceIJXspT1_EEEE.cold.1, symObjAddr: 0x952C, symBinAddr: 0x11AFEC, symSize: 0x58 }
  - { offset: 0x99AB4, size: 0x8, addend: 0x0, symName: __ZZN5godot6Logger17register_virtualsI12SentryLoggerS0_EEvvENUlPvPKPKvS3_E0_8__invokeES3_S7_S3_, symObjAddr: 0x75F8, symBinAddr: 0xEF94, symSize: 0x94 }
  - { offset: 0x99BE3, size: 0x8, addend: 0x0, symName: __ZN5godot7ClassDB15_register_classI11NativeEventLb0EEEvbbb.cold.1, symObjAddr: 0x9584, symBinAddr: 0x11B044, symSize: 0x5C }
  - { offset: 0x99C11, size: 0x8, addend: 0x0, symName: __ZN5godot7ClassDB15_register_classI11NativeEventLb0EEEvbbb.cold.2, symObjAddr: 0x95E0, symBinAddr: 0x11B0A0, symSize: 0x58 }
  - { offset: 0x99C3F, size: 0x8, addend: 0x0, symName: __ZN5godot7ClassDB15_register_classI11NativeEventLb0EEEvbbb.cold.3, symObjAddr: 0x9638, symBinAddr: 0x11B0F8, symSize: 0x58 }
  - { offset: 0x99C83, size: 0x8, addend: 0x0, symName: __ZN5godot7ClassDB15_register_classI11NativeEventLb0EEEvbbb.cold.4, symObjAddr: 0x9690, symBinAddr: 0x11B150, symSize: 0x58 }
  - { offset: 0x99CB2, size: 0x8, addend: 0x0, symName: __ZN11NativeEvent8set_bindEPvPKvS2_, symObjAddr: 0x79C4, symBinAddr: 0xF420, symSize: 0x8 }
  - { offset: 0x99CF3, size: 0x8, addend: 0x0, symName: __ZN11NativeEvent8get_bindEPvPKvS0_, symObjAddr: 0x79CC, symBinAddr: 0xF428, symSize: 0x8 }
  - { offset: 0x99D34, size: 0x8, addend: 0x0, symName: __ZN11NativeEvent23free_property_list_bindEPvPK23GDExtensionPropertyInfoj, symObjAddr: 0x79D4, symBinAddr: 0xF430, symSize: 0x58 }
  - { offset: 0x99E59, size: 0x8, addend: 0x0, symName: __ZN11NativeEvent24property_can_revert_bindEPvPKv, symObjAddr: 0x7A2C, symBinAddr: 0xF488, symSize: 0x8 }
  - { offset: 0x99E8C, size: 0x8, addend: 0x0, symName: __ZN11NativeEvent24property_get_revert_bindEPvPKvS0_, symObjAddr: 0x7A34, symBinAddr: 0xF490, symSize: 0x8 }
  - { offset: 0x99ECD, size: 0x8, addend: 0x0, symName: __ZN11NativeEvent22validate_property_bindEPvP23GDExtensionPropertyInfo, symObjAddr: 0x7A3C, symBinAddr: 0xF498, symSize: 0xE0 }
  - { offset: 0x99FC1, size: 0x8, addend: 0x0, symName: __ZN11NativeEvent17notification_bindEPvih, symObjAddr: 0x7B04, symBinAddr: 0xF578, symSize: 0x4 }
  - { offset: 0x9A000, size: 0x8, addend: 0x0, symName: __ZN11NativeEvent14to_string_bindEPvPhS0_, symObjAddr: 0x7B08, symBinAddr: 0xF57C, symSize: 0x7C }
  - { offset: 0x9A0C8, size: 0x8, addend: 0x0, symName: __ZN5godot7ClassDB21_create_instance_funcI11NativeEventEEPvS3_h, symObjAddr: 0x7B84, symBinAddr: 0xF5F8, symSize: 0x88 }
  - { offset: 0x9A15C, size: 0x8, addend: 0x0, symName: __ZN5godot7ClassDB21_create_instance_funcI11NativeEventEEPvS3_h.cold.1, symObjAddr: 0x96E8, symBinAddr: 0x11B1A8, symSize: 0x5C }
  - { offset: 0x9A1B6, size: 0x8, addend: 0x0, symName: __ZN11NativeEvent4freeEPvS0_, symObjAddr: 0x7C04, symBinAddr: 0xF680, symSize: 0x3C }
  - { offset: 0x9A212, size: 0x8, addend: 0x0, symName: __ZN5godot7ClassDB23_recreate_instance_funcI11NativeEventEEPvS3_S3_, symObjAddr: 0x7C40, symBinAddr: 0xF6BC, symSize: 0xAC }
  - { offset: 0x9A24E, size: 0x8, addend: 0x0, symName: __ZN11NativeEvent28_gde_binding_create_callbackEPvS0_, symObjAddr: 0x7C48, symBinAddr: 0xF768, symSize: 0x8 }
  - { offset: 0x9A279, size: 0x8, addend: 0x0, symName: __ZN11NativeEvent26_gde_binding_free_callbackEPvS0_S0_, symObjAddr: 0x7C50, symBinAddr: 0xF770, symSize: 0x4 }
  - { offset: 0x9A2AC, size: 0x8, addend: 0x0, symName: __ZN11NativeEvent31_gde_binding_reference_callbackEPvS0_h, symObjAddr: 0x7C54, symBinAddr: 0xF774, symSize: 0x8 }
  - { offset: 0x9A2E1, size: 0x8, addend: 0x0, symName: _OUTLINED_FUNCTION_0, symObjAddr: 0x9744, symBinAddr: 0xF77C, symSize: 0x10 }
  - { offset: 0x9A2F9, size: 0x8, addend: 0x0, symName: _OUTLINED_FUNCTION_1, symObjAddr: 0x9754, symBinAddr: 0xF78C, symSize: 0xC }
  - { offset: 0x9A311, size: 0x8, addend: 0x0, symName: _OUTLINED_FUNCTION_2, symObjAddr: 0x9760, symBinAddr: 0xF798, symSize: 0xC }
  - { offset: 0x9A329, size: 0x8, addend: 0x0, symName: _OUTLINED_FUNCTION_3, symObjAddr: 0x976C, symBinAddr: 0xF7A4, symSize: 0xC }
  - { offset: 0x9A341, size: 0x8, addend: 0x0, symName: _OUTLINED_FUNCTION_4, symObjAddr: 0x9778, symBinAddr: 0xF7B0, symSize: 0x8 }
  - { offset: 0x9A359, size: 0x8, addend: 0x0, symName: _OUTLINED_FUNCTION_5, symObjAddr: 0x9780, symBinAddr: 0xF7B8, symSize: 0x8 }
  - { offset: 0x9A371, size: 0x8, addend: 0x0, symName: _OUTLINED_FUNCTION_6, symObjAddr: 0x9788, symBinAddr: 0xF7C0, symSize: 0x8 }
  - { offset: 0x9A389, size: 0x8, addend: 0x0, symName: _OUTLINED_FUNCTION_7, symObjAddr: 0x9790, symBinAddr: 0xF7C8, symSize: 0x8 }
  - { offset: 0x9EDB7, size: 0x8, addend: 0x0, symName: ___cxx_global_var_init, symObjAddr: 0x1178, symBinAddr: 0x101F8, symSize: 0x4C }
  - { offset: 0x9EE3E, size: 0x8, addend: 0x0, symName: ___cxx_global_var_init.1, symObjAddr: 0x11C4, symBinAddr: 0x10244, symSize: 0x4C }
  - { offset: 0x9EEC5, size: 0x8, addend: 0x0, symName: ___cxx_global_var_init.2, symObjAddr: 0x1210, symBinAddr: 0x10290, symSize: 0x4C }
  - { offset: 0x9EF4C, size: 0x8, addend: 0x0, symName: ___cxx_global_var_init.3, symObjAddr: 0x125C, symBinAddr: 0x102DC, symSize: 0x4C }
  - { offset: 0x9F30D, size: 0x8, addend: 0x0, symName: __ZN13RuntimeConfig19set_installation_idERKN5godot6StringE, symObjAddr: 0x0, symBinAddr: 0xFBAC, symSize: 0xF0 }
  - { offset: 0x9F394, size: 0x8, addend: 0x0, symName: __ZN13RuntimeConfig19set_installation_idERKN5godot6StringE.cold.1, symObjAddr: 0xE4C, symBinAddr: 0x11B260, symSize: 0x20 }
  - { offset: 0x9F3FC, size: 0x8, addend: 0x0, symName: __ZN13RuntimeConfig9load_fileERKN5godot6StringE, symObjAddr: 0x104, symBinAddr: 0xFC9C, symSize: 0x188 }
  - { offset: 0x9F525, size: 0x8, addend: 0x0, symName: __ZN13RuntimeConfig9load_fileERKN5godot6StringE.cold.1, symObjAddr: 0xE6C, symBinAddr: 0x11B280, symSize: 0x20 }
  - { offset: 0x9F5DA, size: 0x8, addend: 0x0, symName: __ZN13RuntimeConfigC2Ev, symObjAddr: 0x2A0, symBinAddr: 0xFE24, symSize: 0xB4 }
  - { offset: 0x9F6AC, size: 0x8, addend: 0x0, symName: __ZN5godot3RefINS_10ConfigFileEE11instantiateEv, symObjAddr: 0x354, symBinAddr: 0xFED8, symSize: 0x154 }
  - { offset: 0x9FA65, size: 0x8, addend: 0x0, symName: __ZN13RuntimeConfigC1Ev, symObjAddr: 0x498, symBinAddr: 0x1002C, symSize: 0xB4 }
  - { offset: 0x9FB5F, size: 0x8, addend: 0x0, symName: __ZNK13RuntimeConfig19_is_extension_classEv, symObjAddr: 0x54C, symBinAddr: 0x100E0, symSize: 0x8 }
  - { offset: 0x9FB86, size: 0x8, addend: 0x0, symName: __ZN13RuntimeConfigD1Ev, symObjAddr: 0x554, symBinAddr: 0x100E8, symSize: 0x4 }
  - { offset: 0x9FBAA, size: 0x8, addend: 0x0, symName: __ZN13RuntimeConfigD1Ev, symObjAddr: 0x554, symBinAddr: 0x100E8, symSize: 0x4 }
  - { offset: 0x9FBBE, size: 0x8, addend: 0x0, symName: __ZN13RuntimeConfigD2Ev, symObjAddr: 0xD7C, symBinAddr: 0x10100, symSize: 0xB8 }
  - { offset: 0x9FE0D, size: 0x8, addend: 0x0, symName: __ZN13RuntimeConfigD0Ev, symObjAddr: 0x558, symBinAddr: 0x100EC, symSize: 0x14 }
  - { offset: 0x9FFFE, size: 0x8, addend: 0x0, symName: __ZN5godot10RefCountedD1Ev.cold.1, symObjAddr: 0xE8C, symBinAddr: 0x11B2A0, symSize: 0x1C }
  - { offset: 0xA001A, size: 0x8, addend: 0x0, symName: __ZN5godot10RefCountedD1Ev.cold.1, symObjAddr: 0xE8C, symBinAddr: 0x11B2A0, symSize: 0x1C }
  - { offset: 0xA002F, size: 0x8, addend: 0x0, symName: __ZN5godot10RefCountedD1Ev.cold.1, symObjAddr: 0xE8C, symBinAddr: 0x11B2A0, symSize: 0x1C }
  - { offset: 0xA0044, size: 0x8, addend: 0x0, symName: __ZN5godot10RefCountedD1Ev.cold.1, symObjAddr: 0xE8C, symBinAddr: 0x11B2A0, symSize: 0x1C }
  - { offset: 0xA0059, size: 0x8, addend: 0x0, symName: __ZN5godot10RefCountedD1Ev.cold.1, symObjAddr: 0xE8C, symBinAddr: 0x11B2A0, symSize: 0x1C }
  - { offset: 0xA006E, size: 0x8, addend: 0x0, symName: __ZN5godot10RefCountedD1Ev.cold.1, symObjAddr: 0xE8C, symBinAddr: 0x11B2A0, symSize: 0x1C }
  - { offset: 0xA00A1, size: 0x8, addend: 0x0, symName: __ZN5godot10RefCountedD0Ev.cold.1, symObjAddr: 0xEA8, symBinAddr: 0x11B2BC, symSize: 0x1C }
  - { offset: 0xA00BD, size: 0x8, addend: 0x0, symName: __ZN5godot10RefCountedD0Ev.cold.1, symObjAddr: 0xEA8, symBinAddr: 0x11B2BC, symSize: 0x1C }
  - { offset: 0xA00D2, size: 0x8, addend: 0x0, symName: __ZN5godot10RefCountedD0Ev.cold.1, symObjAddr: 0xEA8, symBinAddr: 0x11B2BC, symSize: 0x1C }
  - { offset: 0xA00E7, size: 0x8, addend: 0x0, symName: __ZN5godot10RefCountedD0Ev.cold.1, symObjAddr: 0xEA8, symBinAddr: 0x11B2BC, symSize: 0x1C }
  - { offset: 0xA00FC, size: 0x8, addend: 0x0, symName: __ZN5godot10RefCountedD0Ev.cold.1, symObjAddr: 0xEA8, symBinAddr: 0x11B2BC, symSize: 0x1C }
  - { offset: 0xA0111, size: 0x8, addend: 0x0, symName: __ZN5godot10RefCountedD0Ev.cold.1, symObjAddr: 0xEA8, symBinAddr: 0x11B2BC, symSize: 0x1C }
  - { offset: 0xA0126, size: 0x8, addend: 0x0, symName: __ZN5godot10RefCountedD0Ev.cold.1, symObjAddr: 0xEA8, symBinAddr: 0x11B2BC, symSize: 0x1C }
  - { offset: 0xA013E, size: 0x8, addend: 0x0, symName: __ZN5godot6ObjectD1Ev.cold.1, symObjAddr: 0xEC4, symBinAddr: 0x11B2D8, symSize: 0x1C }
  - { offset: 0xA015A, size: 0x8, addend: 0x0, symName: __ZN5godot6ObjectD1Ev.cold.1, symObjAddr: 0xEC4, symBinAddr: 0x11B2D8, symSize: 0x1C }
  - { offset: 0xA016F, size: 0x8, addend: 0x0, symName: __ZN5godot6ObjectD1Ev.cold.1, symObjAddr: 0xEC4, symBinAddr: 0x11B2D8, symSize: 0x1C }
  - { offset: 0xA0184, size: 0x8, addend: 0x0, symName: __ZN5godot6ObjectD1Ev.cold.1, symObjAddr: 0xEC4, symBinAddr: 0x11B2D8, symSize: 0x1C }
  - { offset: 0xA0199, size: 0x8, addend: 0x0, symName: __ZN5godot6ObjectD1Ev.cold.1, symObjAddr: 0xEC4, symBinAddr: 0x11B2D8, symSize: 0x1C }
  - { offset: 0xA01C9, size: 0x8, addend: 0x0, symName: __ZN5godot6ObjectD0Ev.cold.1, symObjAddr: 0xEE0, symBinAddr: 0x11B2F4, symSize: 0x1C }
  - { offset: 0xA01E5, size: 0x8, addend: 0x0, symName: __ZN5godot6ObjectD0Ev.cold.1, symObjAddr: 0xEE0, symBinAddr: 0x11B2F4, symSize: 0x1C }
  - { offset: 0xA01FA, size: 0x8, addend: 0x0, symName: __ZN5godot6ObjectD0Ev.cold.1, symObjAddr: 0xEE0, symBinAddr: 0x11B2F4, symSize: 0x1C }
  - { offset: 0xA020F, size: 0x8, addend: 0x0, symName: __ZN5godot6ObjectD0Ev.cold.1, symObjAddr: 0xEE0, symBinAddr: 0x11B2F4, symSize: 0x1C }
  - { offset: 0xA0224, size: 0x8, addend: 0x0, symName: __ZN5godot6ObjectD0Ev.cold.1, symObjAddr: 0xEE0, symBinAddr: 0x11B2F4, symSize: 0x1C }
  - { offset: 0xA0239, size: 0x8, addend: 0x0, symName: __ZN5godot6ObjectD0Ev.cold.1, symObjAddr: 0xEE0, symBinAddr: 0x11B2F4, symSize: 0x1C }
  - { offset: 0xA0250, size: 0x8, addend: 0x0, symName: __ZN5godot7WrappedD1Ev.cold.1, symObjAddr: 0xEFC, symBinAddr: 0x11B310, symSize: 0x1C }
  - { offset: 0xA026C, size: 0x8, addend: 0x0, symName: __ZN5godot7WrappedD1Ev.cold.1, symObjAddr: 0xEFC, symBinAddr: 0x11B310, symSize: 0x1C }
  - { offset: 0xA0281, size: 0x8, addend: 0x0, symName: __ZN5godot7WrappedD1Ev.cold.1, symObjAddr: 0xEFC, symBinAddr: 0x11B310, symSize: 0x1C }
  - { offset: 0xA0296, size: 0x8, addend: 0x0, symName: __ZN5godot7WrappedD1Ev.cold.1, symObjAddr: 0xEFC, symBinAddr: 0x11B310, symSize: 0x1C }
  - { offset: 0xA02C5, size: 0x8, addend: 0x0, symName: __ZN5godot7WrappedD0Ev.cold.1, symObjAddr: 0xF18, symBinAddr: 0x11B32C, symSize: 0x1C }
  - { offset: 0xA02E1, size: 0x8, addend: 0x0, symName: __ZN5godot7WrappedD0Ev.cold.1, symObjAddr: 0xF18, symBinAddr: 0x11B32C, symSize: 0x1C }
  - { offset: 0xA02F6, size: 0x8, addend: 0x0, symName: __ZN5godot7WrappedD0Ev.cold.1, symObjAddr: 0xF18, symBinAddr: 0x11B32C, symSize: 0x1C }
  - { offset: 0xA030B, size: 0x8, addend: 0x0, symName: __ZN5godot7WrappedD0Ev.cold.1, symObjAddr: 0xF18, symBinAddr: 0x11B32C, symSize: 0x1C }
  - { offset: 0xA0320, size: 0x8, addend: 0x0, symName: __ZN5godot7WrappedD0Ev.cold.1, symObjAddr: 0xF18, symBinAddr: 0x11B32C, symSize: 0x1C }
  - { offset: 0xA03A6, size: 0x8, addend: 0x0, symName: __ZN5godot4ListINS_12PropertyInfoENS_16DefaultAllocatorEE5_Data5eraseEPNS3_7ElementE.cold.2, symObjAddr: 0xF54, symBinAddr: 0x11B368, symSize: 0x20 }
  - { offset: 0xA03BE, size: 0x8, addend: 0x0, symName: __ZN5godot4ListINS_12PropertyInfoENS_16DefaultAllocatorEE5_Data5eraseEPNS3_7ElementE.cold.1, symObjAddr: 0xF34, symBinAddr: 0x11B348, symSize: 0x20 }
  - { offset: 0xA03DD, size: 0x8, addend: 0x0, symName: __ZN5godot8internal23EngineClassRegistrationINS_6ObjectEE8callbackEv.cold.1, symObjAddr: 0xF74, symBinAddr: 0x11B388, symSize: 0x5C }
  - { offset: 0xA0412, size: 0x8, addend: 0x0, symName: __ZN5godot8internal23EngineClassRegistrationINS_16ClassDBSingletonEE8callbackEv.cold.1, symObjAddr: 0xFD0, symBinAddr: 0x11B3E4, symSize: 0x5C }
  - { offset: 0xA0447, size: 0x8, addend: 0x0, symName: __ZN5godot8internal23EngineClassRegistrationINS_10RefCountedEE8callbackEv.cold.1, symObjAddr: 0x102C, symBinAddr: 0x11B440, symSize: 0x5C }
  - { offset: 0xA047C, size: 0x8, addend: 0x0, symName: __ZN5godot8internal23EngineClassRegistrationINS_10ConfigFileEE8callbackEv.cold.1, symObjAddr: 0x1088, symBinAddr: 0x11B49C, symSize: 0x5C }
  - { offset: 0xA04C6, size: 0x8, addend: 0x0, symName: __ZN5godot10ConfigFileD1Ev.cold.1, symObjAddr: 0x10E4, symBinAddr: 0x11B4F8, symSize: 0x1C }
  - { offset: 0xA04E2, size: 0x8, addend: 0x0, symName: __ZN5godot10ConfigFileD1Ev.cold.1, symObjAddr: 0x10E4, symBinAddr: 0x11B4F8, symSize: 0x1C }
  - { offset: 0xA04F7, size: 0x8, addend: 0x0, symName: __ZN5godot10ConfigFileD1Ev.cold.1, symObjAddr: 0x10E4, symBinAddr: 0x11B4F8, symSize: 0x1C }
  - { offset: 0xA050C, size: 0x8, addend: 0x0, symName: __ZN5godot10ConfigFileD1Ev.cold.1, symObjAddr: 0x10E4, symBinAddr: 0x11B4F8, symSize: 0x1C }
  - { offset: 0xA0521, size: 0x8, addend: 0x0, symName: __ZN5godot10ConfigFileD1Ev.cold.1, symObjAddr: 0x10E4, symBinAddr: 0x11B4F8, symSize: 0x1C }
  - { offset: 0xA0536, size: 0x8, addend: 0x0, symName: __ZN5godot10ConfigFileD1Ev.cold.1, symObjAddr: 0x10E4, symBinAddr: 0x11B4F8, symSize: 0x1C }
  - { offset: 0xA054B, size: 0x8, addend: 0x0, symName: __ZN5godot10ConfigFileD1Ev.cold.1, symObjAddr: 0x10E4, symBinAddr: 0x11B4F8, symSize: 0x1C }
  - { offset: 0xA057F, size: 0x8, addend: 0x0, symName: __ZN5godot10ConfigFileD0Ev.cold.1, symObjAddr: 0x1100, symBinAddr: 0x11B514, symSize: 0x1C }
  - { offset: 0xA059B, size: 0x8, addend: 0x0, symName: __ZN5godot10ConfigFileD0Ev.cold.1, symObjAddr: 0x1100, symBinAddr: 0x11B514, symSize: 0x1C }
  - { offset: 0xA05B0, size: 0x8, addend: 0x0, symName: __ZN5godot10ConfigFileD0Ev.cold.1, symObjAddr: 0x1100, symBinAddr: 0x11B514, symSize: 0x1C }
  - { offset: 0xA05C5, size: 0x8, addend: 0x0, symName: __ZN5godot10ConfigFileD0Ev.cold.1, symObjAddr: 0x1100, symBinAddr: 0x11B514, symSize: 0x1C }
  - { offset: 0xA05DA, size: 0x8, addend: 0x0, symName: __ZN5godot10ConfigFileD0Ev.cold.1, symObjAddr: 0x1100, symBinAddr: 0x11B514, symSize: 0x1C }
  - { offset: 0xA05EF, size: 0x8, addend: 0x0, symName: __ZN5godot10ConfigFileD0Ev.cold.1, symObjAddr: 0x1100, symBinAddr: 0x11B514, symSize: 0x1C }
  - { offset: 0xA0604, size: 0x8, addend: 0x0, symName: __ZN5godot10ConfigFileD0Ev.cold.1, symObjAddr: 0x1100, symBinAddr: 0x11B514, symSize: 0x1C }
  - { offset: 0xA0619, size: 0x8, addend: 0x0, symName: __ZN5godot10ConfigFileD0Ev.cold.1, symObjAddr: 0x1100, symBinAddr: 0x11B514, symSize: 0x1C }
  - { offset: 0xA0632, size: 0x8, addend: 0x0, symName: __ZN13RuntimeConfigD2Ev.cold.1, symObjAddr: 0x111C, symBinAddr: 0x11B530, symSize: 0x1C }
  - { offset: 0xA064E, size: 0x8, addend: 0x0, symName: __ZN13RuntimeConfigD2Ev.cold.1, symObjAddr: 0x111C, symBinAddr: 0x11B530, symSize: 0x1C }
  - { offset: 0xA0663, size: 0x8, addend: 0x0, symName: __ZN13RuntimeConfigD2Ev.cold.1, symObjAddr: 0x111C, symBinAddr: 0x11B530, symSize: 0x1C }
  - { offset: 0xA0678, size: 0x8, addend: 0x0, symName: __ZN13RuntimeConfigD2Ev.cold.1, symObjAddr: 0x111C, symBinAddr: 0x11B530, symSize: 0x1C }
  - { offset: 0xA068D, size: 0x8, addend: 0x0, symName: __ZN13RuntimeConfigD2Ev.cold.1, symObjAddr: 0x111C, symBinAddr: 0x11B530, symSize: 0x1C }
  - { offset: 0xA06A2, size: 0x8, addend: 0x0, symName: __ZN13RuntimeConfigD2Ev.cold.1, symObjAddr: 0x111C, symBinAddr: 0x11B530, symSize: 0x1C }
  - { offset: 0xA06B9, size: 0x8, addend: 0x0, symName: _OUTLINED_FUNCTION_0, symObjAddr: 0x1138, symBinAddr: 0x101B8, symSize: 0x10 }
  - { offset: 0xA06D1, size: 0x8, addend: 0x0, symName: _OUTLINED_FUNCTION_1, symObjAddr: 0x1148, symBinAddr: 0x101C8, symSize: 0xC }
  - { offset: 0xA06E9, size: 0x8, addend: 0x0, symName: _OUTLINED_FUNCTION_2, symObjAddr: 0x1154, symBinAddr: 0x101D4, symSize: 0xC }
  - { offset: 0xA0701, size: 0x8, addend: 0x0, symName: _OUTLINED_FUNCTION_3, symObjAddr: 0x1160, symBinAddr: 0x101E0, symSize: 0x8 }
  - { offset: 0xA0719, size: 0x8, addend: 0x0, symName: _OUTLINED_FUNCTION_4, symObjAddr: 0x1168, symBinAddr: 0x101E8, symSize: 0x8 }
  - { offset: 0xA0731, size: 0x8, addend: 0x0, symName: _OUTLINED_FUNCTION_5, symObjAddr: 0x1170, symBinAddr: 0x101F0, symSize: 0x8 }
  - { offset: 0xA899C, size: 0x8, addend: 0x0, symName: __ZN5godot10MethodInfoD2Ev, symObjAddr: 0x7E4, symBinAddr: 0x10A80, symSize: 0xD4 }
  - { offset: 0xA8EC1, size: 0x8, addend: 0x0, symName: ___cxx_global_var_init, symObjAddr: 0x20FC, symBinAddr: 0x10F7C, symSize: 0x4C }
  - { offset: 0xA8F48, size: 0x8, addend: 0x0, symName: ___cxx_global_var_init.1, symObjAddr: 0x2148, symBinAddr: 0x10FC8, symSize: 0x4C }
  - { offset: 0xA8FCF, size: 0x8, addend: 0x0, symName: ___cxx_global_var_init.2, symObjAddr: 0x2194, symBinAddr: 0x11014, symSize: 0x4C }
  - { offset: 0xA9056, size: 0x8, addend: 0x0, symName: ___cxx_global_var_init.3, symObjAddr: 0x21E0, symBinAddr: 0x11060, symSize: 0x4C }
  - { offset: 0xA90DD, size: 0x8, addend: 0x0, symName: ___cxx_global_var_init.4, symObjAddr: 0x222C, symBinAddr: 0x110AC, symSize: 0x4C }
  - { offset: 0xA9164, size: 0x8, addend: 0x0, symName: ___cxx_global_var_init.5, symObjAddr: 0x2278, symBinAddr: 0x110F8, symSize: 0x4C }
  - { offset: 0xA91EB, size: 0x8, addend: 0x0, symName: ___cxx_global_var_init.6, symObjAddr: 0x22C4, symBinAddr: 0x11144, symSize: 0x4C }
  - { offset: 0xA9272, size: 0x8, addend: 0x0, symName: ___cxx_global_var_init.7, symObjAddr: 0x2310, symBinAddr: 0x11190, symSize: 0x4C }
  - { offset: 0xA941F, size: 0x8, addend: 0x0, symName: __ZN19SentryConfiguration15_call_configureERKN5godot3RefI13SentryOptionsEE, symObjAddr: 0x0, symBinAddr: 0x10328, symSize: 0x11C }
  - { offset: 0xA95F5, size: 0x8, addend: 0x0, symName: __ZN19SentryConfiguration15_call_configureERKN5godot3RefI13SentryOptionsEE.cold.2, symObjAddr: 0x19A4, symBinAddr: 0x11B57C, symSize: 0x20 }
  - { offset: 0xA960D, size: 0x8, addend: 0x0, symName: __ZN19SentryConfiguration15_call_configureERKN5godot3RefI13SentryOptionsEE.cold.1, symObjAddr: 0x1974, symBinAddr: 0x11B54C, symSize: 0x30 }
  - { offset: 0xA962C, size: 0x8, addend: 0x0, symName: __ZN19SentryConfiguration13_notificationEi, symObjAddr: 0x11C, symBinAddr: 0x10444, symSize: 0x84 }
  - { offset: 0xA9EBD, size: 0x8, addend: 0x0, symName: __ZN19SentryConfiguration13_bind_methodsEv, symObjAddr: 0x1A0, symBinAddr: 0x104C8, symSize: 0x288 }
  - { offset: 0xAA775, size: 0x8, addend: 0x0, symName: __ZN5godot11GetTypeInfoINS_3RefI13SentryOptionsEEvE14get_class_infoEv, symObjAddr: 0x428, symBinAddr: 0x10750, symSize: 0x12C }
  - { offset: 0xAA780, size: 0x8, addend: 0x0, symName: __ZN5godot11GetTypeInfoINS_3RefI13SentryOptionsEEvE14get_class_infoEv, symObjAddr: 0x428, symBinAddr: 0x10750, symSize: 0x12C }
  - { offset: 0xAA826, size: 0x8, addend: 0x0, symName: __ZNSt3__16vectorIN5godot12PropertyInfoENS_9allocatorIS2_EEE21__push_back_slow_pathIS2_EEPS2_OT_, symObjAddr: 0x554, symBinAddr: 0x1087C, symSize: 0x148 }
  - { offset: 0xAAD29, size: 0x8, addend: 0x0, symName: __ZN5godot6VectorINS_10StringNameEE9push_backES1_, symObjAddr: 0x14F4, symBinAddr: 0x10B54, symSize: 0xA4 }
  - { offset: 0xAAEEE, size: 0x8, addend: 0x0, symName: __ZN5godot10MethodInfoD2Ev, symObjAddr: 0x7E4, symBinAddr: 0x10A80, symSize: 0xD4 }
  - { offset: 0xAB42E, size: 0x8, addend: 0x0, symName: __ZN19SentryConfiguration13_bind_methodsEv.cold.1, symObjAddr: 0x19C4, symBinAddr: 0x11B59C, symSize: 0x60 }
  - { offset: 0xAB49F, size: 0x8, addend: 0x0, symName: __ZN5godot11GetTypeInfoINS_3RefI13SentryOptionsEEvE14get_class_infoEv.cold.1, symObjAddr: 0x1A24, symBinAddr: 0x11B5FC, symSize: 0x5C }
  - { offset: 0xABBE8, size: 0x8, addend: 0x0, symName: __ZN5godot8internal23EngineClassRegistrationINS_6ObjectEE8callbackEv.cold.1, symObjAddr: 0x1A80, symBinAddr: 0x11B658, symSize: 0x5C }
  - { offset: 0xABC83, size: 0x8, addend: 0x0, symName: __ZN5godot6ObjectD1Ev.cold.1, symObjAddr: 0x1ADC, symBinAddr: 0x11B6B4, symSize: 0x1C }
  - { offset: 0xABC9F, size: 0x8, addend: 0x0, symName: __ZN5godot6ObjectD1Ev.cold.1, symObjAddr: 0x1ADC, symBinAddr: 0x11B6B4, symSize: 0x1C }
  - { offset: 0xABCB4, size: 0x8, addend: 0x0, symName: __ZN5godot6ObjectD1Ev.cold.1, symObjAddr: 0x1ADC, symBinAddr: 0x11B6B4, symSize: 0x1C }
  - { offset: 0xABCC9, size: 0x8, addend: 0x0, symName: __ZN5godot6ObjectD1Ev.cold.1, symObjAddr: 0x1ADC, symBinAddr: 0x11B6B4, symSize: 0x1C }
  - { offset: 0xABCDE, size: 0x8, addend: 0x0, symName: __ZN5godot6ObjectD1Ev.cold.1, symObjAddr: 0x1ADC, symBinAddr: 0x11B6B4, symSize: 0x1C }
  - { offset: 0xABD0E, size: 0x8, addend: 0x0, symName: __ZN5godot6ObjectD0Ev.cold.1, symObjAddr: 0x1AF8, symBinAddr: 0x11B6D0, symSize: 0x1C }
  - { offset: 0xABD2A, size: 0x8, addend: 0x0, symName: __ZN5godot6ObjectD0Ev.cold.1, symObjAddr: 0x1AF8, symBinAddr: 0x11B6D0, symSize: 0x1C }
  - { offset: 0xABD3F, size: 0x8, addend: 0x0, symName: __ZN5godot6ObjectD0Ev.cold.1, symObjAddr: 0x1AF8, symBinAddr: 0x11B6D0, symSize: 0x1C }
  - { offset: 0xABD54, size: 0x8, addend: 0x0, symName: __ZN5godot6ObjectD0Ev.cold.1, symObjAddr: 0x1AF8, symBinAddr: 0x11B6D0, symSize: 0x1C }
  - { offset: 0xABD69, size: 0x8, addend: 0x0, symName: __ZN5godot6ObjectD0Ev.cold.1, symObjAddr: 0x1AF8, symBinAddr: 0x11B6D0, symSize: 0x1C }
  - { offset: 0xABD7E, size: 0x8, addend: 0x0, symName: __ZN5godot6ObjectD0Ev.cold.1, symObjAddr: 0x1AF8, symBinAddr: 0x11B6D0, symSize: 0x1C }
  - { offset: 0xABD95, size: 0x8, addend: 0x0, symName: __ZN5godot7WrappedD1Ev.cold.1, symObjAddr: 0x1B14, symBinAddr: 0x11B6EC, symSize: 0x1C }
  - { offset: 0xABDB1, size: 0x8, addend: 0x0, symName: __ZN5godot7WrappedD1Ev.cold.1, symObjAddr: 0x1B14, symBinAddr: 0x11B6EC, symSize: 0x1C }
  - { offset: 0xABDC6, size: 0x8, addend: 0x0, symName: __ZN5godot7WrappedD1Ev.cold.1, symObjAddr: 0x1B14, symBinAddr: 0x11B6EC, symSize: 0x1C }
  - { offset: 0xABDDB, size: 0x8, addend: 0x0, symName: __ZN5godot7WrappedD1Ev.cold.1, symObjAddr: 0x1B14, symBinAddr: 0x11B6EC, symSize: 0x1C }
  - { offset: 0xABE0A, size: 0x8, addend: 0x0, symName: __ZN5godot7WrappedD0Ev.cold.1, symObjAddr: 0x1B30, symBinAddr: 0x11B708, symSize: 0x1C }
  - { offset: 0xABE26, size: 0x8, addend: 0x0, symName: __ZN5godot7WrappedD0Ev.cold.1, symObjAddr: 0x1B30, symBinAddr: 0x11B708, symSize: 0x1C }
  - { offset: 0xABE3B, size: 0x8, addend: 0x0, symName: __ZN5godot7WrappedD0Ev.cold.1, symObjAddr: 0x1B30, symBinAddr: 0x11B708, symSize: 0x1C }
  - { offset: 0xABE50, size: 0x8, addend: 0x0, symName: __ZN5godot7WrappedD0Ev.cold.1, symObjAddr: 0x1B30, symBinAddr: 0x11B708, symSize: 0x1C }
  - { offset: 0xABE65, size: 0x8, addend: 0x0, symName: __ZN5godot7WrappedD0Ev.cold.1, symObjAddr: 0x1B30, symBinAddr: 0x11B708, symSize: 0x1C }
  - { offset: 0xABE7B, size: 0x8, addend: 0x0, symName: __ZN5godot4ListINS_12PropertyInfoENS_16DefaultAllocatorEE5_Data5eraseEPNS3_7ElementE.cold.2, symObjAddr: 0x1B6C, symBinAddr: 0x11B744, symSize: 0x20 }
  - { offset: 0xABE93, size: 0x8, addend: 0x0, symName: __ZN5godot4ListINS_12PropertyInfoENS_16DefaultAllocatorEE5_Data5eraseEPNS3_7ElementE.cold.1, symObjAddr: 0x1B4C, symBinAddr: 0x11B724, symSize: 0x20 }
  - { offset: 0xABEB2, size: 0x8, addend: 0x0, symName: __ZN5godot8internal23EngineClassRegistrationINS_16ClassDBSingletonEE8callbackEv.cold.1, symObjAddr: 0x1B8C, symBinAddr: 0x11B764, symSize: 0x5C }
  - { offset: 0xABEE7, size: 0x8, addend: 0x0, symName: __ZN5godot8internal23EngineClassRegistrationINS_10RefCountedEE8callbackEv.cold.1, symObjAddr: 0x1BE8, symBinAddr: 0x11B7C0, symSize: 0x5C }
  - { offset: 0xABF31, size: 0x8, addend: 0x0, symName: __ZN5godot10RefCountedD1Ev.cold.1, symObjAddr: 0x1C44, symBinAddr: 0x11B81C, symSize: 0x1C }
  - { offset: 0xABF4D, size: 0x8, addend: 0x0, symName: __ZN5godot10RefCountedD1Ev.cold.1, symObjAddr: 0x1C44, symBinAddr: 0x11B81C, symSize: 0x1C }
  - { offset: 0xABF62, size: 0x8, addend: 0x0, symName: __ZN5godot10RefCountedD1Ev.cold.1, symObjAddr: 0x1C44, symBinAddr: 0x11B81C, symSize: 0x1C }
  - { offset: 0xABF77, size: 0x8, addend: 0x0, symName: __ZN5godot10RefCountedD1Ev.cold.1, symObjAddr: 0x1C44, symBinAddr: 0x11B81C, symSize: 0x1C }
  - { offset: 0xABF8C, size: 0x8, addend: 0x0, symName: __ZN5godot10RefCountedD1Ev.cold.1, symObjAddr: 0x1C44, symBinAddr: 0x11B81C, symSize: 0x1C }
  - { offset: 0xABFA1, size: 0x8, addend: 0x0, symName: __ZN5godot10RefCountedD1Ev.cold.1, symObjAddr: 0x1C44, symBinAddr: 0x11B81C, symSize: 0x1C }
  - { offset: 0xABFD4, size: 0x8, addend: 0x0, symName: __ZN5godot10RefCountedD0Ev.cold.1, symObjAddr: 0x1C60, symBinAddr: 0x11B838, symSize: 0x1C }
  - { offset: 0xABFF0, size: 0x8, addend: 0x0, symName: __ZN5godot10RefCountedD0Ev.cold.1, symObjAddr: 0x1C60, symBinAddr: 0x11B838, symSize: 0x1C }
  - { offset: 0xAC005, size: 0x8, addend: 0x0, symName: __ZN5godot10RefCountedD0Ev.cold.1, symObjAddr: 0x1C60, symBinAddr: 0x11B838, symSize: 0x1C }
  - { offset: 0xAC01A, size: 0x8, addend: 0x0, symName: __ZN5godot10RefCountedD0Ev.cold.1, symObjAddr: 0x1C60, symBinAddr: 0x11B838, symSize: 0x1C }
  - { offset: 0xAC02F, size: 0x8, addend: 0x0, symName: __ZN5godot10RefCountedD0Ev.cold.1, symObjAddr: 0x1C60, symBinAddr: 0x11B838, symSize: 0x1C }
  - { offset: 0xAC044, size: 0x8, addend: 0x0, symName: __ZN5godot10RefCountedD0Ev.cold.1, symObjAddr: 0x1C60, symBinAddr: 0x11B838, symSize: 0x1C }
  - { offset: 0xAC059, size: 0x8, addend: 0x0, symName: __ZN5godot10RefCountedD0Ev.cold.1, symObjAddr: 0x1C60, symBinAddr: 0x11B838, symSize: 0x1C }
  - { offset: 0xAC078, size: 0x8, addend: 0x0, symName: __ZN5godot8internal23EngineClassRegistrationINS_6LoggerEE8callbackEv.cold.1, symObjAddr: 0x1C7C, symBinAddr: 0x11B854, symSize: 0x5C }
  - { offset: 0xAC0AD, size: 0x8, addend: 0x0, symName: __ZN5godot8internal23EngineClassRegistrationINS_13DisplayServerEE8callbackEv.cold.1, symObjAddr: 0x1CD8, symBinAddr: 0x11B8B0, symSize: 0x5C }
  - { offset: 0xAC0E2, size: 0x8, addend: 0x0, symName: __ZN5godot8internal23EngineClassRegistrationINS_4NodeEE8callbackEv.cold.1, symObjAddr: 0x1D34, symBinAddr: 0x11B90C, symSize: 0x5C }
  - { offset: 0xAC117, size: 0x8, addend: 0x0, symName: __ZN5godot8internal23EngineClassRegistrationINS_10ConfigFileEE8callbackEv.cold.1, symObjAddr: 0x1D90, symBinAddr: 0x11B968, symSize: 0x5C }
  - { offset: 0xAC161, size: 0x8, addend: 0x0, symName: __ZN5godot10ConfigFileD1Ev.cold.1, symObjAddr: 0x1DEC, symBinAddr: 0x11B9C4, symSize: 0x1C }
  - { offset: 0xAC17D, size: 0x8, addend: 0x0, symName: __ZN5godot10ConfigFileD1Ev.cold.1, symObjAddr: 0x1DEC, symBinAddr: 0x11B9C4, symSize: 0x1C }
  - { offset: 0xAC192, size: 0x8, addend: 0x0, symName: __ZN5godot10ConfigFileD1Ev.cold.1, symObjAddr: 0x1DEC, symBinAddr: 0x11B9C4, symSize: 0x1C }
  - { offset: 0xAC1A7, size: 0x8, addend: 0x0, symName: __ZN5godot10ConfigFileD1Ev.cold.1, symObjAddr: 0x1DEC, symBinAddr: 0x11B9C4, symSize: 0x1C }
  - { offset: 0xAC1BC, size: 0x8, addend: 0x0, symName: __ZN5godot10ConfigFileD1Ev.cold.1, symObjAddr: 0x1DEC, symBinAddr: 0x11B9C4, symSize: 0x1C }
  - { offset: 0xAC1D1, size: 0x8, addend: 0x0, symName: __ZN5godot10ConfigFileD1Ev.cold.1, symObjAddr: 0x1DEC, symBinAddr: 0x11B9C4, symSize: 0x1C }
  - { offset: 0xAC1E6, size: 0x8, addend: 0x0, symName: __ZN5godot10ConfigFileD1Ev.cold.1, symObjAddr: 0x1DEC, symBinAddr: 0x11B9C4, symSize: 0x1C }
  - { offset: 0xAC21A, size: 0x8, addend: 0x0, symName: __ZN5godot10ConfigFileD0Ev.cold.1, symObjAddr: 0x1E08, symBinAddr: 0x11B9E0, symSize: 0x1C }
  - { offset: 0xAC236, size: 0x8, addend: 0x0, symName: __ZN5godot10ConfigFileD0Ev.cold.1, symObjAddr: 0x1E08, symBinAddr: 0x11B9E0, symSize: 0x1C }
  - { offset: 0xAC24B, size: 0x8, addend: 0x0, symName: __ZN5godot10ConfigFileD0Ev.cold.1, symObjAddr: 0x1E08, symBinAddr: 0x11B9E0, symSize: 0x1C }
  - { offset: 0xAC260, size: 0x8, addend: 0x0, symName: __ZN5godot10ConfigFileD0Ev.cold.1, symObjAddr: 0x1E08, symBinAddr: 0x11B9E0, symSize: 0x1C }
  - { offset: 0xAC275, size: 0x8, addend: 0x0, symName: __ZN5godot10ConfigFileD0Ev.cold.1, symObjAddr: 0x1E08, symBinAddr: 0x11B9E0, symSize: 0x1C }
  - { offset: 0xAC28A, size: 0x8, addend: 0x0, symName: __ZN5godot10ConfigFileD0Ev.cold.1, symObjAddr: 0x1E08, symBinAddr: 0x11B9E0, symSize: 0x1C }
  - { offset: 0xAC29F, size: 0x8, addend: 0x0, symName: __ZN5godot10ConfigFileD0Ev.cold.1, symObjAddr: 0x1E08, symBinAddr: 0x11B9E0, symSize: 0x1C }
  - { offset: 0xAC2B4, size: 0x8, addend: 0x0, symName: __ZN5godot10ConfigFileD0Ev.cold.1, symObjAddr: 0x1E08, symBinAddr: 0x11B9E0, symSize: 0x1C }
  - { offset: 0xAC2D4, size: 0x8, addend: 0x0, symName: __ZN5godot8internal23EngineClassRegistrationINS_15ScriptBacktraceEE8callbackEv.cold.1, symObjAddr: 0x1E24, symBinAddr: 0x11B9FC, symSize: 0x5C }
  - { offset: 0xAC31E, size: 0x8, addend: 0x0, symName: __ZN5godot15ScriptBacktraceD1Ev.cold.1, symObjAddr: 0x1E80, symBinAddr: 0x11BA58, symSize: 0x1C }
  - { offset: 0xAC33A, size: 0x8, addend: 0x0, symName: __ZN5godot15ScriptBacktraceD1Ev.cold.1, symObjAddr: 0x1E80, symBinAddr: 0x11BA58, symSize: 0x1C }
  - { offset: 0xAC34F, size: 0x8, addend: 0x0, symName: __ZN5godot15ScriptBacktraceD1Ev.cold.1, symObjAddr: 0x1E80, symBinAddr: 0x11BA58, symSize: 0x1C }
  - { offset: 0xAC364, size: 0x8, addend: 0x0, symName: __ZN5godot15ScriptBacktraceD1Ev.cold.1, symObjAddr: 0x1E80, symBinAddr: 0x11BA58, symSize: 0x1C }
  - { offset: 0xAC379, size: 0x8, addend: 0x0, symName: __ZN5godot15ScriptBacktraceD1Ev.cold.1, symObjAddr: 0x1E80, symBinAddr: 0x11BA58, symSize: 0x1C }
  - { offset: 0xAC38E, size: 0x8, addend: 0x0, symName: __ZN5godot15ScriptBacktraceD1Ev.cold.1, symObjAddr: 0x1E80, symBinAddr: 0x11BA58, symSize: 0x1C }
  - { offset: 0xAC3A3, size: 0x8, addend: 0x0, symName: __ZN5godot15ScriptBacktraceD1Ev.cold.1, symObjAddr: 0x1E80, symBinAddr: 0x11BA58, symSize: 0x1C }
  - { offset: 0xAC3D7, size: 0x8, addend: 0x0, symName: __ZN5godot15ScriptBacktraceD0Ev.cold.1, symObjAddr: 0x1E9C, symBinAddr: 0x11BA74, symSize: 0x1C }
  - { offset: 0xAC3F3, size: 0x8, addend: 0x0, symName: __ZN5godot15ScriptBacktraceD0Ev.cold.1, symObjAddr: 0x1E9C, symBinAddr: 0x11BA74, symSize: 0x1C }
  - { offset: 0xAC408, size: 0x8, addend: 0x0, symName: __ZN5godot15ScriptBacktraceD0Ev.cold.1, symObjAddr: 0x1E9C, symBinAddr: 0x11BA74, symSize: 0x1C }
  - { offset: 0xAC41D, size: 0x8, addend: 0x0, symName: __ZN5godot15ScriptBacktraceD0Ev.cold.1, symObjAddr: 0x1E9C, symBinAddr: 0x11BA74, symSize: 0x1C }
  - { offset: 0xAC432, size: 0x8, addend: 0x0, symName: __ZN5godot15ScriptBacktraceD0Ev.cold.1, symObjAddr: 0x1E9C, symBinAddr: 0x11BA74, symSize: 0x1C }
  - { offset: 0xAC447, size: 0x8, addend: 0x0, symName: __ZN5godot15ScriptBacktraceD0Ev.cold.1, symObjAddr: 0x1E9C, symBinAddr: 0x11BA74, symSize: 0x1C }
  - { offset: 0xAC45C, size: 0x8, addend: 0x0, symName: __ZN5godot15ScriptBacktraceD0Ev.cold.1, symObjAddr: 0x1E9C, symBinAddr: 0x11BA74, symSize: 0x1C }
  - { offset: 0xAC471, size: 0x8, addend: 0x0, symName: __ZN5godot15ScriptBacktraceD0Ev.cold.1, symObjAddr: 0x1E9C, symBinAddr: 0x11BA74, symSize: 0x1C }
  - { offset: 0xAC53F, size: 0x8, addend: 0x0, symName: __ZN5godot7CowDataINS_10StringNameEE6resizeILb0EEENS_5ErrorEx, symObjAddr: 0x15CC, symBinAddr: 0x10BF8, symSize: 0x288 }
  - { offset: 0xACC2D, size: 0x8, addend: 0x0, symName: __ZN5godot7CowDataINS_10StringNameEE14_copy_on_writeEv, symObjAddr: 0x192C, symBinAddr: 0x10EE8, symSize: 0x48 }
  - { offset: 0xACD7A, size: 0x8, addend: 0x0, symName: __ZN5godot6VectorINS_10StringNameEE9push_backES1_.cold.2, symObjAddr: 0x1F0C, symBinAddr: 0x11BAE4, symSize: 0x20 }
  - { offset: 0xACD92, size: 0x8, addend: 0x0, symName: __ZN5godot6VectorINS_10StringNameEE9push_backES1_.cold.1, symObjAddr: 0x1EB8, symBinAddr: 0x11BA90, symSize: 0x54 }
  - { offset: 0xACF2E, size: 0x8, addend: 0x0, symName: __ZN5godot7CowDataINS_10StringNameEE6resizeILb0EEENS_5ErrorEx.cold.4, symObjAddr: 0x1F8C, symBinAddr: 0x11BB64, symSize: 0x20 }
  - { offset: 0xACF46, size: 0x8, addend: 0x0, symName: __ZN5godot7CowDataINS_10StringNameEE6resizeILb0EEENS_5ErrorEx.cold.5, symObjAddr: 0x1FAC, symBinAddr: 0x11BB84, symSize: 0x20 }
  - { offset: 0xACF5E, size: 0x8, addend: 0x0, symName: __ZN5godot7CowDataINS_10StringNameEE6resizeILb0EEENS_5ErrorEx.cold.2, symObjAddr: 0x1F4C, symBinAddr: 0x11BB24, symSize: 0x20 }
  - { offset: 0xACF7A, size: 0x8, addend: 0x0, symName: __ZN5godot7CowDataINS_10StringNameEE6resizeILb0EEENS_5ErrorEx.cold.2, symObjAddr: 0x1F4C, symBinAddr: 0x11BB24, symSize: 0x20 }
  - { offset: 0xACF8D, size: 0x8, addend: 0x0, symName: __ZN5godot7CowDataINS_10StringNameEE6resizeILb0EEENS_5ErrorEx.cold.1, symObjAddr: 0x1F2C, symBinAddr: 0x11BB04, symSize: 0x20 }
  - { offset: 0xACFA9, size: 0x8, addend: 0x0, symName: __ZN5godot7CowDataINS_10StringNameEE6resizeILb0EEENS_5ErrorEx.cold.1, symObjAddr: 0x1F2C, symBinAddr: 0x11BB04, symSize: 0x20 }
  - { offset: 0xACFBC, size: 0x8, addend: 0x0, symName: __ZN5godot7CowDataINS_10StringNameEE6resizeILb0EEENS_5ErrorEx.cold.3, symObjAddr: 0x1F6C, symBinAddr: 0x11BB44, symSize: 0x20 }
  - { offset: 0xACFD4, size: 0x8, addend: 0x0, symName: __ZN5godot7CowDataINS_10StringNameEE6_unrefEv, symObjAddr: 0x18C4, symBinAddr: 0x10E80, symSize: 0x68 }
  - { offset: 0xAD12E, size: 0x8, addend: 0x0, symName: __ZN5godot7CowDataINS_10StringNameEE14_copy_on_writeEv.cold.1, symObjAddr: 0x1FCC, symBinAddr: 0x11BBA4, symSize: 0xE4 }
  - { offset: 0xAD304, size: 0x8, addend: 0x0, symName: _OUTLINED_FUNCTION_0, symObjAddr: 0x20B0, symBinAddr: 0x10F30, symSize: 0x10 }
  - { offset: 0xAD31C, size: 0x8, addend: 0x0, symName: _OUTLINED_FUNCTION_1, symObjAddr: 0x20C0, symBinAddr: 0x10F40, symSize: 0xC }
  - { offset: 0xAD334, size: 0x8, addend: 0x0, symName: _OUTLINED_FUNCTION_2, symObjAddr: 0x20CC, symBinAddr: 0x10F4C, symSize: 0xC }
  - { offset: 0xAD34C, size: 0x8, addend: 0x0, symName: _OUTLINED_FUNCTION_3, symObjAddr: 0x20D8, symBinAddr: 0x10F58, symSize: 0x8 }
  - { offset: 0xAD364, size: 0x8, addend: 0x0, symName: _OUTLINED_FUNCTION_4, symObjAddr: 0x20E0, symBinAddr: 0x10F60, symSize: 0x8 }
  - { offset: 0xAD37C, size: 0x8, addend: 0x0, symName: _OUTLINED_FUNCTION_5, symObjAddr: 0x20E8, symBinAddr: 0x10F68, symSize: 0x8 }
  - { offset: 0xAD394, size: 0x8, addend: 0x0, symName: _OUTLINED_FUNCTION_6, symObjAddr: 0x20F0, symBinAddr: 0x10F70, symSize: 0xC }
  - { offset: 0xB1BA7, size: 0x8, addend: 0x0, symName: __ZN5godot18create_method_bindI11SentryEventNS_6StringEJEEEPNS_10MethodBindEMT_KFT0_DpT1_E, symObjAddr: 0x2498, symBinAddr: 0x12920, symSize: 0x134 }
  - { offset: 0xB1CDF, size: 0x8, addend: 0x0, symName: __ZN5godot18create_method_bindI11SentryEventJRKNS_6StringEEEEPNS_10MethodBindEMT_FvDpT0_E, symObjAddr: 0x2838, symBinAddr: 0x12D54, symSize: 0x11C }
  - { offset: 0xB1DFA, size: 0x8, addend: 0x0, symName: __ZN5godot18create_method_bindI11SentryEventJN6sentry5LevelEEEEPNS_10MethodBindEMT_FvDpT0_E, symObjAddr: 0x2E24, symBinAddr: 0x13430, symSize: 0x11C }
  - { offset: 0xB1F15, size: 0x8, addend: 0x0, symName: __ZN5godot18create_method_bindI11SentryEventN6sentry5LevelEJEEEPNS_10MethodBindEMT_KFT0_DpT1_E, symObjAddr: 0x353C, symBinAddr: 0x13BA8, symSize: 0x134 }
  - { offset: 0xB2033, size: 0x8, addend: 0x0, symName: __ZN5godot18create_method_bindI11SentryEventJRKNS_6StringES4_EEEPNS_10MethodBindEMT_FvDpT0_E, symObjAddr: 0x3798, symBinAddr: 0x13E98, symSize: 0x11C }
  - { offset: 0xB2153, size: 0x8, addend: 0x0, symName: __ZN5godot18create_method_bindI11SentryEventNS_6StringEJRKS2_EEEPNS_10MethodBindEMT_FT0_DpT1_E, symObjAddr: 0x3CA0, symBinAddr: 0x14504, symSize: 0x128 }
  - { offset: 0xB2778, size: 0x8, addend: 0x0, symName: __ZN5godot34call_get_argument_type_info_helperIRKNS_6StringEEEviRiRNS_12PropertyInfoE, symObjAddr: 0x2B7C, symBinAddr: 0x13084, symSize: 0x174 }
  - { offset: 0xB28AB, size: 0x8, addend: 0x0, symName: __ZN5godot25call_with_variant_args_dvINS_20_gde_UnexistingClassEJRKNS_6StringEEEEvPT_MS5_FvDpT0_EPKPKviR20GDExtensionCallErrorRKNSt3__16vectorINS_7VariantENSH_9allocatorISJ_EEEE, symObjAddr: 0x2CF0, symBinAddr: 0x131F8, symSize: 0x148 }
  - { offset: 0xB2CDA, size: 0x8, addend: 0x0, symName: __ZN5godot34call_get_argument_type_info_helperIN6sentry5LevelEEEviRiRNS_12PropertyInfoE, symObjAddr: 0x3108, symBinAddr: 0x13700, symSize: 0xD4 }
  - { offset: 0xB2D9A, size: 0x8, addend: 0x0, symName: __ZN5godot25call_with_variant_args_dvINS_20_gde_UnexistingClassEJN6sentry5LevelEEEEvPT_MS4_FvDpT0_EPKPKviR20GDExtensionCallErrorRKNSt3__16vectorINS_7VariantENSG_9allocatorISI_EEEE, symObjAddr: 0x3414, symBinAddr: 0x13A0C, symSize: 0x19C }
  - { offset: 0xB2FF7, size: 0x8, addend: 0x0, symName: __ZN5godot38enum_qualified_name_to_class_info_nameERKNS_6StringE, symObjAddr: 0x3304, symBinAddr: 0x138FC, symSize: 0x110 }
  - { offset: 0xB352B, size: 0x8, addend: 0x0, symName: __ZN5godot25call_with_variant_args_dvINS_20_gde_UnexistingClassEJRKNS_6StringES4_EEEvPT_MS5_FvDpT0_EPKPKviR20GDExtensionCallErrorRKNSt3__16vectorINS_7VariantENSH_9allocatorISJ_EEEE, symObjAddr: 0x3B00, symBinAddr: 0x14200, symSize: 0x1A8 }
  - { offset: 0xB3912, size: 0x8, addend: 0x0, symName: __ZN5godot29call_with_variant_args_ret_dvINS_20_gde_UnexistingClassENS_6StringEJRKS2_EEEvPT_MS5_FT0_DpT1_EPKPKviRNS_7VariantER20GDExtensionCallErrorRKNSt3__16vectorISG_NSK_9allocatorISG_EEEE, symObjAddr: 0x4048, symBinAddr: 0x14898, symSize: 0x158 }
  - { offset: 0xC1BAF, size: 0x8, addend: 0x0, symName: ___cxx_global_var_init, symObjAddr: 0x4AB4, symBinAddr: 0x14B60, symSize: 0x4C }
  - { offset: 0xC1C36, size: 0x8, addend: 0x0, symName: ___cxx_global_var_init.1, symObjAddr: 0x4B00, symBinAddr: 0x14BAC, symSize: 0x4C }
  - { offset: 0xC1CBD, size: 0x8, addend: 0x0, symName: ___cxx_global_var_init.2, symObjAddr: 0x4B4C, symBinAddr: 0x14BF8, symSize: 0x4C }
  - { offset: 0xC1D44, size: 0x8, addend: 0x0, symName: ___cxx_global_var_init.3, symObjAddr: 0x4B98, symBinAddr: 0x14C44, symSize: 0x4C }
  - { offset: 0xC1DCB, size: 0x8, addend: 0x0, symName: ___cxx_global_var_init.4, symObjAddr: 0x4BE4, symBinAddr: 0x14C90, symSize: 0x4C }
  - { offset: 0xC1E52, size: 0x8, addend: 0x0, symName: ___cxx_global_var_init.5, symObjAddr: 0x4C30, symBinAddr: 0x14CDC, symSize: 0x4C }
  - { offset: 0xC2788, size: 0x8, addend: 0x0, symName: __ZN11SentryEvent13_bind_methodsEv, symObjAddr: 0x0, symBinAddr: 0x111DC, symSize: 0x1744 }
  - { offset: 0xC69A3, size: 0x8, addend: 0x0, symName: __ZN11SentryEvent13_bind_methodsEv.cold.1, symObjAddr: 0x41AC, symBinAddr: 0x11BC88, symSize: 0x58 }
  - { offset: 0xC69D1, size: 0x8, addend: 0x0, symName: __ZN11SentryEvent13_bind_methodsEv.cold.2, symObjAddr: 0x4204, symBinAddr: 0x11BCE0, symSize: 0x58 }
  - { offset: 0xC69FF, size: 0x8, addend: 0x0, symName: __ZN11SentryEvent13_bind_methodsEv.cold.3, symObjAddr: 0x425C, symBinAddr: 0x11BD38, symSize: 0x58 }
  - { offset: 0xC6A2D, size: 0x8, addend: 0x0, symName: __ZN11SentryEvent13_bind_methodsEv.cold.4, symObjAddr: 0x42B4, symBinAddr: 0x11BD90, symSize: 0x58 }
  - { offset: 0xC6A5B, size: 0x8, addend: 0x0, symName: __ZN11SentryEvent13_bind_methodsEv.cold.5, symObjAddr: 0x430C, symBinAddr: 0x11BDE8, symSize: 0x58 }
  - { offset: 0xC6A89, size: 0x8, addend: 0x0, symName: __ZN11SentryEvent13_bind_methodsEv.cold.6, symObjAddr: 0x4364, symBinAddr: 0x11BE40, symSize: 0x58 }
  - { offset: 0xC6AB7, size: 0x8, addend: 0x0, symName: __ZN11SentryEvent13_bind_methodsEv.cold.7, symObjAddr: 0x43BC, symBinAddr: 0x11BE98, symSize: 0x58 }
  - { offset: 0xC6AE5, size: 0x8, addend: 0x0, symName: __ZN11SentryEvent13_bind_methodsEv.cold.8, symObjAddr: 0x4414, symBinAddr: 0x11BEF0, symSize: 0x58 }
  - { offset: 0xC6B13, size: 0x8, addend: 0x0, symName: __ZN11SentryEvent13_bind_methodsEv.cold.9, symObjAddr: 0x446C, symBinAddr: 0x11BF48, symSize: 0x58 }
  - { offset: 0xC6B48, size: 0x8, addend: 0x0, symName: __ZN5godot8internal23EngineClassRegistrationINS_6ObjectEE8callbackEv.cold.1, symObjAddr: 0x44C4, symBinAddr: 0x11BFA0, symSize: 0x5C }
  - { offset: 0xC6BE3, size: 0x8, addend: 0x0, symName: __ZN5godot6ObjectD1Ev.cold.1, symObjAddr: 0x4520, symBinAddr: 0x11BFFC, symSize: 0x1C }
  - { offset: 0xC6BFF, size: 0x8, addend: 0x0, symName: __ZN5godot6ObjectD1Ev.cold.1, symObjAddr: 0x4520, symBinAddr: 0x11BFFC, symSize: 0x1C }
  - { offset: 0xC6C14, size: 0x8, addend: 0x0, symName: __ZN5godot6ObjectD1Ev.cold.1, symObjAddr: 0x4520, symBinAddr: 0x11BFFC, symSize: 0x1C }
  - { offset: 0xC6C29, size: 0x8, addend: 0x0, symName: __ZN5godot6ObjectD1Ev.cold.1, symObjAddr: 0x4520, symBinAddr: 0x11BFFC, symSize: 0x1C }
  - { offset: 0xC6C3E, size: 0x8, addend: 0x0, symName: __ZN5godot6ObjectD1Ev.cold.1, symObjAddr: 0x4520, symBinAddr: 0x11BFFC, symSize: 0x1C }
  - { offset: 0xC6C6E, size: 0x8, addend: 0x0, symName: __ZN5godot6ObjectD0Ev.cold.1, symObjAddr: 0x453C, symBinAddr: 0x11C018, symSize: 0x1C }
  - { offset: 0xC6C8A, size: 0x8, addend: 0x0, symName: __ZN5godot6ObjectD0Ev.cold.1, symObjAddr: 0x453C, symBinAddr: 0x11C018, symSize: 0x1C }
  - { offset: 0xC6C9F, size: 0x8, addend: 0x0, symName: __ZN5godot6ObjectD0Ev.cold.1, symObjAddr: 0x453C, symBinAddr: 0x11C018, symSize: 0x1C }
  - { offset: 0xC6CB4, size: 0x8, addend: 0x0, symName: __ZN5godot6ObjectD0Ev.cold.1, symObjAddr: 0x453C, symBinAddr: 0x11C018, symSize: 0x1C }
  - { offset: 0xC6CC9, size: 0x8, addend: 0x0, symName: __ZN5godot6ObjectD0Ev.cold.1, symObjAddr: 0x453C, symBinAddr: 0x11C018, symSize: 0x1C }
  - { offset: 0xC6CDE, size: 0x8, addend: 0x0, symName: __ZN5godot6ObjectD0Ev.cold.1, symObjAddr: 0x453C, symBinAddr: 0x11C018, symSize: 0x1C }
  - { offset: 0xC6CF5, size: 0x8, addend: 0x0, symName: __ZN5godot7WrappedD1Ev.cold.1, symObjAddr: 0x4558, symBinAddr: 0x11C034, symSize: 0x1C }
  - { offset: 0xC6D11, size: 0x8, addend: 0x0, symName: __ZN5godot7WrappedD1Ev.cold.1, symObjAddr: 0x4558, symBinAddr: 0x11C034, symSize: 0x1C }
  - { offset: 0xC6D26, size: 0x8, addend: 0x0, symName: __ZN5godot7WrappedD1Ev.cold.1, symObjAddr: 0x4558, symBinAddr: 0x11C034, symSize: 0x1C }
  - { offset: 0xC6D3B, size: 0x8, addend: 0x0, symName: __ZN5godot7WrappedD1Ev.cold.1, symObjAddr: 0x4558, symBinAddr: 0x11C034, symSize: 0x1C }
  - { offset: 0xC6D6A, size: 0x8, addend: 0x0, symName: __ZN5godot7WrappedD0Ev.cold.1, symObjAddr: 0x4574, symBinAddr: 0x11C050, symSize: 0x1C }
  - { offset: 0xC6D86, size: 0x8, addend: 0x0, symName: __ZN5godot7WrappedD0Ev.cold.1, symObjAddr: 0x4574, symBinAddr: 0x11C050, symSize: 0x1C }
  - { offset: 0xC6D9B, size: 0x8, addend: 0x0, symName: __ZN5godot7WrappedD0Ev.cold.1, symObjAddr: 0x4574, symBinAddr: 0x11C050, symSize: 0x1C }
  - { offset: 0xC6DB0, size: 0x8, addend: 0x0, symName: __ZN5godot7WrappedD0Ev.cold.1, symObjAddr: 0x4574, symBinAddr: 0x11C050, symSize: 0x1C }
  - { offset: 0xC6DC5, size: 0x8, addend: 0x0, symName: __ZN5godot7WrappedD0Ev.cold.1, symObjAddr: 0x4574, symBinAddr: 0x11C050, symSize: 0x1C }
  - { offset: 0xC6DDB, size: 0x8, addend: 0x0, symName: __ZN5godot4ListINS_12PropertyInfoENS_16DefaultAllocatorEE5_Data5eraseEPNS3_7ElementE.cold.2, symObjAddr: 0x45B0, symBinAddr: 0x11C08C, symSize: 0x20 }
  - { offset: 0xC6DF3, size: 0x8, addend: 0x0, symName: __ZN5godot4ListINS_12PropertyInfoENS_16DefaultAllocatorEE5_Data5eraseEPNS3_7ElementE.cold.1, symObjAddr: 0x4590, symBinAddr: 0x11C06C, symSize: 0x20 }
  - { offset: 0xC6E12, size: 0x8, addend: 0x0, symName: __ZN5godot8internal23EngineClassRegistrationINS_16ClassDBSingletonEE8callbackEv.cold.1, symObjAddr: 0x45D0, symBinAddr: 0x11C0AC, symSize: 0x5C }
  - { offset: 0xC6E47, size: 0x8, addend: 0x0, symName: __ZN5godot8internal23EngineClassRegistrationINS_10RefCountedEE8callbackEv.cold.1, symObjAddr: 0x462C, symBinAddr: 0x11C108, symSize: 0x5C }
  - { offset: 0xC6E91, size: 0x8, addend: 0x0, symName: __ZN5godot10RefCountedD1Ev.cold.1, symObjAddr: 0x4688, symBinAddr: 0x11C164, symSize: 0x1C }
  - { offset: 0xC6EAD, size: 0x8, addend: 0x0, symName: __ZN5godot10RefCountedD1Ev.cold.1, symObjAddr: 0x4688, symBinAddr: 0x11C164, symSize: 0x1C }
  - { offset: 0xC6EC2, size: 0x8, addend: 0x0, symName: __ZN5godot10RefCountedD1Ev.cold.1, symObjAddr: 0x4688, symBinAddr: 0x11C164, symSize: 0x1C }
  - { offset: 0xC6ED7, size: 0x8, addend: 0x0, symName: __ZN5godot10RefCountedD1Ev.cold.1, symObjAddr: 0x4688, symBinAddr: 0x11C164, symSize: 0x1C }
  - { offset: 0xC6EEC, size: 0x8, addend: 0x0, symName: __ZN5godot10RefCountedD1Ev.cold.1, symObjAddr: 0x4688, symBinAddr: 0x11C164, symSize: 0x1C }
  - { offset: 0xC6F01, size: 0x8, addend: 0x0, symName: __ZN5godot10RefCountedD1Ev.cold.1, symObjAddr: 0x4688, symBinAddr: 0x11C164, symSize: 0x1C }
  - { offset: 0xC6F34, size: 0x8, addend: 0x0, symName: __ZN5godot10RefCountedD0Ev.cold.1, symObjAddr: 0x46A4, symBinAddr: 0x11C180, symSize: 0x1C }
  - { offset: 0xC6F50, size: 0x8, addend: 0x0, symName: __ZN5godot10RefCountedD0Ev.cold.1, symObjAddr: 0x46A4, symBinAddr: 0x11C180, symSize: 0x1C }
  - { offset: 0xC6F65, size: 0x8, addend: 0x0, symName: __ZN5godot10RefCountedD0Ev.cold.1, symObjAddr: 0x46A4, symBinAddr: 0x11C180, symSize: 0x1C }
  - { offset: 0xC6F7A, size: 0x8, addend: 0x0, symName: __ZN5godot10RefCountedD0Ev.cold.1, symObjAddr: 0x46A4, symBinAddr: 0x11C180, symSize: 0x1C }
  - { offset: 0xC6F8F, size: 0x8, addend: 0x0, symName: __ZN5godot10RefCountedD0Ev.cold.1, symObjAddr: 0x46A4, symBinAddr: 0x11C180, symSize: 0x1C }
  - { offset: 0xC6FA4, size: 0x8, addend: 0x0, symName: __ZN5godot10RefCountedD0Ev.cold.1, symObjAddr: 0x46A4, symBinAddr: 0x11C180, symSize: 0x1C }
  - { offset: 0xC6FB9, size: 0x8, addend: 0x0, symName: __ZN5godot10RefCountedD0Ev.cold.1, symObjAddr: 0x46A4, symBinAddr: 0x11C180, symSize: 0x1C }
  - { offset: 0xC6FD8, size: 0x8, addend: 0x0, symName: __ZN5godot8internal23EngineClassRegistrationINS_10ConfigFileEE8callbackEv.cold.1, symObjAddr: 0x46C0, symBinAddr: 0x11C19C, symSize: 0x5C }
  - { offset: 0xC7022, size: 0x8, addend: 0x0, symName: __ZN5godot10ConfigFileD1Ev.cold.1, symObjAddr: 0x471C, symBinAddr: 0x11C1F8, symSize: 0x1C }
  - { offset: 0xC703E, size: 0x8, addend: 0x0, symName: __ZN5godot10ConfigFileD1Ev.cold.1, symObjAddr: 0x471C, symBinAddr: 0x11C1F8, symSize: 0x1C }
  - { offset: 0xC7053, size: 0x8, addend: 0x0, symName: __ZN5godot10ConfigFileD1Ev.cold.1, symObjAddr: 0x471C, symBinAddr: 0x11C1F8, symSize: 0x1C }
  - { offset: 0xC7068, size: 0x8, addend: 0x0, symName: __ZN5godot10ConfigFileD1Ev.cold.1, symObjAddr: 0x471C, symBinAddr: 0x11C1F8, symSize: 0x1C }
  - { offset: 0xC707D, size: 0x8, addend: 0x0, symName: __ZN5godot10ConfigFileD1Ev.cold.1, symObjAddr: 0x471C, symBinAddr: 0x11C1F8, symSize: 0x1C }
  - { offset: 0xC7092, size: 0x8, addend: 0x0, symName: __ZN5godot10ConfigFileD1Ev.cold.1, symObjAddr: 0x471C, symBinAddr: 0x11C1F8, symSize: 0x1C }
  - { offset: 0xC70A7, size: 0x8, addend: 0x0, symName: __ZN5godot10ConfigFileD1Ev.cold.1, symObjAddr: 0x471C, symBinAddr: 0x11C1F8, symSize: 0x1C }
  - { offset: 0xC70DB, size: 0x8, addend: 0x0, symName: __ZN5godot10ConfigFileD0Ev.cold.1, symObjAddr: 0x4738, symBinAddr: 0x11C214, symSize: 0x1C }
  - { offset: 0xC70F7, size: 0x8, addend: 0x0, symName: __ZN5godot10ConfigFileD0Ev.cold.1, symObjAddr: 0x4738, symBinAddr: 0x11C214, symSize: 0x1C }
  - { offset: 0xC710C, size: 0x8, addend: 0x0, symName: __ZN5godot10ConfigFileD0Ev.cold.1, symObjAddr: 0x4738, symBinAddr: 0x11C214, symSize: 0x1C }
  - { offset: 0xC7121, size: 0x8, addend: 0x0, symName: __ZN5godot10ConfigFileD0Ev.cold.1, symObjAddr: 0x4738, symBinAddr: 0x11C214, symSize: 0x1C }
  - { offset: 0xC7136, size: 0x8, addend: 0x0, symName: __ZN5godot10ConfigFileD0Ev.cold.1, symObjAddr: 0x4738, symBinAddr: 0x11C214, symSize: 0x1C }
  - { offset: 0xC714B, size: 0x8, addend: 0x0, symName: __ZN5godot10ConfigFileD0Ev.cold.1, symObjAddr: 0x4738, symBinAddr: 0x11C214, symSize: 0x1C }
  - { offset: 0xC7160, size: 0x8, addend: 0x0, symName: __ZN5godot10ConfigFileD0Ev.cold.1, symObjAddr: 0x4738, symBinAddr: 0x11C214, symSize: 0x1C }
  - { offset: 0xC7175, size: 0x8, addend: 0x0, symName: __ZN5godot10ConfigFileD0Ev.cold.1, symObjAddr: 0x4738, symBinAddr: 0x11C214, symSize: 0x1C }
  - { offset: 0xC7195, size: 0x8, addend: 0x0, symName: __ZN5godot8internal23EngineClassRegistrationINS_6LoggerEE8callbackEv.cold.1, symObjAddr: 0x4754, symBinAddr: 0x11C230, symSize: 0x5C }
  - { offset: 0xC71CA, size: 0x8, addend: 0x0, symName: __ZN5godot8internal23EngineClassRegistrationINS_15ScriptBacktraceEE8callbackEv.cold.1, symObjAddr: 0x47B0, symBinAddr: 0x11C28C, symSize: 0x5C }
  - { offset: 0xC7214, size: 0x8, addend: 0x0, symName: __ZN5godot15ScriptBacktraceD1Ev.cold.1, symObjAddr: 0x480C, symBinAddr: 0x11C2E8, symSize: 0x1C }
  - { offset: 0xC7230, size: 0x8, addend: 0x0, symName: __ZN5godot15ScriptBacktraceD1Ev.cold.1, symObjAddr: 0x480C, symBinAddr: 0x11C2E8, symSize: 0x1C }
  - { offset: 0xC7245, size: 0x8, addend: 0x0, symName: __ZN5godot15ScriptBacktraceD1Ev.cold.1, symObjAddr: 0x480C, symBinAddr: 0x11C2E8, symSize: 0x1C }
  - { offset: 0xC725A, size: 0x8, addend: 0x0, symName: __ZN5godot15ScriptBacktraceD1Ev.cold.1, symObjAddr: 0x480C, symBinAddr: 0x11C2E8, symSize: 0x1C }
  - { offset: 0xC726F, size: 0x8, addend: 0x0, symName: __ZN5godot15ScriptBacktraceD1Ev.cold.1, symObjAddr: 0x480C, symBinAddr: 0x11C2E8, symSize: 0x1C }
  - { offset: 0xC7284, size: 0x8, addend: 0x0, symName: __ZN5godot15ScriptBacktraceD1Ev.cold.1, symObjAddr: 0x480C, symBinAddr: 0x11C2E8, symSize: 0x1C }
  - { offset: 0xC7299, size: 0x8, addend: 0x0, symName: __ZN5godot15ScriptBacktraceD1Ev.cold.1, symObjAddr: 0x480C, symBinAddr: 0x11C2E8, symSize: 0x1C }
  - { offset: 0xC72CD, size: 0x8, addend: 0x0, symName: __ZN5godot15ScriptBacktraceD0Ev.cold.1, symObjAddr: 0x4828, symBinAddr: 0x11C304, symSize: 0x1C }
  - { offset: 0xC72E9, size: 0x8, addend: 0x0, symName: __ZN5godot15ScriptBacktraceD0Ev.cold.1, symObjAddr: 0x4828, symBinAddr: 0x11C304, symSize: 0x1C }
  - { offset: 0xC72FE, size: 0x8, addend: 0x0, symName: __ZN5godot15ScriptBacktraceD0Ev.cold.1, symObjAddr: 0x4828, symBinAddr: 0x11C304, symSize: 0x1C }
  - { offset: 0xC7313, size: 0x8, addend: 0x0, symName: __ZN5godot15ScriptBacktraceD0Ev.cold.1, symObjAddr: 0x4828, symBinAddr: 0x11C304, symSize: 0x1C }
  - { offset: 0xC7328, size: 0x8, addend: 0x0, symName: __ZN5godot15ScriptBacktraceD0Ev.cold.1, symObjAddr: 0x4828, symBinAddr: 0x11C304, symSize: 0x1C }
  - { offset: 0xC733D, size: 0x8, addend: 0x0, symName: __ZN5godot15ScriptBacktraceD0Ev.cold.1, symObjAddr: 0x4828, symBinAddr: 0x11C304, symSize: 0x1C }
  - { offset: 0xC7352, size: 0x8, addend: 0x0, symName: __ZN5godot15ScriptBacktraceD0Ev.cold.1, symObjAddr: 0x4828, symBinAddr: 0x11C304, symSize: 0x1C }
  - { offset: 0xC7367, size: 0x8, addend: 0x0, symName: __ZN5godot15ScriptBacktraceD0Ev.cold.1, symObjAddr: 0x4828, symBinAddr: 0x11C304, symSize: 0x1C }
  - { offset: 0xC7456, size: 0x8, addend: 0x0, symName: __ZN5godot18create_method_bindI11SentryEventNS_6StringEJEEEPNS_10MethodBindEMT_KFT0_DpT1_E.cold.1, symObjAddr: 0x4844, symBinAddr: 0x11C320, symSize: 0x5C }
  - { offset: 0xC7485, size: 0x8, addend: 0x0, symName: __ZNK5godot13MethodBindTRCINS_6StringEJEE17gen_argument_typeEi, symObjAddr: 0x25CC, symBinAddr: 0x12A54, symSize: 0x8 }
  - { offset: 0xC74F6, size: 0x8, addend: 0x0, symName: __ZNK5godot13MethodBindTRCINS_6StringEJEE22gen_argument_type_infoEi, symObjAddr: 0x25D4, symBinAddr: 0x12A5C, symSize: 0xF8 }
  - { offset: 0xC75C1, size: 0x8, addend: 0x0, symName: __ZNK5godot13MethodBindTRCINS_6StringEJEE21get_argument_metadataEi, symObjAddr: 0x26CC, symBinAddr: 0x12B54, symSize: 0x8 }
  - { offset: 0xC7630, size: 0x8, addend: 0x0, symName: __ZNK5godot13MethodBindTRCINS_6StringEJEE4callEPvPKPKvxR20GDExtensionCallError, symObjAddr: 0x26D4, symBinAddr: 0x12B5C, symSize: 0x64 }
  - { offset: 0xC7756, size: 0x8, addend: 0x0, symName: __ZNK5godot13MethodBindTRCINS_6StringEJEE7ptrcallEPvPKPKvS3_, symObjAddr: 0x27A0, symBinAddr: 0x12BC0, symSize: 0x80 }
  - { offset: 0xC7853, size: 0x8, addend: 0x0, symName: __ZN5godot13MethodBindTRCINS_6StringEJEED1Ev, symObjAddr: 0x2820, symBinAddr: 0x12C40, symSize: 0x4 }
  - { offset: 0xC7877, size: 0x8, addend: 0x0, symName: __ZN5godot13MethodBindTRCINS_6StringEJEED1Ev, symObjAddr: 0x2820, symBinAddr: 0x12C40, symSize: 0x4 }
  - { offset: 0xC78B0, size: 0x8, addend: 0x0, symName: __ZN5godot13MethodBindTRCINS_6StringEJEED0Ev, symObjAddr: 0x2824, symBinAddr: 0x12C44, symSize: 0x14 }
  - { offset: 0xC797A, size: 0x8, addend: 0x0, symName: __ZN5godot18create_method_bindI11SentryEventJRKNS_6StringEEEEPNS_10MethodBindEMT_FvDpT0_E.cold.1, symObjAddr: 0x48A0, symBinAddr: 0x11C37C, symSize: 0x5C }
  - { offset: 0xC79A9, size: 0x8, addend: 0x0, symName: __ZNK5godot11MethodBindTIJRKNS_6StringEEE17gen_argument_typeEi, symObjAddr: 0x2954, symBinAddr: 0x12E70, symSize: 0x10 }
  - { offset: 0xC7A0D, size: 0x8, addend: 0x0, symName: __ZNK5godot11MethodBindTIJRKNS_6StringEEE22gen_argument_type_infoEi, symObjAddr: 0x2964, symBinAddr: 0x12E80, symSize: 0x124 }
  - { offset: 0xC7B59, size: 0x8, addend: 0x0, symName: __ZNK5godot11MethodBindTIJRKNS_6StringEEE21get_argument_metadataEi, symObjAddr: 0x2A9C, symBinAddr: 0x12FA4, symSize: 0x8 }
  - { offset: 0xC7BAA, size: 0x8, addend: 0x0, symName: __ZNK5godot11MethodBindTIJRKNS_6StringEEE4callEPvPKPKvxR20GDExtensionCallError, symObjAddr: 0x2AA4, symBinAddr: 0x12FAC, symSize: 0x40 }
  - { offset: 0xC7C6E, size: 0x8, addend: 0x0, symName: __ZNK5godot11MethodBindTIJRKNS_6StringEEE7ptrcallEPvPKPKvS5_, symObjAddr: 0x2AE4, symBinAddr: 0x12FEC, symSize: 0x80 }
  - { offset: 0xC7D70, size: 0x8, addend: 0x0, symName: __ZN5godot11MethodBindTIJRKNS_6StringEEED1Ev, symObjAddr: 0x2B64, symBinAddr: 0x1306C, symSize: 0x4 }
  - { offset: 0xC7D94, size: 0x8, addend: 0x0, symName: __ZN5godot11MethodBindTIJRKNS_6StringEEED1Ev, symObjAddr: 0x2B64, symBinAddr: 0x1306C, symSize: 0x4 }
  - { offset: 0xC7DCD, size: 0x8, addend: 0x0, symName: __ZN5godot11MethodBindTIJRKNS_6StringEEED0Ev, symObjAddr: 0x2B68, symBinAddr: 0x13070, symSize: 0x14 }
  - { offset: 0xC7EEE, size: 0x8, addend: 0x0, symName: __ZN5godot18create_method_bindI11SentryEventJN6sentry5LevelEEEEPNS_10MethodBindEMT_FvDpT0_E.cold.1, symObjAddr: 0x48FC, symBinAddr: 0x11C3D8, symSize: 0x5C }
  - { offset: 0xC7F1D, size: 0x8, addend: 0x0, symName: __ZNK5godot11MethodBindTIJN6sentry5LevelEEE17gen_argument_typeEi, symObjAddr: 0x2F40, symBinAddr: 0x1354C, symSize: 0x10 }
  - { offset: 0xC7F53, size: 0x8, addend: 0x0, symName: __ZNK5godot11MethodBindTIJN6sentry5LevelEEE22gen_argument_type_infoEi, symObjAddr: 0x2F50, symBinAddr: 0x1355C, symSize: 0x124 }
  - { offset: 0xC809F, size: 0x8, addend: 0x0, symName: __ZNK5godot11MethodBindTIJN6sentry5LevelEEE21get_argument_metadataEi, symObjAddr: 0x3088, symBinAddr: 0x13680, symSize: 0x8 }
  - { offset: 0xC80D5, size: 0x8, addend: 0x0, symName: __ZNK5godot11MethodBindTIJN6sentry5LevelEEE4callEPvPKPKvxR20GDExtensionCallError, symObjAddr: 0x3090, symBinAddr: 0x13688, symSize: 0x40 }
  - { offset: 0xC8199, size: 0x8, addend: 0x0, symName: __ZNK5godot11MethodBindTIJN6sentry5LevelEEE7ptrcallEPvPKPKvS4_, symObjAddr: 0x30D0, symBinAddr: 0x136C8, symSize: 0x20 }
  - { offset: 0xC828A, size: 0x8, addend: 0x0, symName: __ZN5godot11MethodBindTIJN6sentry5LevelEEED1Ev, symObjAddr: 0x30F0, symBinAddr: 0x136E8, symSize: 0x4 }
  - { offset: 0xC82AE, size: 0x8, addend: 0x0, symName: __ZN5godot11MethodBindTIJN6sentry5LevelEEED1Ev, symObjAddr: 0x30F0, symBinAddr: 0x136E8, symSize: 0x4 }
  - { offset: 0xC82E7, size: 0x8, addend: 0x0, symName: __ZN5godot11MethodBindTIJN6sentry5LevelEEED0Ev, symObjAddr: 0x30F4, symBinAddr: 0x136EC, symSize: 0x14 }
  - { offset: 0xC8351, size: 0x8, addend: 0x0, symName: __ZN5godot11GetTypeInfoIN6sentry5LevelEvE14get_class_infoEv, symObjAddr: 0x31DC, symBinAddr: 0x137D4, symSize: 0x128 }
  - { offset: 0xC8476, size: 0x8, addend: 0x0, symName: __ZN5godot18create_method_bindI11SentryEventN6sentry5LevelEJEEEPNS_10MethodBindEMT_KFT0_DpT1_E.cold.1, symObjAddr: 0x4958, symBinAddr: 0x11C434, symSize: 0x5C }
  - { offset: 0xC84A5, size: 0x8, addend: 0x0, symName: __ZNK5godot13MethodBindTRCIN6sentry5LevelEJEE17gen_argument_typeEi, symObjAddr: 0x3670, symBinAddr: 0x13CDC, symSize: 0x8 }
  - { offset: 0xC84DB, size: 0x8, addend: 0x0, symName: __ZNK5godot13MethodBindTRCIN6sentry5LevelEJEE22gen_argument_type_infoEi, symObjAddr: 0x3678, symBinAddr: 0x13CE4, symSize: 0x4 }
  - { offset: 0xC8512, size: 0x8, addend: 0x0, symName: __ZNK5godot13MethodBindTRCIN6sentry5LevelEJEE22gen_argument_type_infoEi, symObjAddr: 0x3678, symBinAddr: 0x13CE4, symSize: 0x4 }
  - { offset: 0xC8526, size: 0x8, addend: 0x0, symName: __ZNK5godot13MethodBindTRCIN6sentry5LevelEJEE21get_argument_metadataEi, symObjAddr: 0x367C, symBinAddr: 0x13CE8, symSize: 0x8 }
  - { offset: 0xC8581, size: 0x8, addend: 0x0, symName: __ZNK5godot13MethodBindTRCIN6sentry5LevelEJEE4callEPvPKPKvxR20GDExtensionCallError, symObjAddr: 0x3684, symBinAddr: 0x13CF0, symSize: 0x64 }
  - { offset: 0xC86CA, size: 0x8, addend: 0x0, symName: __ZNK5godot13MethodBindTRCIN6sentry5LevelEJEE7ptrcallEPvPKPKvS4_, symObjAddr: 0x3744, symBinAddr: 0x13D54, symSize: 0x3C }
  - { offset: 0xC87BE, size: 0x8, addend: 0x0, symName: __ZN5godot13MethodBindTRCIN6sentry5LevelEJEED1Ev, symObjAddr: 0x3780, symBinAddr: 0x13D90, symSize: 0x4 }
  - { offset: 0xC87E2, size: 0x8, addend: 0x0, symName: __ZN5godot13MethodBindTRCIN6sentry5LevelEJEED1Ev, symObjAddr: 0x3780, symBinAddr: 0x13D90, symSize: 0x4 }
  - { offset: 0xC881B, size: 0x8, addend: 0x0, symName: __ZN5godot13MethodBindTRCIN6sentry5LevelEJEED0Ev, symObjAddr: 0x3784, symBinAddr: 0x13D94, symSize: 0x14 }
  - { offset: 0xC88E5, size: 0x8, addend: 0x0, symName: __ZN5godot18create_method_bindI11SentryEventJRKNS_6StringES4_EEEPNS_10MethodBindEMT_FvDpT0_E.cold.1, symObjAddr: 0x49B4, symBinAddr: 0x11C490, symSize: 0x5C }
  - { offset: 0xC8914, size: 0x8, addend: 0x0, symName: __ZNK5godot11MethodBindTIJRKNS_6StringES3_EE17gen_argument_typeEi, symObjAddr: 0x38B4, symBinAddr: 0x13FB4, symSize: 0x10 }
  - { offset: 0xC8956, size: 0x8, addend: 0x0, symName: __ZNK5godot11MethodBindTIJRKNS_6StringES3_EE22gen_argument_type_infoEi, symObjAddr: 0x38C4, symBinAddr: 0x13FC4, symSize: 0x138 }
  - { offset: 0xC8ACC, size: 0x8, addend: 0x0, symName: __ZNK5godot11MethodBindTIJRKNS_6StringES3_EE21get_argument_metadataEi, symObjAddr: 0x39FC, symBinAddr: 0x140FC, symSize: 0x8 }
  - { offset: 0xC8B02, size: 0x8, addend: 0x0, symName: __ZNK5godot11MethodBindTIJRKNS_6StringES3_EE4callEPvPKPKvxR20GDExtensionCallError, symObjAddr: 0x3A04, symBinAddr: 0x14104, symSize: 0x40 }
  - { offset: 0xC8BB3, size: 0x8, addend: 0x0, symName: __ZNK5godot11MethodBindTIJRKNS_6StringES3_EE7ptrcallEPvPKPKvS5_, symObjAddr: 0x3A44, symBinAddr: 0x14144, symSize: 0xA4 }
  - { offset: 0xC8CDA, size: 0x8, addend: 0x0, symName: __ZN5godot11MethodBindTIJRKNS_6StringES3_EED1Ev, symObjAddr: 0x3AE8, symBinAddr: 0x141E8, symSize: 0x4 }
  - { offset: 0xC8CFE, size: 0x8, addend: 0x0, symName: __ZN5godot11MethodBindTIJRKNS_6StringES3_EED1Ev, symObjAddr: 0x3AE8, symBinAddr: 0x141E8, symSize: 0x4 }
  - { offset: 0xC8D37, size: 0x8, addend: 0x0, symName: __ZN5godot11MethodBindTIJRKNS_6StringES3_EED0Ev, symObjAddr: 0x3AEC, symBinAddr: 0x141EC, symSize: 0x14 }
  - { offset: 0xC8E01, size: 0x8, addend: 0x0, symName: __ZN5godot18create_method_bindI11SentryEventNS_6StringEJRKS2_EEEPNS_10MethodBindEMT_FT0_DpT1_E.cold.1, symObjAddr: 0x4A10, symBinAddr: 0x11C4EC, symSize: 0x5C }
  - { offset: 0xC8E30, size: 0x8, addend: 0x0, symName: __ZNK5godot12MethodBindTRINS_6StringEJRKS1_EE17gen_argument_typeEi, symObjAddr: 0x3DC8, symBinAddr: 0x1462C, symSize: 0x8 }
  - { offset: 0xC8E66, size: 0x8, addend: 0x0, symName: __ZNK5godot12MethodBindTRINS_6StringEJRKS1_EE22gen_argument_type_infoEi, symObjAddr: 0x3DD0, symBinAddr: 0x14634, symSize: 0x13C }
  - { offset: 0xC8FE7, size: 0x8, addend: 0x0, symName: __ZNK5godot12MethodBindTRINS_6StringEJRKS1_EE21get_argument_metadataEi, symObjAddr: 0x3F20, symBinAddr: 0x14770, symSize: 0x8 }
  - { offset: 0xC901D, size: 0x8, addend: 0x0, symName: __ZNK5godot12MethodBindTRINS_6StringEJRKS1_EE4callEPvPKPKvxR20GDExtensionCallError, symObjAddr: 0x3F28, symBinAddr: 0x14778, symSize: 0x64 }
  - { offset: 0xC90C6, size: 0x8, addend: 0x0, symName: __ZNK5godot12MethodBindTRINS_6StringEJRKS1_EE7ptrcallEPvPKPKvS5_, symObjAddr: 0x3F8C, symBinAddr: 0x147DC, symSize: 0xA4 }
  - { offset: 0xC91EF, size: 0x8, addend: 0x0, symName: __ZN5godot12MethodBindTRINS_6StringEJRKS1_EED1Ev, symObjAddr: 0x4030, symBinAddr: 0x14880, symSize: 0x4 }
  - { offset: 0xC9213, size: 0x8, addend: 0x0, symName: __ZN5godot12MethodBindTRINS_6StringEJRKS1_EED1Ev, symObjAddr: 0x4030, symBinAddr: 0x14880, symSize: 0x4 }
  - { offset: 0xC924C, size: 0x8, addend: 0x0, symName: __ZN5godot12MethodBindTRINS_6StringEJRKS1_EED0Ev, symObjAddr: 0x4034, symBinAddr: 0x14884, symSize: 0x14 }
  - { offset: 0xC92B6, size: 0x8, addend: 0x0, symName: _OUTLINED_FUNCTION_0, symObjAddr: 0x4A6C, symBinAddr: 0x14B18, symSize: 0x10 }
  - { offset: 0xC92CE, size: 0x8, addend: 0x0, symName: _OUTLINED_FUNCTION_1, symObjAddr: 0x4A7C, symBinAddr: 0x14B28, symSize: 0xC }
  - { offset: 0xC92E6, size: 0x8, addend: 0x0, symName: _OUTLINED_FUNCTION_2, symObjAddr: 0x4A88, symBinAddr: 0x14B34, symSize: 0xC }
  - { offset: 0xC92FE, size: 0x8, addend: 0x0, symName: _OUTLINED_FUNCTION_3, symObjAddr: 0x4A94, symBinAddr: 0x14B40, symSize: 0x8 }
  - { offset: 0xC9316, size: 0x8, addend: 0x0, symName: _OUTLINED_FUNCTION_4, symObjAddr: 0x4A9C, symBinAddr: 0x14B48, symSize: 0x8 }
  - { offset: 0xC932E, size: 0x8, addend: 0x0, symName: _OUTLINED_FUNCTION_5, symObjAddr: 0x4AA4, symBinAddr: 0x14B50, symSize: 0x8 }
  - { offset: 0xC9346, size: 0x8, addend: 0x0, symName: _OUTLINED_FUNCTION_6, symObjAddr: 0x4AAC, symBinAddr: 0x14B58, symSize: 0x8 }
  - { offset: 0xE4760, size: 0x8, addend: 0x0, symName: __ZNSt3__119__throw_regex_errorB8nn190102ILNS_15regex_constants10error_typeE17EEEvv, symObjAddr: 0x8A98, symBinAddr: 0x1AA50, symSize: 0xC }
  - { offset: 0xE477F, size: 0x8, addend: 0x0, symName: __ZNSt3__111basic_regexIcNS_12regex_traitsIcEEE16__parse_ecma_expIPKcEET_S7_S7_, symObjAddr: 0x8AA4, symBinAddr: 0x1AA5C, symSize: 0x1C4 }
  - { offset: 0xE5BFD, size: 0x8, addend: 0x0, symName: __ZNSt3__119__throw_regex_errorB8nn190102ILNS_15regex_constants10error_typeE12EEEvv, symObjAddr: 0x6E34, symBinAddr: 0x18FEC, symSize: 0xC }
  - { offset: 0xE5C1C, size: 0x8, addend: 0x0, symName: __ZNSt3__119__throw_regex_errorB8nn190102ILNS_15regex_constants10error_typeE16EEEvv, symObjAddr: 0x6E40, symBinAddr: 0x18FF8, symSize: 0xC }
  - { offset: 0xE5C31, size: 0x8, addend: 0x0, symName: __ZNSt3__119__throw_regex_errorB8nn190102ILNS_15regex_constants10error_typeE16EEEvv, symObjAddr: 0x6E40, symBinAddr: 0x18FF8, symSize: 0xC }
  - { offset: 0xE5C50, size: 0x8, addend: 0x0, symName: __ZNSt3__16vectorINS_7__stateIcEENS_9allocatorIS2_EEE21__push_back_slow_pathIS2_EEPS2_OT_, symObjAddr: 0x6E4C, symBinAddr: 0x19004, symSize: 0x168 }
  - { offset: 0xE7BA3, size: 0x8, addend: 0x0, symName: __ZNSt3__119__throw_regex_errorB8nn190102ILNS_15regex_constants10error_typeE14EEEvv, symObjAddr: 0x92C4, symBinAddr: 0x1B25C, symSize: 0xC }
  - { offset: 0xE7BC2, size: 0x8, addend: 0x0, symName: __ZNSt3__111__end_stateIcED1Ev, symObjAddr: 0x92D0, symBinAddr: 0x1B268, symSize: 0x4 }
  - { offset: 0xE7CE3, size: 0x8, addend: 0x0, symName: __ZNSt3__119__throw_regex_errorB8nn190102ILNS_15regex_constants10error_typeE15EEEvv, symObjAddr: 0xF2B8, symBinAddr: 0x20C6C, symSize: 0xC }
  - { offset: 0xE7D02, size: 0x8, addend: 0x0, symName: __ZNSt3__111basic_regexIcNS_12regex_traitsIcEEE18__parse_nondupl_REIPKcEET_S7_S7_, symObjAddr: 0xF2C4, symBinAddr: 0x20C78, symSize: 0x1EC }
  - { offset: 0xE8005, size: 0x8, addend: 0x0, symName: __ZNSt3__119__throw_regex_errorB8nn190102ILNS_15regex_constants10error_typeE6EEEvv, symObjAddr: 0xA2F8, symBinAddr: 0x1C2AC, symSize: 0xC }
  - { offset: 0xE8024, size: 0x8, addend: 0x0, symName: __ZNSt3__120__l_anchor_multilineIcED1Ev, symObjAddr: 0xA304, symBinAddr: 0x1C2B8, symSize: 0x48 }
  - { offset: 0xE81B9, size: 0x8, addend: 0x0, symName: __ZNSt3__119__throw_regex_errorB8nn190102ILNS_15regex_constants10error_typeE11EEEvv, symObjAddr: 0xAC2C, symBinAddr: 0x1CA30, symSize: 0xC }
  - { offset: 0xE81D8, size: 0x8, addend: 0x0, symName: __ZNSt3__111basic_regexIcNS_12regex_traitsIcEEE25__parse_pattern_characterIPKcEET_S7_S7_, symObjAddr: 0xAC38, symBinAddr: 0x1CA3C, symSize: 0x6C }
  - { offset: 0xE8739, size: 0x8, addend: 0x0, symName: __ZNSt3__119__throw_regex_errorB8nn190102ILNS_15regex_constants10error_typeE8EEEvv, symObjAddr: 0xECF8, symBinAddr: 0x206AC, symSize: 0xC }
  - { offset: 0xE8758, size: 0x8, addend: 0x0, symName: __ZNSt3__119__throw_regex_errorB8nn190102ILNS_15regex_constants10error_typeE7EEEvv, symObjAddr: 0xED04, symBinAddr: 0x206B8, symSize: 0xC }
  - { offset: 0xE876D, size: 0x8, addend: 0x0, symName: __ZNSt3__119__throw_regex_errorB8nn190102ILNS_15regex_constants10error_typeE7EEEvv, symObjAddr: 0xED04, symBinAddr: 0x206B8, symSize: 0xC }
  - { offset: 0xE878C, size: 0x8, addend: 0x0, symName: __ZNSt3__16__loopIcED1Ev, symObjAddr: 0xED10, symBinAddr: 0x206C4, symSize: 0x68 }
  - { offset: 0xE8884, size: 0x8, addend: 0x0, symName: __ZNSt3__119__throw_regex_errorB8nn190102ILNS_15regex_constants10error_typeE4EEEvv, symObjAddr: 0xB40C, symBinAddr: 0x1D1B4, symSize: 0xC }
  - { offset: 0xE88A3, size: 0x8, addend: 0x0, symName: __ZNSt3__111basic_regexIcNS_12regex_traitsIcEEE15__push_back_refEi, symObjAddr: 0xB418, symBinAddr: 0x1D1C0, symSize: 0xCC }
  - { offset: 0xE88B8, size: 0x8, addend: 0x0, symName: __ZNSt3__119__throw_regex_errorB8nn190102ILNS_15regex_constants10error_typeE3EEEvv, symObjAddr: 0xAD44, symBinAddr: 0x1CB38, symSize: 0xC }
  - { offset: 0xE88D7, size: 0x8, addend: 0x0, symName: __ZNSt3__111basic_regexIcNS_12regex_traitsIcEEE30__parse_character_class_escapeIPKcEET_S7_S7_, symObjAddr: 0xAD50, symBinAddr: 0x1CBF8, symSize: 0x1B4 }
  - { offset: 0xE88EC, size: 0x8, addend: 0x0, symName: __ZNSt3__119__throw_regex_errorB8nn190102ILNS_15regex_constants10error_typeE5EEEvv, symObjAddr: 0xCC5C, symBinAddr: 0x1E95C, symSize: 0xC }
  - { offset: 0xE890B, size: 0x8, addend: 0x0, symName: __ZNSt3__111basic_regexIcNS_12regex_traitsIcEEE23__parse_expression_termIPKcEET_S7_S7_PNS_20__bracket_expressionIcS2_EE, symObjAddr: 0xCC68, symBinAddr: 0x1E968, symSize: 0x4A8 }
  - { offset: 0xE9506, size: 0x8, addend: 0x0, symName: __ZNSt3__119__throw_regex_errorB8nn190102ILNS_15regex_constants10error_typeE1EEEvv, symObjAddr: 0xE2D8, symBinAddr: 0x1FC88, symSize: 0xC }
  - { offset: 0xE9525, size: 0x8, addend: 0x0, symName: __ZNKSt3__112regex_traitsIcE20__lookup_collatenameIPKcEENS_12basic_stringIcNS_11char_traitsIcEENS_9allocatorIcEEEET_SB_c, symObjAddr: 0xE2E4, symBinAddr: 0x1FC94, symSize: 0x1DC }
  - { offset: 0xE953A, size: 0x8, addend: 0x0, symName: __ZNSt3__119__throw_regex_errorB8nn190102ILNS_15regex_constants10error_typeE2EEEvv, symObjAddr: 0xE6D0, symBinAddr: 0x1FFD0, symSize: 0xC }
  - { offset: 0xE9559, size: 0x8, addend: 0x0, symName: __ZNKSt3__112regex_traitsIcE18__lookup_classnameIPKcEEjT_S5_bc, symObjAddr: 0xE6DC, symBinAddr: 0x1FFDC, symSize: 0x118 }
  - { offset: 0xE978C, size: 0x8, addend: 0x0, symName: __ZNSt3__119__throw_regex_errorB8nn190102ILNS_15regex_constants10error_typeE9EEEvv, symObjAddr: 0xE998, symBinAddr: 0x2034C, symSize: 0xC }
  - { offset: 0xE97AB, size: 0x8, addend: 0x0, symName: __ZNSt3__128__begin_marked_subexpressionIcED1Ev, symObjAddr: 0xE9A4, symBinAddr: 0x20358, symSize: 0x48 }
  - { offset: 0xEBCFA, size: 0x8, addend: 0x0, symName: __ZNKSt3__111basic_regexIcNS_12regex_traitsIcEEE8__searchINS_9allocatorINS_9sub_matchIPKcEEEEEEbS8_S8_RNS_13match_resultsIS8_T_EENS_15regex_constants15match_flag_typeE, symObjAddr: 0x54D0, symBinAddr: 0x176D0, symSize: 0x2F4 }
  - { offset: 0xEBFDB, size: 0x8, addend: 0x0, symName: __ZN12_GLOBAL__N_111error_typesE, symObjAddr: 0x11430, symBinAddr: 0x1D0B38, symSize: 0x0 }
  - { offset: 0xEC753, size: 0x8, addend: 0x0, symName: __ZN6sentry4util5printIJA15_cN5godot6StringEA3_cA10_cS4_A2_cS6_iS7_S6_S4_S7_S2_S4_S7_A16_cPKcEEEvNS_5LevelERKNS3_7VariantEDpRKT_, symObjAddr: 0x3794, symBinAddr: 0x167F8, symSize: 0x2C4 }
  - { offset: 0xEEDCF, size: 0x8, addend: 0x0, symName: ___cxx_global_var_init, symObjAddr: 0x110A0, symBinAddr: 0x21FDC, symSize: 0x4C }
  - { offset: 0xEEE56, size: 0x8, addend: 0x0, symName: ___cxx_global_var_init.1, symObjAddr: 0x110EC, symBinAddr: 0x22028, symSize: 0x4C }
  - { offset: 0xEEEDD, size: 0x8, addend: 0x0, symName: ___cxx_global_var_init.2, symObjAddr: 0x11138, symBinAddr: 0x22074, symSize: 0x4C }
  - { offset: 0xEEF64, size: 0x8, addend: 0x0, symName: ___cxx_global_var_init.3, symObjAddr: 0x11184, symBinAddr: 0x220C0, symSize: 0x4C }
  - { offset: 0xEEFEB, size: 0x8, addend: 0x0, symName: ___cxx_global_var_init.4, symObjAddr: 0x111D0, symBinAddr: 0x2210C, symSize: 0x4C }
  - { offset: 0xEF072, size: 0x8, addend: 0x0, symName: ___cxx_global_var_init.5, symObjAddr: 0x1121C, symBinAddr: 0x22158, symSize: 0x4C }
  - { offset: 0xEF0F9, size: 0x8, addend: 0x0, symName: ___cxx_global_var_init.6, symObjAddr: 0x11268, symBinAddr: 0x221A4, symSize: 0x4C }
  - { offset: 0xEF180, size: 0x8, addend: 0x0, symName: ___cxx_global_var_init.7, symObjAddr: 0x112B4, symBinAddr: 0x221F0, symSize: 0x4C }
  - { offset: 0xEF207, size: 0x8, addend: 0x0, symName: ___cxx_global_var_init.8, symObjAddr: 0x11300, symBinAddr: 0x2223C, symSize: 0x4C }
  - { offset: 0xEF28E, size: 0x8, addend: 0x0, symName: ___cxx_global_var_init.9, symObjAddr: 0x1134C, symBinAddr: 0x22288, symSize: 0x4C }
  - { offset: 0xF0290, size: 0x8, addend: 0x0, symName: __ZN12SentryLogger10_log_errorERKN5godot6StringES3_iS3_S3_biRKNS0_10TypedArrayINS0_15ScriptBacktraceEEE, symObjAddr: 0x0, symBinAddr: 0x14D28, symSize: 0x1180 }
  - { offset: 0xF30AF, size: 0x8, addend: 0x0, symName: __ZN5godot6Object7cast_toINS_15ScriptBacktraceEEEPT_PS0_, symObjAddr: 0x41F8, symBinAddr: 0x171F4, symSize: 0xE8 }
  - { offset: 0xF314D, size: 0x8, addend: 0x0, symName: __ZN5godot6VectorIN11SentryEvent10StackFrameEE9push_backES2_, symObjAddr: 0x4640, symBinAddr: 0x175CC, symSize: 0x104 }
  - { offset: 0xF34B1, size: 0x8, addend: 0x0, symName: __ZN5godot7CowDataINS_4PairINS_6StringENS_7VariantEEEE6resizeILb0EEENS_5ErrorEx, symObjAddr: 0x42E0, symBinAddr: 0x172DC, symSize: 0x2A8 }
  - { offset: 0xF3C33, size: 0x8, addend: 0x0, symName: __ZN12SentryLogger10_log_errorERKN5godot6StringES3_iS3_S3_biRKNS0_10TypedArrayINS0_15ScriptBacktraceEEE.cold.1, symObjAddr: 0x1067C, symBinAddr: 0x11C548, symSize: 0x4C }
  - { offset: 0xF4DE4, size: 0x8, addend: 0x0, symName: __ZN12SentryLogger12_log_messageERKN5godot6StringEb, symObjAddr: 0x1610, symBinAddr: 0x15EA8, symSize: 0x3F0 }
  - { offset: 0xF5E3E, size: 0x8, addend: 0x0, symName: __ZNSt3__111basic_regexIcNS_12regex_traitsIcEEED1Ev, symObjAddr: 0x1A0C, symBinAddr: 0x16298, symSize: 0x50 }
  - { offset: 0xF5E60, size: 0x8, addend: 0x0, symName: __ZNKSt3__111basic_regexIcNS_12regex_traitsIcEEE8__searchINS_9allocatorINS_9sub_matchIPKcEEEEEEbS8_S8_RNS_13match_resultsIS8_T_EENS_15regex_constants15match_flag_typeE, symObjAddr: 0x54D0, symBinAddr: 0x176D0, symSize: 0x2F4 }
  - { offset: 0xF645C, size: 0x8, addend: 0x0, symName: __ZNSt3__111basic_regexIcNS_12regex_traitsIcEEED1Ev, symObjAddr: 0x1A0C, symBinAddr: 0x16298, symSize: 0x50 }
  - { offset: 0xF6A7F, size: 0x8, addend: 0x0, symName: __ZN12SentryLoggerC2Ev, symObjAddr: 0x1A68, symBinAddr: 0x162E8, symSize: 0x24C }
  - { offset: 0xF70FC, size: 0x8, addend: 0x0, symName: __ZNSt3__111basic_regexIcNS_12regex_traitsIcEEE7__parseIPKcEET_S7_S7_, symObjAddr: 0x8794, symBinAddr: 0x1A764, symSize: 0x2EC }
  - { offset: 0xF7859, size: 0x8, addend: 0x0, symName: __ZNSt3__119__throw_regex_errorB8nn190102ILNS_15regex_constants10error_typeE17EEEvv, symObjAddr: 0x8A98, symBinAddr: 0x1AA50, symSize: 0xC }
  - { offset: 0xF786D, size: 0x8, addend: 0x0, symName: __ZNSt3__16vectorINS_11basic_regexIcNS_12regex_traitsIcEEEENS_9allocatorIS4_EEE18__assign_with_sizeB8nn190102IPKS4_SA_EEvT_T0_l, symObjAddr: 0xFFAC, symBinAddr: 0x218D8, symSize: 0x37C }
  - { offset: 0xF8A57, size: 0x8, addend: 0x0, symName: __ZNSt3__16vectorIN5godot6StringENS_9allocatorIS2_EEE18__assign_with_sizeB8nn190102IPKS2_S8_EEvT_T0_l, symObjAddr: 0x10350, symBinAddr: 0x21C54, symSize: 0x1C8 }
  - { offset: 0xF8A74, size: 0x8, addend: 0x0, symName: __ZNSt3__16vectorIN5godot6StringENS_9allocatorIS2_EEE18__assign_with_sizeB8nn190102IPKS2_S8_EEvT_T0_l, symObjAddr: 0x10350, symBinAddr: 0x21C54, symSize: 0x1C8 }
  - { offset: 0xF93AC, size: 0x8, addend: 0x0, symName: __ZNSt3__111basic_regexIcNS_12regex_traitsIcEEE6assignB8nn190102IPKcLi0EEERS3_T_S8_NS_15regex_constants18syntax_option_typeE, symObjAddr: 0x10540, symBinAddr: 0x21E1C, symSize: 0x13C }
  - { offset: 0xF93C9, size: 0x8, addend: 0x0, symName: __ZNSt3__111basic_regexIcNS_12regex_traitsIcEEE6assignB8nn190102IPKcLi0EEERS3_T_S8_NS_15regex_constants18syntax_option_typeE, symObjAddr: 0x10540, symBinAddr: 0x21E1C, symSize: 0x13C }
  - { offset: 0xF987A, size: 0x8, addend: 0x0, symName: __ZN12SentryLogger10_log_errorERKN5godot6StringES3_iS3_S3_biRKNS0_10TypedArrayINS0_15ScriptBacktraceEEE.cold.1, symObjAddr: 0x1067C, symBinAddr: 0x11C548, symSize: 0x4C }
  - { offset: 0xF9894, size: 0x8, addend: 0x0, symName: __ZNSt3__111basic_regexIcNS_12regex_traitsIcEEEC1B8nn190102Ev, symObjAddr: 0x1CB4, symBinAddr: 0x16534, symSize: 0x58 }
  - { offset: 0xF9971, size: 0x8, addend: 0x0, symName: __ZN12SentryLoggerC1Ev, symObjAddr: 0x1D0C, symBinAddr: 0x1658C, symSize: 0x4 }
  - { offset: 0xF999F, size: 0x8, addend: 0x0, symName: __ZN12SentryLoggerC1Ev, symObjAddr: 0x1D0C, symBinAddr: 0x1658C, symSize: 0x4 }
  - { offset: 0xF99B3, size: 0x8, addend: 0x0, symName: __ZNK12SentryLogger19_is_extension_classEv, symObjAddr: 0x1D10, symBinAddr: 0x16590, symSize: 0x8 }
  - { offset: 0xF99DA, size: 0x8, addend: 0x0, symName: __ZN12SentryLoggerD1Ev, symObjAddr: 0x1D18, symBinAddr: 0x16598, symSize: 0x4 }
  - { offset: 0xF99FE, size: 0x8, addend: 0x0, symName: __ZN12SentryLoggerD1Ev, symObjAddr: 0x1D18, symBinAddr: 0x16598, symSize: 0x4 }
  - { offset: 0xF9A12, size: 0x8, addend: 0x0, symName: __ZN12SentryLoggerD2Ev, symObjAddr: 0x29F4, symBinAddr: 0x1662C, symSize: 0x1CC }
  - { offset: 0xFA61A, size: 0x8, addend: 0x0, symName: __ZN12SentryLoggerD0Ev, symObjAddr: 0x1D1C, symBinAddr: 0x1659C, symSize: 0x14 }
  - { offset: 0xFA681, size: 0x8, addend: 0x0, symName: __ZN5godot6Object7cast_toINS_6ScriptEEEPT_PS0_.cold.1, symObjAddr: 0x106D0, symBinAddr: 0x11C644, symSize: 0x5C }
  - { offset: 0xFA9CD, size: 0x8, addend: 0x0, symName: __ZN5godot7CowDataINS_4PairINS_6StringENS_7VariantEEEE6_unrefEv, symObjAddr: 0x258C, symBinAddr: 0x165B0, symSize: 0x7C }
  - { offset: 0xFAC9E, size: 0x8, addend: 0x0, symName: __ZN5godot10RefCountedD1Ev.cold.1, symObjAddr: 0x1072C, symBinAddr: 0x11C6A0, symSize: 0x1C }
  - { offset: 0xFACBA, size: 0x8, addend: 0x0, symName: __ZN5godot10RefCountedD1Ev.cold.1, symObjAddr: 0x1072C, symBinAddr: 0x11C6A0, symSize: 0x1C }
  - { offset: 0xFACCF, size: 0x8, addend: 0x0, symName: __ZN5godot10RefCountedD1Ev.cold.1, symObjAddr: 0x1072C, symBinAddr: 0x11C6A0, symSize: 0x1C }
  - { offset: 0xFACE4, size: 0x8, addend: 0x0, symName: __ZN5godot10RefCountedD1Ev.cold.1, symObjAddr: 0x1072C, symBinAddr: 0x11C6A0, symSize: 0x1C }
  - { offset: 0xFACF9, size: 0x8, addend: 0x0, symName: __ZN5godot10RefCountedD1Ev.cold.1, symObjAddr: 0x1072C, symBinAddr: 0x11C6A0, symSize: 0x1C }
  - { offset: 0xFAD0E, size: 0x8, addend: 0x0, symName: __ZN5godot10RefCountedD1Ev.cold.1, symObjAddr: 0x1072C, symBinAddr: 0x11C6A0, symSize: 0x1C }
  - { offset: 0xFAD41, size: 0x8, addend: 0x0, symName: __ZN5godot10RefCountedD0Ev.cold.1, symObjAddr: 0x10748, symBinAddr: 0x11C6BC, symSize: 0x1C }
  - { offset: 0xFAD5D, size: 0x8, addend: 0x0, symName: __ZN5godot10RefCountedD0Ev.cold.1, symObjAddr: 0x10748, symBinAddr: 0x11C6BC, symSize: 0x1C }
  - { offset: 0xFAD72, size: 0x8, addend: 0x0, symName: __ZN5godot10RefCountedD0Ev.cold.1, symObjAddr: 0x10748, symBinAddr: 0x11C6BC, symSize: 0x1C }
  - { offset: 0xFAD87, size: 0x8, addend: 0x0, symName: __ZN5godot10RefCountedD0Ev.cold.1, symObjAddr: 0x10748, symBinAddr: 0x11C6BC, symSize: 0x1C }
  - { offset: 0xFAD9C, size: 0x8, addend: 0x0, symName: __ZN5godot10RefCountedD0Ev.cold.1, symObjAddr: 0x10748, symBinAddr: 0x11C6BC, symSize: 0x1C }
  - { offset: 0xFADB1, size: 0x8, addend: 0x0, symName: __ZN5godot10RefCountedD0Ev.cold.1, symObjAddr: 0x10748, symBinAddr: 0x11C6BC, symSize: 0x1C }
  - { offset: 0xFADC6, size: 0x8, addend: 0x0, symName: __ZN5godot10RefCountedD0Ev.cold.1, symObjAddr: 0x10748, symBinAddr: 0x11C6BC, symSize: 0x1C }
  - { offset: 0xFADDE, size: 0x8, addend: 0x0, symName: __ZN5godot6ObjectD1Ev.cold.1, symObjAddr: 0x10764, symBinAddr: 0x11C6D8, symSize: 0x1C }
  - { offset: 0xFADFA, size: 0x8, addend: 0x0, symName: __ZN5godot6ObjectD1Ev.cold.1, symObjAddr: 0x10764, symBinAddr: 0x11C6D8, symSize: 0x1C }
  - { offset: 0xFAE0F, size: 0x8, addend: 0x0, symName: __ZN5godot6ObjectD1Ev.cold.1, symObjAddr: 0x10764, symBinAddr: 0x11C6D8, symSize: 0x1C }
  - { offset: 0xFAE24, size: 0x8, addend: 0x0, symName: __ZN5godot6ObjectD1Ev.cold.1, symObjAddr: 0x10764, symBinAddr: 0x11C6D8, symSize: 0x1C }
  - { offset: 0xFAE39, size: 0x8, addend: 0x0, symName: __ZN5godot6ObjectD1Ev.cold.1, symObjAddr: 0x10764, symBinAddr: 0x11C6D8, symSize: 0x1C }
  - { offset: 0xFAE69, size: 0x8, addend: 0x0, symName: __ZN5godot6ObjectD0Ev.cold.1, symObjAddr: 0x10780, symBinAddr: 0x11C6F4, symSize: 0x1C }
  - { offset: 0xFAE85, size: 0x8, addend: 0x0, symName: __ZN5godot6ObjectD0Ev.cold.1, symObjAddr: 0x10780, symBinAddr: 0x11C6F4, symSize: 0x1C }
  - { offset: 0xFAE9A, size: 0x8, addend: 0x0, symName: __ZN5godot6ObjectD0Ev.cold.1, symObjAddr: 0x10780, symBinAddr: 0x11C6F4, symSize: 0x1C }
  - { offset: 0xFAEAF, size: 0x8, addend: 0x0, symName: __ZN5godot6ObjectD0Ev.cold.1, symObjAddr: 0x10780, symBinAddr: 0x11C6F4, symSize: 0x1C }
  - { offset: 0xFAEC4, size: 0x8, addend: 0x0, symName: __ZN5godot6ObjectD0Ev.cold.1, symObjAddr: 0x10780, symBinAddr: 0x11C6F4, symSize: 0x1C }
  - { offset: 0xFAED9, size: 0x8, addend: 0x0, symName: __ZN5godot6ObjectD0Ev.cold.1, symObjAddr: 0x10780, symBinAddr: 0x11C6F4, symSize: 0x1C }
  - { offset: 0xFAEF0, size: 0x8, addend: 0x0, symName: __ZN5godot7WrappedD1Ev.cold.1, symObjAddr: 0x1079C, symBinAddr: 0x11C710, symSize: 0x1C }
  - { offset: 0xFAF0C, size: 0x8, addend: 0x0, symName: __ZN5godot7WrappedD1Ev.cold.1, symObjAddr: 0x1079C, symBinAddr: 0x11C710, symSize: 0x1C }
  - { offset: 0xFAF21, size: 0x8, addend: 0x0, symName: __ZN5godot7WrappedD1Ev.cold.1, symObjAddr: 0x1079C, symBinAddr: 0x11C710, symSize: 0x1C }
  - { offset: 0xFAF36, size: 0x8, addend: 0x0, symName: __ZN5godot7WrappedD1Ev.cold.1, symObjAddr: 0x1079C, symBinAddr: 0x11C710, symSize: 0x1C }
  - { offset: 0xFAF65, size: 0x8, addend: 0x0, symName: __ZN5godot7WrappedD0Ev.cold.1, symObjAddr: 0x107B8, symBinAddr: 0x11C72C, symSize: 0x1C }
  - { offset: 0xFAF81, size: 0x8, addend: 0x0, symName: __ZN5godot7WrappedD0Ev.cold.1, symObjAddr: 0x107B8, symBinAddr: 0x11C72C, symSize: 0x1C }
  - { offset: 0xFAF96, size: 0x8, addend: 0x0, symName: __ZN5godot7WrappedD0Ev.cold.1, symObjAddr: 0x107B8, symBinAddr: 0x11C72C, symSize: 0x1C }
  - { offset: 0xFAFAB, size: 0x8, addend: 0x0, symName: __ZN5godot7WrappedD0Ev.cold.1, symObjAddr: 0x107B8, symBinAddr: 0x11C72C, symSize: 0x1C }
  - { offset: 0xFAFC0, size: 0x8, addend: 0x0, symName: __ZN5godot7WrappedD0Ev.cold.1, symObjAddr: 0x107B8, symBinAddr: 0x11C72C, symSize: 0x1C }
  - { offset: 0xFB046, size: 0x8, addend: 0x0, symName: __ZN5godot4ListINS_12PropertyInfoENS_16DefaultAllocatorEE5_Data5eraseEPNS3_7ElementE.cold.2, symObjAddr: 0x107F4, symBinAddr: 0x11C768, symSize: 0x20 }
  - { offset: 0xFB05E, size: 0x8, addend: 0x0, symName: __ZN5godot4ListINS_12PropertyInfoENS_16DefaultAllocatorEE5_Data5eraseEPNS3_7ElementE.cold.1, symObjAddr: 0x107D4, symBinAddr: 0x11C748, symSize: 0x20 }
  - { offset: 0xFB85E, size: 0x8, addend: 0x0, symName: __ZN12SentryLoggerD2Ev.cold.1, symObjAddr: 0x10814, symBinAddr: 0x11C788, symSize: 0x1C }
  - { offset: 0xFB87A, size: 0x8, addend: 0x0, symName: __ZN12SentryLoggerD2Ev.cold.1, symObjAddr: 0x10814, symBinAddr: 0x11C788, symSize: 0x1C }
  - { offset: 0xFB88F, size: 0x8, addend: 0x0, symName: __ZN12SentryLoggerD2Ev.cold.1, symObjAddr: 0x10814, symBinAddr: 0x11C788, symSize: 0x1C }
  - { offset: 0xFB8A4, size: 0x8, addend: 0x0, symName: __ZN12SentryLoggerD2Ev.cold.1, symObjAddr: 0x10814, symBinAddr: 0x11C788, symSize: 0x1C }
  - { offset: 0xFB8B9, size: 0x8, addend: 0x0, symName: __ZN12SentryLoggerD2Ev.cold.1, symObjAddr: 0x10814, symBinAddr: 0x11C788, symSize: 0x1C }
  - { offset: 0xFB8CE, size: 0x8, addend: 0x0, symName: __ZN12SentryLoggerD2Ev.cold.1, symObjAddr: 0x10814, symBinAddr: 0x11C788, symSize: 0x1C }
  - { offset: 0xFB8E3, size: 0x8, addend: 0x0, symName: __ZN12SentryLoggerD2Ev.cold.1, symObjAddr: 0x10814, symBinAddr: 0x11C788, symSize: 0x1C }
  - { offset: 0xFBB16, size: 0x8, addend: 0x0, symName: __ZN5godot8internal23EngineClassRegistrationINS_6ObjectEE8callbackEv.cold.1, symObjAddr: 0x10830, symBinAddr: 0x11C7A4, symSize: 0x5C }
  - { offset: 0xFBB4B, size: 0x8, addend: 0x0, symName: __ZN5godot8internal23EngineClassRegistrationINS_16ClassDBSingletonEE8callbackEv.cold.1, symObjAddr: 0x1088C, symBinAddr: 0x11C800, symSize: 0x5C }
  - { offset: 0xFBB80, size: 0x8, addend: 0x0, symName: __ZN5godot8internal23EngineClassRegistrationINS_10RefCountedEE8callbackEv.cold.1, symObjAddr: 0x108E8, symBinAddr: 0x11C85C, symSize: 0x5C }
  - { offset: 0xFBBB5, size: 0x8, addend: 0x0, symName: __ZN5godot8internal23EngineClassRegistrationINS_6LoggerEE8callbackEv.cold.1, symObjAddr: 0x10944, symBinAddr: 0x11C8B8, symSize: 0x5C }
  - { offset: 0xFBBEA, size: 0x8, addend: 0x0, symName: __ZN5godot8internal23EngineClassRegistrationINS_15ScriptBacktraceEE8callbackEv.cold.1, symObjAddr: 0x109A0, symBinAddr: 0x11C914, symSize: 0x5C }
  - { offset: 0xFBC34, size: 0x8, addend: 0x0, symName: __ZN5godot15ScriptBacktraceD1Ev.cold.1, symObjAddr: 0x109FC, symBinAddr: 0x11C970, symSize: 0x1C }
  - { offset: 0xFBC50, size: 0x8, addend: 0x0, symName: __ZN5godot15ScriptBacktraceD1Ev.cold.1, symObjAddr: 0x109FC, symBinAddr: 0x11C970, symSize: 0x1C }
  - { offset: 0xFBC65, size: 0x8, addend: 0x0, symName: __ZN5godot15ScriptBacktraceD1Ev.cold.1, symObjAddr: 0x109FC, symBinAddr: 0x11C970, symSize: 0x1C }
  - { offset: 0xFBC7A, size: 0x8, addend: 0x0, symName: __ZN5godot15ScriptBacktraceD1Ev.cold.1, symObjAddr: 0x109FC, symBinAddr: 0x11C970, symSize: 0x1C }
  - { offset: 0xFBC8F, size: 0x8, addend: 0x0, symName: __ZN5godot15ScriptBacktraceD1Ev.cold.1, symObjAddr: 0x109FC, symBinAddr: 0x11C970, symSize: 0x1C }
  - { offset: 0xFBCA4, size: 0x8, addend: 0x0, symName: __ZN5godot15ScriptBacktraceD1Ev.cold.1, symObjAddr: 0x109FC, symBinAddr: 0x11C970, symSize: 0x1C }
  - { offset: 0xFBCB9, size: 0x8, addend: 0x0, symName: __ZN5godot15ScriptBacktraceD1Ev.cold.1, symObjAddr: 0x109FC, symBinAddr: 0x11C970, symSize: 0x1C }
  - { offset: 0xFBCED, size: 0x8, addend: 0x0, symName: __ZN5godot15ScriptBacktraceD0Ev.cold.1, symObjAddr: 0x10A18, symBinAddr: 0x11C98C, symSize: 0x1C }
  - { offset: 0xFBD09, size: 0x8, addend: 0x0, symName: __ZN5godot15ScriptBacktraceD0Ev.cold.1, symObjAddr: 0x10A18, symBinAddr: 0x11C98C, symSize: 0x1C }
  - { offset: 0xFBD1E, size: 0x8, addend: 0x0, symName: __ZN5godot15ScriptBacktraceD0Ev.cold.1, symObjAddr: 0x10A18, symBinAddr: 0x11C98C, symSize: 0x1C }
  - { offset: 0xFBD33, size: 0x8, addend: 0x0, symName: __ZN5godot15ScriptBacktraceD0Ev.cold.1, symObjAddr: 0x10A18, symBinAddr: 0x11C98C, symSize: 0x1C }
  - { offset: 0xFBD48, size: 0x8, addend: 0x0, symName: __ZN5godot15ScriptBacktraceD0Ev.cold.1, symObjAddr: 0x10A18, symBinAddr: 0x11C98C, symSize: 0x1C }
  - { offset: 0xFBD5D, size: 0x8, addend: 0x0, symName: __ZN5godot15ScriptBacktraceD0Ev.cold.1, symObjAddr: 0x10A18, symBinAddr: 0x11C98C, symSize: 0x1C }
  - { offset: 0xFBD72, size: 0x8, addend: 0x0, symName: __ZN5godot15ScriptBacktraceD0Ev.cold.1, symObjAddr: 0x10A18, symBinAddr: 0x11C98C, symSize: 0x1C }
  - { offset: 0xFBD87, size: 0x8, addend: 0x0, symName: __ZN5godot15ScriptBacktraceD0Ev.cold.1, symObjAddr: 0x10A18, symBinAddr: 0x11C98C, symSize: 0x1C }
  - { offset: 0xFBDA7, size: 0x8, addend: 0x0, symName: __ZN5godot8internal23EngineClassRegistrationINS_10ConfigFileEE8callbackEv.cold.1, symObjAddr: 0x10A34, symBinAddr: 0x11C9A8, symSize: 0x5C }
  - { offset: 0xFBDF1, size: 0x8, addend: 0x0, symName: __ZN5godot10ConfigFileD1Ev.cold.1, symObjAddr: 0x10A90, symBinAddr: 0x11CA04, symSize: 0x1C }
  - { offset: 0xFBE0D, size: 0x8, addend: 0x0, symName: __ZN5godot10ConfigFileD1Ev.cold.1, symObjAddr: 0x10A90, symBinAddr: 0x11CA04, symSize: 0x1C }
  - { offset: 0xFBE22, size: 0x8, addend: 0x0, symName: __ZN5godot10ConfigFileD1Ev.cold.1, symObjAddr: 0x10A90, symBinAddr: 0x11CA04, symSize: 0x1C }
  - { offset: 0xFBE37, size: 0x8, addend: 0x0, symName: __ZN5godot10ConfigFileD1Ev.cold.1, symObjAddr: 0x10A90, symBinAddr: 0x11CA04, symSize: 0x1C }
  - { offset: 0xFBE4C, size: 0x8, addend: 0x0, symName: __ZN5godot10ConfigFileD1Ev.cold.1, symObjAddr: 0x10A90, symBinAddr: 0x11CA04, symSize: 0x1C }
  - { offset: 0xFBE61, size: 0x8, addend: 0x0, symName: __ZN5godot10ConfigFileD1Ev.cold.1, symObjAddr: 0x10A90, symBinAddr: 0x11CA04, symSize: 0x1C }
  - { offset: 0xFBE76, size: 0x8, addend: 0x0, symName: __ZN5godot10ConfigFileD1Ev.cold.1, symObjAddr: 0x10A90, symBinAddr: 0x11CA04, symSize: 0x1C }
  - { offset: 0xFBEAA, size: 0x8, addend: 0x0, symName: __ZN5godot10ConfigFileD0Ev.cold.1, symObjAddr: 0x10AAC, symBinAddr: 0x11CA20, symSize: 0x1C }
  - { offset: 0xFBEC6, size: 0x8, addend: 0x0, symName: __ZN5godot10ConfigFileD0Ev.cold.1, symObjAddr: 0x10AAC, symBinAddr: 0x11CA20, symSize: 0x1C }
  - { offset: 0xFBEDB, size: 0x8, addend: 0x0, symName: __ZN5godot10ConfigFileD0Ev.cold.1, symObjAddr: 0x10AAC, symBinAddr: 0x11CA20, symSize: 0x1C }
  - { offset: 0xFBEF0, size: 0x8, addend: 0x0, symName: __ZN5godot10ConfigFileD0Ev.cold.1, symObjAddr: 0x10AAC, symBinAddr: 0x11CA20, symSize: 0x1C }
  - { offset: 0xFBF05, size: 0x8, addend: 0x0, symName: __ZN5godot10ConfigFileD0Ev.cold.1, symObjAddr: 0x10AAC, symBinAddr: 0x11CA20, symSize: 0x1C }
  - { offset: 0xFBF1A, size: 0x8, addend: 0x0, symName: __ZN5godot10ConfigFileD0Ev.cold.1, symObjAddr: 0x10AAC, symBinAddr: 0x11CA20, symSize: 0x1C }
  - { offset: 0xFBF2F, size: 0x8, addend: 0x0, symName: __ZN5godot10ConfigFileD0Ev.cold.1, symObjAddr: 0x10AAC, symBinAddr: 0x11CA20, symSize: 0x1C }
  - { offset: 0xFBF44, size: 0x8, addend: 0x0, symName: __ZN5godot10ConfigFileD0Ev.cold.1, symObjAddr: 0x10AAC, symBinAddr: 0x11CA20, symSize: 0x1C }
  - { offset: 0xFBF64, size: 0x8, addend: 0x0, symName: __ZN5godot8internal23EngineClassRegistrationINS_6EngineEE8callbackEv.cold.1, symObjAddr: 0x10AC8, symBinAddr: 0x11CA3C, symSize: 0x5C }
  - { offset: 0xFBF99, size: 0x8, addend: 0x0, symName: __ZN5godot8internal23EngineClassRegistrationINS_14ResourceLoaderEE8callbackEv.cold.1, symObjAddr: 0x10B24, symBinAddr: 0x11CA98, symSize: 0x5C }
  - { offset: 0xFBFCE, size: 0x8, addend: 0x0, symName: __ZN5godot8internal23EngineClassRegistrationINS_8ResourceEE8callbackEv.cold.1, symObjAddr: 0x10B80, symBinAddr: 0x11CAF4, symSize: 0x5C }
  - { offset: 0xFBFFC, size: 0x8, addend: 0x0, symName: __ZN5godot8internal23EngineClassRegistrationINS_6ScriptEE8callbackEv.cold.1, symObjAddr: 0x10BDC, symBinAddr: 0x11CB50, symSize: 0x5C }
  - { offset: 0xFC062, size: 0x8, addend: 0x0, symName: __ZN5godot6ScriptD1Ev.cold.1, symObjAddr: 0x10C38, symBinAddr: 0x11CBAC, symSize: 0x1C }
  - { offset: 0xFC07E, size: 0x8, addend: 0x0, symName: __ZN5godot6ScriptD1Ev.cold.1, symObjAddr: 0x10C38, symBinAddr: 0x11CBAC, symSize: 0x1C }
  - { offset: 0xFC093, size: 0x8, addend: 0x0, symName: __ZN5godot6ScriptD1Ev.cold.1, symObjAddr: 0x10C38, symBinAddr: 0x11CBAC, symSize: 0x1C }
  - { offset: 0xFC0A8, size: 0x8, addend: 0x0, symName: __ZN5godot6ScriptD1Ev.cold.1, symObjAddr: 0x10C38, symBinAddr: 0x11CBAC, symSize: 0x1C }
  - { offset: 0xFC0BD, size: 0x8, addend: 0x0, symName: __ZN5godot6ScriptD1Ev.cold.1, symObjAddr: 0x10C38, symBinAddr: 0x11CBAC, symSize: 0x1C }
  - { offset: 0xFC0D2, size: 0x8, addend: 0x0, symName: __ZN5godot6ScriptD1Ev.cold.1, symObjAddr: 0x10C38, symBinAddr: 0x11CBAC, symSize: 0x1C }
  - { offset: 0xFC0E7, size: 0x8, addend: 0x0, symName: __ZN5godot6ScriptD1Ev.cold.1, symObjAddr: 0x10C38, symBinAddr: 0x11CBAC, symSize: 0x1C }
  - { offset: 0xFC0FC, size: 0x8, addend: 0x0, symName: __ZN5godot6ScriptD1Ev.cold.1, symObjAddr: 0x10C38, symBinAddr: 0x11CBAC, symSize: 0x1C }
  - { offset: 0xFC131, size: 0x8, addend: 0x0, symName: __ZN5godot6ScriptD0Ev.cold.1, symObjAddr: 0x10C54, symBinAddr: 0x11CBC8, symSize: 0x1C }
  - { offset: 0xFC14D, size: 0x8, addend: 0x0, symName: __ZN5godot6ScriptD0Ev.cold.1, symObjAddr: 0x10C54, symBinAddr: 0x11CBC8, symSize: 0x1C }
  - { offset: 0xFC162, size: 0x8, addend: 0x0, symName: __ZN5godot6ScriptD0Ev.cold.1, symObjAddr: 0x10C54, symBinAddr: 0x11CBC8, symSize: 0x1C }
  - { offset: 0xFC177, size: 0x8, addend: 0x0, symName: __ZN5godot6ScriptD0Ev.cold.1, symObjAddr: 0x10C54, symBinAddr: 0x11CBC8, symSize: 0x1C }
  - { offset: 0xFC18C, size: 0x8, addend: 0x0, symName: __ZN5godot6ScriptD0Ev.cold.1, symObjAddr: 0x10C54, symBinAddr: 0x11CBC8, symSize: 0x1C }
  - { offset: 0xFC1A1, size: 0x8, addend: 0x0, symName: __ZN5godot6ScriptD0Ev.cold.1, symObjAddr: 0x10C54, symBinAddr: 0x11CBC8, symSize: 0x1C }
  - { offset: 0xFC1B6, size: 0x8, addend: 0x0, symName: __ZN5godot6ScriptD0Ev.cold.1, symObjAddr: 0x10C54, symBinAddr: 0x11CBC8, symSize: 0x1C }
  - { offset: 0xFC1CB, size: 0x8, addend: 0x0, symName: __ZN5godot6ScriptD0Ev.cold.1, symObjAddr: 0x10C54, symBinAddr: 0x11CBC8, symSize: 0x1C }
  - { offset: 0xFC1E0, size: 0x8, addend: 0x0, symName: __ZN5godot6ScriptD0Ev.cold.1, symObjAddr: 0x10C54, symBinAddr: 0x11CBC8, symSize: 0x1C }
  - { offset: 0xFC1FA, size: 0x8, addend: 0x0, symName: __ZN5godot16UtilityFunctions8printerrIJNS_7VariantEA15_cNS_6StringEA3_cA10_cS4_A2_cS6_iS7_S6_S4_S7_S3_S4_S7_A16_cPKcEEEvRKS2_DpRKT_, symObjAddr: 0x3D9C, symBinAddr: 0x16E00, symSize: 0x344 }
  - { offset: 0xFC60C, size: 0x8, addend: 0x0, symName: __ZN5godot16UtilityFunctions5printIJNS_7VariantEA15_cNS_6StringEA3_cA10_cS4_A2_cS6_iS7_S6_S4_S7_S3_S4_S7_A16_cPKcEEEvRKS2_DpRKT_, symObjAddr: 0x3A58, symBinAddr: 0x16ABC, symSize: 0x344 }
  - { offset: 0xFCA78, size: 0x8, addend: 0x0, symName: __ZNSt3__15arrayIN5godot7VariantELm19EED2Ev, symObjAddr: 0x40E0, symBinAddr: 0x17144, symSize: 0xB0 }
  - { offset: 0xFCAA5, size: 0x8, addend: 0x0, symName: __ZN5godot6Object7cast_toINS_15ScriptBacktraceEEEPT_PS0_.cold.1, symObjAddr: 0x10C70, symBinAddr: 0x11CBE4, symSize: 0x5C }
  - { offset: 0xFCB90, size: 0x8, addend: 0x0, symName: __ZN5godot7CowDataINS_4PairINS_6StringENS_7VariantEEEE14_copy_on_writeEv, symObjAddr: 0x45F8, symBinAddr: 0x17584, symSize: 0x48 }
  - { offset: 0xFCCA8, size: 0x8, addend: 0x0, symName: __ZN5godot7CowDataINS_4PairINS_6StringENS_7VariantEEEE6resizeILb0EEENS_5ErrorEx.cold.4, symObjAddr: 0x10D2C, symBinAddr: 0x11CCA0, symSize: 0x20 }
  - { offset: 0xFCCC0, size: 0x8, addend: 0x0, symName: __ZN5godot7CowDataINS_4PairINS_6StringENS_7VariantEEEE6resizeILb0EEENS_5ErrorEx.cold.5, symObjAddr: 0x10D4C, symBinAddr: 0x11CCC0, symSize: 0x20 }
  - { offset: 0xFCCD8, size: 0x8, addend: 0x0, symName: __ZN5godot7CowDataINS_4PairINS_6StringENS_7VariantEEEE6resizeILb0EEENS_5ErrorEx.cold.2, symObjAddr: 0x10CEC, symBinAddr: 0x11CC60, symSize: 0x20 }
  - { offset: 0xFCCF4, size: 0x8, addend: 0x0, symName: __ZN5godot7CowDataINS_4PairINS_6StringENS_7VariantEEEE6resizeILb0EEENS_5ErrorEx.cold.2, symObjAddr: 0x10CEC, symBinAddr: 0x11CC60, symSize: 0x20 }
  - { offset: 0xFCD07, size: 0x8, addend: 0x0, symName: __ZN5godot7CowDataINS_4PairINS_6StringENS_7VariantEEEE6resizeILb0EEENS_5ErrorEx.cold.1, symObjAddr: 0x10CCC, symBinAddr: 0x11CC40, symSize: 0x20 }
  - { offset: 0xFCD23, size: 0x8, addend: 0x0, symName: __ZN5godot7CowDataINS_4PairINS_6StringENS_7VariantEEEE6resizeILb0EEENS_5ErrorEx.cold.1, symObjAddr: 0x10CCC, symBinAddr: 0x11CC40, symSize: 0x20 }
  - { offset: 0xFCD36, size: 0x8, addend: 0x0, symName: __ZN5godot7CowDataINS_4PairINS_6StringENS_7VariantEEEE6resizeILb0EEENS_5ErrorEx.cold.3, symObjAddr: 0x10D0C, symBinAddr: 0x11CC80, symSize: 0x20 }
  - { offset: 0xFCD4E, size: 0x8, addend: 0x0, symName: __ZN5godot7CowDataINS_4PairINS_6StringENS_7VariantEEEE14_copy_on_writeEv.cold.1, symObjAddr: 0x10D6C, symBinAddr: 0x11CCE0, symSize: 0xE4 }
  - { offset: 0xFD736, size: 0x8, addend: 0x0, symName: __ZN5godot6VectorIN11SentryEvent10StackFrameEE9push_backES2_.cold.2, symObjAddr: 0x10EA4, symBinAddr: 0x11CE10, symSize: 0x20 }
  - { offset: 0xFD74E, size: 0x8, addend: 0x0, symName: __ZN5godot6VectorIN11SentryEvent10StackFrameEE9push_backES2_.cold.1, symObjAddr: 0x10E50, symBinAddr: 0x11CDC4, symSize: 0x4C }
  - { offset: 0xFD888, size: 0x8, addend: 0x0, symName: __ZN5godot7CowDataIN11SentryEvent10StackFrameEE6resizeILb0EEENS_5ErrorEx.cold.4, symObjAddr: 0x10F24, symBinAddr: 0x11CE90, symSize: 0x20 }
  - { offset: 0xFD8A0, size: 0x8, addend: 0x0, symName: __ZN5godot7CowDataIN11SentryEvent10StackFrameEE6resizeILb0EEENS_5ErrorEx.cold.5, symObjAddr: 0x10F44, symBinAddr: 0x11CEB0, symSize: 0x20 }
  - { offset: 0xFD8B8, size: 0x8, addend: 0x0, symName: __ZN5godot7CowDataIN11SentryEvent10StackFrameEE6resizeILb0EEENS_5ErrorEx.cold.2, symObjAddr: 0x10EE4, symBinAddr: 0x11CE50, symSize: 0x20 }
  - { offset: 0xFD8D4, size: 0x8, addend: 0x0, symName: __ZN5godot7CowDataIN11SentryEvent10StackFrameEE6resizeILb0EEENS_5ErrorEx.cold.2, symObjAddr: 0x10EE4, symBinAddr: 0x11CE50, symSize: 0x20 }
  - { offset: 0xFD8E7, size: 0x8, addend: 0x0, symName: __ZN5godot7CowDataIN11SentryEvent10StackFrameEE6resizeILb0EEENS_5ErrorEx.cold.1, symObjAddr: 0x10EC4, symBinAddr: 0x11CE30, symSize: 0x20 }
  - { offset: 0xFD903, size: 0x8, addend: 0x0, symName: __ZN5godot7CowDataIN11SentryEvent10StackFrameEE6resizeILb0EEENS_5ErrorEx.cold.1, symObjAddr: 0x10EC4, symBinAddr: 0x11CE30, symSize: 0x20 }
  - { offset: 0xFD916, size: 0x8, addend: 0x0, symName: __ZN5godot7CowDataIN11SentryEvent10StackFrameEE6resizeILb0EEENS_5ErrorEx.cold.3, symObjAddr: 0x10F04, symBinAddr: 0x11CE70, symSize: 0x20 }
  - { offset: 0xFD92E, size: 0x8, addend: 0x0, symName: __ZN5godot7CowDataIN11SentryEvent10StackFrameEE14_copy_on_writeEv.cold.1, symObjAddr: 0x10F64, symBinAddr: 0x11CED0, symSize: 0xC8 }
  - { offset: 0xFE735, size: 0x8, addend: 0x0, symName: __ZNSt3__16vectorINS_9sub_matchIPKcEENS_9allocatorIS4_EEE6assignEmRKS4_, symObjAddr: 0x57D8, symBinAddr: 0x179C4, symSize: 0x1D4 }
  - { offset: 0xFED32, size: 0x8, addend: 0x0, symName: __ZNKSt3__111basic_regexIcNS_12regex_traitsIcEEE21__match_at_start_ecmaINS_9allocatorINS_9sub_matchIPKcEEEEEEbS8_S8_RNS_13match_resultsIS8_T_EENS_15regex_constants15match_flag_typeEb, symObjAddr: 0x59B8, symBinAddr: 0x17B98, symSize: 0x4F4 }
  - { offset: 0xFED3D, size: 0x8, addend: 0x0, symName: __ZNKSt3__111basic_regexIcNS_12regex_traitsIcEEE27__match_at_start_posix_subsINS_9allocatorINS_9sub_matchIPKcEEEEEEbS8_S8_RNS_13match_resultsIS8_T_EENS_15regex_constants15match_flag_typeEb, symObjAddr: 0x67E4, symBinAddr: 0x1899C, symSize: 0x650 }
  - { offset: 0x1011ED, size: 0x8, addend: 0x0, symName: __ZNSt3__119__throw_regex_errorB8nn190102ILNS_15regex_constants10error_typeE12EEEvv, symObjAddr: 0x6E34, symBinAddr: 0x18FEC, symSize: 0xC }
  - { offset: 0x101201, size: 0x8, addend: 0x0, symName: __ZNKSt3__111basic_regexIcNS_12regex_traitsIcEEE21__match_at_start_ecmaINS_9allocatorINS_9sub_matchIPKcEEEEEEbS8_S8_RNS_13match_resultsIS8_T_EENS_15regex_constants15match_flag_typeEb, symObjAddr: 0x59B8, symBinAddr: 0x17B98, symSize: 0x4F4 }
  - { offset: 0x102A08, size: 0x8, addend: 0x0, symName: __ZNKSt3__111basic_regexIcNS_12regex_traitsIcEEE29__match_at_start_posix_nosubsINS_9allocatorINS_9sub_matchIPKcEEEEEEbS8_S8_RNS_13match_resultsIS8_T_EENS_15regex_constants15match_flag_typeEb, symObjAddr: 0x5EAC, symBinAddr: 0x1808C, symSize: 0x910 }
  - { offset: 0x102A1C, size: 0x8, addend: 0x0, symName: __ZNKSt3__111basic_regexIcNS_12regex_traitsIcEEE29__match_at_start_posix_nosubsINS_9allocatorINS_9sub_matchIPKcEEEEEEbS8_S8_RNS_13match_resultsIS8_T_EENS_15regex_constants15match_flag_typeEb, symObjAddr: 0x5EAC, symBinAddr: 0x1808C, symSize: 0x910 }
  - { offset: 0x104F66, size: 0x8, addend: 0x0, symName: __ZNKSt3__111basic_regexIcNS_12regex_traitsIcEEE27__match_at_start_posix_subsINS_9allocatorINS_9sub_matchIPKcEEEEEEbS8_S8_RNS_13match_resultsIS8_T_EENS_15regex_constants15match_flag_typeEb, symObjAddr: 0x67E4, symBinAddr: 0x1899C, symSize: 0x650 }
  - { offset: 0x105CB6, size: 0x8, addend: 0x0, symName: __ZNSt3__16vectorINS_7__stateIcEENS_9allocatorIS2_EEE21__push_back_slow_pathIS2_EEPS2_OT_, symObjAddr: 0x6E4C, symBinAddr: 0x19004, symSize: 0x168 }
  - { offset: 0x10648A, size: 0x8, addend: 0x0, symName: __ZNSt3__16vectorINS_7__stateIcEENS_9allocatorIS2_EEE26__swap_out_circular_bufferERNS_14__split_bufferIS2_RS4_EE, symObjAddr: 0x6FB4, symBinAddr: 0x1916C, symSize: 0x124 }
  - { offset: 0x10649E, size: 0x8, addend: 0x0, symName: __ZNSt3__16vectorINS_9sub_matchIPKcEENS_9allocatorIS4_EEE8__appendEmRKS4_, symObjAddr: 0x70D8, symBinAddr: 0x19290, symSize: 0x188 }
  - { offset: 0x10697E, size: 0x8, addend: 0x0, symName: __ZNSt3__16vectorINS_4pairImPKcEENS_9allocatorIS4_EEE8__appendEm, symObjAddr: 0x7260, symBinAddr: 0x19418, symSize: 0x120 }
  - { offset: 0x106989, size: 0x8, addend: 0x0, symName: __ZNSt3__16vectorINS_4pairImPKcEENS_9allocatorIS4_EEE8__appendEm, symObjAddr: 0x7260, symBinAddr: 0x19418, symSize: 0x120 }
  - { offset: 0x106E4A, size: 0x8, addend: 0x0, symName: __ZNSt3__15dequeINS_7__stateIcEENS_9allocatorIS2_EEE19__add_back_capacityEv, symObjAddr: 0x7380, symBinAddr: 0x19538, symSize: 0x428 }
  - { offset: 0x1072B9, size: 0x8, addend: 0x0, symName: __ZNSt3__15dequeINS_7__stateIcEENS_9allocatorIS2_EEE19__add_back_capacityEv, symObjAddr: 0x7380, symBinAddr: 0x19538, symSize: 0x428 }
  - { offset: 0x108403, size: 0x8, addend: 0x0, symName: __ZNSt3__114__split_bufferIPNS_7__stateIcEENS_9allocatorIS3_EEE9push_backEOS3_, symObjAddr: 0x78A0, symBinAddr: 0x19960, symSize: 0x184 }
  - { offset: 0x10840E, size: 0x8, addend: 0x0, symName: __ZNSt3__15dequeINS_7__stateIcEENS_9allocatorIS2_EEE20__add_front_capacityEv, symObjAddr: 0x7BB4, symBinAddr: 0x19E04, symSize: 0x334 }
  - { offset: 0x1090BD, size: 0x8, addend: 0x0, symName: __ZNSt3__114__split_bufferIPNS_7__stateIcEENS_9allocatorIS3_EEE10push_frontERKS3_, symObjAddr: 0x7F08, symBinAddr: 0x1A138, symSize: 0x190 }
  - { offset: 0x1091E1, size: 0x8, addend: 0x0, symName: __ZNSt3__16vectorINS_9sub_matchIPKcEENS_9allocatorIS4_EEE18__assign_with_sizeB8nn190102IPS4_S9_EEvT_T0_l, symObjAddr: 0x8098, symBinAddr: 0x1A2C8, symSize: 0x1D0 }
  - { offset: 0x109A2F, size: 0x8, addend: 0x0, symName: __ZNSt3__16vectorINS_4pairImPKcEENS_9allocatorIS4_EEE18__assign_with_sizeB8nn190102IPS4_S9_EEvT_T0_l, symObjAddr: 0x8298, symBinAddr: 0x1A498, symSize: 0x2CC }
  - { offset: 0x109A4C, size: 0x8, addend: 0x0, symName: __ZNSt3__16vectorINS_4pairImPKcEENS_9allocatorIS4_EEE18__assign_with_sizeB8nn190102IPS4_S9_EEvT_T0_l, symObjAddr: 0x8298, symBinAddr: 0x1A498, symSize: 0x2CC }
  - { offset: 0x10A4DF, size: 0x8, addend: 0x0, symName: __ZNSt3__16vectorINS_7__stateIcEENS_9allocatorIS2_EEE26__swap_out_circular_bufferERNS_14__split_bufferIS2_RS4_EE, symObjAddr: 0x6FB4, symBinAddr: 0x1916C, symSize: 0x124 }
  - { offset: 0x10B3CC, size: 0x8, addend: 0x0, symName: __ZNSt3__114__split_bufferIPNS_7__stateIcEENS_9allocatorIS3_EEE9push_backEOS3_, symObjAddr: 0x78A0, symBinAddr: 0x19960, symSize: 0x184 }
  - { offset: 0x10B880, size: 0x8, addend: 0x0, symName: __ZNSt3__114__split_bufferIPNS_7__stateIcEENS_9allocatorIS3_EEE10push_frontEOS3_, symObjAddr: 0x7A24, symBinAddr: 0x19AE4, symSize: 0x190 }
  - { offset: 0x10B88B, size: 0x8, addend: 0x0, symName: __ZNSt3__114__split_bufferIPNS_7__stateIcEENS_9allocatorIS3_EEE10push_frontEOS3_, symObjAddr: 0x7A24, symBinAddr: 0x19AE4, symSize: 0x190 }
  - { offset: 0x10BD77, size: 0x8, addend: 0x0, symName: __ZNSt3__15dequeINS_7__stateIcEENS_9allocatorIS2_EEE20__add_front_capacityEv, symObjAddr: 0x7BB4, symBinAddr: 0x19E04, symSize: 0x334 }
  - { offset: 0x10BDE6, size: 0x8, addend: 0x0, symName: __ZNSt3__114__split_bufferIPNS_7__stateIcEENS_9allocatorIS3_EEE10push_frontERKS3_, symObjAddr: 0x7F08, symBinAddr: 0x1A138, symSize: 0x190 }
  - { offset: 0x10C2D2, size: 0x8, addend: 0x0, symName: __ZNSt3__16vectorINS_9sub_matchIPKcEENS_9allocatorIS4_EEE18__assign_with_sizeB8nn190102IPS4_S9_EEvT_T0_l, symObjAddr: 0x8098, symBinAddr: 0x1A2C8, symSize: 0x1D0 }
  - { offset: 0x10CA7F, size: 0x8, addend: 0x0, symName: __ZNSt3__111basic_regexIcNS_12regex_traitsIcEEE13__parse_egrepIPKcEET_S7_S7_, symObjAddr: 0x910C, symBinAddr: 0x1B0B4, symSize: 0x1A8 }
  - { offset: 0x10D026, size: 0x8, addend: 0x0, symName: __ZNSt3__111basic_regexIcNS_12regex_traitsIcEEE24__parse_extended_reg_expIPKcEET_S7_S7_, symObjAddr: 0x8DF0, symBinAddr: 0x1ADA8, symSize: 0x164 }
  - { offset: 0x10D38A, size: 0x8, addend: 0x0, symName: __ZNSt3__111basic_regexIcNS_12regex_traitsIcEEE12__parse_grepIPKcEET_S7_S7_, symObjAddr: 0x8F54, symBinAddr: 0x1AF0C, symSize: 0x1A8 }
  - { offset: 0x10D39E, size: 0x8, addend: 0x0, symName: __ZNSt3__111basic_regexIcNS_12regex_traitsIcEEE21__parse_basic_reg_expIPKcEET_S7_S7_, symObjAddr: 0x8C68, symBinAddr: 0x1AC20, symSize: 0x188 }
  - { offset: 0x10D738, size: 0x8, addend: 0x0, symName: __ZNSt3__111basic_regexIcNS_12regex_traitsIcEEE24__parse_extended_reg_expIPKcEET_S7_S7_, symObjAddr: 0x8DF0, symBinAddr: 0x1ADA8, symSize: 0x164 }
  - { offset: 0x10D74C, size: 0x8, addend: 0x0, symName: __ZNSt3__111basic_regexIcNS_12regex_traitsIcEEE12__parse_grepIPKcEET_S7_S7_, symObjAddr: 0x8F54, symBinAddr: 0x1AF0C, symSize: 0x1A8 }
  - { offset: 0x10DCF3, size: 0x8, addend: 0x0, symName: __ZNSt3__111basic_regexIcNS_12regex_traitsIcEEE19__parse_alternativeIPKcEET_S7_S7_, symObjAddr: 0x94C8, symBinAddr: 0x1B460, symSize: 0xA0 }
  - { offset: 0x10DE53, size: 0x8, addend: 0x0, symName: __ZNSt3__111basic_regexIcNS_12regex_traitsIcEEE16__parse_ecma_expIPKcEET_S7_S7_, symObjAddr: 0x8AA4, symBinAddr: 0x1AA5C, symSize: 0x1C4 }
  - { offset: 0x10E2A6, size: 0x8, addend: 0x0, symName: __ZNSt3__111basic_regexIcNS_12regex_traitsIcEEE12__parse_termIPKcEET_S7_S7_, symObjAddr: 0x9568, symBinAddr: 0x1B500, symSize: 0x94 }
  - { offset: 0x10E54B, size: 0x8, addend: 0x0, symName: __ZNSt3__111basic_regexIcNS_12regex_traitsIcEEE18__parse_nondupl_REIPKcEET_S7_S7_, symObjAddr: 0xF2C4, symBinAddr: 0x20C78, symSize: 0x1EC }
  - { offset: 0x10EACE, size: 0x8, addend: 0x0, symName: __ZNSt3__111basic_regexIcNS_12regex_traitsIcEEE22__parse_RE_dupl_symbolIPKcEET_S7_S7_PNS_16__owns_one_stateIcEEjj, symObjAddr: 0xF4C0, symBinAddr: 0x20E64, symSize: 0x460 }
  - { offset: 0x10EAE2, size: 0x8, addend: 0x0, symName: __ZNSt3__111basic_regexIcNS_12regex_traitsIcEEE22__parse_RE_dupl_symbolIPKcEET_S7_S7_PNS_16__owns_one_stateIcEEjj, symObjAddr: 0xF4C0, symBinAddr: 0x20E64, symSize: 0x460 }
  - { offset: 0x10FA9A, size: 0x8, addend: 0x0, symName: __ZNSt3__111basic_regexIcNS_12regex_traitsIcEEE32__parse_one_char_or_coll_elem_REIPKcEET_S7_S7_, symObjAddr: 0xF920, symBinAddr: 0x212C4, symSize: 0x104 }
  - { offset: 0x10FAF2, size: 0x8, addend: 0x0, symName: __ZNSt3__111basic_regexIcNS_12regex_traitsIcEEE22__parse_ERE_expressionIPKcEET_S7_S7_, symObjAddr: 0xFB6C, symBinAddr: 0x214F8, symSize: 0x28C }
  - { offset: 0x10FEF7, size: 0x8, addend: 0x0, symName: __ZNSt3__111__end_stateIcED1Ev, symObjAddr: 0x92D0, symBinAddr: 0x1B268, symSize: 0x4 }
  - { offset: 0x10FF23, size: 0x8, addend: 0x0, symName: __ZNSt3__111__end_stateIcED0Ev, symObjAddr: 0x92D4, symBinAddr: 0x1B26C, symSize: 0x4 }
  - { offset: 0x10FF4F, size: 0x8, addend: 0x0, symName: __ZNKSt3__111__end_stateIcE6__execERNS_7__stateIcEE, symObjAddr: 0x92D8, symBinAddr: 0x1B270, symSize: 0xC }
  - { offset: 0x10FF83, size: 0x8, addend: 0x0, symName: __ZNKSt3__16__nodeIcE12__exec_splitEbRNS_7__stateIcEE, symObjAddr: 0x92E4, symBinAddr: 0x1B27C, symSize: 0x4 }
  - { offset: 0x10FFC3, size: 0x8, addend: 0x0, symName: __ZNKSt3__16__nodeIcE6__execERNS_7__stateIcEE, symObjAddr: 0x92E8, symBinAddr: 0x1B280, symSize: 0x4 }
  - { offset: 0x11000F, size: 0x8, addend: 0x0, symName: __ZNSt3__120__shared_ptr_pointerIPNS_13__empty_stateIcEENS_10shared_ptrIS2_E27__shared_ptr_default_deleteIS2_S2_EENS_9allocatorIS2_EEED1Ev, symObjAddr: 0x92EC, symBinAddr: 0x1B284, symSize: 0x4 }
  - { offset: 0x110033, size: 0x8, addend: 0x0, symName: __ZNSt3__120__shared_ptr_pointerIPNS_13__empty_stateIcEENS_10shared_ptrIS2_E27__shared_ptr_default_deleteIS2_S2_EENS_9allocatorIS2_EEED1Ev, symObjAddr: 0x92EC, symBinAddr: 0x1B284, symSize: 0x4 }
  - { offset: 0x11006A, size: 0x8, addend: 0x0, symName: __ZNSt3__120__shared_ptr_pointerIPNS_13__empty_stateIcEENS_10shared_ptrIS2_E27__shared_ptr_default_deleteIS2_S2_EENS_9allocatorIS2_EEED0Ev, symObjAddr: 0x92F0, symBinAddr: 0x1B288, symSize: 0x14 }
  - { offset: 0x1100F7, size: 0x8, addend: 0x0, symName: __ZNSt3__120__shared_ptr_pointerIPNS_13__empty_stateIcEENS_10shared_ptrIS2_E27__shared_ptr_default_deleteIS2_S2_EENS_9allocatorIS2_EEE16__on_zero_sharedEv, symObjAddr: 0x9304, symBinAddr: 0x1B29C, symSize: 0x18 }
  - { offset: 0x1101A0, size: 0x8, addend: 0x0, symName: __ZNKSt3__120__shared_ptr_pointerIPNS_13__empty_stateIcEENS_10shared_ptrIS2_E27__shared_ptr_default_deleteIS2_S2_EENS_9allocatorIS2_EEE13__get_deleterERKSt9type_info, symObjAddr: 0x931C, symBinAddr: 0x1B2B4, symSize: 0x74 }
  - { offset: 0x1102C1, size: 0x8, addend: 0x0, symName: __ZNSt3__120__shared_ptr_pointerIPNS_13__empty_stateIcEENS_10shared_ptrIS2_E27__shared_ptr_default_deleteIS2_S2_EENS_9allocatorIS2_EEE21__on_zero_shared_weakEv, symObjAddr: 0x9390, symBinAddr: 0x1B328, symSize: 0x4 }
  - { offset: 0x1102F4, size: 0x8, addend: 0x0, symName: __ZNSt3__120__shared_ptr_pointerIPNS_13__empty_stateIcEENS_10shared_ptrIS2_E27__shared_ptr_default_deleteIS2_S2_EENS_9allocatorIS2_EEE21__on_zero_shared_weakEv, symObjAddr: 0x9390, symBinAddr: 0x1B328, symSize: 0x4 }
  - { offset: 0x110318, size: 0x8, addend: 0x0, symName: __ZNSt3__120__shared_ptr_pointerIPNS_13__empty_stateIcEENS_10shared_ptrIS2_E27__shared_ptr_default_deleteIS2_S2_EENS_9allocatorIS2_EEE21__on_zero_shared_weakEv, symObjAddr: 0x9390, symBinAddr: 0x1B328, symSize: 0x4 }
  - { offset: 0x110347, size: 0x8, addend: 0x0, symName: __ZNSt3__120__shared_ptr_pointerIPNS_13__empty_stateIcEENS_10shared_ptrIS2_E27__shared_ptr_default_deleteIS2_S2_EENS_9allocatorIS2_EEE21__on_zero_shared_weakEv, symObjAddr: 0x9390, symBinAddr: 0x1B328, symSize: 0x4 }
  - { offset: 0x110370, size: 0x8, addend: 0x0, symName: __ZNSt3__120__shared_ptr_pointerIPNS_13__empty_stateIcEENS_10shared_ptrIS2_E27__shared_ptr_default_deleteIS2_S2_EENS_9allocatorIS2_EEE21__on_zero_shared_weakEv, symObjAddr: 0x9390, symBinAddr: 0x1B328, symSize: 0x4 }
  - { offset: 0x1103D3, size: 0x8, addend: 0x0, symName: __ZNSt3__113__empty_stateIcED1Ev, symObjAddr: 0x9394, symBinAddr: 0x1B32C, symSize: 0x48 }
  - { offset: 0x1103F9, size: 0x8, addend: 0x0, symName: __ZNSt3__113__empty_stateIcED1Ev, symObjAddr: 0x9394, symBinAddr: 0x1B32C, symSize: 0x48 }
  - { offset: 0x110419, size: 0x8, addend: 0x0, symName: __ZNSt3__113__empty_stateIcED1Ev, symObjAddr: 0x9394, symBinAddr: 0x1B32C, symSize: 0x48 }
  - { offset: 0x110461, size: 0x8, addend: 0x0, symName: __ZNSt3__113__empty_stateIcED0Ev, symObjAddr: 0x93DC, symBinAddr: 0x1B374, symSize: 0x48 }
  - { offset: 0x110492, size: 0x8, addend: 0x0, symName: __ZNSt3__113__empty_stateIcED0Ev, symObjAddr: 0x93DC, symBinAddr: 0x1B374, symSize: 0x48 }
  - { offset: 0x1104B2, size: 0x8, addend: 0x0, symName: __ZNSt3__113__empty_stateIcED0Ev, symObjAddr: 0x93DC, symBinAddr: 0x1B374, symSize: 0x48 }
  - { offset: 0x1104D2, size: 0x8, addend: 0x0, symName: __ZNSt3__113__empty_stateIcED0Ev, symObjAddr: 0x93DC, symBinAddr: 0x1B374, symSize: 0x48 }
  - { offset: 0x110519, size: 0x8, addend: 0x0, symName: __ZNKSt3__113__empty_stateIcE6__execERNS_7__stateIcEE, symObjAddr: 0x9424, symBinAddr: 0x1B3BC, symSize: 0x14 }
  - { offset: 0x11056E, size: 0x8, addend: 0x0, symName: __ZNSt3__116__owns_one_stateIcED1Ev, symObjAddr: 0x9438, symBinAddr: 0x1B3D0, symSize: 0x48 }
  - { offset: 0x110594, size: 0x8, addend: 0x0, symName: __ZNSt3__116__owns_one_stateIcED1Ev, symObjAddr: 0x9438, symBinAddr: 0x1B3D0, symSize: 0x48 }
  - { offset: 0x1105DA, size: 0x8, addend: 0x0, symName: __ZNSt3__116__owns_one_stateIcED0Ev, symObjAddr: 0x9480, symBinAddr: 0x1B418, symSize: 0x48 }
  - { offset: 0x11060A, size: 0x8, addend: 0x0, symName: __ZNSt3__116__owns_one_stateIcED0Ev, symObjAddr: 0x9480, symBinAddr: 0x1B418, symSize: 0x48 }
  - { offset: 0x11062A, size: 0x8, addend: 0x0, symName: __ZNSt3__116__owns_one_stateIcED0Ev, symObjAddr: 0x9480, symBinAddr: 0x1B418, symSize: 0x48 }
  - { offset: 0x1106B6, size: 0x8, addend: 0x0, symName: __ZNSt3__111basic_regexIcNS_12regex_traitsIcEEE23__parse_ERE_dupl_symbolIPKcEET_S7_S7_PNS_16__owns_one_stateIcEEjj, symObjAddr: 0x9B34, symBinAddr: 0x1BAE8, symSize: 0x714 }
  - { offset: 0x112133, size: 0x8, addend: 0x0, symName: __ZNSt3__111basic_regexIcNS_12regex_traitsIcEEE16__push_lookaheadERKS3_bj, symObjAddr: 0xA248, symBinAddr: 0x1C1FC, symSize: 0xB0 }
  - { offset: 0x112147, size: 0x8, addend: 0x0, symName: __ZNSt3__111basic_regexIcNS_12regex_traitsIcEEE17__parse_assertionIPKcEET_S7_S7_, symObjAddr: 0x95FC, symBinAddr: 0x1B594, symSize: 0x2A8 }
  - { offset: 0x11272F, size: 0x8, addend: 0x0, symName: __ZNSt3__111basic_regexIcNS_12regex_traitsIcEEE12__parse_atomIPKcEET_S7_S7_, symObjAddr: 0x98E4, symBinAddr: 0x1B83C, symSize: 0x2AC }
  - { offset: 0x112743, size: 0x8, addend: 0x0, symName: __ZNSt3__111basic_regexIcNS_12regex_traitsIcEEE12__parse_atomIPKcEET_S7_S7_, symObjAddr: 0x98E4, symBinAddr: 0x1B83C, symSize: 0x2AC }
  - { offset: 0x112ADF, size: 0x8, addend: 0x0, symName: __ZNSt3__111basic_regexIcNS_12regex_traitsIcEEE23__parse_ERE_dupl_symbolIPKcEET_S7_S7_PNS_16__owns_one_stateIcEEjj, symObjAddr: 0x9B34, symBinAddr: 0x1BAE8, symSize: 0x714 }
  - { offset: 0x112BAC, size: 0x8, addend: 0x0, symName: __ZNSt3__111basic_regexIcNS_12regex_traitsIcEEE16__push_lookaheadERKS3_bj, symObjAddr: 0xA248, symBinAddr: 0x1C1FC, symSize: 0xB0 }
  - { offset: 0x112F9C, size: 0x8, addend: 0x0, symName: __ZNSt3__111basic_regexIcNS_12regex_traitsIcEEE26__parse_bracket_expressionIPKcEET_S7_S7_, symObjAddr: 0xAAE0, symBinAddr: 0x1C8E4, symSize: 0x14C }
  - { offset: 0x113182, size: 0x8, addend: 0x0, symName: __ZNSt3__119__throw_regex_errorB8nn190102ILNS_15regex_constants10error_typeE11EEEvv, symObjAddr: 0xAC2C, symBinAddr: 0x1CA30, symSize: 0xC }
  - { offset: 0x1132BB, size: 0x8, addend: 0x0, symName: __ZNSt3__111basic_regexIcNS_12regex_traitsIcEEE26__parse_bracket_expressionIPKcEET_S7_S7_, symObjAddr: 0xAAE0, symBinAddr: 0x1C8E4, symSize: 0x14C }
  - { offset: 0x1132CF, size: 0x8, addend: 0x0, symName: __ZNSt3__111basic_regexIcNS_12regex_traitsIcEEE25__parse_pattern_characterIPKcEET_S7_S7_, symObjAddr: 0xAC38, symBinAddr: 0x1CA3C, symSize: 0x6C }
  - { offset: 0x113718, size: 0x8, addend: 0x0, symName: __ZNSt3__111basic_regexIcNS_12regex_traitsIcEEE27__push_nongreedy_inf_repeatB8nn190102EmPNS_16__owns_one_stateIcEEjj, symObjAddr: 0xEB2C, symBinAddr: 0x204E0, symSize: 0xE0 }
  - { offset: 0x113A41, size: 0x8, addend: 0x0, symName: __ZNSt3__111basic_regexIcNS_12regex_traitsIcEEE11__push_loopEmmPNS_16__owns_one_stateIcEEmmb, symObjAddr: 0xEC0C, symBinAddr: 0x205C0, symSize: 0xEC }
  - { offset: 0x113D85, size: 0x8, addend: 0x0, symName: __ZNSt3__120__l_anchor_multilineIcED1Ev, symObjAddr: 0xA304, symBinAddr: 0x1C2B8, symSize: 0x48 }
  - { offset: 0x113DAB, size: 0x8, addend: 0x0, symName: __ZNSt3__120__l_anchor_multilineIcED1Ev, symObjAddr: 0xA304, symBinAddr: 0x1C2B8, symSize: 0x48 }
  - { offset: 0x113DCB, size: 0x8, addend: 0x0, symName: __ZNSt3__120__l_anchor_multilineIcED1Ev, symObjAddr: 0xA304, symBinAddr: 0x1C2B8, symSize: 0x48 }
  - { offset: 0x113E13, size: 0x8, addend: 0x0, symName: __ZNSt3__120__l_anchor_multilineIcED0Ev, symObjAddr: 0xA34C, symBinAddr: 0x1C300, symSize: 0x48 }
  - { offset: 0x113E44, size: 0x8, addend: 0x0, symName: __ZNSt3__120__l_anchor_multilineIcED0Ev, symObjAddr: 0xA34C, symBinAddr: 0x1C300, symSize: 0x48 }
  - { offset: 0x113E64, size: 0x8, addend: 0x0, symName: __ZNSt3__120__l_anchor_multilineIcED0Ev, symObjAddr: 0xA34C, symBinAddr: 0x1C300, symSize: 0x48 }
  - { offset: 0x113E84, size: 0x8, addend: 0x0, symName: __ZNSt3__120__l_anchor_multilineIcED0Ev, symObjAddr: 0xA34C, symBinAddr: 0x1C300, symSize: 0x48 }
  - { offset: 0x113EB0, size: 0x8, addend: 0x0, symName: __ZNKSt3__120__l_anchor_multilineIcE6__execERNS_7__stateIcEE, symObjAddr: 0xA394, symBinAddr: 0x1C348, symSize: 0x68 }
  - { offset: 0x113F15, size: 0x8, addend: 0x0, symName: __ZNSt3__120__r_anchor_multilineIcED1Ev, symObjAddr: 0xA3FC, symBinAddr: 0x1C3B0, symSize: 0x48 }
  - { offset: 0x113F3B, size: 0x8, addend: 0x0, symName: __ZNSt3__120__r_anchor_multilineIcED1Ev, symObjAddr: 0xA3FC, symBinAddr: 0x1C3B0, symSize: 0x48 }
  - { offset: 0x113F5B, size: 0x8, addend: 0x0, symName: __ZNSt3__120__r_anchor_multilineIcED1Ev, symObjAddr: 0xA3FC, symBinAddr: 0x1C3B0, symSize: 0x48 }
  - { offset: 0x113FA3, size: 0x8, addend: 0x0, symName: __ZNSt3__120__r_anchor_multilineIcED0Ev, symObjAddr: 0xA444, symBinAddr: 0x1C3F8, symSize: 0x48 }
  - { offset: 0x113FD4, size: 0x8, addend: 0x0, symName: __ZNSt3__120__r_anchor_multilineIcED0Ev, symObjAddr: 0xA444, symBinAddr: 0x1C3F8, symSize: 0x48 }
  - { offset: 0x113FF4, size: 0x8, addend: 0x0, symName: __ZNSt3__120__r_anchor_multilineIcED0Ev, symObjAddr: 0xA444, symBinAddr: 0x1C3F8, symSize: 0x48 }
  - { offset: 0x114014, size: 0x8, addend: 0x0, symName: __ZNSt3__120__r_anchor_multilineIcED0Ev, symObjAddr: 0xA444, symBinAddr: 0x1C3F8, symSize: 0x48 }
  - { offset: 0x114040, size: 0x8, addend: 0x0, symName: __ZNKSt3__120__r_anchor_multilineIcE6__execERNS_7__stateIcEE, symObjAddr: 0xA48C, symBinAddr: 0x1C440, symSize: 0x54 }
  - { offset: 0x1140A5, size: 0x8, addend: 0x0, symName: __ZNSt3__115__word_boundaryIcNS_12regex_traitsIcEEED1Ev, symObjAddr: 0xA4E0, symBinAddr: 0x1C494, symSize: 0x58 }
  - { offset: 0x11415C, size: 0x8, addend: 0x0, symName: __ZNSt3__115__word_boundaryIcNS_12regex_traitsIcEEED0Ev, symObjAddr: 0xA538, symBinAddr: 0x1C4EC, symSize: 0x58 }
  - { offset: 0x11427E, size: 0x8, addend: 0x0, symName: __ZNKSt3__115__word_boundaryIcNS_12regex_traitsIcEEE6__execERNS_7__stateIcEE, symObjAddr: 0xA590, symBinAddr: 0x1C544, symSize: 0x124 }
  - { offset: 0x114452, size: 0x8, addend: 0x0, symName: __ZNSt3__111__lookaheadIcNS_12regex_traitsIcEEED1Ev, symObjAddr: 0xA6E4, symBinAddr: 0x1C668, symSize: 0x8C }
  - { offset: 0x1145C4, size: 0x8, addend: 0x0, symName: __ZNSt3__111__lookaheadIcNS_12regex_traitsIcEEED0Ev, symObjAddr: 0xA770, symBinAddr: 0x1C6F4, symSize: 0x8C }
  - { offset: 0x114743, size: 0x8, addend: 0x0, symName: __ZNKSt3__111__lookaheadIcNS_12regex_traitsIcEEE6__execERNS_7__stateIcEE, symObjAddr: 0xA7FC, symBinAddr: 0x1C780, symSize: 0x164 }
  - { offset: 0x114BD6, size: 0x8, addend: 0x0, symName: __ZNSt3__111basic_regexIcNS_12regex_traitsIcEEE11__push_charEc, symObjAddr: 0xB310, symBinAddr: 0x1D0B8, symSize: 0xFC }
  - { offset: 0x114F31, size: 0x8, addend: 0x0, symName: __ZNSt3__111basic_regexIcNS_12regex_traitsIcEEE15__push_back_refEi, symObjAddr: 0xB418, symBinAddr: 0x1D1C0, symSize: 0xCC }
  - { offset: 0x11510A, size: 0x8, addend: 0x0, symName: __ZNSt3__111basic_regexIcNS_12regex_traitsIcEEE30__parse_character_class_escapeIPKcEET_S7_S7_, symObjAddr: 0xAD50, symBinAddr: 0x1CBF8, symSize: 0x1B4 }
  - { offset: 0x115561, size: 0x8, addend: 0x0, symName: __ZNSt3__111basic_regexIcNS_12regex_traitsIcEEE24__parse_character_escapeIPKcEET_S7_S7_PNS_12basic_stringIcNS_11char_traitsIcEENS_9allocatorIcEEEE, symObjAddr: 0xAF04, symBinAddr: 0x1CDAC, symSize: 0x30C }
  - { offset: 0x1159A2, size: 0x8, addend: 0x0, symName: __ZNSt3__111basic_regexIcNS_12regex_traitsIcEEE11__push_charEc, symObjAddr: 0xB310, symBinAddr: 0x1D0B8, symSize: 0xFC }
  - { offset: 0x115A90, size: 0x8, addend: 0x0, symName: __ZNSt3__120__bracket_expressionIcNS_12regex_traitsIcEEEC2B8nn190102ERKS2_PNS_6__nodeIcEEbbb, symObjAddr: 0xBDBC, symBinAddr: 0x1DB08, symSize: 0x104 }
  - { offset: 0x115DBE, size: 0x8, addend: 0x0, symName: __ZNSt3__120__bracket_expressionIcNS_12regex_traitsIcEEE10__add_charB8nn190102Ec, symObjAddr: 0xBC30, symBinAddr: 0x1D9A8, symSize: 0x160 }
  - { offset: 0x1160F6, size: 0x8, addend: 0x0, symName: __ZNSt3__120__bracket_expressionIcNS_12regex_traitsIcEEEC2B8nn190102ERKS2_PNS_6__nodeIcEEbbb, symObjAddr: 0xBDBC, symBinAddr: 0x1DB08, symSize: 0x104 }
  - { offset: 0x116101, size: 0x8, addend: 0x0, symName: __ZNSt3__111basic_regexIcNS_12regex_traitsIcEEE23__parse_expression_termIPKcEET_S7_S7_PNS_20__bracket_expressionIcS2_EE, symObjAddr: 0xCC68, symBinAddr: 0x1E968, symSize: 0x4A8 }
  - { offset: 0x1171E5, size: 0x8, addend: 0x0, symName: __ZNSt3__111basic_regexIcNS_12regex_traitsIcEEE25__parse_equivalence_classIPKcEET_S7_S7_PNS_20__bracket_expressionIcS2_EE, symObjAddr: 0xD158, symBinAddr: 0x1EE10, symSize: 0x2B4 }
  - { offset: 0x117216, size: 0x8, addend: 0x0, symName: __ZNSt3__123__match_any_but_newlineIcED1Ev, symObjAddr: 0xACB4, symBinAddr: 0x1CAA8, symSize: 0x48 }
  - { offset: 0x11723C, size: 0x8, addend: 0x0, symName: __ZNSt3__123__match_any_but_newlineIcED1Ev, symObjAddr: 0xACB4, symBinAddr: 0x1CAA8, symSize: 0x48 }
  - { offset: 0x11725C, size: 0x8, addend: 0x0, symName: __ZNSt3__123__match_any_but_newlineIcED1Ev, symObjAddr: 0xACB4, symBinAddr: 0x1CAA8, symSize: 0x48 }
  - { offset: 0x1172A4, size: 0x8, addend: 0x0, symName: __ZNSt3__123__match_any_but_newlineIcED0Ev, symObjAddr: 0xACFC, symBinAddr: 0x1CAF0, symSize: 0x48 }
  - { offset: 0x1172D5, size: 0x8, addend: 0x0, symName: __ZNSt3__123__match_any_but_newlineIcED0Ev, symObjAddr: 0xACFC, symBinAddr: 0x1CAF0, symSize: 0x48 }
  - { offset: 0x1172F5, size: 0x8, addend: 0x0, symName: __ZNSt3__123__match_any_but_newlineIcED0Ev, symObjAddr: 0xACFC, symBinAddr: 0x1CAF0, symSize: 0x48 }
  - { offset: 0x117315, size: 0x8, addend: 0x0, symName: __ZNSt3__123__match_any_but_newlineIcED0Ev, symObjAddr: 0xACFC, symBinAddr: 0x1CAF0, symSize: 0x48 }
  - { offset: 0x117748, size: 0x8, addend: 0x0, symName: __ZNSt3__118__match_char_icaseIcNS_12regex_traitsIcEEED1Ev, symObjAddr: 0xB4E4, symBinAddr: 0x1D28C, symSize: 0x58 }
  - { offset: 0x1177FF, size: 0x8, addend: 0x0, symName: __ZNSt3__118__match_char_icaseIcNS_12regex_traitsIcEEED0Ev, symObjAddr: 0xB53C, symBinAddr: 0x1D2E4, symSize: 0x58 }
  - { offset: 0x1178C3, size: 0x8, addend: 0x0, symName: __ZNKSt3__118__match_char_icaseIcNS_12regex_traitsIcEEE6__execERNS_7__stateIcEE, symObjAddr: 0xB594, symBinAddr: 0x1D33C, symSize: 0x78 }
  - { offset: 0x117983, size: 0x8, addend: 0x0, symName: __ZNSt3__120__match_char_collateIcNS_12regex_traitsIcEEED1Ev, symObjAddr: 0xB618, symBinAddr: 0x1D3B4, symSize: 0x58 }
  - { offset: 0x117A3A, size: 0x8, addend: 0x0, symName: __ZNSt3__120__match_char_collateIcNS_12regex_traitsIcEEED0Ev, symObjAddr: 0xB670, symBinAddr: 0x1D40C, symSize: 0x58 }
  - { offset: 0x117AFE, size: 0x8, addend: 0x0, symName: __ZNKSt3__120__match_char_collateIcNS_12regex_traitsIcEEE6__execERNS_7__stateIcEE, symObjAddr: 0xB6C8, symBinAddr: 0x1D464, symSize: 0x48 }
  - { offset: 0x117B6E, size: 0x8, addend: 0x0, symName: __ZNSt3__112__match_charIcED1Ev, symObjAddr: 0xB710, symBinAddr: 0x1D4AC, symSize: 0x48 }
  - { offset: 0x117B94, size: 0x8, addend: 0x0, symName: __ZNSt3__112__match_charIcED1Ev, symObjAddr: 0xB710, symBinAddr: 0x1D4AC, symSize: 0x48 }
  - { offset: 0x117BB4, size: 0x8, addend: 0x0, symName: __ZNSt3__112__match_charIcED1Ev, symObjAddr: 0xB710, symBinAddr: 0x1D4AC, symSize: 0x48 }
  - { offset: 0x117BFC, size: 0x8, addend: 0x0, symName: __ZNSt3__112__match_charIcED0Ev, symObjAddr: 0xB758, symBinAddr: 0x1D4F4, symSize: 0x48 }
  - { offset: 0x117C2D, size: 0x8, addend: 0x0, symName: __ZNSt3__112__match_charIcED0Ev, symObjAddr: 0xB758, symBinAddr: 0x1D4F4, symSize: 0x48 }
  - { offset: 0x117C4D, size: 0x8, addend: 0x0, symName: __ZNSt3__112__match_charIcED0Ev, symObjAddr: 0xB758, symBinAddr: 0x1D4F4, symSize: 0x48 }
  - { offset: 0x117C6D, size: 0x8, addend: 0x0, symName: __ZNSt3__112__match_charIcED0Ev, symObjAddr: 0xB758, symBinAddr: 0x1D4F4, symSize: 0x48 }
  - { offset: 0x117C99, size: 0x8, addend: 0x0, symName: __ZNKSt3__112__match_charIcE6__execERNS_7__stateIcEE, symObjAddr: 0xB7A0, symBinAddr: 0x1D53C, symSize: 0x48 }
  - { offset: 0x117D09, size: 0x8, addend: 0x0, symName: __ZNSt3__116__back_ref_icaseIcNS_12regex_traitsIcEEED1Ev, symObjAddr: 0xB7E8, symBinAddr: 0x1D584, symSize: 0x58 }
  - { offset: 0x117DC0, size: 0x8, addend: 0x0, symName: __ZNSt3__116__back_ref_icaseIcNS_12regex_traitsIcEEED0Ev, symObjAddr: 0xB840, symBinAddr: 0x1D5DC, symSize: 0x58 }
  - { offset: 0x117E84, size: 0x8, addend: 0x0, symName: __ZNKSt3__116__back_ref_icaseIcNS_12regex_traitsIcEEE6__execERNS_7__stateIcEE, symObjAddr: 0xB898, symBinAddr: 0x1D634, symSize: 0xE8 }
  - { offset: 0x117FFC, size: 0x8, addend: 0x0, symName: __ZNSt3__118__back_ref_collateIcNS_12regex_traitsIcEEED1Ev, symObjAddr: 0xB994, symBinAddr: 0x1D71C, symSize: 0x58 }
  - { offset: 0x1180B3, size: 0x8, addend: 0x0, symName: __ZNSt3__118__back_ref_collateIcNS_12regex_traitsIcEEED0Ev, symObjAddr: 0xB9EC, symBinAddr: 0x1D774, symSize: 0x58 }
  - { offset: 0x118177, size: 0x8, addend: 0x0, symName: __ZNKSt3__118__back_ref_collateIcNS_12regex_traitsIcEEE6__execERNS_7__stateIcEE, symObjAddr: 0xBA44, symBinAddr: 0x1D7CC, symSize: 0x8C }
  - { offset: 0x118251, size: 0x8, addend: 0x0, symName: __ZNSt3__110__back_refIcED1Ev, symObjAddr: 0xBAD0, symBinAddr: 0x1D858, symSize: 0x48 }
  - { offset: 0x118277, size: 0x8, addend: 0x0, symName: __ZNSt3__110__back_refIcED1Ev, symObjAddr: 0xBAD0, symBinAddr: 0x1D858, symSize: 0x48 }
  - { offset: 0x118297, size: 0x8, addend: 0x0, symName: __ZNSt3__110__back_refIcED1Ev, symObjAddr: 0xBAD0, symBinAddr: 0x1D858, symSize: 0x48 }
  - { offset: 0x1182DF, size: 0x8, addend: 0x0, symName: __ZNSt3__110__back_refIcED0Ev, symObjAddr: 0xBB18, symBinAddr: 0x1D8A0, symSize: 0x48 }
  - { offset: 0x118310, size: 0x8, addend: 0x0, symName: __ZNSt3__110__back_refIcED0Ev, symObjAddr: 0xBB18, symBinAddr: 0x1D8A0, symSize: 0x48 }
  - { offset: 0x118330, size: 0x8, addend: 0x0, symName: __ZNSt3__110__back_refIcED0Ev, symObjAddr: 0xBB18, symBinAddr: 0x1D8A0, symSize: 0x48 }
  - { offset: 0x118350, size: 0x8, addend: 0x0, symName: __ZNSt3__110__back_refIcED0Ev, symObjAddr: 0xBB18, symBinAddr: 0x1D8A0, symSize: 0x48 }
  - { offset: 0x118381, size: 0x8, addend: 0x0, symName: __ZNKSt3__110__back_refIcE6__execERNS_7__stateIcEE, symObjAddr: 0xBB60, symBinAddr: 0x1D8E8, symSize: 0xC0 }
  - { offset: 0x118514, size: 0x8, addend: 0x0, symName: __ZNSt3__120__bracket_expressionIcNS_12regex_traitsIcEEE10__add_charB8nn190102Ec, symObjAddr: 0xBC30, symBinAddr: 0x1D9A8, symSize: 0x160 }
  - { offset: 0x1188A5, size: 0x8, addend: 0x0, symName: __ZNSt3__120__bracket_expressionIcNS_12regex_traitsIcEEED1Ev, symObjAddr: 0xBEC0, symBinAddr: 0x1DC0C, symSize: 0x4 }
  - { offset: 0x1188C9, size: 0x8, addend: 0x0, symName: __ZNSt3__120__bracket_expressionIcNS_12regex_traitsIcEEED1Ev, symObjAddr: 0xBEC0, symBinAddr: 0x1DC0C, symSize: 0x4 }
  - { offset: 0x1188DD, size: 0x8, addend: 0x0, symName: __ZNSt3__120__bracket_expressionIcNS_12regex_traitsIcEEED2Ev, symObjAddr: 0xC814, symBinAddr: 0x1E550, symSize: 0x138 }
  - { offset: 0x119448, size: 0x8, addend: 0x0, symName: __ZNSt3__120__bracket_expressionIcNS_12regex_traitsIcEEED0Ev, symObjAddr: 0xBEC4, symBinAddr: 0x1DC10, symSize: 0x14 }
  - { offset: 0x119A5E, size: 0x8, addend: 0x0, symName: __ZNKSt3__120__bracket_expressionIcNS_12regex_traitsIcEEE6__execERNS_7__stateIcEE, symObjAddr: 0xBED8, symBinAddr: 0x1DC24, symSize: 0x92C }
  - { offset: 0x11BC17, size: 0x8, addend: 0x0, symName: __ZNKSt3__112regex_traitsIcE20__lookup_collatenameIPcEENS_12basic_stringIcNS_11char_traitsIcEENS_9allocatorIcEEEET_SA_c, symObjAddr: 0xCA6C, symBinAddr: 0x1E780, symSize: 0x1DC }
  - { offset: 0x11C696, size: 0x8, addend: 0x0, symName: __ZNSt3__119__throw_regex_errorB8nn190102ILNS_15regex_constants10error_typeE5EEEvv, symObjAddr: 0xCC5C, symBinAddr: 0x1E95C, symSize: 0xC }
  - { offset: 0x11C6AA, size: 0x8, addend: 0x0, symName: __ZNKSt3__112regex_traitsIcE9transformIPcEENS_12basic_stringIcNS_11char_traitsIcEENS_9allocatorIcEEEET_SA_, symObjAddr: 0xC95C, symBinAddr: 0x1E688, symSize: 0xF8 }
  - { offset: 0x11CBFE, size: 0x8, addend: 0x0, symName: __ZNKSt3__112regex_traitsIcE20__lookup_collatenameIPcEENS_12basic_stringIcNS_11char_traitsIcEENS_9allocatorIcEEEET_SA_c, symObjAddr: 0xCA6C, symBinAddr: 0x1E780, symSize: 0x1DC }
  - { offset: 0x11D3D2, size: 0x8, addend: 0x0, symName: __ZNSt3__111basic_regexIcNS_12regex_traitsIcEEE25__parse_equivalence_classIPKcEET_S7_S7_PNS_20__bracket_expressionIcS2_EE, symObjAddr: 0xD158, symBinAddr: 0x1EE10, symSize: 0x2B4 }
  - { offset: 0x11E0BA, size: 0x8, addend: 0x0, symName: __ZNSt3__111basic_regexIcNS_12regex_traitsIcEEE24__parse_collating_symbolIPKcEET_S7_S7_RNS_12basic_stringIcNS_11char_traitsIcEENS_9allocatorIcEEEE, symObjAddr: 0xD428, symBinAddr: 0x1F0C4, symSize: 0xC4 }
  - { offset: 0x11E0CE, size: 0x8, addend: 0x0, symName: __ZNSt3__111basic_regexIcNS_12regex_traitsIcEEE18__parse_awk_escapeIPKcEET_S7_S7_PNS_12basic_stringIcNS_11char_traitsIcEENS_9allocatorIcEEEE, symObjAddr: 0xD67C, symBinAddr: 0x1F2B4, symSize: 0x1E4 }
  - { offset: 0x11E1F2, size: 0x8, addend: 0x0, symName: __ZNSt3__120__bracket_expressionIcNS_12regex_traitsIcEEE11__add_rangeB8nn190102ENS_12basic_stringIcNS_11char_traitsIcEENS_9allocatorIcEEEES9_, symObjAddr: 0xD960, symBinAddr: 0x1F498, symSize: 0x5E0 }
  - { offset: 0x11E206, size: 0x8, addend: 0x0, symName: __ZNKSt3__112regex_traitsIcE20__lookup_collatenameIPKcEENS_12basic_stringIcNS_11char_traitsIcEENS_9allocatorIcEEEET_SB_c, symObjAddr: 0xE2E4, symBinAddr: 0x1FC94, symSize: 0x1DC }
  - { offset: 0x11EC85, size: 0x8, addend: 0x0, symName: __ZNKSt3__112regex_traitsIcE19__transform_primaryINS_11__wrap_iterIPcEEEENS_12basic_stringIcNS_11char_traitsIcEENS_9allocatorIcEEEET_SC_c, symObjAddr: 0xE4D4, symBinAddr: 0x1FE70, symSize: 0x160 }
  - { offset: 0x11EC99, size: 0x8, addend: 0x0, symName: __ZNKSt3__112regex_traitsIcE18__lookup_classnameIPKcEEjT_S5_bc, symObjAddr: 0xE6DC, symBinAddr: 0x1FFDC, symSize: 0x118 }
  - { offset: 0x11F2C7, size: 0x8, addend: 0x0, symName: __ZNSt3__120__bracket_expressionIcNS_12regex_traitsIcEEE14__add_neg_charB8nn190102Ec, symObjAddr: 0xE80C, symBinAddr: 0x200F4, symSize: 0x160 }
  - { offset: 0x11F2DB, size: 0x8, addend: 0x0, symName: __ZNSt3__111basic_regexIcNS_12regex_traitsIcEEE20__parse_class_escapeIPKcEET_S7_S7_RNS_12basic_stringIcNS_11char_traitsIcEENS_9allocatorIcEEEEPNS_20__bracket_expressionIcS2_EE, symObjAddr: 0xD4F8, symBinAddr: 0x1F188, symSize: 0x12C }
  - { offset: 0x11F487, size: 0x8, addend: 0x0, symName: __ZNSt3__111basic_regexIcNS_12regex_traitsIcEEE18__parse_awk_escapeIPKcEET_S7_S7_PNS_12basic_stringIcNS_11char_traitsIcEENS_9allocatorIcEEEE, symObjAddr: 0xD67C, symBinAddr: 0x1F2B4, symSize: 0x1E4 }
  - { offset: 0x11F49B, size: 0x8, addend: 0x0, symName: __ZNSt3__120__bracket_expressionIcNS_12regex_traitsIcEEE13__add_digraphB8nn190102Ecc, symObjAddr: 0xE0B8, symBinAddr: 0x1FA78, symSize: 0x210 }
  - { offset: 0x11FFB4, size: 0x8, addend: 0x0, symName: __ZNSt3__119__throw_regex_errorB8nn190102ILNS_15regex_constants10error_typeE1EEEvv, symObjAddr: 0xE2D8, symBinAddr: 0x1FC88, symSize: 0xC }
  - { offset: 0x11FFBF, size: 0x8, addend: 0x0, symName: __ZNSt3__111basic_regexIcNS_12regex_traitsIcEEE24__parse_collating_symbolIPKcEET_S7_S7_RNS_12basic_stringIcNS_11char_traitsIcEENS_9allocatorIcEEEE, symObjAddr: 0xD428, symBinAddr: 0x1F0C4, symSize: 0xC4 }
  - { offset: 0x120394, size: 0x8, addend: 0x0, symName: __ZNSt3__111basic_regexIcNS_12regex_traitsIcEEE20__parse_class_escapeIPKcEET_S7_S7_RNS_12basic_stringIcNS_11char_traitsIcEENS_9allocatorIcEEEEPNS_20__bracket_expressionIcS2_EE, symObjAddr: 0xD4F8, symBinAddr: 0x1F188, symSize: 0x12C }
  - { offset: 0x12039F, size: 0x8, addend: 0x0, symName: __ZNSt3__120__bracket_expressionIcNS_12regex_traitsIcEEE11__add_rangeB8nn190102ENS_12basic_stringIcNS_11char_traitsIcEENS_9allocatorIcEEEES9_, symObjAddr: 0xD960, symBinAddr: 0x1F498, symSize: 0x5E0 }
  - { offset: 0x1225BD, size: 0x8, addend: 0x0, symName: __ZNSt3__120__bracket_expressionIcNS_12regex_traitsIcEEE13__add_digraphB8nn190102Ecc, symObjAddr: 0xE0B8, symBinAddr: 0x1FA78, symSize: 0x210 }
  - { offset: 0x12298B, size: 0x8, addend: 0x0, symName: __ZNKSt3__112regex_traitsIcE19__transform_primaryINS_11__wrap_iterIPcEEEENS_12basic_stringIcNS_11char_traitsIcEENS_9allocatorIcEEEET_SC_c, symObjAddr: 0xE4D4, symBinAddr: 0x1FE70, symSize: 0x160 }
  - { offset: 0x1231CD, size: 0x8, addend: 0x0, symName: __ZNSt3__119__throw_regex_errorB8nn190102ILNS_15regex_constants10error_typeE2EEEvv, symObjAddr: 0xE6D0, symBinAddr: 0x1FFD0, symSize: 0xC }
  - { offset: 0x1231FA, size: 0x8, addend: 0x0, symName: __ZNSt3__120__bracket_expressionIcNS_12regex_traitsIcEEE14__add_neg_charB8nn190102Ec, symObjAddr: 0xE80C, symBinAddr: 0x200F4, symSize: 0x160 }
  - { offset: 0x12353A, size: 0x8, addend: 0x0, symName: __ZNSt3__119__throw_regex_errorB8nn190102ILNS_15regex_constants10error_typeE9EEEvv, symObjAddr: 0xE998, symBinAddr: 0x2034C, symSize: 0xC }
  - { offset: 0x123F79, size: 0x8, addend: 0x0, symName: __ZNSt3__128__begin_marked_subexpressionIcED1Ev, symObjAddr: 0xE9A4, symBinAddr: 0x20358, symSize: 0x48 }
  - { offset: 0x123F9F, size: 0x8, addend: 0x0, symName: __ZNSt3__128__begin_marked_subexpressionIcED1Ev, symObjAddr: 0xE9A4, symBinAddr: 0x20358, symSize: 0x48 }
  - { offset: 0x123FBF, size: 0x8, addend: 0x0, symName: __ZNSt3__128__begin_marked_subexpressionIcED1Ev, symObjAddr: 0xE9A4, symBinAddr: 0x20358, symSize: 0x48 }
  - { offset: 0x124007, size: 0x8, addend: 0x0, symName: __ZNSt3__128__begin_marked_subexpressionIcED0Ev, symObjAddr: 0xE9EC, symBinAddr: 0x203A0, symSize: 0x48 }
  - { offset: 0x124038, size: 0x8, addend: 0x0, symName: __ZNSt3__128__begin_marked_subexpressionIcED0Ev, symObjAddr: 0xE9EC, symBinAddr: 0x203A0, symSize: 0x48 }
  - { offset: 0x124058, size: 0x8, addend: 0x0, symName: __ZNSt3__128__begin_marked_subexpressionIcED0Ev, symObjAddr: 0xE9EC, symBinAddr: 0x203A0, symSize: 0x48 }
  - { offset: 0x124078, size: 0x8, addend: 0x0, symName: __ZNSt3__128__begin_marked_subexpressionIcED0Ev, symObjAddr: 0xE9EC, symBinAddr: 0x203A0, symSize: 0x48 }
  - { offset: 0x1240A4, size: 0x8, addend: 0x0, symName: __ZNKSt3__128__begin_marked_subexpressionIcE6__execERNS_7__stateIcEE, symObjAddr: 0xEA34, symBinAddr: 0x203E8, symSize: 0x30 }
  - { offset: 0x124135, size: 0x8, addend: 0x0, symName: __ZNSt3__126__end_marked_subexpressionIcED1Ev, symObjAddr: 0xEA64, symBinAddr: 0x20418, symSize: 0x48 }
  - { offset: 0x12415B, size: 0x8, addend: 0x0, symName: __ZNSt3__126__end_marked_subexpressionIcED1Ev, symObjAddr: 0xEA64, symBinAddr: 0x20418, symSize: 0x48 }
  - { offset: 0x12417B, size: 0x8, addend: 0x0, symName: __ZNSt3__126__end_marked_subexpressionIcED1Ev, symObjAddr: 0xEA64, symBinAddr: 0x20418, symSize: 0x48 }
  - { offset: 0x1241C3, size: 0x8, addend: 0x0, symName: __ZNSt3__126__end_marked_subexpressionIcED0Ev, symObjAddr: 0xEAAC, symBinAddr: 0x20460, symSize: 0x48 }
  - { offset: 0x1241F4, size: 0x8, addend: 0x0, symName: __ZNSt3__126__end_marked_subexpressionIcED0Ev, symObjAddr: 0xEAAC, symBinAddr: 0x20460, symSize: 0x48 }
  - { offset: 0x124214, size: 0x8, addend: 0x0, symName: __ZNSt3__126__end_marked_subexpressionIcED0Ev, symObjAddr: 0xEAAC, symBinAddr: 0x20460, symSize: 0x48 }
  - { offset: 0x124234, size: 0x8, addend: 0x0, symName: __ZNSt3__126__end_marked_subexpressionIcED0Ev, symObjAddr: 0xEAAC, symBinAddr: 0x20460, symSize: 0x48 }
  - { offset: 0x124260, size: 0x8, addend: 0x0, symName: __ZNKSt3__126__end_marked_subexpressionIcE6__execERNS_7__stateIcEE, symObjAddr: 0xEAF4, symBinAddr: 0x204A8, symSize: 0x38 }
  - { offset: 0x12430B, size: 0x8, addend: 0x0, symName: __ZNSt3__16__loopIcED1Ev, symObjAddr: 0xED10, symBinAddr: 0x206C4, symSize: 0x68 }
  - { offset: 0x1243C0, size: 0x8, addend: 0x0, symName: __ZNSt3__16__loopIcED0Ev, symObjAddr: 0xED78, symBinAddr: 0x2072C, symSize: 0x68 }
  - { offset: 0x1244F8, size: 0x8, addend: 0x0, symName: __ZNKSt3__16__loopIcE6__execERNS_7__stateIcEE, symObjAddr: 0xEDE0, symBinAddr: 0x20794, symSize: 0x1F8 }
  - { offset: 0x124640, size: 0x8, addend: 0x0, symName: __ZNKSt3__16__loopIcE12__exec_splitEbRNS_7__stateIcEE, symObjAddr: 0xEFD8, symBinAddr: 0x2098C, symSize: 0xD8 }
  - { offset: 0x12471C, size: 0x8, addend: 0x0, symName: __ZNSt3__117__owns_two_statesIcED1Ev, symObjAddr: 0xF0B0, symBinAddr: 0x20A64, symSize: 0x68 }
  - { offset: 0x1247AF, size: 0x8, addend: 0x0, symName: __ZNSt3__117__owns_two_statesIcED0Ev, symObjAddr: 0xF118, symBinAddr: 0x20ACC, symSize: 0x68 }
  - { offset: 0x12484F, size: 0x8, addend: 0x0, symName: __ZNSt3__117__repeat_one_loopIcED1Ev, symObjAddr: 0xF180, symBinAddr: 0x20B34, symSize: 0x4 }
  - { offset: 0x12487B, size: 0x8, addend: 0x0, symName: __ZNSt3__117__repeat_one_loopIcED0Ev, symObjAddr: 0xF184, symBinAddr: 0x20B38, symSize: 0x4 }
  - { offset: 0x1248A7, size: 0x8, addend: 0x0, symName: __ZNKSt3__117__repeat_one_loopIcE6__execERNS_7__stateIcEE, symObjAddr: 0xF188, symBinAddr: 0x20B3C, symSize: 0x14 }
  - { offset: 0x124917, size: 0x8, addend: 0x0, symName: __ZNSt3__111__alternateIcED1Ev, symObjAddr: 0xF19C, symBinAddr: 0x20B50, symSize: 0x68 }
  - { offset: 0x1249CC, size: 0x8, addend: 0x0, symName: __ZNSt3__111__alternateIcED0Ev, symObjAddr: 0xF204, symBinAddr: 0x20BB8, symSize: 0x68 }
  - { offset: 0x124A8E, size: 0x8, addend: 0x0, symName: __ZNKSt3__111__alternateIcE6__execERNS_7__stateIcEE, symObjAddr: 0xF26C, symBinAddr: 0x20C20, symSize: 0xC }
  - { offset: 0x124AC2, size: 0x8, addend: 0x0, symName: __ZNKSt3__111__alternateIcE12__exec_splitEbRNS_7__stateIcEE, symObjAddr: 0xF278, symBinAddr: 0x20C2C, symSize: 0x24 }
  - { offset: 0x124B0A, size: 0x8, addend: 0x0, symName: __ZNSt3__121__empty_non_own_stateIcED1Ev, symObjAddr: 0xF29C, symBinAddr: 0x20C50, symSize: 0x4 }
  - { offset: 0x124B36, size: 0x8, addend: 0x0, symName: __ZNSt3__121__empty_non_own_stateIcED0Ev, symObjAddr: 0xF2A0, symBinAddr: 0x20C54, symSize: 0x4 }
  - { offset: 0x124B62, size: 0x8, addend: 0x0, symName: __ZNKSt3__121__empty_non_own_stateIcE6__execERNS_7__stateIcEE, symObjAddr: 0xF2A4, symBinAddr: 0x20C58, symSize: 0x14 }
  - { offset: 0x124CBB, size: 0x8, addend: 0x0, symName: __ZNSt3__111basic_regexIcNS_12regex_traitsIcEEE32__parse_one_char_or_coll_elem_REIPKcEET_S7_S7_, symObjAddr: 0xF920, symBinAddr: 0x212C4, symSize: 0x104 }
  - { offset: 0x125027, size: 0x8, addend: 0x0, symName: __ZNSt3__111__match_anyIcED1Ev, symObjAddr: 0xFA3C, symBinAddr: 0x213C8, symSize: 0x48 }
  - { offset: 0x12504D, size: 0x8, addend: 0x0, symName: __ZNSt3__111__match_anyIcED1Ev, symObjAddr: 0xFA3C, symBinAddr: 0x213C8, symSize: 0x48 }
  - { offset: 0x12506D, size: 0x8, addend: 0x0, symName: __ZNSt3__111__match_anyIcED1Ev, symObjAddr: 0xFA3C, symBinAddr: 0x213C8, symSize: 0x48 }
  - { offset: 0x1250B5, size: 0x8, addend: 0x0, symName: __ZNSt3__111__match_anyIcED0Ev, symObjAddr: 0xFA84, symBinAddr: 0x21410, symSize: 0x48 }
  - { offset: 0x1250E6, size: 0x8, addend: 0x0, symName: __ZNSt3__111__match_anyIcED0Ev, symObjAddr: 0xFA84, symBinAddr: 0x21410, symSize: 0x48 }
  - { offset: 0x125106, size: 0x8, addend: 0x0, symName: __ZNSt3__111__match_anyIcED0Ev, symObjAddr: 0xFA84, symBinAddr: 0x21410, symSize: 0x48 }
  - { offset: 0x125126, size: 0x8, addend: 0x0, symName: __ZNSt3__111__match_anyIcED0Ev, symObjAddr: 0xFA84, symBinAddr: 0x21410, symSize: 0x48 }
  - { offset: 0x125152, size: 0x8, addend: 0x0, symName: __ZNKSt3__111__match_anyIcE6__execERNS_7__stateIcEE, symObjAddr: 0xFACC, symBinAddr: 0x21458, symSize: 0x40 }
  - { offset: 0x1251A5, size: 0x8, addend: 0x0, symName: __ZNSt3__111basic_regexIcNS_12regex_traitsIcEEE15__test_back_refEc, symObjAddr: 0xFB0C, symBinAddr: 0x21498, symSize: 0x60 }
  - { offset: 0x1252AD, size: 0x8, addend: 0x0, symName: __ZNSt3__111basic_regexIcNS_12regex_traitsIcEEE22__parse_ERE_expressionIPKcEET_S7_S7_, symObjAddr: 0xFB6C, symBinAddr: 0x214F8, symSize: 0x28C }
  - { offset: 0x125433, size: 0x8, addend: 0x0, symName: __ZNSt3__111basic_regexIcNS_12regex_traitsIcEEE23__parse_QUOTED_CHAR_EREIPKcEET_S7_S7_, symObjAddr: 0xFED4, symBinAddr: 0x2180C, symSize: 0xCC }
  - { offset: 0x125D24, size: 0x8, addend: 0x0, symName: _OUTLINED_FUNCTION_0, symObjAddr: 0x1102C, symBinAddr: 0x21F58, symSize: 0x10 }
  - { offset: 0x125D3C, size: 0x8, addend: 0x0, symName: _OUTLINED_FUNCTION_1, symObjAddr: 0x1103C, symBinAddr: 0x21F68, symSize: 0xC }
  - { offset: 0x125D54, size: 0x8, addend: 0x0, symName: _OUTLINED_FUNCTION_2, symObjAddr: 0x11048, symBinAddr: 0x21F74, symSize: 0xC }
  - { offset: 0x125D6C, size: 0x8, addend: 0x0, symName: _OUTLINED_FUNCTION_3, symObjAddr: 0x11054, symBinAddr: 0x21F80, symSize: 0x8 }
  - { offset: 0x125D84, size: 0x8, addend: 0x0, symName: _OUTLINED_FUNCTION_4, symObjAddr: 0x1105C, symBinAddr: 0x21F88, symSize: 0x8 }
  - { offset: 0x125D9C, size: 0x8, addend: 0x0, symName: _OUTLINED_FUNCTION_5, symObjAddr: 0x11064, symBinAddr: 0x21F90, symSize: 0x8 }
  - { offset: 0x125DB4, size: 0x8, addend: 0x0, symName: _OUTLINED_FUNCTION_6, symObjAddr: 0x1106C, symBinAddr: 0x21F98, symSize: 0x24 }
  - { offset: 0x125DCC, size: 0x8, addend: 0x0, symName: _OUTLINED_FUNCTION_7, symObjAddr: 0x11090, symBinAddr: 0x21FBC, symSize: 0x8 }
  - { offset: 0x12B426, size: 0x8, addend: 0x0, symName: __ZN5godot18create_method_bindI18SentryLoggerLimitsJiEEEPNS_10MethodBindEMT_FvDpT0_E, symObjAddr: 0x8238, symBinAddr: 0x28D10, symSize: 0x11C }
  - { offset: 0x12B556, size: 0x8, addend: 0x0, symName: __ZN5godot18create_method_bindI18SentryLoggerLimitsiJEEEPNS_10MethodBindEMT_FT0_DpT1_E, symObjAddr: 0x87C0, symBinAddr: 0x292F8, symSize: 0x128 }
  - { offset: 0x12B788, size: 0x8, addend: 0x0, symName: __ZN5godot18create_method_bindI13SentryOptionsJbEEEPNS_10MethodBindEMT_FvDpT0_E, symObjAddr: 0x8C78, symBinAddr: 0x29714, symSize: 0x11C }
  - { offset: 0x12B8A3, size: 0x8, addend: 0x0, symName: __ZN5godot18create_method_bindI13SentryOptionsbJEEEPNS_10MethodBindEMT_KFT0_DpT1_E, symObjAddr: 0x91FC, symBinAddr: 0x29CF8, symSize: 0x134 }
  - { offset: 0x12B9C1, size: 0x8, addend: 0x0, symName: __ZN5godot18create_method_bindI13SentryOptionsJRKNS_6StringEEEEPNS_10MethodBindEMT_FvDpT0_E, symObjAddr: 0x956C, symBinAddr: 0x2A0FC, symSize: 0x11C }
  - { offset: 0x12BADC, size: 0x8, addend: 0x0, symName: __ZN5godot18create_method_bindI13SentryOptionsNS_6StringEJEEEPNS_10MethodBindEMT_KFT0_DpT1_E, symObjAddr: 0x9B58, symBinAddr: 0x2A218, symSize: 0x134 }
  - { offset: 0x12BBFA, size: 0x8, addend: 0x0, symName: __ZN5godot18create_method_bindI13SentryOptionsJN6sentry5LevelEEEEPNS_10MethodBindEMT_FvDpT0_E, symObjAddr: 0x9F40, symBinAddr: 0x2A394, symSize: 0x11C }
  - { offset: 0x12BD15, size: 0x8, addend: 0x0, symName: __ZN5godot18create_method_bindI13SentryOptionsN6sentry5LevelEJEEEPNS_10MethodBindEMT_KFT0_DpT1_E, symObjAddr: 0xA658, symBinAddr: 0x2A4B0, symSize: 0x134 }
  - { offset: 0x12BE33, size: 0x8, addend: 0x0, symName: __ZN5godot18create_method_bindI13SentryOptionsJdEEEPNS_10MethodBindEMT_FvDpT0_E, symObjAddr: 0xA8D8, symBinAddr: 0x2A608, symSize: 0x11C }
  - { offset: 0x12BF4E, size: 0x8, addend: 0x0, symName: __ZN5godot18create_method_bindI13SentryOptionsdJEEEPNS_10MethodBindEMT_KFT0_DpT1_E, symObjAddr: 0xAE5C, symBinAddr: 0x2ABEC, symSize: 0x134 }
  - { offset: 0x12C06C, size: 0x8, addend: 0x0, symName: __ZN5godot18create_method_bindI13SentryOptionsJiEEEPNS_10MethodBindEMT_FvDpT0_E, symObjAddr: 0xB1B8, symBinAddr: 0x2AFDC, symSize: 0x11C }
  - { offset: 0x12C187, size: 0x8, addend: 0x0, symName: __ZN5godot18create_method_bindI13SentryOptionsiJEEEPNS_10MethodBindEMT_KFT0_DpT1_E, symObjAddr: 0xB2D4, symBinAddr: 0x2B0F8, symSize: 0x134 }
  - { offset: 0x12C2A5, size: 0x8, addend: 0x0, symName: __ZN5godot18create_method_bindI13SentryOptionsJNS_8BitFieldIN6sentry14GodotErrorMaskEEEEEEPNS_10MethodBindEMT_FvDpT0_E, symObjAddr: 0xB6C0, symBinAddr: 0x2B578, symSize: 0x11C }
  - { offset: 0x12C3C0, size: 0x8, addend: 0x0, symName: __ZN5godot18create_method_bindI13SentryOptionsNS_8BitFieldIN6sentry14GodotErrorMaskEEEJEEEPNS_10MethodBindEMT_KFT0_DpT1_E, symObjAddr: 0xBCC4, symBinAddr: 0x2BBDC, symSize: 0x134 }
  - { offset: 0x12C4DE, size: 0x8, addend: 0x0, symName: __ZN5godot18create_method_bindI13SentryOptionsJRKNS_3RefI18SentryLoggerLimitsEEEEEPNS_10MethodBindEMT_FvDpT0_E, symObjAddr: 0xBF44, symBinAddr: 0x2BEF0, symSize: 0x11C }
  - { offset: 0x12C5F9, size: 0x8, addend: 0x0, symName: __ZN5godot18create_method_bindI13SentryOptionsNS_3RefI18SentryLoggerLimitsEEJEEEPNS_10MethodBindEMT_KFT0_DpT1_E, symObjAddr: 0xC720, symBinAddr: 0x2C7A8, symSize: 0x134 }
  - { offset: 0x12C717, size: 0x8, addend: 0x0, symName: __ZN5godot18create_method_bindI13SentryOptionsJRKNS_8CallableEEEEPNS_10MethodBindEMT_FvDpT0_E, symObjAddr: 0xCBA4, symBinAddr: 0x2CC64, symSize: 0x11C }
  - { offset: 0x12C832, size: 0x8, addend: 0x0, symName: __ZN5godot18create_method_bindI13SentryOptionsNS_8CallableEJEEEPNS_10MethodBindEMT_KFT0_DpT1_E, symObjAddr: 0xD190, symBinAddr: 0x2D340, symSize: 0x134 }
  - { offset: 0x12CB0E, size: 0x8, addend: 0x0, symName: __ZN5godot34call_get_argument_type_info_helperIiEEviRiRNS_12PropertyInfoE, symObjAddr: 0x8524, symBinAddr: 0x28FE8, symSize: 0x174 }
  - { offset: 0x12CCCC, size: 0x8, addend: 0x0, symName: __ZN5godot25call_with_variant_args_dvINS_20_gde_UnexistingClassEJiEEEvPT_MS2_FvDpT0_EPKPKviR20GDExtensionCallErrorRKNSt3__16vectorINS_7VariantENSE_9allocatorISG_EEEE, symObjAddr: 0x8698, symBinAddr: 0x2915C, symSize: 0x19C }
  - { offset: 0x12D436, size: 0x8, addend: 0x0, symName: __ZN5godot34call_get_argument_type_info_helperIbEEviRiRNS_12PropertyInfoE, symObjAddr: 0x8F60, symBinAddr: 0x299E8, symSize: 0x174 }
  - { offset: 0x12D569, size: 0x8, addend: 0x0, symName: __ZN5godot25call_with_variant_args_dvINS_20_gde_UnexistingClassEJbEEEvPT_MS2_FvDpT0_EPKPKviR20GDExtensionCallErrorRKNSt3__16vectorINS_7VariantENSE_9allocatorISG_EEEE, symObjAddr: 0x90D4, symBinAddr: 0x29B5C, symSize: 0x19C }
  - { offset: 0x12E11D, size: 0x8, addend: 0x0, symName: __ZN5godot34call_get_argument_type_info_helperIdEEviRiRNS_12PropertyInfoE, symObjAddr: 0xABC4, symBinAddr: 0x2A8E0, symSize: 0x174 }
  - { offset: 0x12E2DB, size: 0x8, addend: 0x0, symName: __ZN5godot25call_with_variant_args_dvINS_20_gde_UnexistingClassEJdEEEvPT_MS2_FvDpT0_EPKPKviR20GDExtensionCallErrorRKNSt3__16vectorINS_7VariantENSE_9allocatorISG_EEEE, symObjAddr: 0xAD38, symBinAddr: 0x2AA54, symSize: 0x198 }
  - { offset: 0x12ED1E, size: 0x8, addend: 0x0, symName: __ZN5godot34call_get_argument_type_info_helperINS_8BitFieldIN6sentry14GodotErrorMaskEEEEEviRiRNS_12PropertyInfoE, symObjAddr: 0xB9A4, symBinAddr: 0x2B848, symSize: 0xD4 }
  - { offset: 0x12EDDE, size: 0x8, addend: 0x0, symName: __ZN5godot25call_with_variant_args_dvINS_20_gde_UnexistingClassEJNS_8BitFieldIN6sentry14GodotErrorMaskEEEEEEvPT_MS6_FvDpT0_EPKPKviR20GDExtensionCallErrorRKNSt3__16vectorINS_7VariantENSI_9allocatorISK_EEEE, symObjAddr: 0xBB9C, symBinAddr: 0x2BA40, symSize: 0x19C }
  - { offset: 0x12F527, size: 0x8, addend: 0x0, symName: __ZN5godot34call_get_argument_type_info_helperIRKNS_3RefI18SentryLoggerLimitsEEEEviRiRNS_12PropertyInfoE, symObjAddr: 0xC2C8, symBinAddr: 0x2C24C, symSize: 0xD4 }
  - { offset: 0x12F5E7, size: 0x8, addend: 0x0, symName: __ZN5godot25call_with_variant_args_dvINS_20_gde_UnexistingClassEJRKNS_3RefI18SentryLoggerLimitsEEEEEvPT_MS7_FvDpT0_EPKPKviR20GDExtensionCallErrorRKNSt3__16vectorINS_7VariantENSJ_9allocatorISL_EEEE, symObjAddr: 0xC4C8, symBinAddr: 0x2C44C, symSize: 0x148 }
  - { offset: 0x12FAF0, size: 0x8, addend: 0x0, symName: __ZN5godot30call_with_variant_args_retc_dvINS_20_gde_UnexistingClassENS_3RefI18SentryLoggerLimitsEEJEEEvPT_MS5_KFT0_DpT1_EPKPKviRNS_7VariantER20GDExtensionCallErrorRKNSt3__16vectorISG_NSK_9allocatorISG_EEEE, symObjAddr: 0xCAAC, symBinAddr: 0x2CB34, symSize: 0x11C }
  - { offset: 0x12FF7F, size: 0x8, addend: 0x0, symName: __ZN5godot34call_get_argument_type_info_helperIRKNS_8CallableEEEviRiRNS_12PropertyInfoE, symObjAddr: 0xCEE8, symBinAddr: 0x2CF94, symSize: 0x174 }
  - { offset: 0x1300B2, size: 0x8, addend: 0x0, symName: __ZN5godot25call_with_variant_args_dvINS_20_gde_UnexistingClassEJRKNS_8CallableEEEEvPT_MS5_FvDpT0_EPKPKviR20GDExtensionCallErrorRKNSt3__16vectorINS_7VariantENSH_9allocatorISJ_EEEE, symObjAddr: 0xD05C, symBinAddr: 0x2D108, symSize: 0x148 }
  - { offset: 0x13C7D2, size: 0x8, addend: 0x0, symName: __ZN13SentryOptions9singletonE, symObjAddr: 0x183658, symBinAddr: 0x1DA0A8, symSize: 0x0 }
  - { offset: 0x13D4D0, size: 0x8, addend: 0x0, symName: __ZN13SentryOptions16create_singletonEv, symObjAddr: 0x2A08, symBinAddr: 0x2480C, symSize: 0x138 }
  - { offset: 0x13D4F2, size: 0x8, addend: 0x0, symName: __ZZN13SentryOptions16create_singletonEvE20are_settings_defined, symObjAddr: 0x183660, symBinAddr: 0x1D114C, symSize: 0x0 }
  - { offset: 0x13D6C9, size: 0x8, addend: 0x0, symName: __ZN12_GLOBAL__N_115_define_settingERKN5godot6StringERKNS0_7VariantEb, symObjAddr: 0x1A74, symBinAddr: 0x23898, symSize: 0x104 }
  - { offset: 0x13D6EF, size: 0x8, addend: 0x0, symName: __ZZN12_GLOBAL__N_115_define_settingERKN5godot6StringERKNS0_7VariantEbE18config_value_order, symObjAddr: 0x183664, symBinAddr: 0x1D1150, symSize: 0x0 }
  - { offset: 0x13D72A, size: 0x8, addend: 0x0, symName: __ZN12_GLOBAL__N_115_define_settingERKN5godot12PropertyInfoERKNS0_7VariantEb, symObjAddr: 0x1B78, symBinAddr: 0x2399C, symSize: 0xDC }
  - { offset: 0x13E580, size: 0x8, addend: 0x0, symName: ___cxx_global_var_init, symObjAddr: 0xEF04, symBinAddr: 0x2D7F0, symSize: 0x4C }
  - { offset: 0x13E607, size: 0x8, addend: 0x0, symName: ___cxx_global_var_init.1, symObjAddr: 0xEF50, symBinAddr: 0x2D83C, symSize: 0x4C }
  - { offset: 0x13E68E, size: 0x8, addend: 0x0, symName: ___cxx_global_var_init.2, symObjAddr: 0xEF9C, symBinAddr: 0x2D888, symSize: 0x4C }
  - { offset: 0x13E715, size: 0x8, addend: 0x0, symName: ___cxx_global_var_init.3, symObjAddr: 0xEFE8, symBinAddr: 0x2D8D4, symSize: 0x4C }
  - { offset: 0x13E79C, size: 0x8, addend: 0x0, symName: ___cxx_global_var_init.4, symObjAddr: 0xF034, symBinAddr: 0x2D920, symSize: 0x4C }
  - { offset: 0x13E823, size: 0x8, addend: 0x0, symName: ___cxx_global_var_init.5, symObjAddr: 0xF080, symBinAddr: 0x2D96C, symSize: 0x4C }
  - { offset: 0x13E8AA, size: 0x8, addend: 0x0, symName: ___cxx_global_var_init.6, symObjAddr: 0xF0CC, symBinAddr: 0x2D9B8, symSize: 0x4C }
  - { offset: 0x13E931, size: 0x8, addend: 0x0, symName: ___cxx_global_var_init.7, symObjAddr: 0xF118, symBinAddr: 0x2DA04, symSize: 0x4C }
  - { offset: 0x13ED83, size: 0x8, addend: 0x0, symName: __ZN18SentryLoggerLimits13_bind_methodsEv, symObjAddr: 0x0, symBinAddr: 0x222D4, symSize: 0xA10 }
  - { offset: 0x140966, size: 0x8, addend: 0x0, symName: __ZN18SentryLoggerLimits13_bind_methodsEv.cold.1, symObjAddr: 0xD558, symBinAddr: 0x11CF98, symSize: 0x5C }
  - { offset: 0x140994, size: 0x8, addend: 0x0, symName: __ZN18SentryLoggerLimits13_bind_methodsEv.cold.2, symObjAddr: 0xD5B4, symBinAddr: 0x11CFF4, symSize: 0x58 }
  - { offset: 0x1409C2, size: 0x8, addend: 0x0, symName: __ZN18SentryLoggerLimits13_bind_methodsEv.cold.3, symObjAddr: 0xD60C, symBinAddr: 0x11D04C, symSize: 0x58 }
  - { offset: 0x1409F0, size: 0x8, addend: 0x0, symName: __ZN18SentryLoggerLimits13_bind_methodsEv.cold.4, symObjAddr: 0xD664, symBinAddr: 0x11D0A4, symSize: 0x58 }
  - { offset: 0x140A53, size: 0x8, addend: 0x0, symName: __ZN5godot3RefI13SentryOptionsED1Ev, symObjAddr: 0xB50, symBinAddr: 0x22CE4, symSize: 0x4C }
  - { offset: 0x140B68, size: 0x8, addend: 0x0, symName: __ZN13SentryOptions24_define_project_settingsERKN5godot3RefIS_EE, symObjAddr: 0xB9C, symBinAddr: 0x22D30, symSize: 0xB68 }
  - { offset: 0x141CA1, size: 0x8, addend: 0x0, symName: __ZN13SentryOptions24_define_project_settingsERKN5godot3RefIS_EE.cold.2, symObjAddr: 0xD6DC, symBinAddr: 0x11D11C, symSize: 0x20 }
  - { offset: 0x141CB9, size: 0x8, addend: 0x0, symName: __ZN13SentryOptions24_define_project_settingsERKN5godot3RefIS_EE.cold.1, symObjAddr: 0xD6BC, symBinAddr: 0x11D0FC, symSize: 0x20 }
  - { offset: 0x141CF6, size: 0x8, addend: 0x0, symName: __ZNK5godot12PropertyInfocvNS_10DictionaryEEv, symObjAddr: 0x7398, symBinAddr: 0x28AAC, symSize: 0x254 }
  - { offset: 0x141FE8, size: 0x8, addend: 0x0, symName: __ZN13SentryOptions22_load_project_settingsERKN5godot3RefIS_EE, symObjAddr: 0x1C54, symBinAddr: 0x23A78, symSize: 0xD38 }
  - { offset: 0x142B6D, size: 0x8, addend: 0x0, symName: __ZN13SentryOptions22_load_project_settingsERKN5godot3RefIS_EE.cold.3, symObjAddr: 0xD74C, symBinAddr: 0x11D18C, symSize: 0x20 }
  - { offset: 0x142B85, size: 0x8, addend: 0x0, symName: __ZN13SentryOptions22_load_project_settingsERKN5godot3RefIS_EE.cold.2, symObjAddr: 0xD72C, symBinAddr: 0x11D16C, symSize: 0x20 }
  - { offset: 0x142B9D, size: 0x8, addend: 0x0, symName: __ZN13SentryOptions22_load_project_settingsERKN5godot3RefIS_EE.cold.1, symObjAddr: 0xD6FC, symBinAddr: 0x11D13C, symSize: 0x30 }
  - { offset: 0x142BCB, size: 0x8, addend: 0x0, symName: __ZN13SentryOptions18_init_debug_optionENS_9DebugModeE, symObjAddr: 0x298C, symBinAddr: 0x247B0, symSize: 0x5C }
  - { offset: 0x142C06, size: 0x8, addend: 0x0, symName: __ZN13SentryOptions18_init_debug_optionENS_9DebugModeE.cold.1, symObjAddr: 0xD76C, symBinAddr: 0x11D1AC, symSize: 0x20 }
  - { offset: 0x142D2C, size: 0x8, addend: 0x0, symName: __ZN13SentryOptionsC2Ev, symObjAddr: 0x70F0, symBinAddr: 0x28830, symSize: 0x174 }
  - { offset: 0x142EB7, size: 0x8, addend: 0x0, symName: __ZN13SentryOptions16create_singletonEv.cold.1, symObjAddr: 0xD78C, symBinAddr: 0x11D1CC, symSize: 0x5C }
  - { offset: 0x142F27, size: 0x8, addend: 0x0, symName: __ZN13SentryOptionsC1Ev, symObjAddr: 0x2B38, symBinAddr: 0x24944, symSize: 0x4 }
  - { offset: 0x142F4B, size: 0x8, addend: 0x0, symName: __ZN13SentryOptionsC1Ev, symObjAddr: 0x2B38, symBinAddr: 0x24944, symSize: 0x4 }
  - { offset: 0x142F5F, size: 0x8, addend: 0x0, symName: __ZN13SentryOptions17destroy_singletonEv, symObjAddr: 0x2B3C, symBinAddr: 0x24948, symSize: 0x48 }
  - { offset: 0x143055, size: 0x8, addend: 0x0, symName: __ZN13SentryOptions17set_logger_limitsERKN5godot3RefI18SentryLoggerLimitsEE, symObjAddr: 0x2B84, symBinAddr: 0x24990, symSize: 0x80 }
  - { offset: 0x14314D, size: 0x8, addend: 0x0, symName: __ZN5godot3RefI18SentryLoggerLimitsE11instantiateEv, symObjAddr: 0x2C04, symBinAddr: 0x24A10, symSize: 0x190 }
  - { offset: 0x1434FA, size: 0x8, addend: 0x0, symName: __ZN5godot3RefI18SentryLoggerLimitsE11instantiateEv.cold.1, symObjAddr: 0xD7E8, symBinAddr: 0x11D228, symSize: 0x5C }
  - { offset: 0x143DAA, size: 0x8, addend: 0x0, symName: __ZN13SentryOptions13_bind_methodsEv, symObjAddr: 0x2D80, symBinAddr: 0x24BA0, symSize: 0x3C90 }
  - { offset: 0x14E683, size: 0x8, addend: 0x0, symName: __ZN5godot11GetTypeInfoINS_8BitFieldIN6sentry14GodotErrorMaskEEEvE14get_class_infoEv, symObjAddr: 0xBA78, symBinAddr: 0x2B91C, symSize: 0x124 }
  - { offset: 0x14E734, size: 0x8, addend: 0x0, symName: __ZN13SentryOptions13_bind_methodsEv.cold.1, symObjAddr: 0xD844, symBinAddr: 0x11D284, symSize: 0x5C }
  - { offset: 0x14E762, size: 0x8, addend: 0x0, symName: __ZN13SentryOptions13_bind_methodsEv.cold.2, symObjAddr: 0xD8A0, symBinAddr: 0x11D2E0, symSize: 0x58 }
  - { offset: 0x14E790, size: 0x8, addend: 0x0, symName: __ZN13SentryOptions13_bind_methodsEv.cold.3, symObjAddr: 0xD8F8, symBinAddr: 0x11D338, symSize: 0x58 }
  - { offset: 0x14E7BE, size: 0x8, addend: 0x0, symName: __ZN13SentryOptions13_bind_methodsEv.cold.4, symObjAddr: 0xD950, symBinAddr: 0x11D390, symSize: 0x58 }
  - { offset: 0x14E7EC, size: 0x8, addend: 0x0, symName: __ZN13SentryOptions13_bind_methodsEv.cold.5, symObjAddr: 0xD9A8, symBinAddr: 0x11D3E8, symSize: 0x58 }
  - { offset: 0x14E81A, size: 0x8, addend: 0x0, symName: __ZN13SentryOptions13_bind_methodsEv.cold.6, symObjAddr: 0xDA00, symBinAddr: 0x11D440, symSize: 0x58 }
  - { offset: 0x14E848, size: 0x8, addend: 0x0, symName: __ZN13SentryOptions13_bind_methodsEv.cold.7, symObjAddr: 0xDA58, symBinAddr: 0x11D498, symSize: 0x58 }
  - { offset: 0x14E876, size: 0x8, addend: 0x0, symName: __ZN13SentryOptions13_bind_methodsEv.cold.8, symObjAddr: 0xDAB0, symBinAddr: 0x11D4F0, symSize: 0x58 }
  - { offset: 0x14E8A4, size: 0x8, addend: 0x0, symName: __ZN13SentryOptions13_bind_methodsEv.cold.9, symObjAddr: 0xDB08, symBinAddr: 0x11D548, symSize: 0x58 }
  - { offset: 0x14E8D2, size: 0x8, addend: 0x0, symName: __ZN13SentryOptions13_bind_methodsEv.cold.10, symObjAddr: 0xDB60, symBinAddr: 0x11D5A0, symSize: 0x58 }
  - { offset: 0x14E900, size: 0x8, addend: 0x0, symName: __ZN13SentryOptions13_bind_methodsEv.cold.11, symObjAddr: 0xDBB8, symBinAddr: 0x11D5F8, symSize: 0x58 }
  - { offset: 0x14E92E, size: 0x8, addend: 0x0, symName: __ZN13SentryOptions13_bind_methodsEv.cold.12, symObjAddr: 0xDC10, symBinAddr: 0x11D650, symSize: 0x58 }
  - { offset: 0x14E95C, size: 0x8, addend: 0x0, symName: __ZN13SentryOptions13_bind_methodsEv.cold.13, symObjAddr: 0xDC68, symBinAddr: 0x11D6A8, symSize: 0x58 }
  - { offset: 0x14E98A, size: 0x8, addend: 0x0, symName: __ZN13SentryOptions13_bind_methodsEv.cold.14, symObjAddr: 0xDCC0, symBinAddr: 0x11D700, symSize: 0x58 }
  - { offset: 0x14E9B8, size: 0x8, addend: 0x0, symName: __ZN13SentryOptions13_bind_methodsEv.cold.15, symObjAddr: 0xDD18, symBinAddr: 0x11D758, symSize: 0x58 }
  - { offset: 0x14E9E6, size: 0x8, addend: 0x0, symName: __ZN13SentryOptions13_bind_methodsEv.cold.16, symObjAddr: 0xDD70, symBinAddr: 0x11D7B0, symSize: 0x58 }
  - { offset: 0x14EA14, size: 0x8, addend: 0x0, symName: __ZN13SentryOptions13_bind_methodsEv.cold.17, symObjAddr: 0xDDC8, symBinAddr: 0x11D808, symSize: 0x58 }
  - { offset: 0x14EA42, size: 0x8, addend: 0x0, symName: __ZN13SentryOptions13_bind_methodsEv.cold.18, symObjAddr: 0xDE20, symBinAddr: 0x11D860, symSize: 0x58 }
  - { offset: 0x14EA70, size: 0x8, addend: 0x0, symName: __ZN13SentryOptions13_bind_methodsEv.cold.19, symObjAddr: 0xDE78, symBinAddr: 0x11D8B8, symSize: 0x58 }
  - { offset: 0x14EA9E, size: 0x8, addend: 0x0, symName: __ZN13SentryOptions13_bind_methodsEv.cold.20, symObjAddr: 0xDED0, symBinAddr: 0x11D910, symSize: 0x58 }
  - { offset: 0x14EACC, size: 0x8, addend: 0x0, symName: __ZN13SentryOptions13_bind_methodsEv.cold.21, symObjAddr: 0xDF28, symBinAddr: 0x11D968, symSize: 0x58 }
  - { offset: 0x14EAFA, size: 0x8, addend: 0x0, symName: __ZN13SentryOptions13_bind_methodsEv.cold.22, symObjAddr: 0xDF80, symBinAddr: 0x11D9C0, symSize: 0x58 }
  - { offset: 0x14EB28, size: 0x8, addend: 0x0, symName: __ZN13SentryOptions13_bind_methodsEv.cold.23, symObjAddr: 0xDFD8, symBinAddr: 0x11DA18, symSize: 0x58 }
  - { offset: 0x14EB56, size: 0x8, addend: 0x0, symName: __ZN13SentryOptions13_bind_methodsEv.cold.24, symObjAddr: 0xE030, symBinAddr: 0x11DA70, symSize: 0x58 }
  - { offset: 0x14EB84, size: 0x8, addend: 0x0, symName: __ZN13SentryOptions13_bind_methodsEv.cold.25, symObjAddr: 0xE088, symBinAddr: 0x11DAC8, symSize: 0x58 }
  - { offset: 0x14EBB2, size: 0x8, addend: 0x0, symName: __ZN13SentryOptions13_bind_methodsEv.cold.26, symObjAddr: 0xE0E0, symBinAddr: 0x11DB20, symSize: 0x58 }
  - { offset: 0x14EBE0, size: 0x8, addend: 0x0, symName: __ZN13SentryOptions13_bind_methodsEv.cold.27, symObjAddr: 0xE138, symBinAddr: 0x11DB78, symSize: 0x58 }
  - { offset: 0x14EC0E, size: 0x8, addend: 0x0, symName: __ZN13SentryOptions13_bind_methodsEv.cold.28, symObjAddr: 0xE190, symBinAddr: 0x11DBD0, symSize: 0x58 }
  - { offset: 0x14EC3C, size: 0x8, addend: 0x0, symName: __ZN13SentryOptions13_bind_methodsEv.cold.29, symObjAddr: 0xE1E8, symBinAddr: 0x11DC28, symSize: 0x58 }
  - { offset: 0x14ECEF, size: 0x8, addend: 0x0, symName: __ZN13SentryOptionsC2Ev.cold.1, symObjAddr: 0xE240, symBinAddr: 0x11DC80, symSize: 0x30 }
  - { offset: 0x14EE12, size: 0x8, addend: 0x0, symName: __ZN13SentryOptionsD2Ev, symObjAddr: 0x7278, symBinAddr: 0x289A4, symSize: 0xE8 }
  - { offset: 0x14F0E4, size: 0x8, addend: 0x0, symName: __ZN13SentryOptionsD2Ev.cold.1, symObjAddr: 0xE270, symBinAddr: 0x11DCB0, symSize: 0x1C }
  - { offset: 0x14F100, size: 0x8, addend: 0x0, symName: __ZN13SentryOptionsD2Ev.cold.1, symObjAddr: 0xE270, symBinAddr: 0x11DCB0, symSize: 0x1C }
  - { offset: 0x14F115, size: 0x8, addend: 0x0, symName: __ZN13SentryOptionsD2Ev.cold.1, symObjAddr: 0xE270, symBinAddr: 0x11DCB0, symSize: 0x1C }
  - { offset: 0x14F12A, size: 0x8, addend: 0x0, symName: __ZN13SentryOptionsD2Ev.cold.1, symObjAddr: 0xE270, symBinAddr: 0x11DCB0, symSize: 0x1C }
  - { offset: 0x14F13F, size: 0x8, addend: 0x0, symName: __ZN13SentryOptionsD2Ev.cold.1, symObjAddr: 0xE270, symBinAddr: 0x11DCB0, symSize: 0x1C }
  - { offset: 0x14F154, size: 0x8, addend: 0x0, symName: __ZN13SentryOptionsD2Ev.cold.1, symObjAddr: 0xE270, symBinAddr: 0x11DCB0, symSize: 0x1C }
  - { offset: 0x14F16B, size: 0x8, addend: 0x0, symName: __ZN13SentryOptionsD1Ev, symObjAddr: 0x7378, symBinAddr: 0x28A8C, symSize: 0x4 }
  - { offset: 0x14F18F, size: 0x8, addend: 0x0, symName: __ZN13SentryOptionsD1Ev, symObjAddr: 0x7378, symBinAddr: 0x28A8C, symSize: 0x4 }
  - { offset: 0x14F1BF, size: 0x8, addend: 0x0, symName: __ZN13SentryOptionsD0Ev, symObjAddr: 0x737C, symBinAddr: 0x28A90, symSize: 0x14 }
  - { offset: 0x14F21F, size: 0x8, addend: 0x0, symName: __ZNK13SentryOptions19_is_extension_classEv, symObjAddr: 0x7390, symBinAddr: 0x28AA4, symSize: 0x8 }
  - { offset: 0x14F26B, size: 0x8, addend: 0x0, symName: __ZN5godot10RefCountedD1Ev.cold.1, symObjAddr: 0xE28C, symBinAddr: 0x11DCCC, symSize: 0x1C }
  - { offset: 0x14F287, size: 0x8, addend: 0x0, symName: __ZN5godot10RefCountedD1Ev.cold.1, symObjAddr: 0xE28C, symBinAddr: 0x11DCCC, symSize: 0x1C }
  - { offset: 0x14F29C, size: 0x8, addend: 0x0, symName: __ZN5godot10RefCountedD1Ev.cold.1, symObjAddr: 0xE28C, symBinAddr: 0x11DCCC, symSize: 0x1C }
  - { offset: 0x14F2B1, size: 0x8, addend: 0x0, symName: __ZN5godot10RefCountedD1Ev.cold.1, symObjAddr: 0xE28C, symBinAddr: 0x11DCCC, symSize: 0x1C }
  - { offset: 0x14F2C6, size: 0x8, addend: 0x0, symName: __ZN5godot10RefCountedD1Ev.cold.1, symObjAddr: 0xE28C, symBinAddr: 0x11DCCC, symSize: 0x1C }
  - { offset: 0x14F2DB, size: 0x8, addend: 0x0, symName: __ZN5godot10RefCountedD1Ev.cold.1, symObjAddr: 0xE28C, symBinAddr: 0x11DCCC, symSize: 0x1C }
  - { offset: 0x14F30E, size: 0x8, addend: 0x0, symName: __ZN5godot10RefCountedD0Ev.cold.1, symObjAddr: 0xE2A8, symBinAddr: 0x11DCE8, symSize: 0x1C }
  - { offset: 0x14F32A, size: 0x8, addend: 0x0, symName: __ZN5godot10RefCountedD0Ev.cold.1, symObjAddr: 0xE2A8, symBinAddr: 0x11DCE8, symSize: 0x1C }
  - { offset: 0x14F33F, size: 0x8, addend: 0x0, symName: __ZN5godot10RefCountedD0Ev.cold.1, symObjAddr: 0xE2A8, symBinAddr: 0x11DCE8, symSize: 0x1C }
  - { offset: 0x14F354, size: 0x8, addend: 0x0, symName: __ZN5godot10RefCountedD0Ev.cold.1, symObjAddr: 0xE2A8, symBinAddr: 0x11DCE8, symSize: 0x1C }
  - { offset: 0x14F369, size: 0x8, addend: 0x0, symName: __ZN5godot10RefCountedD0Ev.cold.1, symObjAddr: 0xE2A8, symBinAddr: 0x11DCE8, symSize: 0x1C }
  - { offset: 0x14F37E, size: 0x8, addend: 0x0, symName: __ZN5godot10RefCountedD0Ev.cold.1, symObjAddr: 0xE2A8, symBinAddr: 0x11DCE8, symSize: 0x1C }
  - { offset: 0x14F393, size: 0x8, addend: 0x0, symName: __ZN5godot10RefCountedD0Ev.cold.1, symObjAddr: 0xE2A8, symBinAddr: 0x11DCE8, symSize: 0x1C }
  - { offset: 0x14F3AB, size: 0x8, addend: 0x0, symName: __ZN5godot6ObjectD1Ev.cold.1, symObjAddr: 0xE2C4, symBinAddr: 0x11DD04, symSize: 0x1C }
  - { offset: 0x14F3C7, size: 0x8, addend: 0x0, symName: __ZN5godot6ObjectD1Ev.cold.1, symObjAddr: 0xE2C4, symBinAddr: 0x11DD04, symSize: 0x1C }
  - { offset: 0x14F3DC, size: 0x8, addend: 0x0, symName: __ZN5godot6ObjectD1Ev.cold.1, symObjAddr: 0xE2C4, symBinAddr: 0x11DD04, symSize: 0x1C }
  - { offset: 0x14F3F1, size: 0x8, addend: 0x0, symName: __ZN5godot6ObjectD1Ev.cold.1, symObjAddr: 0xE2C4, symBinAddr: 0x11DD04, symSize: 0x1C }
  - { offset: 0x14F406, size: 0x8, addend: 0x0, symName: __ZN5godot6ObjectD1Ev.cold.1, symObjAddr: 0xE2C4, symBinAddr: 0x11DD04, symSize: 0x1C }
  - { offset: 0x14F436, size: 0x8, addend: 0x0, symName: __ZN5godot6ObjectD0Ev.cold.1, symObjAddr: 0xE2E0, symBinAddr: 0x11DD20, symSize: 0x1C }
  - { offset: 0x14F452, size: 0x8, addend: 0x0, symName: __ZN5godot6ObjectD0Ev.cold.1, symObjAddr: 0xE2E0, symBinAddr: 0x11DD20, symSize: 0x1C }
  - { offset: 0x14F467, size: 0x8, addend: 0x0, symName: __ZN5godot6ObjectD0Ev.cold.1, symObjAddr: 0xE2E0, symBinAddr: 0x11DD20, symSize: 0x1C }
  - { offset: 0x14F47C, size: 0x8, addend: 0x0, symName: __ZN5godot6ObjectD0Ev.cold.1, symObjAddr: 0xE2E0, symBinAddr: 0x11DD20, symSize: 0x1C }
  - { offset: 0x14F491, size: 0x8, addend: 0x0, symName: __ZN5godot6ObjectD0Ev.cold.1, symObjAddr: 0xE2E0, symBinAddr: 0x11DD20, symSize: 0x1C }
  - { offset: 0x14F4A6, size: 0x8, addend: 0x0, symName: __ZN5godot6ObjectD0Ev.cold.1, symObjAddr: 0xE2E0, symBinAddr: 0x11DD20, symSize: 0x1C }
  - { offset: 0x14F4BD, size: 0x8, addend: 0x0, symName: __ZN5godot7WrappedD1Ev.cold.1, symObjAddr: 0xE2FC, symBinAddr: 0x11DD3C, symSize: 0x1C }
  - { offset: 0x14F4D9, size: 0x8, addend: 0x0, symName: __ZN5godot7WrappedD1Ev.cold.1, symObjAddr: 0xE2FC, symBinAddr: 0x11DD3C, symSize: 0x1C }
  - { offset: 0x14F4EE, size: 0x8, addend: 0x0, symName: __ZN5godot7WrappedD1Ev.cold.1, symObjAddr: 0xE2FC, symBinAddr: 0x11DD3C, symSize: 0x1C }
  - { offset: 0x14F503, size: 0x8, addend: 0x0, symName: __ZN5godot7WrappedD1Ev.cold.1, symObjAddr: 0xE2FC, symBinAddr: 0x11DD3C, symSize: 0x1C }
  - { offset: 0x14F532, size: 0x8, addend: 0x0, symName: __ZN5godot7WrappedD0Ev.cold.1, symObjAddr: 0xE318, symBinAddr: 0x11DD58, symSize: 0x1C }
  - { offset: 0x14F54E, size: 0x8, addend: 0x0, symName: __ZN5godot7WrappedD0Ev.cold.1, symObjAddr: 0xE318, symBinAddr: 0x11DD58, symSize: 0x1C }
  - { offset: 0x14F563, size: 0x8, addend: 0x0, symName: __ZN5godot7WrappedD0Ev.cold.1, symObjAddr: 0xE318, symBinAddr: 0x11DD58, symSize: 0x1C }
  - { offset: 0x14F578, size: 0x8, addend: 0x0, symName: __ZN5godot7WrappedD0Ev.cold.1, symObjAddr: 0xE318, symBinAddr: 0x11DD58, symSize: 0x1C }
  - { offset: 0x14F58D, size: 0x8, addend: 0x0, symName: __ZN5godot7WrappedD0Ev.cold.1, symObjAddr: 0xE318, symBinAddr: 0x11DD58, symSize: 0x1C }
  - { offset: 0x14F5DB, size: 0x8, addend: 0x0, symName: __ZN5godot4ListINS_12PropertyInfoENS_16DefaultAllocatorEE5_Data5eraseEPNS3_7ElementE.cold.2, symObjAddr: 0xE354, symBinAddr: 0x11DD94, symSize: 0x20 }
  - { offset: 0x14F5F3, size: 0x8, addend: 0x0, symName: __ZN5godot4ListINS_12PropertyInfoENS_16DefaultAllocatorEE5_Data5eraseEPNS3_7ElementE.cold.1, symObjAddr: 0xE334, symBinAddr: 0x11DD74, symSize: 0x20 }
  - { offset: 0x14F612, size: 0x8, addend: 0x0, symName: __ZN5godot8internal23EngineClassRegistrationINS_6ObjectEE8callbackEv.cold.1, symObjAddr: 0xE374, symBinAddr: 0x11DDB4, symSize: 0x5C }
  - { offset: 0x14F647, size: 0x8, addend: 0x0, symName: __ZN5godot8internal23EngineClassRegistrationINS_16ClassDBSingletonEE8callbackEv.cold.1, symObjAddr: 0xE3D0, symBinAddr: 0x11DE10, symSize: 0x5C }
  - { offset: 0x14F67C, size: 0x8, addend: 0x0, symName: __ZN5godot8internal23EngineClassRegistrationINS_10RefCountedEE8callbackEv.cold.1, symObjAddr: 0xE42C, symBinAddr: 0x11DE6C, symSize: 0x5C }
  - { offset: 0x14F6B1, size: 0x8, addend: 0x0, symName: __ZN5godot8internal23EngineClassRegistrationINS_6LoggerEE8callbackEv.cold.1, symObjAddr: 0xE488, symBinAddr: 0x11DEC8, symSize: 0x5C }
  - { offset: 0x14F6E6, size: 0x8, addend: 0x0, symName: __ZN5godot8internal23EngineClassRegistrationINS_10ConfigFileEE8callbackEv.cold.1, symObjAddr: 0xE4E4, symBinAddr: 0x11DF24, symSize: 0x5C }
  - { offset: 0x14F730, size: 0x8, addend: 0x0, symName: __ZN5godot10ConfigFileD1Ev.cold.1, symObjAddr: 0xE540, symBinAddr: 0x11DF80, symSize: 0x1C }
  - { offset: 0x14F74C, size: 0x8, addend: 0x0, symName: __ZN5godot10ConfigFileD1Ev.cold.1, symObjAddr: 0xE540, symBinAddr: 0x11DF80, symSize: 0x1C }
  - { offset: 0x14F761, size: 0x8, addend: 0x0, symName: __ZN5godot10ConfigFileD1Ev.cold.1, symObjAddr: 0xE540, symBinAddr: 0x11DF80, symSize: 0x1C }
  - { offset: 0x14F776, size: 0x8, addend: 0x0, symName: __ZN5godot10ConfigFileD1Ev.cold.1, symObjAddr: 0xE540, symBinAddr: 0x11DF80, symSize: 0x1C }
  - { offset: 0x14F78B, size: 0x8, addend: 0x0, symName: __ZN5godot10ConfigFileD1Ev.cold.1, symObjAddr: 0xE540, symBinAddr: 0x11DF80, symSize: 0x1C }
  - { offset: 0x14F7A0, size: 0x8, addend: 0x0, symName: __ZN5godot10ConfigFileD1Ev.cold.1, symObjAddr: 0xE540, symBinAddr: 0x11DF80, symSize: 0x1C }
  - { offset: 0x14F7B5, size: 0x8, addend: 0x0, symName: __ZN5godot10ConfigFileD1Ev.cold.1, symObjAddr: 0xE540, symBinAddr: 0x11DF80, symSize: 0x1C }
  - { offset: 0x14F7E9, size: 0x8, addend: 0x0, symName: __ZN5godot10ConfigFileD0Ev.cold.1, symObjAddr: 0xE55C, symBinAddr: 0x11DF9C, symSize: 0x1C }
  - { offset: 0x14F805, size: 0x8, addend: 0x0, symName: __ZN5godot10ConfigFileD0Ev.cold.1, symObjAddr: 0xE55C, symBinAddr: 0x11DF9C, symSize: 0x1C }
  - { offset: 0x14F81A, size: 0x8, addend: 0x0, symName: __ZN5godot10ConfigFileD0Ev.cold.1, symObjAddr: 0xE55C, symBinAddr: 0x11DF9C, symSize: 0x1C }
  - { offset: 0x14F82F, size: 0x8, addend: 0x0, symName: __ZN5godot10ConfigFileD0Ev.cold.1, symObjAddr: 0xE55C, symBinAddr: 0x11DF9C, symSize: 0x1C }
  - { offset: 0x14F844, size: 0x8, addend: 0x0, symName: __ZN5godot10ConfigFileD0Ev.cold.1, symObjAddr: 0xE55C, symBinAddr: 0x11DF9C, symSize: 0x1C }
  - { offset: 0x14F859, size: 0x8, addend: 0x0, symName: __ZN5godot10ConfigFileD0Ev.cold.1, symObjAddr: 0xE55C, symBinAddr: 0x11DF9C, symSize: 0x1C }
  - { offset: 0x14F86E, size: 0x8, addend: 0x0, symName: __ZN5godot10ConfigFileD0Ev.cold.1, symObjAddr: 0xE55C, symBinAddr: 0x11DF9C, symSize: 0x1C }
  - { offset: 0x14F883, size: 0x8, addend: 0x0, symName: __ZN5godot10ConfigFileD0Ev.cold.1, symObjAddr: 0xE55C, symBinAddr: 0x11DF9C, symSize: 0x1C }
  - { offset: 0x14F8A3, size: 0x8, addend: 0x0, symName: __ZN5godot8internal23EngineClassRegistrationINS_15ScriptBacktraceEE8callbackEv.cold.1, symObjAddr: 0xE578, symBinAddr: 0x11DFB8, symSize: 0x5C }
  - { offset: 0x14F8ED, size: 0x8, addend: 0x0, symName: __ZN5godot15ScriptBacktraceD1Ev.cold.1, symObjAddr: 0xE5D4, symBinAddr: 0x11E014, symSize: 0x1C }
  - { offset: 0x14F909, size: 0x8, addend: 0x0, symName: __ZN5godot15ScriptBacktraceD1Ev.cold.1, symObjAddr: 0xE5D4, symBinAddr: 0x11E014, symSize: 0x1C }
  - { offset: 0x14F91E, size: 0x8, addend: 0x0, symName: __ZN5godot15ScriptBacktraceD1Ev.cold.1, symObjAddr: 0xE5D4, symBinAddr: 0x11E014, symSize: 0x1C }
  - { offset: 0x14F933, size: 0x8, addend: 0x0, symName: __ZN5godot15ScriptBacktraceD1Ev.cold.1, symObjAddr: 0xE5D4, symBinAddr: 0x11E014, symSize: 0x1C }
  - { offset: 0x14F948, size: 0x8, addend: 0x0, symName: __ZN5godot15ScriptBacktraceD1Ev.cold.1, symObjAddr: 0xE5D4, symBinAddr: 0x11E014, symSize: 0x1C }
  - { offset: 0x14F95D, size: 0x8, addend: 0x0, symName: __ZN5godot15ScriptBacktraceD1Ev.cold.1, symObjAddr: 0xE5D4, symBinAddr: 0x11E014, symSize: 0x1C }
  - { offset: 0x14F972, size: 0x8, addend: 0x0, symName: __ZN5godot15ScriptBacktraceD1Ev.cold.1, symObjAddr: 0xE5D4, symBinAddr: 0x11E014, symSize: 0x1C }
  - { offset: 0x14F9A6, size: 0x8, addend: 0x0, symName: __ZN5godot15ScriptBacktraceD0Ev.cold.1, symObjAddr: 0xE5F0, symBinAddr: 0x11E030, symSize: 0x1C }
  - { offset: 0x14F9C2, size: 0x8, addend: 0x0, symName: __ZN5godot15ScriptBacktraceD0Ev.cold.1, symObjAddr: 0xE5F0, symBinAddr: 0x11E030, symSize: 0x1C }
  - { offset: 0x14F9D7, size: 0x8, addend: 0x0, symName: __ZN5godot15ScriptBacktraceD0Ev.cold.1, symObjAddr: 0xE5F0, symBinAddr: 0x11E030, symSize: 0x1C }
  - { offset: 0x14F9EC, size: 0x8, addend: 0x0, symName: __ZN5godot15ScriptBacktraceD0Ev.cold.1, symObjAddr: 0xE5F0, symBinAddr: 0x11E030, symSize: 0x1C }
  - { offset: 0x14FA01, size: 0x8, addend: 0x0, symName: __ZN5godot15ScriptBacktraceD0Ev.cold.1, symObjAddr: 0xE5F0, symBinAddr: 0x11E030, symSize: 0x1C }
  - { offset: 0x14FA16, size: 0x8, addend: 0x0, symName: __ZN5godot15ScriptBacktraceD0Ev.cold.1, symObjAddr: 0xE5F0, symBinAddr: 0x11E030, symSize: 0x1C }
  - { offset: 0x14FA2B, size: 0x8, addend: 0x0, symName: __ZN5godot15ScriptBacktraceD0Ev.cold.1, symObjAddr: 0xE5F0, symBinAddr: 0x11E030, symSize: 0x1C }
  - { offset: 0x14FA40, size: 0x8, addend: 0x0, symName: __ZN5godot15ScriptBacktraceD0Ev.cold.1, symObjAddr: 0xE5F0, symBinAddr: 0x11E030, symSize: 0x1C }
  - { offset: 0x14FA60, size: 0x8, addend: 0x0, symName: __ZN5godot8internal23EngineClassRegistrationINS_2OSEE8callbackEv.cold.1, symObjAddr: 0xE60C, symBinAddr: 0x11E04C, symSize: 0x5C }
  - { offset: 0x14FA95, size: 0x8, addend: 0x0, symName: __ZN5godot8internal23EngineClassRegistrationINS_15ProjectSettingsEE8callbackEv.cold.1, symObjAddr: 0xE668, symBinAddr: 0x11E0A8, symSize: 0x5C }
  - { offset: 0x14FAC3, size: 0x8, addend: 0x0, symName: __ZN18SentryLoggerLimits20set_events_per_frameEi, symObjAddr: 0x8228, symBinAddr: 0x28D00, symSize: 0x8 }
  - { offset: 0x14FAF6, size: 0x8, addend: 0x0, symName: __ZN18SentryLoggerLimits20get_events_per_frameEv, symObjAddr: 0x8230, symBinAddr: 0x28D08, symSize: 0x8 }
  - { offset: 0x14FBF3, size: 0x8, addend: 0x0, symName: __ZN5godot18create_method_bindI18SentryLoggerLimitsJiEEEPNS_10MethodBindEMT_FvDpT0_E.cold.1, symObjAddr: 0xE6C4, symBinAddr: 0x11E104, symSize: 0x5C }
  - { offset: 0x14FC22, size: 0x8, addend: 0x0, symName: __ZNK5godot11MethodBindTIJiEE17gen_argument_typeEi, symObjAddr: 0x8354, symBinAddr: 0x28E2C, symSize: 0x10 }
  - { offset: 0x14FCBA, size: 0x8, addend: 0x0, symName: __ZNK5godot11MethodBindTIJiEE22gen_argument_type_infoEi, symObjAddr: 0x8364, symBinAddr: 0x28E3C, symSize: 0x124 }
  - { offset: 0x14FE10, size: 0x8, addend: 0x0, symName: __ZNK5godot11MethodBindTIJiEE21get_argument_metadataEi, symObjAddr: 0x849C, symBinAddr: 0x28F60, symSize: 0x10 }
  - { offset: 0x14FEBB, size: 0x8, addend: 0x0, symName: __ZNK5godot11MethodBindTIJiEE4callEPvPKPKvxR20GDExtensionCallError, symObjAddr: 0x84AC, symBinAddr: 0x28F70, symSize: 0x40 }
  - { offset: 0x14FF7F, size: 0x8, addend: 0x0, symName: __ZNK5godot11MethodBindTIJiEE7ptrcallEPvPKPKvS2_, symObjAddr: 0x84EC, symBinAddr: 0x28FB0, symSize: 0x20 }
  - { offset: 0x150070, size: 0x8, addend: 0x0, symName: __ZN5godot11MethodBindTIJiEED1Ev, symObjAddr: 0x850C, symBinAddr: 0x28FD0, symSize: 0x4 }
  - { offset: 0x150094, size: 0x8, addend: 0x0, symName: __ZN5godot11MethodBindTIJiEED1Ev, symObjAddr: 0x850C, symBinAddr: 0x28FD0, symSize: 0x4 }
  - { offset: 0x1500CD, size: 0x8, addend: 0x0, symName: __ZN5godot11MethodBindTIJiEED0Ev, symObjAddr: 0x8510, symBinAddr: 0x28FD4, symSize: 0x14 }
  - { offset: 0x1501EE, size: 0x8, addend: 0x0, symName: __ZN5godot18create_method_bindI18SentryLoggerLimitsiJEEEPNS_10MethodBindEMT_FT0_DpT1_E.cold.1, symObjAddr: 0xE720, symBinAddr: 0x11E160, symSize: 0x5C }
  - { offset: 0x15021D, size: 0x8, addend: 0x0, symName: __ZNK5godot12MethodBindTRIiJEE17gen_argument_typeEi, symObjAddr: 0x88E8, symBinAddr: 0x29420, symSize: 0x8 }
  - { offset: 0x150253, size: 0x8, addend: 0x0, symName: __ZNK5godot12MethodBindTRIiJEE22gen_argument_type_infoEi, symObjAddr: 0x88F0, symBinAddr: 0x29428, symSize: 0xF8 }
  - { offset: 0x15031E, size: 0x8, addend: 0x0, symName: __ZNK5godot12MethodBindTRIiJEE21get_argument_metadataEi, symObjAddr: 0x89E8, symBinAddr: 0x29520, symSize: 0xC }
  - { offset: 0x15038D, size: 0x8, addend: 0x0, symName: __ZNK5godot12MethodBindTRIiJEE4callEPvPKPKvxR20GDExtensionCallError, symObjAddr: 0x89F4, symBinAddr: 0x2952C, symSize: 0x64 }
  - { offset: 0x1504D6, size: 0x8, addend: 0x0, symName: __ZNK5godot12MethodBindTRIiJEE7ptrcallEPvPKPKvS2_, symObjAddr: 0x8AB4, symBinAddr: 0x29590, symSize: 0x3C }
  - { offset: 0x1505CA, size: 0x8, addend: 0x0, symName: __ZN5godot12MethodBindTRIiJEED1Ev, symObjAddr: 0x8AF0, symBinAddr: 0x295CC, symSize: 0x4 }
  - { offset: 0x1505EE, size: 0x8, addend: 0x0, symName: __ZN5godot12MethodBindTRIiJEED1Ev, symObjAddr: 0x8AF0, symBinAddr: 0x295CC, symSize: 0x4 }
  - { offset: 0x150627, size: 0x8, addend: 0x0, symName: __ZN5godot12MethodBindTRIiJEED0Ev, symObjAddr: 0x8AF4, symBinAddr: 0x295D0, symSize: 0x14 }
  - { offset: 0x150691, size: 0x8, addend: 0x0, symName: __ZN18SentryLoggerLimits28set_repeated_error_window_msEi, symObjAddr: 0x8B08, symBinAddr: 0x296D4, symSize: 0x8 }
  - { offset: 0x1506C4, size: 0x8, addend: 0x0, symName: __ZN18SentryLoggerLimits28get_repeated_error_window_msEv, symObjAddr: 0x8B10, symBinAddr: 0x296DC, symSize: 0x8 }
  - { offset: 0x1506EB, size: 0x8, addend: 0x0, symName: __ZN18SentryLoggerLimits19set_throttle_eventsEi, symObjAddr: 0x8B18, symBinAddr: 0x296E4, symSize: 0x8 }
  - { offset: 0x15071E, size: 0x8, addend: 0x0, symName: __ZN18SentryLoggerLimits19get_throttle_eventsEv, symObjAddr: 0x8B20, symBinAddr: 0x296EC, symSize: 0x8 }
  - { offset: 0x150745, size: 0x8, addend: 0x0, symName: __ZN18SentryLoggerLimits22set_throttle_window_msEi, symObjAddr: 0x8B28, symBinAddr: 0x296F4, symSize: 0x8 }
  - { offset: 0x150778, size: 0x8, addend: 0x0, symName: __ZN18SentryLoggerLimits22get_throttle_window_msEv, symObjAddr: 0x8B30, symBinAddr: 0x296FC, symSize: 0x8 }
  - { offset: 0x1507BB, size: 0x8, addend: 0x0, symName: __ZN18SentryLoggerLimitsD1Ev.cold.1, symObjAddr: 0xE77C, symBinAddr: 0x11E1BC, symSize: 0x1C }
  - { offset: 0x1507D7, size: 0x8, addend: 0x0, symName: __ZN18SentryLoggerLimitsD1Ev.cold.1, symObjAddr: 0xE77C, symBinAddr: 0x11E1BC, symSize: 0x1C }
  - { offset: 0x1507EC, size: 0x8, addend: 0x0, symName: __ZN18SentryLoggerLimitsD1Ev.cold.1, symObjAddr: 0xE77C, symBinAddr: 0x11E1BC, symSize: 0x1C }
  - { offset: 0x150801, size: 0x8, addend: 0x0, symName: __ZN18SentryLoggerLimitsD1Ev.cold.1, symObjAddr: 0xE77C, symBinAddr: 0x11E1BC, symSize: 0x1C }
  - { offset: 0x150816, size: 0x8, addend: 0x0, symName: __ZN18SentryLoggerLimitsD1Ev.cold.1, symObjAddr: 0xE77C, symBinAddr: 0x11E1BC, symSize: 0x1C }
  - { offset: 0x15082B, size: 0x8, addend: 0x0, symName: __ZN18SentryLoggerLimitsD1Ev.cold.1, symObjAddr: 0xE77C, symBinAddr: 0x11E1BC, symSize: 0x1C }
  - { offset: 0x150840, size: 0x8, addend: 0x0, symName: __ZN18SentryLoggerLimitsD1Ev.cold.1, symObjAddr: 0xE77C, symBinAddr: 0x11E1BC, symSize: 0x1C }
  - { offset: 0x150874, size: 0x8, addend: 0x0, symName: __ZN18SentryLoggerLimitsD0Ev.cold.1, symObjAddr: 0xE798, symBinAddr: 0x11E1D8, symSize: 0x1C }
  - { offset: 0x150890, size: 0x8, addend: 0x0, symName: __ZN18SentryLoggerLimitsD0Ev.cold.1, symObjAddr: 0xE798, symBinAddr: 0x11E1D8, symSize: 0x1C }
  - { offset: 0x1508A5, size: 0x8, addend: 0x0, symName: __ZN18SentryLoggerLimitsD0Ev.cold.1, symObjAddr: 0xE798, symBinAddr: 0x11E1D8, symSize: 0x1C }
  - { offset: 0x1508BA, size: 0x8, addend: 0x0, symName: __ZN18SentryLoggerLimitsD0Ev.cold.1, symObjAddr: 0xE798, symBinAddr: 0x11E1D8, symSize: 0x1C }
  - { offset: 0x1508CF, size: 0x8, addend: 0x0, symName: __ZN18SentryLoggerLimitsD0Ev.cold.1, symObjAddr: 0xE798, symBinAddr: 0x11E1D8, symSize: 0x1C }
  - { offset: 0x1508E4, size: 0x8, addend: 0x0, symName: __ZN18SentryLoggerLimitsD0Ev.cold.1, symObjAddr: 0xE798, symBinAddr: 0x11E1D8, symSize: 0x1C }
  - { offset: 0x1508F9, size: 0x8, addend: 0x0, symName: __ZN18SentryLoggerLimitsD0Ev.cold.1, symObjAddr: 0xE798, symBinAddr: 0x11E1D8, symSize: 0x1C }
  - { offset: 0x15090E, size: 0x8, addend: 0x0, symName: __ZN18SentryLoggerLimitsD0Ev.cold.1, symObjAddr: 0xE798, symBinAddr: 0x11E1D8, symSize: 0x1C }
  - { offset: 0x150927, size: 0x8, addend: 0x0, symName: __ZN13SentryOptions11set_enabledEb, symObjAddr: 0x8C68, symBinAddr: 0x29704, symSize: 0x8 }
  - { offset: 0x150957, size: 0x8, addend: 0x0, symName: __ZNK13SentryOptions10is_enabledEv, symObjAddr: 0x8C70, symBinAddr: 0x2970C, symSize: 0x8 }
  - { offset: 0x1509DE, size: 0x8, addend: 0x0, symName: __ZN5godot18create_method_bindI13SentryOptionsJbEEEPNS_10MethodBindEMT_FvDpT0_E.cold.1, symObjAddr: 0xE7B4, symBinAddr: 0x11E1F4, symSize: 0x5C }
  - { offset: 0x150A0D, size: 0x8, addend: 0x0, symName: __ZNK5godot11MethodBindTIJbEE17gen_argument_typeEi, symObjAddr: 0x8D94, symBinAddr: 0x29830, symSize: 0xC }
  - { offset: 0x150A43, size: 0x8, addend: 0x0, symName: __ZNK5godot11MethodBindTIJbEE22gen_argument_type_infoEi, symObjAddr: 0x8DA0, symBinAddr: 0x2983C, symSize: 0x124 }
  - { offset: 0x150B8F, size: 0x8, addend: 0x0, symName: __ZNK5godot11MethodBindTIJbEE21get_argument_metadataEi, symObjAddr: 0x8ED8, symBinAddr: 0x29960, symSize: 0x8 }
  - { offset: 0x150BC5, size: 0x8, addend: 0x0, symName: __ZNK5godot11MethodBindTIJbEE4callEPvPKPKvxR20GDExtensionCallError, symObjAddr: 0x8EE0, symBinAddr: 0x29968, symSize: 0x40 }
  - { offset: 0x150C89, size: 0x8, addend: 0x0, symName: __ZNK5godot11MethodBindTIJbEE7ptrcallEPvPKPKvS2_, symObjAddr: 0x8F20, symBinAddr: 0x299A8, symSize: 0x28 }
  - { offset: 0x150D7C, size: 0x8, addend: 0x0, symName: __ZN5godot11MethodBindTIJbEED1Ev, symObjAddr: 0x8F48, symBinAddr: 0x299D0, symSize: 0x4 }
  - { offset: 0x150DA0, size: 0x8, addend: 0x0, symName: __ZN5godot11MethodBindTIJbEED1Ev, symObjAddr: 0x8F48, symBinAddr: 0x299D0, symSize: 0x4 }
  - { offset: 0x150DD9, size: 0x8, addend: 0x0, symName: __ZN5godot11MethodBindTIJbEED0Ev, symObjAddr: 0x8F4C, symBinAddr: 0x299D4, symSize: 0x14 }
  - { offset: 0x150EBD, size: 0x8, addend: 0x0, symName: __ZN5godot18create_method_bindI13SentryOptionsbJEEEPNS_10MethodBindEMT_KFT0_DpT1_E.cold.1, symObjAddr: 0xE810, symBinAddr: 0x11E250, symSize: 0x5C }
  - { offset: 0x150EEC, size: 0x8, addend: 0x0, symName: __ZNK5godot13MethodBindTRCIbJEE17gen_argument_typeEi, symObjAddr: 0x9330, symBinAddr: 0x29E2C, symSize: 0x8 }
  - { offset: 0x150F22, size: 0x8, addend: 0x0, symName: __ZNK5godot13MethodBindTRCIbJEE22gen_argument_type_infoEi, symObjAddr: 0x9338, symBinAddr: 0x29E34, symSize: 0xF8 }
  - { offset: 0x150FED, size: 0x8, addend: 0x0, symName: __ZNK5godot13MethodBindTRCIbJEE21get_argument_metadataEi, symObjAddr: 0x9430, symBinAddr: 0x29F2C, symSize: 0x8 }
  - { offset: 0x151023, size: 0x8, addend: 0x0, symName: __ZNK5godot13MethodBindTRCIbJEE4callEPvPKPKvxR20GDExtensionCallError, symObjAddr: 0x9438, symBinAddr: 0x29F34, symSize: 0x64 }
  - { offset: 0x151141, size: 0x8, addend: 0x0, symName: __ZNK5godot13MethodBindTRCIbJEE7ptrcallEPvPKPKvS2_, symObjAddr: 0x94F8, symBinAddr: 0x29F98, symSize: 0x38 }
  - { offset: 0x15122D, size: 0x8, addend: 0x0, symName: __ZN5godot13MethodBindTRCIbJEED1Ev, symObjAddr: 0x9530, symBinAddr: 0x29FD0, symSize: 0x4 }
  - { offset: 0x151251, size: 0x8, addend: 0x0, symName: __ZN5godot13MethodBindTRCIbJEED1Ev, symObjAddr: 0x9530, symBinAddr: 0x29FD0, symSize: 0x4 }
  - { offset: 0x15128A, size: 0x8, addend: 0x0, symName: __ZN5godot13MethodBindTRCIbJEED0Ev, symObjAddr: 0x9534, symBinAddr: 0x29FD4, symSize: 0x14 }
  - { offset: 0x1512F4, size: 0x8, addend: 0x0, symName: __ZN13SentryOptions22set_disabled_in_editorEb, symObjAddr: 0x9548, symBinAddr: 0x2A0D8, symSize: 0x8 }
  - { offset: 0x151324, size: 0x8, addend: 0x0, symName: __ZNK13SentryOptions21is_disabled_in_editorEv, symObjAddr: 0x9550, symBinAddr: 0x2A0E0, symSize: 0x8 }
  - { offset: 0x15134B, size: 0x8, addend: 0x0, symName: __ZN13SentryOptions7set_dsnERKN5godot6StringE, symObjAddr: 0x9558, symBinAddr: 0x2A0E8, symSize: 0x8 }
  - { offset: 0x151380, size: 0x8, addend: 0x0, symName: __ZNK13SentryOptions7get_dsnEv, symObjAddr: 0x9560, symBinAddr: 0x2A0F0, symSize: 0xC }
  - { offset: 0x151407, size: 0x8, addend: 0x0, symName: __ZN5godot18create_method_bindI13SentryOptionsJRKNS_6StringEEEEPNS_10MethodBindEMT_FvDpT0_E.cold.1, symObjAddr: 0xE86C, symBinAddr: 0x11E2AC, symSize: 0x5C }
  - { offset: 0x151496, size: 0x8, addend: 0x0, symName: __ZN5godot18create_method_bindI13SentryOptionsNS_6StringEJEEEPNS_10MethodBindEMT_KFT0_DpT1_E.cold.1, symObjAddr: 0xE8C8, symBinAddr: 0x11E308, symSize: 0x5C }
  - { offset: 0x1514C5, size: 0x8, addend: 0x0, symName: __ZN13SentryOptions11set_releaseERKN5godot6StringE, symObjAddr: 0x9EF8, symBinAddr: 0x2A34C, symSize: 0x8 }
  - { offset: 0x1514FA, size: 0x8, addend: 0x0, symName: __ZNK13SentryOptions11get_releaseEv, symObjAddr: 0x9F00, symBinAddr: 0x2A354, symSize: 0xC }
  - { offset: 0x151521, size: 0x8, addend: 0x0, symName: __ZN13SentryOptions8set_distERKN5godot6StringE, symObjAddr: 0x9F0C, symBinAddr: 0x2A360, symSize: 0x8 }
  - { offset: 0x151556, size: 0x8, addend: 0x0, symName: __ZNK13SentryOptions8get_distEv, symObjAddr: 0x9F14, symBinAddr: 0x2A368, symSize: 0xC }
  - { offset: 0x15157D, size: 0x8, addend: 0x0, symName: __ZN13SentryOptions17set_debug_enabledEb, symObjAddr: 0x9F20, symBinAddr: 0x2A374, symSize: 0x8 }
  - { offset: 0x1515AD, size: 0x8, addend: 0x0, symName: __ZNK13SentryOptions16is_debug_enabledEv, symObjAddr: 0x9F28, symBinAddr: 0x2A37C, symSize: 0x8 }
  - { offset: 0x1515D4, size: 0x8, addend: 0x0, symName: __ZN13SentryOptions20set_diagnostic_levelEN6sentry5LevelE, symObjAddr: 0x9F30, symBinAddr: 0x2A384, symSize: 0x8 }
  - { offset: 0x151607, size: 0x8, addend: 0x0, symName: __ZNK13SentryOptions20get_diagnostic_levelEv, symObjAddr: 0x9F38, symBinAddr: 0x2A38C, symSize: 0x8 }
  - { offset: 0x15168E, size: 0x8, addend: 0x0, symName: __ZN5godot18create_method_bindI13SentryOptionsJN6sentry5LevelEEEEPNS_10MethodBindEMT_FvDpT0_E.cold.1, symObjAddr: 0xE924, symBinAddr: 0x11E364, symSize: 0x5C }
  - { offset: 0x15171D, size: 0x8, addend: 0x0, symName: __ZN5godot18create_method_bindI13SentryOptionsN6sentry5LevelEJEEEPNS_10MethodBindEMT_KFT0_DpT1_E.cold.1, symObjAddr: 0xE980, symBinAddr: 0x11E3C0, symSize: 0x5C }
  - { offset: 0x15174C, size: 0x8, addend: 0x0, symName: __ZN13SentryOptions15set_environmentERKN5godot6StringE, symObjAddr: 0xA8B4, symBinAddr: 0x2A5E4, symSize: 0x8 }
  - { offset: 0x151781, size: 0x8, addend: 0x0, symName: __ZNK13SentryOptions15get_environmentEv, symObjAddr: 0xA8BC, symBinAddr: 0x2A5EC, symSize: 0xC }
  - { offset: 0x1517A8, size: 0x8, addend: 0x0, symName: __ZN13SentryOptions15set_sample_rateEd, symObjAddr: 0xA8C8, symBinAddr: 0x2A5F8, symSize: 0x8 }
  - { offset: 0x1517DC, size: 0x8, addend: 0x0, symName: __ZNK13SentryOptions15get_sample_rateEv, symObjAddr: 0xA8D0, symBinAddr: 0x2A600, symSize: 0x8 }
  - { offset: 0x151861, size: 0x8, addend: 0x0, symName: __ZN5godot18create_method_bindI13SentryOptionsJdEEEPNS_10MethodBindEMT_FvDpT0_E.cold.1, symObjAddr: 0xE9DC, symBinAddr: 0x11E41C, symSize: 0x5C }
  - { offset: 0x151890, size: 0x8, addend: 0x0, symName: __ZNK5godot11MethodBindTIJdEE17gen_argument_typeEi, symObjAddr: 0xA9F4, symBinAddr: 0x2A724, symSize: 0x10 }
  - { offset: 0x1518C6, size: 0x8, addend: 0x0, symName: __ZNK5godot11MethodBindTIJdEE22gen_argument_type_infoEi, symObjAddr: 0xAA04, symBinAddr: 0x2A734, symSize: 0x124 }
  - { offset: 0x151A12, size: 0x8, addend: 0x0, symName: __ZNK5godot11MethodBindTIJdEE21get_argument_metadataEi, symObjAddr: 0xAB3C, symBinAddr: 0x2A858, symSize: 0x10 }
  - { offset: 0x151AA2, size: 0x8, addend: 0x0, symName: __ZNK5godot11MethodBindTIJdEE4callEPvPKPKvxR20GDExtensionCallError, symObjAddr: 0xAB4C, symBinAddr: 0x2A868, symSize: 0x40 }
  - { offset: 0x151B66, size: 0x8, addend: 0x0, symName: __ZNK5godot11MethodBindTIJdEE7ptrcallEPvPKPKvS2_, symObjAddr: 0xAB8C, symBinAddr: 0x2A8A8, symSize: 0x20 }
  - { offset: 0x151C51, size: 0x8, addend: 0x0, symName: __ZN5godot11MethodBindTIJdEED1Ev, symObjAddr: 0xABAC, symBinAddr: 0x2A8C8, symSize: 0x4 }
  - { offset: 0x151C75, size: 0x8, addend: 0x0, symName: __ZN5godot11MethodBindTIJdEED1Ev, symObjAddr: 0xABAC, symBinAddr: 0x2A8C8, symSize: 0x4 }
  - { offset: 0x151CAE, size: 0x8, addend: 0x0, symName: __ZN5godot11MethodBindTIJdEED0Ev, symObjAddr: 0xABB0, symBinAddr: 0x2A8CC, symSize: 0x14 }
  - { offset: 0x151D92, size: 0x8, addend: 0x0, symName: __ZN5godot18create_method_bindI13SentryOptionsdJEEEPNS_10MethodBindEMT_KFT0_DpT1_E.cold.1, symObjAddr: 0xEA38, symBinAddr: 0x11E478, symSize: 0x5C }
  - { offset: 0x151DC1, size: 0x8, addend: 0x0, symName: __ZNK5godot13MethodBindTRCIdJEE17gen_argument_typeEi, symObjAddr: 0xAF90, symBinAddr: 0x2AD20, symSize: 0x8 }
  - { offset: 0x151DF7, size: 0x8, addend: 0x0, symName: __ZNK5godot13MethodBindTRCIdJEE22gen_argument_type_infoEi, symObjAddr: 0xAF98, symBinAddr: 0x2AD28, symSize: 0xF8 }
  - { offset: 0x151EC2, size: 0x8, addend: 0x0, symName: __ZNK5godot13MethodBindTRCIdJEE21get_argument_metadataEi, symObjAddr: 0xB090, symBinAddr: 0x2AE20, symSize: 0xC }
  - { offset: 0x151EF8, size: 0x8, addend: 0x0, symName: __ZNK5godot13MethodBindTRCIdJEE4callEPvPKPKvxR20GDExtensionCallError, symObjAddr: 0xB09C, symBinAddr: 0x2AE2C, symSize: 0x64 }
  - { offset: 0x152016, size: 0x8, addend: 0x0, symName: __ZNK5godot13MethodBindTRCIdJEE7ptrcallEPvPKPKvS2_, symObjAddr: 0xB158, symBinAddr: 0x2AE90, symSize: 0x38 }
  - { offset: 0x15210B, size: 0x8, addend: 0x0, symName: __ZN5godot13MethodBindTRCIdJEED1Ev, symObjAddr: 0xB190, symBinAddr: 0x2AEC8, symSize: 0x4 }
  - { offset: 0x15212F, size: 0x8, addend: 0x0, symName: __ZN5godot13MethodBindTRCIdJEED1Ev, symObjAddr: 0xB190, symBinAddr: 0x2AEC8, symSize: 0x4 }
  - { offset: 0x152168, size: 0x8, addend: 0x0, symName: __ZN5godot13MethodBindTRCIdJEED0Ev, symObjAddr: 0xB194, symBinAddr: 0x2AECC, symSize: 0x14 }
  - { offset: 0x1521D2, size: 0x8, addend: 0x0, symName: __ZN13SentryOptions19set_max_breadcrumbsEi, symObjAddr: 0xB1A8, symBinAddr: 0x2AFCC, symSize: 0x8 }
  - { offset: 0x152205, size: 0x8, addend: 0x0, symName: __ZNK13SentryOptions19get_max_breadcrumbsEv, symObjAddr: 0xB1B0, symBinAddr: 0x2AFD4, symSize: 0x8 }
  - { offset: 0x15222C, size: 0x8, addend: 0x0, symName: __ZN5godot18create_method_bindI13SentryOptionsJiEEEPNS_10MethodBindEMT_FvDpT0_E.cold.1, symObjAddr: 0xEA94, symBinAddr: 0x11E4D4, symSize: 0x5C }
  - { offset: 0x1522BB, size: 0x8, addend: 0x0, symName: __ZN5godot18create_method_bindI13SentryOptionsiJEEEPNS_10MethodBindEMT_KFT0_DpT1_E.cold.1, symObjAddr: 0xEAF0, symBinAddr: 0x11E530, symSize: 0x5C }
  - { offset: 0x1522EA, size: 0x8, addend: 0x0, symName: __ZNK5godot13MethodBindTRCIiJEE17gen_argument_typeEi, symObjAddr: 0xB408, symBinAddr: 0x2B22C, symSize: 0x8 }
  - { offset: 0x152320, size: 0x8, addend: 0x0, symName: __ZNK5godot13MethodBindTRCIiJEE22gen_argument_type_infoEi, symObjAddr: 0xB410, symBinAddr: 0x2B234, symSize: 0xF8 }
  - { offset: 0x1523EB, size: 0x8, addend: 0x0, symName: __ZNK5godot13MethodBindTRCIiJEE21get_argument_metadataEi, symObjAddr: 0xB508, symBinAddr: 0x2B32C, symSize: 0xC }
  - { offset: 0x152421, size: 0x8, addend: 0x0, symName: __ZNK5godot13MethodBindTRCIiJEE4callEPvPKPKvxR20GDExtensionCallError, symObjAddr: 0xB514, symBinAddr: 0x2B338, symSize: 0x64 }
  - { offset: 0x15254C, size: 0x8, addend: 0x0, symName: __ZNK5godot13MethodBindTRCIiJEE7ptrcallEPvPKPKvS2_, symObjAddr: 0xB5D4, symBinAddr: 0x2B39C, symSize: 0x3C }
  - { offset: 0x152640, size: 0x8, addend: 0x0, symName: __ZN5godot13MethodBindTRCIiJEED1Ev, symObjAddr: 0xB610, symBinAddr: 0x2B3D8, symSize: 0x4 }
  - { offset: 0x152664, size: 0x8, addend: 0x0, symName: __ZN5godot13MethodBindTRCIiJEED1Ev, symObjAddr: 0xB610, symBinAddr: 0x2B3D8, symSize: 0x4 }
  - { offset: 0x15269D, size: 0x8, addend: 0x0, symName: __ZN5godot13MethodBindTRCIiJEED0Ev, symObjAddr: 0xB614, symBinAddr: 0x2B3DC, symSize: 0x14 }
  - { offset: 0x152707, size: 0x8, addend: 0x0, symName: __ZN13SentryOptions20set_send_default_piiEb, symObjAddr: 0xB628, symBinAddr: 0x2B4E0, symSize: 0x8 }
  - { offset: 0x152737, size: 0x8, addend: 0x0, symName: __ZNK13SentryOptions27is_send_default_pii_enabledEv, symObjAddr: 0xB630, symBinAddr: 0x2B4E8, symSize: 0x8 }
  - { offset: 0x15275E, size: 0x8, addend: 0x0, symName: __ZN13SentryOptions14set_attach_logEb, symObjAddr: 0xB638, symBinAddr: 0x2B4F0, symSize: 0x8 }
  - { offset: 0x15278E, size: 0x8, addend: 0x0, symName: __ZNK13SentryOptions21is_attach_log_enabledEv, symObjAddr: 0xB640, symBinAddr: 0x2B4F8, symSize: 0x8 }
  - { offset: 0x1527B5, size: 0x8, addend: 0x0, symName: __ZN13SentryOptions21set_attach_screenshotEb, symObjAddr: 0xB648, symBinAddr: 0x2B500, symSize: 0x8 }
  - { offset: 0x1527E5, size: 0x8, addend: 0x0, symName: __ZNK13SentryOptions28is_attach_screenshot_enabledEv, symObjAddr: 0xB650, symBinAddr: 0x2B508, symSize: 0x8 }
  - { offset: 0x15280C, size: 0x8, addend: 0x0, symName: __ZN13SentryOptions20set_screenshot_levelEN6sentry5LevelE, symObjAddr: 0xB658, symBinAddr: 0x2B510, symSize: 0x8 }
  - { offset: 0x15283F, size: 0x8, addend: 0x0, symName: __ZNK13SentryOptions20get_screenshot_levelEv, symObjAddr: 0xB660, symBinAddr: 0x2B518, symSize: 0x8 }
  - { offset: 0x152866, size: 0x8, addend: 0x0, symName: __ZN13SentryOptions21set_attach_scene_treeEb, symObjAddr: 0xB668, symBinAddr: 0x2B520, symSize: 0x8 }
  - { offset: 0x152896, size: 0x8, addend: 0x0, symName: __ZNK13SentryOptions28is_attach_scene_tree_enabledEv, symObjAddr: 0xB670, symBinAddr: 0x2B528, symSize: 0x8 }
  - { offset: 0x1528BD, size: 0x8, addend: 0x0, symName: __ZN13SentryOptions18set_logger_enabledEb, symObjAddr: 0xB678, symBinAddr: 0x2B530, symSize: 0x8 }
  - { offset: 0x1528ED, size: 0x8, addend: 0x0, symName: __ZNK13SentryOptions17is_logger_enabledEv, symObjAddr: 0xB680, symBinAddr: 0x2B538, symSize: 0x8 }
  - { offset: 0x152914, size: 0x8, addend: 0x0, symName: __ZN13SentryOptions25set_logger_include_sourceEb, symObjAddr: 0xB688, symBinAddr: 0x2B540, symSize: 0x8 }
  - { offset: 0x152944, size: 0x8, addend: 0x0, symName: __ZNK13SentryOptions32is_logger_include_source_enabledEv, symObjAddr: 0xB690, symBinAddr: 0x2B548, symSize: 0x8 }
  - { offset: 0x15296B, size: 0x8, addend: 0x0, symName: __ZN13SentryOptions28set_logger_include_variablesEi, symObjAddr: 0xB698, symBinAddr: 0x2B550, symSize: 0x10 }
  - { offset: 0x15299E, size: 0x8, addend: 0x0, symName: __ZNK13SentryOptions35is_logger_include_variables_enabledEv, symObjAddr: 0xB6A8, symBinAddr: 0x2B560, symSize: 0x8 }
  - { offset: 0x1529C5, size: 0x8, addend: 0x0, symName: __ZN13SentryOptions21set_logger_event_maskEN5godot8BitFieldIN6sentry14GodotErrorMaskEEE, symObjAddr: 0xB6B0, symBinAddr: 0x2B568, symSize: 0x8 }
  - { offset: 0x1529F8, size: 0x8, addend: 0x0, symName: __ZNK13SentryOptions21get_logger_event_maskEv, symObjAddr: 0xB6B8, symBinAddr: 0x2B570, symSize: 0x8 }
  - { offset: 0x152A7F, size: 0x8, addend: 0x0, symName: __ZN5godot18create_method_bindI13SentryOptionsJNS_8BitFieldIN6sentry14GodotErrorMaskEEEEEEPNS_10MethodBindEMT_FvDpT0_E.cold.1, symObjAddr: 0xEB4C, symBinAddr: 0x11E58C, symSize: 0x5C }
  - { offset: 0x152AAE, size: 0x8, addend: 0x0, symName: __ZNK5godot11MethodBindTIJNS_8BitFieldIN6sentry14GodotErrorMaskEEEEE17gen_argument_typeEi, symObjAddr: 0xB7DC, symBinAddr: 0x2B694, symSize: 0x10 }
  - { offset: 0x152AE4, size: 0x8, addend: 0x0, symName: __ZNK5godot11MethodBindTIJNS_8BitFieldIN6sentry14GodotErrorMaskEEEEE22gen_argument_type_infoEi, symObjAddr: 0xB7EC, symBinAddr: 0x2B6A4, symSize: 0x124 }
  - { offset: 0x152C30, size: 0x8, addend: 0x0, symName: __ZNK5godot11MethodBindTIJNS_8BitFieldIN6sentry14GodotErrorMaskEEEEE21get_argument_metadataEi, symObjAddr: 0xB924, symBinAddr: 0x2B7C8, symSize: 0x8 }
  - { offset: 0x152C66, size: 0x8, addend: 0x0, symName: __ZNK5godot11MethodBindTIJNS_8BitFieldIN6sentry14GodotErrorMaskEEEEE4callEPvPKPKvxR20GDExtensionCallError, symObjAddr: 0xB92C, symBinAddr: 0x2B7D0, symSize: 0x40 }
  - { offset: 0x152D2A, size: 0x8, addend: 0x0, symName: __ZNK5godot11MethodBindTIJNS_8BitFieldIN6sentry14GodotErrorMaskEEEEE7ptrcallEPvPKPKvS6_, symObjAddr: 0xB96C, symBinAddr: 0x2B810, symSize: 0x20 }
  - { offset: 0x152E1B, size: 0x8, addend: 0x0, symName: __ZN5godot11MethodBindTIJNS_8BitFieldIN6sentry14GodotErrorMaskEEEEED1Ev, symObjAddr: 0xB98C, symBinAddr: 0x2B830, symSize: 0x4 }
  - { offset: 0x152E3F, size: 0x8, addend: 0x0, symName: __ZN5godot11MethodBindTIJNS_8BitFieldIN6sentry14GodotErrorMaskEEEEED1Ev, symObjAddr: 0xB98C, symBinAddr: 0x2B830, symSize: 0x4 }
  - { offset: 0x152E78, size: 0x8, addend: 0x0, symName: __ZN5godot11MethodBindTIJNS_8BitFieldIN6sentry14GodotErrorMaskEEEEED0Ev, symObjAddr: 0xB990, symBinAddr: 0x2B834, symSize: 0x14 }
  - { offset: 0x152F55, size: 0x8, addend: 0x0, symName: __ZN5godot18create_method_bindI13SentryOptionsNS_8BitFieldIN6sentry14GodotErrorMaskEEEJEEEPNS_10MethodBindEMT_KFT0_DpT1_E.cold.1, symObjAddr: 0xEBA8, symBinAddr: 0x11E5E8, symSize: 0x5C }
  - { offset: 0x152F84, size: 0x8, addend: 0x0, symName: __ZNK5godot13MethodBindTRCINS_8BitFieldIN6sentry14GodotErrorMaskEEEJEE17gen_argument_typeEi, symObjAddr: 0xBDF8, symBinAddr: 0x2BD10, symSize: 0x8 }
  - { offset: 0x152FBA, size: 0x8, addend: 0x0, symName: __ZNK5godot13MethodBindTRCINS_8BitFieldIN6sentry14GodotErrorMaskEEEJEE22gen_argument_type_infoEi, symObjAddr: 0xBE00, symBinAddr: 0x2BD18, symSize: 0x4 }
  - { offset: 0x152FF1, size: 0x8, addend: 0x0, symName: __ZNK5godot13MethodBindTRCINS_8BitFieldIN6sentry14GodotErrorMaskEEEJEE22gen_argument_type_infoEi, symObjAddr: 0xBE00, symBinAddr: 0x2BD18, symSize: 0x4 }
  - { offset: 0x153005, size: 0x8, addend: 0x0, symName: __ZNK5godot13MethodBindTRCINS_8BitFieldIN6sentry14GodotErrorMaskEEEJEE21get_argument_metadataEi, symObjAddr: 0xBE04, symBinAddr: 0x2BD1C, symSize: 0x8 }
  - { offset: 0x15303B, size: 0x8, addend: 0x0, symName: __ZNK5godot13MethodBindTRCINS_8BitFieldIN6sentry14GodotErrorMaskEEEJEE4callEPvPKPKvxR20GDExtensionCallError, symObjAddr: 0xBE0C, symBinAddr: 0x2BD24, symSize: 0x64 }
  - { offset: 0x15316F, size: 0x8, addend: 0x0, symName: __ZNK5godot13MethodBindTRCINS_8BitFieldIN6sentry14GodotErrorMaskEEEJEE7ptrcallEPvPKPKvS6_, symObjAddr: 0xBECC, symBinAddr: 0x2BD88, symSize: 0x38 }
  - { offset: 0x153263, size: 0x8, addend: 0x0, symName: __ZN5godot13MethodBindTRCINS_8BitFieldIN6sentry14GodotErrorMaskEEEJEED1Ev, symObjAddr: 0xBF04, symBinAddr: 0x2BDC0, symSize: 0x4 }
  - { offset: 0x153287, size: 0x8, addend: 0x0, symName: __ZN5godot13MethodBindTRCINS_8BitFieldIN6sentry14GodotErrorMaskEEEJEED1Ev, symObjAddr: 0xBF04, symBinAddr: 0x2BDC0, symSize: 0x4 }
  - { offset: 0x1532C0, size: 0x8, addend: 0x0, symName: __ZN5godot13MethodBindTRCINS_8BitFieldIN6sentry14GodotErrorMaskEEEJEED0Ev, symObjAddr: 0xBF08, symBinAddr: 0x2BDC4, symSize: 0x14 }
  - { offset: 0x15332A, size: 0x8, addend: 0x0, symName: __ZN13SentryOptions26set_logger_breadcrumb_maskEN5godot8BitFieldIN6sentry14GodotErrorMaskEEE, symObjAddr: 0xBF1C, symBinAddr: 0x2BEC8, symSize: 0x8 }
  - { offset: 0x15335D, size: 0x8, addend: 0x0, symName: __ZNK13SentryOptions26get_logger_breadcrumb_maskEv, symObjAddr: 0xBF24, symBinAddr: 0x2BED0, symSize: 0x8 }
  - { offset: 0x1533CE, size: 0x8, addend: 0x0, symName: __ZNK13SentryOptions17get_logger_limitsEv, symObjAddr: 0xBF2C, symBinAddr: 0x2BED8, symSize: 0x18 }
  - { offset: 0x1533F8, size: 0x8, addend: 0x0, symName: __ZNK13SentryOptions17get_logger_limitsEv, symObjAddr: 0xBF2C, symBinAddr: 0x2BED8, symSize: 0x18 }
  - { offset: 0x15341F, size: 0x8, addend: 0x0, symName: __ZNK13SentryOptions17get_logger_limitsEv, symObjAddr: 0xBF2C, symBinAddr: 0x2BED8, symSize: 0x18 }
  - { offset: 0x1534CD, size: 0x8, addend: 0x0, symName: __ZN5godot18create_method_bindI13SentryOptionsJRKNS_3RefI18SentryLoggerLimitsEEEEEPNS_10MethodBindEMT_FvDpT0_E.cold.1, symObjAddr: 0xEC04, symBinAddr: 0x11E644, symSize: 0x5C }
  - { offset: 0x1534FC, size: 0x8, addend: 0x0, symName: __ZNK5godot11MethodBindTIJRKNS_3RefI18SentryLoggerLimitsEEEE17gen_argument_typeEi, symObjAddr: 0xC060, symBinAddr: 0x2C00C, symSize: 0x10 }
  - { offset: 0x153532, size: 0x8, addend: 0x0, symName: __ZNK5godot11MethodBindTIJRKNS_3RefI18SentryLoggerLimitsEEEE22gen_argument_type_infoEi, symObjAddr: 0xC070, symBinAddr: 0x2C01C, symSize: 0x124 }
  - { offset: 0x15367E, size: 0x8, addend: 0x0, symName: __ZNK5godot11MethodBindTIJRKNS_3RefI18SentryLoggerLimitsEEEE21get_argument_metadataEi, symObjAddr: 0xC1A8, symBinAddr: 0x2C140, symSize: 0x8 }
  - { offset: 0x1536B4, size: 0x8, addend: 0x0, symName: __ZNK5godot11MethodBindTIJRKNS_3RefI18SentryLoggerLimitsEEEE4callEPvPKPKvxR20GDExtensionCallError, symObjAddr: 0xC1B0, symBinAddr: 0x2C148, symSize: 0x40 }
  - { offset: 0x153786, size: 0x8, addend: 0x0, symName: __ZNK5godot11MethodBindTIJRKNS_3RefI18SentryLoggerLimitsEEEE7ptrcallEPvPKPKvS7_, symObjAddr: 0xC1F0, symBinAddr: 0x2C188, symSize: 0xAC }
  - { offset: 0x1539D4, size: 0x8, addend: 0x0, symName: __ZN5godot11MethodBindTIJRKNS_3RefI18SentryLoggerLimitsEEEED1Ev, symObjAddr: 0xC2B0, symBinAddr: 0x2C234, symSize: 0x4 }
  - { offset: 0x1539F8, size: 0x8, addend: 0x0, symName: __ZN5godot11MethodBindTIJRKNS_3RefI18SentryLoggerLimitsEEEED1Ev, symObjAddr: 0xC2B0, symBinAddr: 0x2C234, symSize: 0x4 }
  - { offset: 0x153A31, size: 0x8, addend: 0x0, symName: __ZN5godot11MethodBindTIJRKNS_3RefI18SentryLoggerLimitsEEEED0Ev, symObjAddr: 0xC2B4, symBinAddr: 0x2C238, symSize: 0x14 }
  - { offset: 0x153A9B, size: 0x8, addend: 0x0, symName: __ZN5godot11GetTypeInfoIRKNS_3RefI18SentryLoggerLimitsEEvE14get_class_infoEv, symObjAddr: 0xC39C, symBinAddr: 0x2C320, symSize: 0x12C }
  - { offset: 0x153B4B, size: 0x8, addend: 0x0, symName: __ZN5godot11GetTypeInfoIRKNS_3RefI18SentryLoggerLimitsEEvE14get_class_infoEv.cold.1, symObjAddr: 0xEC60, symBinAddr: 0x11E6A0, symSize: 0x58 }
  - { offset: 0x153BF0, size: 0x8, addend: 0x0, symName: __ZN5godot6Object7cast_toI18SentryLoggerLimitsEEPT_PS0_, symObjAddr: 0xC638, symBinAddr: 0x2C6C0, symSize: 0xE8 }
  - { offset: 0x153C8E, size: 0x8, addend: 0x0, symName: __ZN5godot6Object7cast_toI18SentryLoggerLimitsEEPT_PS0_.cold.1, symObjAddr: 0xECB8, symBinAddr: 0x11E6F8, symSize: 0x5C }
  - { offset: 0x153D1C, size: 0x8, addend: 0x0, symName: __ZN5godot18create_method_bindI13SentryOptionsNS_3RefI18SentryLoggerLimitsEEJEEEPNS_10MethodBindEMT_KFT0_DpT1_E.cold.1, symObjAddr: 0xED14, symBinAddr: 0x11E754, symSize: 0x5C }
  - { offset: 0x153D4B, size: 0x8, addend: 0x0, symName: __ZNK5godot13MethodBindTRCINS_3RefI18SentryLoggerLimitsEEJEE17gen_argument_typeEi, symObjAddr: 0xC854, symBinAddr: 0x2C8DC, symSize: 0x8 }
  - { offset: 0x153D81, size: 0x8, addend: 0x0, symName: __ZNK5godot13MethodBindTRCINS_3RefI18SentryLoggerLimitsEEJEE22gen_argument_type_infoEi, symObjAddr: 0xC85C, symBinAddr: 0x2C8E4, symSize: 0x4 }
  - { offset: 0x153DB8, size: 0x8, addend: 0x0, symName: __ZNK5godot13MethodBindTRCINS_3RefI18SentryLoggerLimitsEEJEE22gen_argument_type_infoEi, symObjAddr: 0xC85C, symBinAddr: 0x2C8E4, symSize: 0x4 }
  - { offset: 0x153DCC, size: 0x8, addend: 0x0, symName: __ZN5godot11GetTypeInfoINS_3RefI18SentryLoggerLimitsEEvE14get_class_infoEv, symObjAddr: 0xC980, symBinAddr: 0x2CA08, symSize: 0x12C }
  - { offset: 0x153E7C, size: 0x8, addend: 0x0, symName: __ZNK5godot13MethodBindTRCINS_3RefI18SentryLoggerLimitsEEJEE21get_argument_metadataEi, symObjAddr: 0xC860, symBinAddr: 0x2C8E8, symSize: 0x8 }
  - { offset: 0x153EB2, size: 0x8, addend: 0x0, symName: __ZNK5godot13MethodBindTRCINS_3RefI18SentryLoggerLimitsEEJEE4callEPvPKPKvxR20GDExtensionCallError, symObjAddr: 0xC868, symBinAddr: 0x2C8F0, symSize: 0x64 }
  - { offset: 0x153F9A, size: 0x8, addend: 0x0, symName: __ZNK5godot13MethodBindTRCINS_3RefI18SentryLoggerLimitsEEJEE7ptrcallEPvPKPKvS5_, symObjAddr: 0xC8CC, symBinAddr: 0x2C954, symSize: 0x9C }
  - { offset: 0x154123, size: 0x8, addend: 0x0, symName: __ZNK5godot13MethodBindTRCINS_3RefI18SentryLoggerLimitsEEJEE7ptrcallEPvPKPKvS5_.cold.1, symObjAddr: 0xED70, symBinAddr: 0x11E7B0, symSize: 0x30 }
  - { offset: 0x15419B, size: 0x8, addend: 0x0, symName: __ZN5godot13MethodBindTRCINS_3RefI18SentryLoggerLimitsEEJEED1Ev, symObjAddr: 0xC968, symBinAddr: 0x2C9F0, symSize: 0x4 }
  - { offset: 0x1541BF, size: 0x8, addend: 0x0, symName: __ZN5godot13MethodBindTRCINS_3RefI18SentryLoggerLimitsEEJEED1Ev, symObjAddr: 0xC968, symBinAddr: 0x2C9F0, symSize: 0x4 }
  - { offset: 0x1541F8, size: 0x8, addend: 0x0, symName: __ZN5godot13MethodBindTRCINS_3RefI18SentryLoggerLimitsEEJEED0Ev, symObjAddr: 0xC96C, symBinAddr: 0x2C9F4, symSize: 0x14 }
  - { offset: 0x154262, size: 0x8, addend: 0x0, symName: __ZN5godot11GetTypeInfoINS_3RefI18SentryLoggerLimitsEEvE14get_class_infoEv.cold.1, symObjAddr: 0xEDA0, symBinAddr: 0x11E7E0, symSize: 0x58 }
  - { offset: 0x1542A7, size: 0x8, addend: 0x0, symName: __ZN13SentryOptions15set_before_sendERKN5godot8CallableE, symObjAddr: 0xCB90, symBinAddr: 0x2CC50, symSize: 0x8 }
  - { offset: 0x1542DC, size: 0x8, addend: 0x0, symName: __ZNK13SentryOptions15get_before_sendEv, symObjAddr: 0xCB98, symBinAddr: 0x2CC58, symSize: 0xC }
  - { offset: 0x154363, size: 0x8, addend: 0x0, symName: __ZN5godot18create_method_bindI13SentryOptionsJRKNS_8CallableEEEEPNS_10MethodBindEMT_FvDpT0_E.cold.1, symObjAddr: 0xEDF8, symBinAddr: 0x11E838, symSize: 0x5C }
  - { offset: 0x154392, size: 0x8, addend: 0x0, symName: __ZNK5godot11MethodBindTIJRKNS_8CallableEEE17gen_argument_typeEi, symObjAddr: 0xCCC0, symBinAddr: 0x2CD80, symSize: 0x10 }
  - { offset: 0x1543C8, size: 0x8, addend: 0x0, symName: __ZNK5godot11MethodBindTIJRKNS_8CallableEEE22gen_argument_type_infoEi, symObjAddr: 0xCCD0, symBinAddr: 0x2CD90, symSize: 0x124 }
  - { offset: 0x154514, size: 0x8, addend: 0x0, symName: __ZNK5godot11MethodBindTIJRKNS_8CallableEEE21get_argument_metadataEi, symObjAddr: 0xCE08, symBinAddr: 0x2CEB4, symSize: 0x8 }
  - { offset: 0x15454A, size: 0x8, addend: 0x0, symName: __ZNK5godot11MethodBindTIJRKNS_8CallableEEE4callEPvPKPKvxR20GDExtensionCallError, symObjAddr: 0xCE10, symBinAddr: 0x2CEBC, symSize: 0x40 }
  - { offset: 0x15460E, size: 0x8, addend: 0x0, symName: __ZNK5godot11MethodBindTIJRKNS_8CallableEEE7ptrcallEPvPKPKvS5_, symObjAddr: 0xCE50, symBinAddr: 0x2CEFC, symSize: 0x80 }
  - { offset: 0x154710, size: 0x8, addend: 0x0, symName: __ZN5godot11MethodBindTIJRKNS_8CallableEEED1Ev, symObjAddr: 0xCED0, symBinAddr: 0x2CF7C, symSize: 0x4 }
  - { offset: 0x154734, size: 0x8, addend: 0x0, symName: __ZN5godot11MethodBindTIJRKNS_8CallableEEED1Ev, symObjAddr: 0xCED0, symBinAddr: 0x2CF7C, symSize: 0x4 }
  - { offset: 0x15476D, size: 0x8, addend: 0x0, symName: __ZN5godot11MethodBindTIJRKNS_8CallableEEED0Ev, symObjAddr: 0xCED4, symBinAddr: 0x2CF80, symSize: 0x14 }
  - { offset: 0x154851, size: 0x8, addend: 0x0, symName: __ZN5godot18create_method_bindI13SentryOptionsNS_8CallableEJEEEPNS_10MethodBindEMT_KFT0_DpT1_E.cold.1, symObjAddr: 0xEE54, symBinAddr: 0x11E894, symSize: 0x5C }
  - { offset: 0x154880, size: 0x8, addend: 0x0, symName: __ZNK5godot13MethodBindTRCINS_8CallableEJEE17gen_argument_typeEi, symObjAddr: 0xD2C4, symBinAddr: 0x2D474, symSize: 0x8 }
  - { offset: 0x1548BD, size: 0x8, addend: 0x0, symName: __ZNK5godot13MethodBindTRCINS_8CallableEJEE22gen_argument_type_infoEi, symObjAddr: 0xD2CC, symBinAddr: 0x2D47C, symSize: 0xF8 }
  - { offset: 0x154988, size: 0x8, addend: 0x0, symName: __ZNK5godot13MethodBindTRCINS_8CallableEJEE21get_argument_metadataEi, symObjAddr: 0xD3C4, symBinAddr: 0x2D574, symSize: 0x8 }
  - { offset: 0x1549BE, size: 0x8, addend: 0x0, symName: __ZNK5godot13MethodBindTRCINS_8CallableEJEE4callEPvPKPKvxR20GDExtensionCallError, symObjAddr: 0xD3CC, symBinAddr: 0x2D57C, symSize: 0x64 }
  - { offset: 0x154AE4, size: 0x8, addend: 0x0, symName: __ZNK5godot13MethodBindTRCINS_8CallableEJEE7ptrcallEPvPKPKvS3_, symObjAddr: 0xD498, symBinAddr: 0x2D5E0, symSize: 0x80 }
  - { offset: 0x154BE1, size: 0x8, addend: 0x0, symName: __ZN5godot13MethodBindTRCINS_8CallableEJEED1Ev, symObjAddr: 0xD518, symBinAddr: 0x2D660, symSize: 0x4 }
  - { offset: 0x154C05, size: 0x8, addend: 0x0, symName: __ZN5godot13MethodBindTRCINS_8CallableEJEED1Ev, symObjAddr: 0xD518, symBinAddr: 0x2D660, symSize: 0x4 }
  - { offset: 0x154C3E, size: 0x8, addend: 0x0, symName: __ZN5godot13MethodBindTRCINS_8CallableEJEED0Ev, symObjAddr: 0xD51C, symBinAddr: 0x2D664, symSize: 0x14 }
  - { offset: 0x154CA8, size: 0x8, addend: 0x0, symName: __ZN13SentryOptions12set_on_crashERKN5godot8CallableE, symObjAddr: 0xD530, symBinAddr: 0x2D774, symSize: 0x8 }
  - { offset: 0x154CDD, size: 0x8, addend: 0x0, symName: __ZNK13SentryOptions12get_on_crashEv, symObjAddr: 0xD538, symBinAddr: 0x2D77C, symSize: 0xC }
  - { offset: 0x154D04, size: 0x8, addend: 0x0, symName: __ZN13SentryOptions29set_before_capture_screenshotERKN5godot8CallableE, symObjAddr: 0xD544, symBinAddr: 0x2D788, symSize: 0x8 }
  - { offset: 0x154D39, size: 0x8, addend: 0x0, symName: __ZNK13SentryOptions29get_before_capture_screenshotEv, symObjAddr: 0xD54C, symBinAddr: 0x2D790, symSize: 0xC }
  - { offset: 0x154D67, size: 0x8, addend: 0x0, symName: __GLOBAL__sub_I_sentry_options.cpp, symObjAddr: 0xF164, symBinAddr: 0x2DA50, symSize: 0x20 }
  - { offset: 0x154D7F, size: 0x8, addend: 0x0, symName: __GLOBAL__sub_I_sentry_options.cpp, symObjAddr: 0xF164, symBinAddr: 0x2DA50, symSize: 0x20 }
  - { offset: 0x154DCF, size: 0x8, addend: 0x0, symName: _OUTLINED_FUNCTION_0, symObjAddr: 0xEEB0, symBinAddr: 0x2D79C, symSize: 0x10 }
  - { offset: 0x154DE7, size: 0x8, addend: 0x0, symName: _OUTLINED_FUNCTION_1, symObjAddr: 0xEEC0, symBinAddr: 0x2D7AC, symSize: 0xC }
  - { offset: 0x154DFF, size: 0x8, addend: 0x0, symName: _OUTLINED_FUNCTION_2, symObjAddr: 0xEECC, symBinAddr: 0x2D7B8, symSize: 0xC }
  - { offset: 0x154E17, size: 0x8, addend: 0x0, symName: _OUTLINED_FUNCTION_3, symObjAddr: 0xEED8, symBinAddr: 0x2D7C4, symSize: 0x8 }
  - { offset: 0x154E2F, size: 0x8, addend: 0x0, symName: _OUTLINED_FUNCTION_4, symObjAddr: 0xEEE0, symBinAddr: 0x2D7CC, symSize: 0x8 }
  - { offset: 0x154E47, size: 0x8, addend: 0x0, symName: _OUTLINED_FUNCTION_5, symObjAddr: 0xEEE8, symBinAddr: 0x2D7D4, symSize: 0x8 }
  - { offset: 0x154E5F, size: 0x8, addend: 0x0, symName: _OUTLINED_FUNCTION_6, symObjAddr: 0xEEF0, symBinAddr: 0x2D7DC, symSize: 0x8 }
  - { offset: 0x154E77, size: 0x8, addend: 0x0, symName: _OUTLINED_FUNCTION_7, symObjAddr: 0xEEF8, symBinAddr: 0x2D7E4, symSize: 0xC }
  - { offset: 0x15AE86, size: 0x8, addend: 0x0, symName: __ZN5godot18create_method_bindI9SentrySDKbJEEEPNS_10MethodBindEMT_KFT0_DpT1_E, symObjAddr: 0x4AFC, symBinAddr: 0x3111C, symSize: 0x134 }
  - { offset: 0x15AFBE, size: 0x8, addend: 0x0, symName: __ZN5godot18create_method_bindI9SentrySDKNS_6StringEJRKS2_N6sentry5LevelEEEEPNS_10MethodBindEMT_FT0_DpT1_E, symObjAddr: 0x4E48, symBinAddr: 0x31250, symSize: 0x128 }
  - { offset: 0x15B0E7, size: 0x8, addend: 0x0, symName: __ZN5godot8D_METHODIJPKcS2_S2_S2_EEENS_16MethodDefinitionENS_10StringNameES4_DpT_, symObjAddr: 0x1EFC, symBinAddr: 0x2F95C, symSize: 0x140 }
  - { offset: 0x15B6C9, size: 0x8, addend: 0x0, symName: __ZN5godot18create_method_bindI9SentrySDKNS_6StringEJEEEPNS_10MethodBindEMT_KFT0_DpT1_E, symObjAddr: 0x60B0, symBinAddr: 0x32524, symSize: 0x134 }
  - { offset: 0x15B7E7, size: 0x8, addend: 0x0, symName: __ZN5godot18create_method_bindI9SentrySDKJRKNS_6StringERKNS_10DictionaryEEEEPNS_10MethodBindEMT_FvDpT0_E, symObjAddr: 0x6450, symBinAddr: 0x32658, symSize: 0x11C }
  - { offset: 0x15B907, size: 0x8, addend: 0x0, symName: __ZN5godot18create_method_bindI9SentrySDKJRKNS_6StringES4_EEEPNS_10MethodBindEMT_FvDpT0_E, symObjAddr: 0x696C, symBinAddr: 0x32CD8, symSize: 0x11C }
  - { offset: 0x15BA27, size: 0x8, addend: 0x0, symName: __ZN5godot18create_method_bindI9SentrySDKJRKNS_6StringEEEEPNS_10MethodBindEMT_FvDpT0_E, symObjAddr: 0x6E74, symBinAddr: 0x32DF4, symSize: 0x11C }
  - { offset: 0x15BB42, size: 0x8, addend: 0x0, symName: __ZN5godot18create_method_bindI9SentrySDKJRKNS_3RefI10SentryUserEEEEEPNS_10MethodBindEMT_FvDpT0_E, symObjAddr: 0x72EC, symBinAddr: 0x32F10, symSize: 0x11C }
  - { offset: 0x15BC5D, size: 0x8, addend: 0x0, symName: __ZN5godot18create_method_bindI9SentrySDKNS_3RefI10SentryUserEEJEEEPNS_10MethodBindEMT_KFT0_DpT1_E, symObjAddr: 0x7AC8, symBinAddr: 0x337C8, symSize: 0x134 }
  - { offset: 0x15BD7B, size: 0x8, addend: 0x0, symName: __ZN5godot18create_method_bindI9SentrySDKJEEEPNS_10MethodBindEMT_FvDpT0_E, symObjAddr: 0x7F38, symBinAddr: 0x33C70, symSize: 0x11C }
  - { offset: 0x15BE90, size: 0x8, addend: 0x0, symName: __ZN5godot18create_method_bindI9SentrySDKNS_3RefI11SentryEventEEJEEEPNS_10MethodBindEMT_KFT0_DpT1_E, symObjAddr: 0x8234, symBinAddr: 0x33FAC, symSize: 0x134 }
  - { offset: 0x15BFAE, size: 0x8, addend: 0x0, symName: __ZN5godot18create_method_bindI9SentrySDKNS_6StringEJRKNS_3RefI11SentryEventEEEEEPNS_10MethodBindEMT_FT0_DpT1_E, symObjAddr: 0x86A4, symBinAddr: 0x34454, symSize: 0x128 }
  - { offset: 0x15C0D2, size: 0x8, addend: 0x0, symName: __ZN5godot18create_method_bindI9SentrySDKJRKNS_8CallableEEEEPNS_10MethodBindEMT_FvDpT0_E, symObjAddr: 0x8FBC, symBinAddr: 0x34E00, symSize: 0x11C }
  - { offset: 0x15C1ED, size: 0x8, addend: 0x0, symName: __ZN5godot18create_method_bindI9SentrySDKJRKNS_6StringES4_N6sentry5LevelES4_RKNS_10DictionaryEEEEPNS_10MethodBindEMT_FvDpT0_E, symObjAddr: 0x57D4, symBinAddr: 0x31A80, symSize: 0x11C }
  - { offset: 0x15C384, size: 0x8, addend: 0x0, symName: __ZN5godot8D_METHODIJPKcS2_EEENS_16MethodDefinitionENS_10StringNameES4_DpT_, symObjAddr: 0x56AC, symBinAddr: 0x31958, symSize: 0x128 }
  - { offset: 0x15CC67, size: 0x8, addend: 0x0, symName: __ZN5godot7vformatIJNS_6StringENS_5ErrorEEEES1_RKS1_DpKT_, symObjAddr: 0x3014, symBinAddr: 0x30944, symSize: 0xEC }
  - { offset: 0x15DE1B, size: 0x8, addend: 0x0, symName: __ZN5godot29call_with_variant_args_ret_dvINS_20_gde_UnexistingClassENS_6StringEJRKS2_N6sentry5LevelEEEEvPT_MS7_FT0_DpT1_EPKPKviRNS_7VariantER20GDExtensionCallErrorRKNSt3__16vectorISI_NSM_9allocatorISI_EEEE, symObjAddr: 0x5468, symBinAddr: 0x31628, symSize: 0x1B0 }
  - { offset: 0x15E06F, size: 0x8, addend: 0x0, symName: __ZN5godot33call_with_variant_args_ret_helperINS_20_gde_UnexistingClassENS_6StringEJRKS2_N6sentry5LevelEEJLm0ELm1EEEEvPT_MS7_FT0_DpT1_EPPKNS_7VariantERSE_R20GDExtensionCallErrorNS_13IndexSequenceIJXspT2_EEEE, symObjAddr: 0x55E0, symBinAddr: 0x317D8, symSize: 0x180 }
  - { offset: 0x15E426, size: 0x8, addend: 0x0, symName: __ZN5godot34call_get_argument_type_info_helperIRKNS_10DictionaryEEEviRiRNS_12PropertyInfoE, symObjAddr: 0x5AFC, symBinAddr: 0x31DA8, symSize: 0x174 }
  - { offset: 0x15E559, size: 0x8, addend: 0x0, symName: __ZN5godot25call_with_variant_args_dvINS_20_gde_UnexistingClassEJRKNS_6StringES4_N6sentry5LevelES4_RKNS_10DictionaryEEEEvPT_MSA_FvDpT0_EPKPKviR20GDExtensionCallErrorRKNSt3__16vectorINS_7VariantENSM_9allocatorISO_EEEE, symObjAddr: 0x5C70, symBinAddr: 0x31F1C, symSize: 0x2B4 }
  - { offset: 0x15E71C, size: 0x8, addend: 0x0, symName: __ZN5godot25call_with_ptr_args_helperINS_20_gde_UnexistingClassEJRKNS_6StringES4_N6sentry5LevelES4_RKNS_10DictionaryEEJLm0ELm1ELm2ELm3ELm4EEEEvPT_MSA_FvDpT0_EPKPKvNS_13IndexSequenceIJXspT1_EEEE, symObjAddr: 0x5FD4, symBinAddr: 0x32448, symSize: 0xDC }
  - { offset: 0x15E887, size: 0x8, addend: 0x0, symName: __ZN5godot29call_with_variant_args_helperINS_20_gde_UnexistingClassEJRKNS_6StringES4_N6sentry5LevelES4_RKNS_10DictionaryEEJLm0ELm1ELm2ELm3ELm4EEEEvPT_MSA_FvDpT0_EPPKNS_7VariantER20GDExtensionCallErrorNS_13IndexSequenceIJXspT1_EEEE, symObjAddr: 0x5EEC, symBinAddr: 0x321D0, symSize: 0x278 }
  - { offset: 0x15ED00, size: 0x8, addend: 0x0, symName: __ZN5godot25call_with_variant_args_dvINS_20_gde_UnexistingClassEJRKNS_6StringERKNS_10DictionaryEEEEvPT_MS8_FvDpT0_EPKPKviR20GDExtensionCallErrorRKNSt3__16vectorINS_7VariantENSK_9allocatorISM_EEEE, symObjAddr: 0x67CC, symBinAddr: 0x329D4, symSize: 0x1A8 }
  - { offset: 0x15F36C, size: 0x8, addend: 0x0, symName: __ZN5godot34call_get_argument_type_info_helperIRKNS_3RefI10SentryUserEEEEviRiRNS_12PropertyInfoE, symObjAddr: 0x7670, symBinAddr: 0x3326C, symSize: 0xD4 }
  - { offset: 0x15F42C, size: 0x8, addend: 0x0, symName: __ZN5godot25call_with_variant_args_dvINS_20_gde_UnexistingClassEJRKNS_3RefI10SentryUserEEEEEvPT_MS7_FvDpT0_EPKPKviR20GDExtensionCallErrorRKNSt3__16vectorINS_7VariantENSJ_9allocatorISL_EEEE, symObjAddr: 0x7870, symBinAddr: 0x3346C, symSize: 0x148 }
  - { offset: 0x15F935, size: 0x8, addend: 0x0, symName: __ZN5godot30call_with_variant_args_retc_dvINS_20_gde_UnexistingClassENS_3RefI10SentryUserEEJEEEvPT_MS5_KFT0_DpT1_EPKPKviRNS_7VariantER20GDExtensionCallErrorRKNSt3__16vectorISG_NSK_9allocatorISG_EEEE, symObjAddr: 0x7E54, symBinAddr: 0x33B54, symSize: 0x11C }
  - { offset: 0x16001B, size: 0x8, addend: 0x0, symName: __ZN5godot30call_with_variant_args_retc_dvINS_20_gde_UnexistingClassENS_3RefI11SentryEventEEJEEEvPT_MS5_KFT0_DpT1_EPKPKviRNS_7VariantER20GDExtensionCallErrorRKNSt3__16vectorISG_NSK_9allocatorISG_EEEE, symObjAddr: 0x85C0, symBinAddr: 0x34338, symSize: 0x11C }
  - { offset: 0x1604DA, size: 0x8, addend: 0x0, symName: __ZN5godot34call_get_argument_type_info_helperIRKNS_3RefI11SentryEventEEEEviRiRNS_12PropertyInfoE, symObjAddr: 0x89CC, symBinAddr: 0x34768, symSize: 0xD4 }
  - { offset: 0x16059A, size: 0x8, addend: 0x0, symName: __ZN5godot29call_with_variant_args_ret_dvINS_20_gde_UnexistingClassENS_6StringEJRKNS_3RefI11SentryEventEEEEEvPT_MS8_FT0_DpT1_EPKPKviRNS_7VariantER20GDExtensionCallErrorRKNSt3__16vectorISJ_NSN_9allocatorISJ_EEEE, symObjAddr: 0x8BCC, symBinAddr: 0x34968, symSize: 0x158 }
  - { offset: 0x160762, size: 0x8, addend: 0x0, symName: __ZN5godot29call_with_ptr_args_ret_helperINS_20_gde_UnexistingClassENS_6StringEJRKNS_3RefI11SentryEventEEEJLm0EEEEvPT_MS8_FT0_DpT1_EPKPKvPvNS_13IndexSequenceIJXspT2_EEEE, symObjAddr: 0x8EC8, symBinAddr: 0x34D0C, symSize: 0xF4 }
  - { offset: 0x1609AA, size: 0x8, addend: 0x0, symName: __ZN5godot33call_with_variant_args_ret_helperINS_20_gde_UnexistingClassENS_6StringEJRKNS_3RefI11SentryEventEEEJLm0EEEEvPT_MS8_FT0_DpT1_EPPKNS_7VariantERSF_R20GDExtensionCallErrorNS_13IndexSequenceIJXspT2_EEEE, symObjAddr: 0x8CE8, symBinAddr: 0x34AC0, symSize: 0x164 }
  - { offset: 0x175A4B, size: 0x8, addend: 0x0, symName: __ZN9SentrySDK9singletonE, symObjAddr: 0x17B478, symBinAddr: 0x1DA0B0, symSize: 0x0 }
  - { offset: 0x176030, size: 0x8, addend: 0x0, symName: __ZN6sentry4util5printIJPcEEEvNS_5LevelERKN5godot7VariantEDpRKT_, symObjAddr: 0x4668, symBinAddr: 0x30EC0, symSize: 0x25C }
  - { offset: 0x17768C, size: 0x8, addend: 0x0, symName: __ZN5godot10FileAccess22_gde_binding_callbacksE, symObjAddr: 0xBA18, symBinAddr: 0x1CA830, symSize: 0x0 }
  - { offset: 0x178B16, size: 0x8, addend: 0x0, symName: ___cxx_global_var_init, symObjAddr: 0xA890, symBinAddr: 0x3507C, symSize: 0x4C }
  - { offset: 0x178B9D, size: 0x8, addend: 0x0, symName: ___cxx_global_var_init.1, symObjAddr: 0xA8DC, symBinAddr: 0x350C8, symSize: 0x4C }
  - { offset: 0x178C24, size: 0x8, addend: 0x0, symName: ___cxx_global_var_init.2, symObjAddr: 0xA928, symBinAddr: 0x35114, symSize: 0x4C }
  - { offset: 0x178CAB, size: 0x8, addend: 0x0, symName: ___cxx_global_var_init.3, symObjAddr: 0xA974, symBinAddr: 0x35160, symSize: 0x4C }
  - { offset: 0x178D32, size: 0x8, addend: 0x0, symName: ___cxx_global_var_init.4, symObjAddr: 0xA9C0, symBinAddr: 0x351AC, symSize: 0x4C }
  - { offset: 0x178DB9, size: 0x8, addend: 0x0, symName: ___cxx_global_var_init.5, symObjAddr: 0xAA0C, symBinAddr: 0x351F8, symSize: 0x4C }
  - { offset: 0x178E40, size: 0x8, addend: 0x0, symName: ___cxx_global_var_init.6, symObjAddr: 0xAA58, symBinAddr: 0x35244, symSize: 0x4C }
  - { offset: 0x178EC7, size: 0x8, addend: 0x0, symName: ___cxx_global_var_init.7, symObjAddr: 0xAAA4, symBinAddr: 0x35290, symSize: 0x4C }
  - { offset: 0x178F4E, size: 0x8, addend: 0x0, symName: ___cxx_global_var_init.8, symObjAddr: 0xAAF0, symBinAddr: 0x352DC, symSize: 0x4C }
  - { offset: 0x178FD5, size: 0x8, addend: 0x0, symName: ___cxx_global_var_init.9, symObjAddr: 0xAB3C, symBinAddr: 0x35328, symSize: 0x4C }
  - { offset: 0x17903E, size: 0x8, addend: 0x0, symName: __ZN9SentrySDK15capture_messageERKN5godot6StringEN6sentry5LevelE, symObjAddr: 0x0, symBinAddr: 0x2DA70, symSize: 0x10 }
  - { offset: 0x179086, size: 0x8, addend: 0x0, symName: __ZN9SentrySDK15capture_messageERKN5godot6StringEN6sentry5LevelE, symObjAddr: 0x0, symBinAddr: 0x2DA70, symSize: 0x10 }
  - { offset: 0x1790C8, size: 0x8, addend: 0x0, symName: __ZN9SentrySDK14add_breadcrumbERKN5godot6StringES3_N6sentry5LevelES3_RKNS0_10DictionaryE, symObjAddr: 0x10, symBinAddr: 0x2DA80, symSize: 0x10 }
  - { offset: 0x17913A, size: 0x8, addend: 0x0, symName: __ZN9SentrySDK14add_breadcrumbERKN5godot6StringES3_N6sentry5LevelES3_RKNS0_10DictionaryE, symObjAddr: 0x10, symBinAddr: 0x2DA80, symSize: 0x10 }
  - { offset: 0x17918C, size: 0x8, addend: 0x0, symName: __ZNK9SentrySDK17get_last_event_idEv, symObjAddr: 0x20, symBinAddr: 0x2DA90, symSize: 0x10 }
  - { offset: 0x1791B8, size: 0x8, addend: 0x0, symName: __ZNK9SentrySDK17get_last_event_idEv, symObjAddr: 0x20, symBinAddr: 0x2DA90, symSize: 0x10 }
  - { offset: 0x1791EA, size: 0x8, addend: 0x0, symName: __ZNK9SentrySDK12create_eventEv, symObjAddr: 0x30, symBinAddr: 0x2DAA0, symSize: 0x10 }
  - { offset: 0x179216, size: 0x8, addend: 0x0, symName: __ZNK9SentrySDK12create_eventEv, symObjAddr: 0x30, symBinAddr: 0x2DAA0, symSize: 0x10 }
  - { offset: 0x179263, size: 0x8, addend: 0x0, symName: __ZN9SentrySDK13capture_eventERKN5godot3RefI11SentryEventEE, symObjAddr: 0x40, symBinAddr: 0x2DAB0, symSize: 0x30 }
  - { offset: 0x17929F, size: 0x8, addend: 0x0, symName: __ZN9SentrySDK13capture_eventERKN5godot3RefI11SentryEventEE, symObjAddr: 0x40, symBinAddr: 0x2DAB0, symSize: 0x30 }
  - { offset: 0x1792F4, size: 0x8, addend: 0x0, symName: __ZN9SentrySDK13capture_eventERKN5godot3RefI11SentryEventEE.cold.1, symObjAddr: 0x9694, symBinAddr: 0x11E8F0, symSize: 0x58 }
  - { offset: 0x17930C, size: 0x8, addend: 0x0, symName: __ZN9SentrySDK7set_tagERKN5godot6StringES3_, symObjAddr: 0x70, symBinAddr: 0x2DAE0, symSize: 0x60 }
  - { offset: 0x17938F, size: 0x8, addend: 0x0, symName: __ZN9SentrySDK7set_tagERKN5godot6StringES3_.cold.1, symObjAddr: 0x96EC, symBinAddr: 0x11E948, symSize: 0x28 }
  - { offset: 0x1793A7, size: 0x8, addend: 0x0, symName: __ZN9SentrySDK10remove_tagERKN5godot6StringE, symObjAddr: 0xD0, symBinAddr: 0x2DB40, symSize: 0x4C }
  - { offset: 0x17941A, size: 0x8, addend: 0x0, symName: __ZN9SentrySDK10remove_tagERKN5godot6StringE.cold.1, symObjAddr: 0x9714, symBinAddr: 0x11E970, symSize: 0x28 }
  - { offset: 0x1794C0, size: 0x8, addend: 0x0, symName: __ZN9SentrySDK8set_userERKN5godot3RefI10SentryUserEE, symObjAddr: 0x11C, symBinAddr: 0x2DB8C, symSize: 0xBC }
  - { offset: 0x1795F9, size: 0x8, addend: 0x0, symName: __ZN5godot3RefI10SentryUserE11instantiateEv, symObjAddr: 0x1EC, symBinAddr: 0x2DC48, symSize: 0x1B0 }
  - { offset: 0x1799B2, size: 0x8, addend: 0x0, symName: __ZN5godot3RefI10SentryUserE11instantiateEv.cold.1, symObjAddr: 0x973C, symBinAddr: 0x11E998, symSize: 0x5C }
  - { offset: 0x179A22, size: 0x8, addend: 0x0, symName: __ZN9SentrySDK11remove_userEv, symObjAddr: 0x388, symBinAddr: 0x2DDF8, symSize: 0x30 }
  - { offset: 0x179A85, size: 0x8, addend: 0x0, symName: __ZN9SentrySDK11set_contextERKN5godot6StringERKNS0_10DictionaryE, symObjAddr: 0x3B8, symBinAddr: 0x2DE28, symSize: 0x60 }
  - { offset: 0x179B08, size: 0x8, addend: 0x0, symName: __ZN9SentrySDK11set_contextERKN5godot6StringERKNS0_10DictionaryE.cold.1, symObjAddr: 0x9798, symBinAddr: 0x11E9F4, symSize: 0x28 }
  - { offset: 0x179B45, size: 0x8, addend: 0x0, symName: __ZN9SentrySDK14_init_contextsEv, symObjAddr: 0x418, symBinAddr: 0x2DE88, symSize: 0x268 }
  - { offset: 0x17A3BD, size: 0x8, addend: 0x0, symName: __ZN9SentrySDK11_initializeEv, symObjAddr: 0x680, symBinAddr: 0x2E0F0, symSize: 0x224 }
  - { offset: 0x17AA0E, size: 0x8, addend: 0x0, symName: __ZN5godot3RefI12SentryLoggerE11instantiateEv, symObjAddr: 0x8BC, symBinAddr: 0x2E314, symSize: 0x118 }
  - { offset: 0x17ABB6, size: 0x8, addend: 0x0, symName: __ZN5godot6Object7cast_toINS_6LoggerEEEPT_PS0_, symObjAddr: 0x4580, symBinAddr: 0x30DD8, symSize: 0xE8 }
  - { offset: 0x17AD5A, size: 0x8, addend: 0x0, symName: __ZN5godot3RefI12SentryLoggerE11instantiateEv.cold.1, symObjAddr: 0x97C0, symBinAddr: 0x11EA1C, symSize: 0x5C }
  - { offset: 0x17ADCA, size: 0x8, addend: 0x0, symName: __ZN9SentrySDK33_check_if_configuration_succeededEv, symObjAddr: 0x9CC, symBinAddr: 0x2E42C, symSize: 0xCC }
  - { offset: 0x17AEB2, size: 0x8, addend: 0x0, symName: __ZN9SentrySDK22_demo_helper_crash_appEv, symObjAddr: 0xA98, symBinAddr: 0x2E4F8, symSize: 0x88 }
  - { offset: 0x17AF5C, size: 0x8, addend: 0x0, symName: __ZN9SentrySDK25notify_options_configuredEv, symObjAddr: 0xB20, symBinAddr: 0x2E580, symSize: 0xA0 }
  - { offset: 0x17BB95, size: 0x8, addend: 0x0, symName: __ZN9SentrySDK13_bind_methodsEv, symObjAddr: 0xBC0, symBinAddr: 0x2E620, symSize: 0x121C }
  - { offset: 0x17F8EF, size: 0x8, addend: 0x0, symName: __ZN5godot7ClassDB11bind_methodINS_16MethodDefinitionEM9SentrySDKFvRKNS_6StringES6_N6sentry5LevelES6_RKNS_10DictionaryEEJS8_PKcS9_EEEPNS_10MethodBindET_T0_DpT1_, symObjAddr: 0x1DE4, symBinAddr: 0x2F844, symSize: 0x118 }
  - { offset: 0x17FA39, size: 0x8, addend: 0x0, symName: __ZN9SentrySDK13_bind_methodsEv.cold.1, symObjAddr: 0x981C, symBinAddr: 0x11EA78, symSize: 0x5C }
  - { offset: 0x17FA67, size: 0x8, addend: 0x0, symName: __ZN9SentrySDK13_bind_methodsEv.cold.2, symObjAddr: 0x9878, symBinAddr: 0x11EAD4, symSize: 0x58 }
  - { offset: 0x17FA95, size: 0x8, addend: 0x0, symName: __ZN9SentrySDK13_bind_methodsEv.cold.3, symObjAddr: 0x98D0, symBinAddr: 0x11EB2C, symSize: 0x58 }
  - { offset: 0x17FAC3, size: 0x8, addend: 0x0, symName: __ZN9SentrySDK13_bind_methodsEv.cold.4, symObjAddr: 0x9928, symBinAddr: 0x11EB84, symSize: 0x58 }
  - { offset: 0x17FAF1, size: 0x8, addend: 0x0, symName: __ZN9SentrySDK13_bind_methodsEv.cold.5, symObjAddr: 0x9980, symBinAddr: 0x11EBDC, symSize: 0x58 }
  - { offset: 0x17FB1F, size: 0x8, addend: 0x0, symName: __ZNK9SentrySDK10is_enabledEv, symObjAddr: 0x1DDC, symBinAddr: 0x2F83C, symSize: 0x8 }
  - { offset: 0x17FB90, size: 0x8, addend: 0x0, symName: __ZNK9SentrySDK8get_userEv, symObjAddr: 0x203C, symBinAddr: 0x2FA9C, symSize: 0x18 }
  - { offset: 0x17FBBA, size: 0x8, addend: 0x0, symName: __ZNK9SentrySDK8get_userEv, symObjAddr: 0x203C, symBinAddr: 0x2FA9C, symSize: 0x18 }
  - { offset: 0x17FBE1, size: 0x8, addend: 0x0, symName: __ZNK9SentrySDK8get_userEv, symObjAddr: 0x203C, symBinAddr: 0x2FA9C, symSize: 0x18 }
  - { offset: 0x17FC50, size: 0x8, addend: 0x0, symName: __ZN9SentrySDK15set_before_sendERKN5godot8CallableE, symObjAddr: 0x2054, symBinAddr: 0x2FAB4, symSize: 0x78 }
  - { offset: 0x17FD8D, size: 0x8, addend: 0x0, symName: __ZN9SentrySDK17unset_before_sendEv, symObjAddr: 0x20CC, symBinAddr: 0x2FB2C, symSize: 0xC0 }
  - { offset: 0x17FED9, size: 0x8, addend: 0x0, symName: __ZN9SentrySDK12set_on_crashERKN5godot8CallableE, symObjAddr: 0x218C, symBinAddr: 0x2FBEC, symSize: 0x78 }
  - { offset: 0x180016, size: 0x8, addend: 0x0, symName: __ZN9SentrySDK14unset_on_crashEv, symObjAddr: 0x2204, symBinAddr: 0x2FC64, symSize: 0xC0 }
  - { offset: 0x180644, size: 0x8, addend: 0x0, symName: __ZN9SentrySDKC2Ev, symObjAddr: 0x22C4, symBinAddr: 0x2FD24, symSize: 0x578 }
  - { offset: 0x181333, size: 0x8, addend: 0x0, symName: __ZN5godot3RefI13RuntimeConfigE11instantiateEv, symObjAddr: 0x283C, symBinAddr: 0x3029C, symSize: 0x118 }
  - { offset: 0x1814DD, size: 0x8, addend: 0x0, symName: __ZN12_GLOBAL__N_132_fix_unix_executable_permissionsERKN5godot6StringE, symObjAddr: 0x2C38, symBinAddr: 0x30690, symSize: 0xEC }
  - { offset: 0x1815AE, size: 0x8, addend: 0x0, symName: __ZN12_GLOBAL__N_124_verify_project_settingsEv, symObjAddr: 0x294C, symBinAddr: 0x303B4, symSize: 0x2DC }
  - { offset: 0x181895, size: 0x8, addend: 0x0, symName: __ZN9SentrySDKC2Ev.cold.3, symObjAddr: 0x9A38, symBinAddr: 0x11EC94, symSize: 0x30 }
  - { offset: 0x1818AD, size: 0x8, addend: 0x0, symName: __ZN9SentrySDKC2Ev.cold.2, symObjAddr: 0x9A08, symBinAddr: 0x11EC64, symSize: 0x30 }
  - { offset: 0x1818C5, size: 0x8, addend: 0x0, symName: __ZN9SentrySDKC2Ev.cold.1, symObjAddr: 0x99D8, symBinAddr: 0x11EC34, symSize: 0x30 }
  - { offset: 0x1819DE, size: 0x8, addend: 0x0, symName: __ZN5godot3RefI13RuntimeConfigE11instantiateEv.cold.1, symObjAddr: 0x9A68, symBinAddr: 0x11ECC4, symSize: 0x5C }
  - { offset: 0x181A9F, size: 0x8, addend: 0x0, symName: __ZN9SentrySDKC1Ev, symObjAddr: 0x2D24, symBinAddr: 0x3077C, symSize: 0x4 }
  - { offset: 0x181ACD, size: 0x8, addend: 0x0, symName: __ZN9SentrySDKC1Ev, symObjAddr: 0x2D24, symBinAddr: 0x3077C, symSize: 0x4 }
  - { offset: 0x181BD0, size: 0x8, addend: 0x0, symName: __ZN9SentrySDKD2Ev, symObjAddr: 0x2D28, symBinAddr: 0x30780, symSize: 0x1A4 }
  - { offset: 0x1821C3, size: 0x8, addend: 0x0, symName: __ZN9SentrySDKD2Ev.cold.1, symObjAddr: 0x9AC4, symBinAddr: 0x11ED20, symSize: 0x30 }
  - { offset: 0x182235, size: 0x8, addend: 0x0, symName: __ZN9SentrySDKD1Ev, symObjAddr: 0x2EEC, symBinAddr: 0x30924, symSize: 0x4 }
  - { offset: 0x182259, size: 0x8, addend: 0x0, symName: __ZN9SentrySDKD1Ev, symObjAddr: 0x2EEC, symBinAddr: 0x30924, symSize: 0x4 }
  - { offset: 0x18228A, size: 0x8, addend: 0x0, symName: __ZN9SentrySDKD0Ev, symObjAddr: 0x2EF0, symBinAddr: 0x30928, symSize: 0x14 }
  - { offset: 0x1822EC, size: 0x8, addend: 0x0, symName: __ZNK9SentrySDK19_is_extension_classEv, symObjAddr: 0x2F04, symBinAddr: 0x3093C, symSize: 0x8 }
  - { offset: 0x182313, size: 0x8, addend: 0x0, symName: __ZN5godot6ObjectD1Ev.cold.1, symObjAddr: 0x9AF4, symBinAddr: 0x11ED50, symSize: 0x1C }
  - { offset: 0x18232F, size: 0x8, addend: 0x0, symName: __ZN5godot6ObjectD1Ev.cold.1, symObjAddr: 0x9AF4, symBinAddr: 0x11ED50, symSize: 0x1C }
  - { offset: 0x182344, size: 0x8, addend: 0x0, symName: __ZN5godot6ObjectD1Ev.cold.1, symObjAddr: 0x9AF4, symBinAddr: 0x11ED50, symSize: 0x1C }
  - { offset: 0x182359, size: 0x8, addend: 0x0, symName: __ZN5godot6ObjectD1Ev.cold.1, symObjAddr: 0x9AF4, symBinAddr: 0x11ED50, symSize: 0x1C }
  - { offset: 0x18236E, size: 0x8, addend: 0x0, symName: __ZN5godot6ObjectD1Ev.cold.1, symObjAddr: 0x9AF4, symBinAddr: 0x11ED50, symSize: 0x1C }
  - { offset: 0x18239E, size: 0x8, addend: 0x0, symName: __ZN5godot6ObjectD0Ev.cold.1, symObjAddr: 0x9B10, symBinAddr: 0x11ED6C, symSize: 0x1C }
  - { offset: 0x1823BA, size: 0x8, addend: 0x0, symName: __ZN5godot6ObjectD0Ev.cold.1, symObjAddr: 0x9B10, symBinAddr: 0x11ED6C, symSize: 0x1C }
  - { offset: 0x1823CF, size: 0x8, addend: 0x0, symName: __ZN5godot6ObjectD0Ev.cold.1, symObjAddr: 0x9B10, symBinAddr: 0x11ED6C, symSize: 0x1C }
  - { offset: 0x1823E4, size: 0x8, addend: 0x0, symName: __ZN5godot6ObjectD0Ev.cold.1, symObjAddr: 0x9B10, symBinAddr: 0x11ED6C, symSize: 0x1C }
  - { offset: 0x1823F9, size: 0x8, addend: 0x0, symName: __ZN5godot6ObjectD0Ev.cold.1, symObjAddr: 0x9B10, symBinAddr: 0x11ED6C, symSize: 0x1C }
  - { offset: 0x18240E, size: 0x8, addend: 0x0, symName: __ZN5godot6ObjectD0Ev.cold.1, symObjAddr: 0x9B10, symBinAddr: 0x11ED6C, symSize: 0x1C }
  - { offset: 0x182425, size: 0x8, addend: 0x0, symName: __ZN5godot7WrappedD1Ev.cold.1, symObjAddr: 0x9B2C, symBinAddr: 0x11ED88, symSize: 0x1C }
  - { offset: 0x182441, size: 0x8, addend: 0x0, symName: __ZN5godot7WrappedD1Ev.cold.1, symObjAddr: 0x9B2C, symBinAddr: 0x11ED88, symSize: 0x1C }
  - { offset: 0x182456, size: 0x8, addend: 0x0, symName: __ZN5godot7WrappedD1Ev.cold.1, symObjAddr: 0x9B2C, symBinAddr: 0x11ED88, symSize: 0x1C }
  - { offset: 0x18246B, size: 0x8, addend: 0x0, symName: __ZN5godot7WrappedD1Ev.cold.1, symObjAddr: 0x9B2C, symBinAddr: 0x11ED88, symSize: 0x1C }
  - { offset: 0x18249A, size: 0x8, addend: 0x0, symName: __ZN5godot7WrappedD0Ev.cold.1, symObjAddr: 0x9B48, symBinAddr: 0x11EDA4, symSize: 0x1C }
  - { offset: 0x1824B6, size: 0x8, addend: 0x0, symName: __ZN5godot7WrappedD0Ev.cold.1, symObjAddr: 0x9B48, symBinAddr: 0x11EDA4, symSize: 0x1C }
  - { offset: 0x1824CB, size: 0x8, addend: 0x0, symName: __ZN5godot7WrappedD0Ev.cold.1, symObjAddr: 0x9B48, symBinAddr: 0x11EDA4, symSize: 0x1C }
  - { offset: 0x1824E0, size: 0x8, addend: 0x0, symName: __ZN5godot7WrappedD0Ev.cold.1, symObjAddr: 0x9B48, symBinAddr: 0x11EDA4, symSize: 0x1C }
  - { offset: 0x1824F5, size: 0x8, addend: 0x0, symName: __ZN5godot7WrappedD0Ev.cold.1, symObjAddr: 0x9B48, symBinAddr: 0x11EDA4, symSize: 0x1C }
  - { offset: 0x182543, size: 0x8, addend: 0x0, symName: __ZN5godot4ListINS_12PropertyInfoENS_16DefaultAllocatorEE5_Data5eraseEPNS3_7ElementE.cold.2, symObjAddr: 0x9B84, symBinAddr: 0x11EDE0, symSize: 0x20 }
  - { offset: 0x18255B, size: 0x8, addend: 0x0, symName: __ZN5godot4ListINS_12PropertyInfoENS_16DefaultAllocatorEE5_Data5eraseEPNS3_7ElementE.cold.1, symObjAddr: 0x9B64, symBinAddr: 0x11EDC0, symSize: 0x20 }
  - { offset: 0x18257A, size: 0x8, addend: 0x0, symName: __ZN5godot8internal23EngineClassRegistrationINS_6ObjectEE8callbackEv.cold.1, symObjAddr: 0x9BA4, symBinAddr: 0x11EE00, symSize: 0x5C }
  - { offset: 0x1825D4, size: 0x8, addend: 0x0, symName: __ZN5godot8internal23EngineClassRegistrationINS_16ClassDBSingletonEE8callbackEv.cold.1, symObjAddr: 0x9C00, symBinAddr: 0x11EE5C, symSize: 0x5C }
  - { offset: 0x182609, size: 0x8, addend: 0x0, symName: __ZN5godot8internal23EngineClassRegistrationINS_10RefCountedEE8callbackEv.cold.1, symObjAddr: 0x9C5C, symBinAddr: 0x11EEB8, symSize: 0x5C }
  - { offset: 0x182678, size: 0x8, addend: 0x0, symName: __ZN5godot10RefCountedD1Ev.cold.1, symObjAddr: 0x9CB8, symBinAddr: 0x11EF14, symSize: 0x1C }
  - { offset: 0x182694, size: 0x8, addend: 0x0, symName: __ZN5godot10RefCountedD1Ev.cold.1, symObjAddr: 0x9CB8, symBinAddr: 0x11EF14, symSize: 0x1C }
  - { offset: 0x1826A9, size: 0x8, addend: 0x0, symName: __ZN5godot10RefCountedD1Ev.cold.1, symObjAddr: 0x9CB8, symBinAddr: 0x11EF14, symSize: 0x1C }
  - { offset: 0x1826BE, size: 0x8, addend: 0x0, symName: __ZN5godot10RefCountedD1Ev.cold.1, symObjAddr: 0x9CB8, symBinAddr: 0x11EF14, symSize: 0x1C }
  - { offset: 0x1826D3, size: 0x8, addend: 0x0, symName: __ZN5godot10RefCountedD1Ev.cold.1, symObjAddr: 0x9CB8, symBinAddr: 0x11EF14, symSize: 0x1C }
  - { offset: 0x1826E8, size: 0x8, addend: 0x0, symName: __ZN5godot10RefCountedD1Ev.cold.1, symObjAddr: 0x9CB8, symBinAddr: 0x11EF14, symSize: 0x1C }
  - { offset: 0x18271B, size: 0x8, addend: 0x0, symName: __ZN5godot10RefCountedD0Ev.cold.1, symObjAddr: 0x9CD4, symBinAddr: 0x11EF30, symSize: 0x1C }
  - { offset: 0x182737, size: 0x8, addend: 0x0, symName: __ZN5godot10RefCountedD0Ev.cold.1, symObjAddr: 0x9CD4, symBinAddr: 0x11EF30, symSize: 0x1C }
  - { offset: 0x18274C, size: 0x8, addend: 0x0, symName: __ZN5godot10RefCountedD0Ev.cold.1, symObjAddr: 0x9CD4, symBinAddr: 0x11EF30, symSize: 0x1C }
  - { offset: 0x182761, size: 0x8, addend: 0x0, symName: __ZN5godot10RefCountedD0Ev.cold.1, symObjAddr: 0x9CD4, symBinAddr: 0x11EF30, symSize: 0x1C }
  - { offset: 0x182776, size: 0x8, addend: 0x0, symName: __ZN5godot10RefCountedD0Ev.cold.1, symObjAddr: 0x9CD4, symBinAddr: 0x11EF30, symSize: 0x1C }
  - { offset: 0x18278B, size: 0x8, addend: 0x0, symName: __ZN5godot10RefCountedD0Ev.cold.1, symObjAddr: 0x9CD4, symBinAddr: 0x11EF30, symSize: 0x1C }
  - { offset: 0x1827A0, size: 0x8, addend: 0x0, symName: __ZN5godot10RefCountedD0Ev.cold.1, symObjAddr: 0x9CD4, symBinAddr: 0x11EF30, symSize: 0x1C }
  - { offset: 0x1827BF, size: 0x8, addend: 0x0, symName: __ZN5godot8internal23EngineClassRegistrationINS_10ConfigFileEE8callbackEv.cold.1, symObjAddr: 0x9CF0, symBinAddr: 0x11EF4C, symSize: 0x5C }
  - { offset: 0x182809, size: 0x8, addend: 0x0, symName: __ZN5godot10ConfigFileD1Ev.cold.1, symObjAddr: 0x9D4C, symBinAddr: 0x11EFA8, symSize: 0x1C }
  - { offset: 0x182825, size: 0x8, addend: 0x0, symName: __ZN5godot10ConfigFileD1Ev.cold.1, symObjAddr: 0x9D4C, symBinAddr: 0x11EFA8, symSize: 0x1C }
  - { offset: 0x18283A, size: 0x8, addend: 0x0, symName: __ZN5godot10ConfigFileD1Ev.cold.1, symObjAddr: 0x9D4C, symBinAddr: 0x11EFA8, symSize: 0x1C }
  - { offset: 0x18284F, size: 0x8, addend: 0x0, symName: __ZN5godot10ConfigFileD1Ev.cold.1, symObjAddr: 0x9D4C, symBinAddr: 0x11EFA8, symSize: 0x1C }
  - { offset: 0x182864, size: 0x8, addend: 0x0, symName: __ZN5godot10ConfigFileD1Ev.cold.1, symObjAddr: 0x9D4C, symBinAddr: 0x11EFA8, symSize: 0x1C }
  - { offset: 0x182879, size: 0x8, addend: 0x0, symName: __ZN5godot10ConfigFileD1Ev.cold.1, symObjAddr: 0x9D4C, symBinAddr: 0x11EFA8, symSize: 0x1C }
  - { offset: 0x18288E, size: 0x8, addend: 0x0, symName: __ZN5godot10ConfigFileD1Ev.cold.1, symObjAddr: 0x9D4C, symBinAddr: 0x11EFA8, symSize: 0x1C }
  - { offset: 0x1828C2, size: 0x8, addend: 0x0, symName: __ZN5godot10ConfigFileD0Ev.cold.1, symObjAddr: 0x9D68, symBinAddr: 0x11EFC4, symSize: 0x1C }
  - { offset: 0x1828DE, size: 0x8, addend: 0x0, symName: __ZN5godot10ConfigFileD0Ev.cold.1, symObjAddr: 0x9D68, symBinAddr: 0x11EFC4, symSize: 0x1C }
  - { offset: 0x1828F3, size: 0x8, addend: 0x0, symName: __ZN5godot10ConfigFileD0Ev.cold.1, symObjAddr: 0x9D68, symBinAddr: 0x11EFC4, symSize: 0x1C }
  - { offset: 0x182908, size: 0x8, addend: 0x0, symName: __ZN5godot10ConfigFileD0Ev.cold.1, symObjAddr: 0x9D68, symBinAddr: 0x11EFC4, symSize: 0x1C }
  - { offset: 0x18291D, size: 0x8, addend: 0x0, symName: __ZN5godot10ConfigFileD0Ev.cold.1, symObjAddr: 0x9D68, symBinAddr: 0x11EFC4, symSize: 0x1C }
  - { offset: 0x182932, size: 0x8, addend: 0x0, symName: __ZN5godot10ConfigFileD0Ev.cold.1, symObjAddr: 0x9D68, symBinAddr: 0x11EFC4, symSize: 0x1C }
  - { offset: 0x182947, size: 0x8, addend: 0x0, symName: __ZN5godot10ConfigFileD0Ev.cold.1, symObjAddr: 0x9D68, symBinAddr: 0x11EFC4, symSize: 0x1C }
  - { offset: 0x18295C, size: 0x8, addend: 0x0, symName: __ZN5godot10ConfigFileD0Ev.cold.1, symObjAddr: 0x9D68, symBinAddr: 0x11EFC4, symSize: 0x1C }
  - { offset: 0x18297C, size: 0x8, addend: 0x0, symName: __ZN5godot8internal23EngineClassRegistrationINS_6LoggerEE8callbackEv.cold.1, symObjAddr: 0x9D84, symBinAddr: 0x11EFE0, symSize: 0x5C }
  - { offset: 0x1829B1, size: 0x8, addend: 0x0, symName: __ZN5godot8internal23EngineClassRegistrationINS_15ScriptBacktraceEE8callbackEv.cold.1, symObjAddr: 0x9DE0, symBinAddr: 0x11F03C, symSize: 0x5C }
  - { offset: 0x1829FB, size: 0x8, addend: 0x0, symName: __ZN5godot15ScriptBacktraceD1Ev.cold.1, symObjAddr: 0x9E3C, symBinAddr: 0x11F098, symSize: 0x1C }
  - { offset: 0x182A17, size: 0x8, addend: 0x0, symName: __ZN5godot15ScriptBacktraceD1Ev.cold.1, symObjAddr: 0x9E3C, symBinAddr: 0x11F098, symSize: 0x1C }
  - { offset: 0x182A2C, size: 0x8, addend: 0x0, symName: __ZN5godot15ScriptBacktraceD1Ev.cold.1, symObjAddr: 0x9E3C, symBinAddr: 0x11F098, symSize: 0x1C }
  - { offset: 0x182A41, size: 0x8, addend: 0x0, symName: __ZN5godot15ScriptBacktraceD1Ev.cold.1, symObjAddr: 0x9E3C, symBinAddr: 0x11F098, symSize: 0x1C }
  - { offset: 0x182A56, size: 0x8, addend: 0x0, symName: __ZN5godot15ScriptBacktraceD1Ev.cold.1, symObjAddr: 0x9E3C, symBinAddr: 0x11F098, symSize: 0x1C }
  - { offset: 0x182A6B, size: 0x8, addend: 0x0, symName: __ZN5godot15ScriptBacktraceD1Ev.cold.1, symObjAddr: 0x9E3C, symBinAddr: 0x11F098, symSize: 0x1C }
  - { offset: 0x182A80, size: 0x8, addend: 0x0, symName: __ZN5godot15ScriptBacktraceD1Ev.cold.1, symObjAddr: 0x9E3C, symBinAddr: 0x11F098, symSize: 0x1C }
  - { offset: 0x182AB4, size: 0x8, addend: 0x0, symName: __ZN5godot15ScriptBacktraceD0Ev.cold.1, symObjAddr: 0x9E58, symBinAddr: 0x11F0B4, symSize: 0x1C }
  - { offset: 0x182AD0, size: 0x8, addend: 0x0, symName: __ZN5godot15ScriptBacktraceD0Ev.cold.1, symObjAddr: 0x9E58, symBinAddr: 0x11F0B4, symSize: 0x1C }
  - { offset: 0x182AE5, size: 0x8, addend: 0x0, symName: __ZN5godot15ScriptBacktraceD0Ev.cold.1, symObjAddr: 0x9E58, symBinAddr: 0x11F0B4, symSize: 0x1C }
  - { offset: 0x182AFA, size: 0x8, addend: 0x0, symName: __ZN5godot15ScriptBacktraceD0Ev.cold.1, symObjAddr: 0x9E58, symBinAddr: 0x11F0B4, symSize: 0x1C }
  - { offset: 0x182B0F, size: 0x8, addend: 0x0, symName: __ZN5godot15ScriptBacktraceD0Ev.cold.1, symObjAddr: 0x9E58, symBinAddr: 0x11F0B4, symSize: 0x1C }
  - { offset: 0x182B24, size: 0x8, addend: 0x0, symName: __ZN5godot15ScriptBacktraceD0Ev.cold.1, symObjAddr: 0x9E58, symBinAddr: 0x11F0B4, symSize: 0x1C }
  - { offset: 0x182B39, size: 0x8, addend: 0x0, symName: __ZN5godot15ScriptBacktraceD0Ev.cold.1, symObjAddr: 0x9E58, symBinAddr: 0x11F0B4, symSize: 0x1C }
  - { offset: 0x182B4E, size: 0x8, addend: 0x0, symName: __ZN5godot15ScriptBacktraceD0Ev.cold.1, symObjAddr: 0x9E58, symBinAddr: 0x11F0B4, symSize: 0x1C }
  - { offset: 0x182B6E, size: 0x8, addend: 0x0, symName: __ZN5godot8internal23EngineClassRegistrationINS_6EngineEE8callbackEv.cold.1, symObjAddr: 0x9E74, symBinAddr: 0x11F0D0, symSize: 0x5C }
  - { offset: 0x182BA3, size: 0x8, addend: 0x0, symName: __ZN5godot8internal23EngineClassRegistrationINS_10FileAccessEE8callbackEv, symObjAddr: 0x3B68, symBinAddr: 0x30A30, symSize: 0x38 }
  - { offset: 0x182BEF, size: 0x8, addend: 0x0, symName: __ZN5godot8internal23EngineClassRegistrationINS_10FileAccessEE8callbackEv.cold.1, symObjAddr: 0x9ED0, symBinAddr: 0x11F12C, symSize: 0x5C }
  - { offset: 0x182C67, size: 0x8, addend: 0x0, symName: __ZN5godot10FileAccess28_gde_binding_create_callbackEPvS1_, symObjAddr: 0x3BB0, symBinAddr: 0x30A68, symSize: 0x44 }
  - { offset: 0x182D34, size: 0x8, addend: 0x0, symName: __ZN5godot10FileAccess26_gde_binding_free_callbackEPvS1_S1_, symObjAddr: 0x3BF4, symBinAddr: 0x30AAC, symSize: 0x34 }
  - { offset: 0x182D8E, size: 0x8, addend: 0x0, symName: __ZN5godot10FileAccess31_gde_binding_reference_callbackEPvS1_h, symObjAddr: 0x3C28, symBinAddr: 0x30AE0, symSize: 0x8 }
  - { offset: 0x182DEB, size: 0x8, addend: 0x0, symName: __ZN5godot10FileAccessD1Ev, symObjAddr: 0x3C30, symBinAddr: 0x30AE8, symSize: 0x74 }
  - { offset: 0x182FA2, size: 0x8, addend: 0x0, symName: __ZN5godot10FileAccessD1Ev.cold.1, symObjAddr: 0x9F2C, symBinAddr: 0x11F188, symSize: 0x1C }
  - { offset: 0x182FBE, size: 0x8, addend: 0x0, symName: __ZN5godot10FileAccessD1Ev.cold.1, symObjAddr: 0x9F2C, symBinAddr: 0x11F188, symSize: 0x1C }
  - { offset: 0x182FD3, size: 0x8, addend: 0x0, symName: __ZN5godot10FileAccessD1Ev.cold.1, symObjAddr: 0x9F2C, symBinAddr: 0x11F188, symSize: 0x1C }
  - { offset: 0x182FE8, size: 0x8, addend: 0x0, symName: __ZN5godot10FileAccessD1Ev.cold.1, symObjAddr: 0x9F2C, symBinAddr: 0x11F188, symSize: 0x1C }
  - { offset: 0x182FFD, size: 0x8, addend: 0x0, symName: __ZN5godot10FileAccessD1Ev.cold.1, symObjAddr: 0x9F2C, symBinAddr: 0x11F188, symSize: 0x1C }
  - { offset: 0x183012, size: 0x8, addend: 0x0, symName: __ZN5godot10FileAccessD1Ev.cold.1, symObjAddr: 0x9F2C, symBinAddr: 0x11F188, symSize: 0x1C }
  - { offset: 0x183027, size: 0x8, addend: 0x0, symName: __ZN5godot10FileAccessD1Ev.cold.1, symObjAddr: 0x9F2C, symBinAddr: 0x11F188, symSize: 0x1C }
  - { offset: 0x18305B, size: 0x8, addend: 0x0, symName: __ZN5godot10FileAccessD0Ev, symObjAddr: 0x3CBC, symBinAddr: 0x30B5C, symSize: 0x68 }
  - { offset: 0x1831BA, size: 0x8, addend: 0x0, symName: __ZN5godot10FileAccessD0Ev.cold.1, symObjAddr: 0x9F48, symBinAddr: 0x11F1A4, symSize: 0x1C }
  - { offset: 0x1831D6, size: 0x8, addend: 0x0, symName: __ZN5godot10FileAccessD0Ev.cold.1, symObjAddr: 0x9F48, symBinAddr: 0x11F1A4, symSize: 0x1C }
  - { offset: 0x1831EB, size: 0x8, addend: 0x0, symName: __ZN5godot10FileAccessD0Ev.cold.1, symObjAddr: 0x9F48, symBinAddr: 0x11F1A4, symSize: 0x1C }
  - { offset: 0x183200, size: 0x8, addend: 0x0, symName: __ZN5godot10FileAccessD0Ev.cold.1, symObjAddr: 0x9F48, symBinAddr: 0x11F1A4, symSize: 0x1C }
  - { offset: 0x183215, size: 0x8, addend: 0x0, symName: __ZN5godot10FileAccessD0Ev.cold.1, symObjAddr: 0x9F48, symBinAddr: 0x11F1A4, symSize: 0x1C }
  - { offset: 0x18322A, size: 0x8, addend: 0x0, symName: __ZN5godot10FileAccessD0Ev.cold.1, symObjAddr: 0x9F48, symBinAddr: 0x11F1A4, symSize: 0x1C }
  - { offset: 0x18323F, size: 0x8, addend: 0x0, symName: __ZN5godot10FileAccessD0Ev.cold.1, symObjAddr: 0x9F48, symBinAddr: 0x11F1A4, symSize: 0x1C }
  - { offset: 0x183254, size: 0x8, addend: 0x0, symName: __ZN5godot10FileAccessD0Ev.cold.1, symObjAddr: 0x9F48, symBinAddr: 0x11F1A4, symSize: 0x1C }
  - { offset: 0x183274, size: 0x8, addend: 0x0, symName: __ZN5godot8internal23EngineClassRegistrationINS_2OSEE8callbackEv.cold.1, symObjAddr: 0x9F64, symBinAddr: 0x11F1C0, symSize: 0x5C }
  - { offset: 0x1832A9, size: 0x8, addend: 0x0, symName: __ZN5godot8internal23EngineClassRegistrationINS_15ProjectSettingsEE8callbackEv.cold.1, symObjAddr: 0x9FC0, symBinAddr: 0x11F21C, symSize: 0x5C }
  - { offset: 0x1833F7, size: 0x8, addend: 0x0, symName: __ZN10SentryUserD2Ev.cold.1, symObjAddr: 0xA01C, symBinAddr: 0x11F278, symSize: 0x1C }
  - { offset: 0x183413, size: 0x8, addend: 0x0, symName: __ZN10SentryUserD2Ev.cold.1, symObjAddr: 0xA01C, symBinAddr: 0x11F278, symSize: 0x1C }
  - { offset: 0x183428, size: 0x8, addend: 0x0, symName: __ZN10SentryUserD2Ev.cold.1, symObjAddr: 0xA01C, symBinAddr: 0x11F278, symSize: 0x1C }
  - { offset: 0x18343D, size: 0x8, addend: 0x0, symName: __ZN10SentryUserD2Ev.cold.1, symObjAddr: 0xA01C, symBinAddr: 0x11F278, symSize: 0x1C }
  - { offset: 0x183452, size: 0x8, addend: 0x0, symName: __ZN10SentryUserD2Ev.cold.1, symObjAddr: 0xA01C, symBinAddr: 0x11F278, symSize: 0x1C }
  - { offset: 0x183467, size: 0x8, addend: 0x0, symName: __ZN10SentryUserD2Ev.cold.1, symObjAddr: 0xA01C, symBinAddr: 0x11F278, symSize: 0x1C }
  - { offset: 0x18349A, size: 0x8, addend: 0x0, symName: __ZNSt3__120__shared_ptr_emplaceIN6sentry9NativeSDKENS_9allocatorIS2_EEED1Ev, symObjAddr: 0x41B0, symBinAddr: 0x30BC4, symSize: 0x10 }
  - { offset: 0x1834BE, size: 0x8, addend: 0x0, symName: __ZNSt3__120__shared_ptr_emplaceIN6sentry9NativeSDKENS_9allocatorIS2_EEED1Ev, symObjAddr: 0x41B0, symBinAddr: 0x30BC4, symSize: 0x10 }
  - { offset: 0x1834F5, size: 0x8, addend: 0x0, symName: __ZNSt3__120__shared_ptr_emplaceIN6sentry9NativeSDKENS_9allocatorIS2_EEED0Ev, symObjAddr: 0x41C0, symBinAddr: 0x30BD4, symSize: 0x20 }
  - { offset: 0x1835EA, size: 0x8, addend: 0x0, symName: __ZNSt3__120__shared_ptr_emplaceIN6sentry9NativeSDKENS_9allocatorIS2_EEE16__on_zero_sharedEv, symObjAddr: 0x41E0, symBinAddr: 0x30BF4, symSize: 0xC }
  - { offset: 0x183614, size: 0x8, addend: 0x0, symName: __ZNSt3__120__shared_ptr_emplaceIN6sentry9NativeSDKENS_9allocatorIS2_EEE16__on_zero_sharedEv, symObjAddr: 0x41E0, symBinAddr: 0x30BF4, symSize: 0xC }
  - { offset: 0x183634, size: 0x8, addend: 0x0, symName: __ZNSt3__120__shared_ptr_emplaceIN6sentry9NativeSDKENS_9allocatorIS2_EEE16__on_zero_sharedEv, symObjAddr: 0x41E0, symBinAddr: 0x30BF4, symSize: 0xC }
  - { offset: 0x183654, size: 0x8, addend: 0x0, symName: __ZNSt3__120__shared_ptr_emplaceIN6sentry9NativeSDKENS_9allocatorIS2_EEE16__on_zero_sharedEv, symObjAddr: 0x41E0, symBinAddr: 0x30BF4, symSize: 0xC }
  - { offset: 0x1836D8, size: 0x8, addend: 0x0, symName: __ZNSt3__120__shared_ptr_emplaceIN6sentry9NativeSDKENS_9allocatorIS2_EEE21__on_zero_shared_weakEv, symObjAddr: 0x41EC, symBinAddr: 0x30C00, symSize: 0x4 }
  - { offset: 0x18370D, size: 0x8, addend: 0x0, symName: __ZNSt3__120__shared_ptr_emplaceIN6sentry9NativeSDKENS_9allocatorIS2_EEE21__on_zero_shared_weakEv, symObjAddr: 0x41EC, symBinAddr: 0x30C00, symSize: 0x4 }
  - { offset: 0x183732, size: 0x8, addend: 0x0, symName: __ZNSt3__120__shared_ptr_emplaceIN6sentry9NativeSDKENS_9allocatorIS2_EEE21__on_zero_shared_weakEv, symObjAddr: 0x41EC, symBinAddr: 0x30C00, symSize: 0x4 }
  - { offset: 0x183757, size: 0x8, addend: 0x0, symName: __ZNSt3__120__shared_ptr_emplaceIN6sentry9NativeSDKENS_9allocatorIS2_EEE21__on_zero_shared_weakEv, symObjAddr: 0x41EC, symBinAddr: 0x30C00, symSize: 0x4 }
  - { offset: 0x183787, size: 0x8, addend: 0x0, symName: __ZNSt3__120__shared_ptr_emplaceIN6sentry9NativeSDKENS_9allocatorIS2_EEE21__on_zero_shared_weakEv, symObjAddr: 0x41EC, symBinAddr: 0x30C00, symSize: 0x4 }
  - { offset: 0x1837B1, size: 0x8, addend: 0x0, symName: __ZNSt3__120__shared_ptr_emplaceIN6sentry9NativeSDKENS_9allocatorIS2_EEE21__on_zero_shared_weakEv, symObjAddr: 0x41EC, symBinAddr: 0x30C00, symSize: 0x4 }
  - { offset: 0x1837F9, size: 0x8, addend: 0x0, symName: __ZNSt3__120__shared_ptr_emplaceIN6sentry11DisabledSDKENS_9allocatorIS2_EEED1Ev, symObjAddr: 0x41F0, symBinAddr: 0x30C04, symSize: 0x10 }
  - { offset: 0x18381D, size: 0x8, addend: 0x0, symName: __ZNSt3__120__shared_ptr_emplaceIN6sentry11DisabledSDKENS_9allocatorIS2_EEED1Ev, symObjAddr: 0x41F0, symBinAddr: 0x30C04, symSize: 0x10 }
  - { offset: 0x183854, size: 0x8, addend: 0x0, symName: __ZNSt3__120__shared_ptr_emplaceIN6sentry11DisabledSDKENS_9allocatorIS2_EEED0Ev, symObjAddr: 0x4200, symBinAddr: 0x30C14, symSize: 0x20 }
  - { offset: 0x183949, size: 0x8, addend: 0x0, symName: __ZNSt3__120__shared_ptr_emplaceIN6sentry11DisabledSDKENS_9allocatorIS2_EEE16__on_zero_sharedEv, symObjAddr: 0x4220, symBinAddr: 0x30C34, symSize: 0xC }
  - { offset: 0x183973, size: 0x8, addend: 0x0, symName: __ZNSt3__120__shared_ptr_emplaceIN6sentry11DisabledSDKENS_9allocatorIS2_EEE16__on_zero_sharedEv, symObjAddr: 0x4220, symBinAddr: 0x30C34, symSize: 0xC }
  - { offset: 0x183993, size: 0x8, addend: 0x0, symName: __ZNSt3__120__shared_ptr_emplaceIN6sentry11DisabledSDKENS_9allocatorIS2_EEE16__on_zero_sharedEv, symObjAddr: 0x4220, symBinAddr: 0x30C34, symSize: 0xC }
  - { offset: 0x1839B3, size: 0x8, addend: 0x0, symName: __ZNSt3__120__shared_ptr_emplaceIN6sentry11DisabledSDKENS_9allocatorIS2_EEE16__on_zero_sharedEv, symObjAddr: 0x4220, symBinAddr: 0x30C34, symSize: 0xC }
  - { offset: 0x183A37, size: 0x8, addend: 0x0, symName: __ZNSt3__120__shared_ptr_emplaceIN6sentry11DisabledSDKENS_9allocatorIS2_EEE21__on_zero_shared_weakEv, symObjAddr: 0x422C, symBinAddr: 0x30C40, symSize: 0x4 }
  - { offset: 0x183A6C, size: 0x8, addend: 0x0, symName: __ZNSt3__120__shared_ptr_emplaceIN6sentry11DisabledSDKENS_9allocatorIS2_EEE21__on_zero_shared_weakEv, symObjAddr: 0x422C, symBinAddr: 0x30C40, symSize: 0x4 }
  - { offset: 0x183A91, size: 0x8, addend: 0x0, symName: __ZNSt3__120__shared_ptr_emplaceIN6sentry11DisabledSDKENS_9allocatorIS2_EEE21__on_zero_shared_weakEv, symObjAddr: 0x422C, symBinAddr: 0x30C40, symSize: 0x4 }
  - { offset: 0x183AB6, size: 0x8, addend: 0x0, symName: __ZNSt3__120__shared_ptr_emplaceIN6sentry11DisabledSDKENS_9allocatorIS2_EEE21__on_zero_shared_weakEv, symObjAddr: 0x422C, symBinAddr: 0x30C40, symSize: 0x4 }
  - { offset: 0x183AE5, size: 0x8, addend: 0x0, symName: __ZNSt3__120__shared_ptr_emplaceIN6sentry11DisabledSDKENS_9allocatorIS2_EEE21__on_zero_shared_weakEv, symObjAddr: 0x422C, symBinAddr: 0x30C40, symSize: 0x4 }
  - { offset: 0x183B0E, size: 0x8, addend: 0x0, symName: __ZNSt3__120__shared_ptr_emplaceIN6sentry11DisabledSDKENS_9allocatorIS2_EEE21__on_zero_shared_weakEv, symObjAddr: 0x422C, symBinAddr: 0x30C40, symSize: 0x4 }
  - { offset: 0x183B3A, size: 0x8, addend: 0x0, symName: __ZN6sentry11DisabledSDK11set_contextERKN5godot6StringERKNS1_10DictionaryE, symObjAddr: 0x4230, symBinAddr: 0x30C44, symSize: 0x4 }
  - { offset: 0x183B7B, size: 0x8, addend: 0x0, symName: __ZN6sentry11DisabledSDK14remove_contextERKN5godot6StringE, symObjAddr: 0x4234, symBinAddr: 0x30C48, symSize: 0x4 }
  - { offset: 0x183BAE, size: 0x8, addend: 0x0, symName: __ZN6sentry11DisabledSDK7set_tagERKN5godot6StringES4_, symObjAddr: 0x4238, symBinAddr: 0x30C4C, symSize: 0x4 }
  - { offset: 0x183BEF, size: 0x8, addend: 0x0, symName: __ZN6sentry11DisabledSDK10remove_tagERKN5godot6StringE, symObjAddr: 0x423C, symBinAddr: 0x30C50, symSize: 0x4 }
  - { offset: 0x183C22, size: 0x8, addend: 0x0, symName: __ZN6sentry11DisabledSDK8set_userERKN5godot3RefI10SentryUserEE, symObjAddr: 0x4240, symBinAddr: 0x30C54, symSize: 0x4 }
  - { offset: 0x183C55, size: 0x8, addend: 0x0, symName: __ZN6sentry11DisabledSDK11remove_userEv, symObjAddr: 0x4244, symBinAddr: 0x30C58, symSize: 0x4 }
  - { offset: 0x183C7A, size: 0x8, addend: 0x0, symName: __ZN6sentry11DisabledSDK14add_breadcrumbERKN5godot6StringES4_NS_5LevelES4_RKNS1_10DictionaryE, symObjAddr: 0x4248, symBinAddr: 0x30C5C, symSize: 0x4 }
  - { offset: 0x183CE5, size: 0x8, addend: 0x0, symName: __ZN6sentry11DisabledSDK15capture_messageERKN5godot6StringENS_5LevelE, symObjAddr: 0x424C, symBinAddr: 0x30C60, symSize: 0x10 }
  - { offset: 0x183D2A, size: 0x8, addend: 0x0, symName: __ZN6sentry11DisabledSDK17get_last_event_idEv, symObjAddr: 0x425C, symBinAddr: 0x30C70, symSize: 0x10 }
  - { offset: 0x183E45, size: 0x8, addend: 0x0, symName: __ZN6sentry11DisabledSDK12create_eventEv, symObjAddr: 0x426C, symBinAddr: 0x30C80, symSize: 0x13C }
  - { offset: 0x18401F, size: 0x8, addend: 0x0, symName: __ZN6sentry11DisabledSDK12create_eventEv.cold.1, symObjAddr: 0xA038, symBinAddr: 0x11F294, symSize: 0x5C }
  - { offset: 0x18408F, size: 0x8, addend: 0x0, symName: __ZN6sentry11DisabledSDK13capture_eventERKN5godot3RefI11SentryEventEE, symObjAddr: 0x4394, symBinAddr: 0x30DBC, symSize: 0x10 }
  - { offset: 0x1840C6, size: 0x8, addend: 0x0, symName: __ZN6sentry11DisabledSDK10initializeEv, symObjAddr: 0x43A4, symBinAddr: 0x30DCC, symSize: 0x4 }
  - { offset: 0x1840EB, size: 0x8, addend: 0x0, symName: __ZN6sentry11DisabledSDKD1Ev, symObjAddr: 0x43A8, symBinAddr: 0x30DD0, symSize: 0x4 }
  - { offset: 0x184116, size: 0x8, addend: 0x0, symName: __ZN6sentry11DisabledSDKD0Ev, symObjAddr: 0x43AC, symBinAddr: 0x30DD4, symSize: 0x4 }
  - { offset: 0x18415B, size: 0x8, addend: 0x0, symName: __ZN13DisabledEventD2Ev.cold.1, symObjAddr: 0xA094, symBinAddr: 0x11F2F0, symSize: 0x1C }
  - { offset: 0x184177, size: 0x8, addend: 0x0, symName: __ZN13DisabledEventD2Ev.cold.1, symObjAddr: 0xA094, symBinAddr: 0x11F2F0, symSize: 0x1C }
  - { offset: 0x18418C, size: 0x8, addend: 0x0, symName: __ZN13DisabledEventD2Ev.cold.1, symObjAddr: 0xA094, symBinAddr: 0x11F2F0, symSize: 0x1C }
  - { offset: 0x1841A1, size: 0x8, addend: 0x0, symName: __ZN13DisabledEventD2Ev.cold.1, symObjAddr: 0xA094, symBinAddr: 0x11F2F0, symSize: 0x1C }
  - { offset: 0x1841B6, size: 0x8, addend: 0x0, symName: __ZN13DisabledEventD2Ev.cold.1, symObjAddr: 0xA094, symBinAddr: 0x11F2F0, symSize: 0x1C }
  - { offset: 0x1841CB, size: 0x8, addend: 0x0, symName: __ZN13DisabledEventD2Ev.cold.1, symObjAddr: 0xA094, symBinAddr: 0x11F2F0, symSize: 0x1C }
  - { offset: 0x1841E0, size: 0x8, addend: 0x0, symName: __ZN13DisabledEventD2Ev.cold.1, symObjAddr: 0xA094, symBinAddr: 0x11F2F0, symSize: 0x1C }
  - { offset: 0x1841F8, size: 0x8, addend: 0x0, symName: __ZN5godot6Object7cast_toINS_6LoggerEEEPT_PS0_.cold.1, symObjAddr: 0xA0B0, symBinAddr: 0x11F30C, symSize: 0x5C }
  - { offset: 0x18445C, size: 0x8, addend: 0x0, symName: __ZN5godot18create_method_bindI9SentrySDKbJEEEPNS_10MethodBindEMT_KFT0_DpT1_E.cold.1, symObjAddr: 0xA10C, symBinAddr: 0x11F368, symSize: 0x5C }
  - { offset: 0x1844EB, size: 0x8, addend: 0x0, symName: __ZN5godot18create_method_bindI9SentrySDKNS_6StringEJRKS2_N6sentry5LevelEEEEPNS_10MethodBindEMT_FT0_DpT1_E.cold.1, symObjAddr: 0xA168, symBinAddr: 0x11F3C4, symSize: 0x5C }
  - { offset: 0x18451A, size: 0x8, addend: 0x0, symName: __ZNK5godot12MethodBindTRINS_6StringEJRKS1_N6sentry5LevelEEE17gen_argument_typeEi, symObjAddr: 0x4F70, symBinAddr: 0x31378, symSize: 0x28 }
  - { offset: 0x184563, size: 0x8, addend: 0x0, symName: __ZNK5godot12MethodBindTRINS_6StringEJRKS1_N6sentry5LevelEEE22gen_argument_type_infoEi, symObjAddr: 0x4F98, symBinAddr: 0x313A0, symSize: 0x154 }
  - { offset: 0x18470A, size: 0x8, addend: 0x0, symName: __ZNK5godot12MethodBindTRINS_6StringEJRKS1_N6sentry5LevelEEE21get_argument_metadataEi, symObjAddr: 0x50EC, symBinAddr: 0x314F4, symSize: 0x8 }
  - { offset: 0x18475B, size: 0x8, addend: 0x0, symName: __ZNK5godot12MethodBindTRINS_6StringEJRKS1_N6sentry5LevelEEE4callEPvPKPKvxR20GDExtensionCallError, symObjAddr: 0x50F4, symBinAddr: 0x314FC, symSize: 0x64 }
  - { offset: 0x184848, size: 0x8, addend: 0x0, symName: __ZNK5godot12MethodBindTRINS_6StringEJRKS1_N6sentry5LevelEEE7ptrcallEPvPKPKvS7_, symObjAddr: 0x5158, symBinAddr: 0x31560, symSize: 0xB0 }
  - { offset: 0x18498F, size: 0x8, addend: 0x0, symName: __ZN5godot12MethodBindTRINS_6StringEJRKS1_N6sentry5LevelEEED1Ev, symObjAddr: 0x5208, symBinAddr: 0x31610, symSize: 0x4 }
  - { offset: 0x1849B3, size: 0x8, addend: 0x0, symName: __ZN5godot12MethodBindTRINS_6StringEJRKS1_N6sentry5LevelEEED1Ev, symObjAddr: 0x5208, symBinAddr: 0x31610, symSize: 0x4 }
  - { offset: 0x1849EC, size: 0x8, addend: 0x0, symName: __ZN5godot12MethodBindTRINS_6StringEJRKS1_N6sentry5LevelEEED0Ev, symObjAddr: 0x520C, symBinAddr: 0x31614, symSize: 0x14 }
  - { offset: 0x184B42, size: 0x8, addend: 0x0, symName: __ZN5godot18create_method_bindI9SentrySDKJRKNS_6StringES4_N6sentry5LevelES4_RKNS_10DictionaryEEEEPNS_10MethodBindEMT_FvDpT0_E.cold.1, symObjAddr: 0xA1C4, symBinAddr: 0x11F420, symSize: 0x5C }
  - { offset: 0x184B87, size: 0x8, addend: 0x0, symName: __ZNK5godot11MethodBindTIJRKNS_6StringES3_N6sentry5LevelES3_RKNS_10DictionaryEEE17gen_argument_typeEi, symObjAddr: 0x58F0, symBinAddr: 0x31B9C, symSize: 0x30 }
  - { offset: 0x184BC0, size: 0x8, addend: 0x0, symName: __ZNK5godot11MethodBindTIJRKNS_6StringES3_N6sentry5LevelES3_RKNS_10DictionaryEEE17gen_argument_typeEi, symObjAddr: 0x58F0, symBinAddr: 0x31B9C, symSize: 0x30 }
  - { offset: 0x184BF9, size: 0x8, addend: 0x0, symName: __ZNK5godot11MethodBindTIJRKNS_6StringES3_N6sentry5LevelES3_RKNS_10DictionaryEEE17gen_argument_typeEi, symObjAddr: 0x58F0, symBinAddr: 0x31B9C, symSize: 0x30 }
  - { offset: 0x184C73, size: 0x8, addend: 0x0, symName: __ZNK5godot11MethodBindTIJRKNS_6StringES3_N6sentry5LevelES3_RKNS_10DictionaryEEE22gen_argument_type_infoEi, symObjAddr: 0x5920, symBinAddr: 0x31BCC, symSize: 0x168 }
  - { offset: 0x184E55, size: 0x8, addend: 0x0, symName: __ZNK5godot11MethodBindTIJRKNS_6StringES3_N6sentry5LevelES3_RKNS_10DictionaryEEE21get_argument_metadataEi, symObjAddr: 0x5A88, symBinAddr: 0x31D34, symSize: 0x8 }
  - { offset: 0x184E8B, size: 0x8, addend: 0x0, symName: __ZNK5godot11MethodBindTIJRKNS_6StringES3_N6sentry5LevelES3_RKNS_10DictionaryEEE4callEPvPKPKvxR20GDExtensionCallError, symObjAddr: 0x5A90, symBinAddr: 0x31D3C, symSize: 0x40 }
  - { offset: 0x184F3C, size: 0x8, addend: 0x0, symName: __ZNK5godot11MethodBindTIJRKNS_6StringES3_N6sentry5LevelES3_RKNS_10DictionaryEEE7ptrcallEPvPKPKvSA_, symObjAddr: 0x5AD0, symBinAddr: 0x31D7C, symSize: 0x14 }
  - { offset: 0x185000, size: 0x8, addend: 0x0, symName: __ZN5godot11MethodBindTIJRKNS_6StringES3_N6sentry5LevelES3_RKNS_10DictionaryEEED1Ev, symObjAddr: 0x5AE4, symBinAddr: 0x31D90, symSize: 0x4 }
  - { offset: 0x185024, size: 0x8, addend: 0x0, symName: __ZN5godot11MethodBindTIJRKNS_6StringES3_N6sentry5LevelES3_RKNS_10DictionaryEEED1Ev, symObjAddr: 0x5AE4, symBinAddr: 0x31D90, symSize: 0x4 }
  - { offset: 0x18505D, size: 0x8, addend: 0x0, symName: __ZN5godot11MethodBindTIJRKNS_6StringES3_N6sentry5LevelES3_RKNS_10DictionaryEEED0Ev, symObjAddr: 0x5AE8, symBinAddr: 0x31D94, symSize: 0x14 }
  - { offset: 0x185154, size: 0x8, addend: 0x0, symName: __ZN5godot18create_method_bindI9SentrySDKNS_6StringEJEEEPNS_10MethodBindEMT_KFT0_DpT1_E.cold.1, symObjAddr: 0xA220, symBinAddr: 0x11F47C, symSize: 0x5C }
  - { offset: 0x1851E3, size: 0x8, addend: 0x0, symName: __ZN5godot18create_method_bindI9SentrySDKJRKNS_6StringERKNS_10DictionaryEEEEPNS_10MethodBindEMT_FvDpT0_E.cold.1, symObjAddr: 0xA27C, symBinAddr: 0x11F4D8, symSize: 0x5C }
  - { offset: 0x185212, size: 0x8, addend: 0x0, symName: __ZNK5godot11MethodBindTIJRKNS_6StringERKNS_10DictionaryEEE17gen_argument_typeEi, symObjAddr: 0x656C, symBinAddr: 0x32774, symSize: 0x24 }
  - { offset: 0x185248, size: 0x8, addend: 0x0, symName: __ZNK5godot11MethodBindTIJRKNS_6StringERKNS_10DictionaryEEE22gen_argument_type_infoEi, symObjAddr: 0x6590, symBinAddr: 0x32798, symSize: 0x138 }
  - { offset: 0x1853BE, size: 0x8, addend: 0x0, symName: __ZNK5godot11MethodBindTIJRKNS_6StringERKNS_10DictionaryEEE21get_argument_metadataEi, symObjAddr: 0x66C8, symBinAddr: 0x328D0, symSize: 0x8 }
  - { offset: 0x1853F4, size: 0x8, addend: 0x0, symName: __ZNK5godot11MethodBindTIJRKNS_6StringERKNS_10DictionaryEEE4callEPvPKPKvxR20GDExtensionCallError, symObjAddr: 0x66D0, symBinAddr: 0x328D8, symSize: 0x40 }
  - { offset: 0x1854A5, size: 0x8, addend: 0x0, symName: __ZNK5godot11MethodBindTIJRKNS_6StringERKNS_10DictionaryEEE7ptrcallEPvPKPKvS8_, symObjAddr: 0x6710, symBinAddr: 0x32918, symSize: 0xA4 }
  - { offset: 0x1855CC, size: 0x8, addend: 0x0, symName: __ZN5godot11MethodBindTIJRKNS_6StringERKNS_10DictionaryEEED1Ev, symObjAddr: 0x67B4, symBinAddr: 0x329BC, symSize: 0x4 }
  - { offset: 0x1855F0, size: 0x8, addend: 0x0, symName: __ZN5godot11MethodBindTIJRKNS_6StringERKNS_10DictionaryEEED1Ev, symObjAddr: 0x67B4, symBinAddr: 0x329BC, symSize: 0x4 }
  - { offset: 0x185629, size: 0x8, addend: 0x0, symName: __ZN5godot11MethodBindTIJRKNS_6StringERKNS_10DictionaryEEED0Ev, symObjAddr: 0x67B8, symBinAddr: 0x329C0, symSize: 0x14 }
  - { offset: 0x1856F3, size: 0x8, addend: 0x0, symName: __ZN5godot18create_method_bindI9SentrySDKJRKNS_6StringES4_EEEPNS_10MethodBindEMT_FvDpT0_E.cold.1, symObjAddr: 0xA2D8, symBinAddr: 0x11F534, symSize: 0x5C }
  - { offset: 0x185782, size: 0x8, addend: 0x0, symName: __ZN5godot18create_method_bindI9SentrySDKJRKNS_6StringEEEEPNS_10MethodBindEMT_FvDpT0_E.cold.1, symObjAddr: 0xA334, symBinAddr: 0x11F590, symSize: 0x5C }
  - { offset: 0x18581D, size: 0x8, addend: 0x0, symName: __ZN5godot18create_method_bindI9SentrySDKJRKNS_3RefI10SentryUserEEEEEPNS_10MethodBindEMT_FvDpT0_E.cold.1, symObjAddr: 0xA390, symBinAddr: 0x11F5EC, symSize: 0x5C }
  - { offset: 0x18584C, size: 0x8, addend: 0x0, symName: __ZNK5godot11MethodBindTIJRKNS_3RefI10SentryUserEEEE17gen_argument_typeEi, symObjAddr: 0x7408, symBinAddr: 0x3302C, symSize: 0x10 }
  - { offset: 0x185882, size: 0x8, addend: 0x0, symName: __ZNK5godot11MethodBindTIJRKNS_3RefI10SentryUserEEEE22gen_argument_type_infoEi, symObjAddr: 0x7418, symBinAddr: 0x3303C, symSize: 0x124 }
  - { offset: 0x1859CE, size: 0x8, addend: 0x0, symName: __ZNK5godot11MethodBindTIJRKNS_3RefI10SentryUserEEEE21get_argument_metadataEi, symObjAddr: 0x7550, symBinAddr: 0x33160, symSize: 0x8 }
  - { offset: 0x185A04, size: 0x8, addend: 0x0, symName: __ZNK5godot11MethodBindTIJRKNS_3RefI10SentryUserEEEE4callEPvPKPKvxR20GDExtensionCallError, symObjAddr: 0x7558, symBinAddr: 0x33168, symSize: 0x40 }
  - { offset: 0x185B0A, size: 0x8, addend: 0x0, symName: __ZNK5godot11MethodBindTIJRKNS_3RefI10SentryUserEEEE7ptrcallEPvPKPKvS7_, symObjAddr: 0x7598, symBinAddr: 0x331A8, symSize: 0xAC }
  - { offset: 0x185D58, size: 0x8, addend: 0x0, symName: __ZN5godot11MethodBindTIJRKNS_3RefI10SentryUserEEEED1Ev, symObjAddr: 0x7658, symBinAddr: 0x33254, symSize: 0x4 }
  - { offset: 0x185D7C, size: 0x8, addend: 0x0, symName: __ZN5godot11MethodBindTIJRKNS_3RefI10SentryUserEEEED1Ev, symObjAddr: 0x7658, symBinAddr: 0x33254, symSize: 0x4 }
  - { offset: 0x185DB5, size: 0x8, addend: 0x0, symName: __ZN5godot11MethodBindTIJRKNS_3RefI10SentryUserEEEED0Ev, symObjAddr: 0x765C, symBinAddr: 0x33258, symSize: 0x14 }
  - { offset: 0x185E1F, size: 0x8, addend: 0x0, symName: __ZN5godot11GetTypeInfoIRKNS_3RefI10SentryUserEEvE14get_class_infoEv, symObjAddr: 0x7744, symBinAddr: 0x33340, symSize: 0x12C }
  - { offset: 0x185ECF, size: 0x8, addend: 0x0, symName: __ZN5godot11GetTypeInfoIRKNS_3RefI10SentryUserEEvE14get_class_infoEv.cold.1, symObjAddr: 0xA3EC, symBinAddr: 0x11F648, symSize: 0x58 }
  - { offset: 0x185F74, size: 0x8, addend: 0x0, symName: __ZN5godot6Object7cast_toI10SentryUserEEPT_PS0_, symObjAddr: 0x79E0, symBinAddr: 0x336E0, symSize: 0xE8 }
  - { offset: 0x186012, size: 0x8, addend: 0x0, symName: __ZN5godot6Object7cast_toI10SentryUserEEPT_PS0_.cold.1, symObjAddr: 0xA444, symBinAddr: 0x11F6A0, symSize: 0x5C }
  - { offset: 0x1860A0, size: 0x8, addend: 0x0, symName: __ZN5godot18create_method_bindI9SentrySDKNS_3RefI10SentryUserEEJEEEPNS_10MethodBindEMT_KFT0_DpT1_E.cold.1, symObjAddr: 0xA4A0, symBinAddr: 0x11F6FC, symSize: 0x5C }
  - { offset: 0x1860CF, size: 0x8, addend: 0x0, symName: __ZNK5godot13MethodBindTRCINS_3RefI10SentryUserEEJEE17gen_argument_typeEi, symObjAddr: 0x7BFC, symBinAddr: 0x338FC, symSize: 0x8 }
  - { offset: 0x186105, size: 0x8, addend: 0x0, symName: __ZNK5godot13MethodBindTRCINS_3RefI10SentryUserEEJEE22gen_argument_type_infoEi, symObjAddr: 0x7C04, symBinAddr: 0x33904, symSize: 0x4 }
  - { offset: 0x18613C, size: 0x8, addend: 0x0, symName: __ZNK5godot13MethodBindTRCINS_3RefI10SentryUserEEJEE22gen_argument_type_infoEi, symObjAddr: 0x7C04, symBinAddr: 0x33904, symSize: 0x4 }
  - { offset: 0x186150, size: 0x8, addend: 0x0, symName: __ZN5godot11GetTypeInfoINS_3RefI10SentryUserEEvE14get_class_infoEv, symObjAddr: 0x7D28, symBinAddr: 0x33A28, symSize: 0x12C }
  - { offset: 0x186200, size: 0x8, addend: 0x0, symName: __ZNK5godot13MethodBindTRCINS_3RefI10SentryUserEEJEE21get_argument_metadataEi, symObjAddr: 0x7C08, symBinAddr: 0x33908, symSize: 0x8 }
  - { offset: 0x186236, size: 0x8, addend: 0x0, symName: __ZNK5godot13MethodBindTRCINS_3RefI10SentryUserEEJEE4callEPvPKPKvxR20GDExtensionCallError, symObjAddr: 0x7C10, symBinAddr: 0x33910, symSize: 0x64 }
  - { offset: 0x18631E, size: 0x8, addend: 0x0, symName: __ZNK5godot13MethodBindTRCINS_3RefI10SentryUserEEJEE7ptrcallEPvPKPKvS5_, symObjAddr: 0x7C74, symBinAddr: 0x33974, symSize: 0x9C }
  - { offset: 0x1864A7, size: 0x8, addend: 0x0, symName: __ZNK5godot13MethodBindTRCINS_3RefI10SentryUserEEJEE7ptrcallEPvPKPKvS5_.cold.1, symObjAddr: 0xA4FC, symBinAddr: 0x11F758, symSize: 0x30 }
  - { offset: 0x18651F, size: 0x8, addend: 0x0, symName: __ZN5godot13MethodBindTRCINS_3RefI10SentryUserEEJEED1Ev, symObjAddr: 0x7D10, symBinAddr: 0x33A10, symSize: 0x4 }
  - { offset: 0x186543, size: 0x8, addend: 0x0, symName: __ZN5godot13MethodBindTRCINS_3RefI10SentryUserEEJEED1Ev, symObjAddr: 0x7D10, symBinAddr: 0x33A10, symSize: 0x4 }
  - { offset: 0x18657C, size: 0x8, addend: 0x0, symName: __ZN5godot13MethodBindTRCINS_3RefI10SentryUserEEJEED0Ev, symObjAddr: 0x7D14, symBinAddr: 0x33A14, symSize: 0x14 }
  - { offset: 0x1865E6, size: 0x8, addend: 0x0, symName: __ZN5godot11GetTypeInfoINS_3RefI10SentryUserEEvE14get_class_infoEv.cold.1, symObjAddr: 0xA52C, symBinAddr: 0x11F788, symSize: 0x58 }
  - { offset: 0x18668B, size: 0x8, addend: 0x0, symName: __ZN5godot18create_method_bindI9SentrySDKJEEEPNS_10MethodBindEMT_FvDpT0_E.cold.1, symObjAddr: 0xA584, symBinAddr: 0x11F7E0, symSize: 0x5C }
  - { offset: 0x1866BA, size: 0x8, addend: 0x0, symName: __ZNK5godot11MethodBindTIJEE17gen_argument_typeEi, symObjAddr: 0x8054, symBinAddr: 0x33D8C, symSize: 0x8 }
  - { offset: 0x1866F0, size: 0x8, addend: 0x0, symName: __ZNK5godot11MethodBindTIJEE22gen_argument_type_infoEi, symObjAddr: 0x805C, symBinAddr: 0x33D94, symSize: 0x104 }
  - { offset: 0x1867DF, size: 0x8, addend: 0x0, symName: __ZNK5godot11MethodBindTIJEE21get_argument_metadataEi, symObjAddr: 0x8160, symBinAddr: 0x33E98, symSize: 0x8 }
  - { offset: 0x186815, size: 0x8, addend: 0x0, symName: __ZNK5godot11MethodBindTIJEE4callEPvPKPKvxR20GDExtensionCallError, symObjAddr: 0x8168, symBinAddr: 0x33EA0, symSize: 0xDC }
  - { offset: 0x1868F4, size: 0x8, addend: 0x0, symName: __ZNK5godot11MethodBindTIJEE7ptrcallEPvPKPKvS2_, symObjAddr: 0x8204, symBinAddr: 0x33F7C, symSize: 0x18 }
  - { offset: 0x1869C1, size: 0x8, addend: 0x0, symName: __ZN5godot11MethodBindTIJEED1Ev, symObjAddr: 0x821C, symBinAddr: 0x33F94, symSize: 0x4 }
  - { offset: 0x1869E5, size: 0x8, addend: 0x0, symName: __ZN5godot11MethodBindTIJEED1Ev, symObjAddr: 0x821C, symBinAddr: 0x33F94, symSize: 0x4 }
  - { offset: 0x186A1E, size: 0x8, addend: 0x0, symName: __ZN5godot11MethodBindTIJEED0Ev, symObjAddr: 0x8220, symBinAddr: 0x33F98, symSize: 0x14 }
  - { offset: 0x186AE8, size: 0x8, addend: 0x0, symName: __ZN5godot18create_method_bindI9SentrySDKNS_3RefI11SentryEventEEJEEEPNS_10MethodBindEMT_KFT0_DpT1_E.cold.1, symObjAddr: 0xA5E0, symBinAddr: 0x11F83C, symSize: 0x5C }
  - { offset: 0x186B17, size: 0x8, addend: 0x0, symName: __ZNK5godot13MethodBindTRCINS_3RefI11SentryEventEEJEE17gen_argument_typeEi, symObjAddr: 0x8368, symBinAddr: 0x340E0, symSize: 0x8 }
  - { offset: 0x186B4D, size: 0x8, addend: 0x0, symName: __ZNK5godot13MethodBindTRCINS_3RefI11SentryEventEEJEE22gen_argument_type_infoEi, symObjAddr: 0x8370, symBinAddr: 0x340E8, symSize: 0x4 }
  - { offset: 0x186B84, size: 0x8, addend: 0x0, symName: __ZNK5godot13MethodBindTRCINS_3RefI11SentryEventEEJEE22gen_argument_type_infoEi, symObjAddr: 0x8370, symBinAddr: 0x340E8, symSize: 0x4 }
  - { offset: 0x186B98, size: 0x8, addend: 0x0, symName: __ZN5godot11GetTypeInfoINS_3RefI11SentryEventEEvE14get_class_infoEv, symObjAddr: 0x8494, symBinAddr: 0x3420C, symSize: 0x12C }
  - { offset: 0x186C48, size: 0x8, addend: 0x0, symName: __ZNK5godot13MethodBindTRCINS_3RefI11SentryEventEEJEE21get_argument_metadataEi, symObjAddr: 0x8374, symBinAddr: 0x340EC, symSize: 0x8 }
  - { offset: 0x186C7E, size: 0x8, addend: 0x0, symName: __ZNK5godot13MethodBindTRCINS_3RefI11SentryEventEEJEE4callEPvPKPKvxR20GDExtensionCallError, symObjAddr: 0x837C, symBinAddr: 0x340F4, symSize: 0x64 }
  - { offset: 0x186DB0, size: 0x8, addend: 0x0, symName: __ZNK5godot13MethodBindTRCINS_3RefI11SentryEventEEJEE7ptrcallEPvPKPKvS5_, symObjAddr: 0x83E0, symBinAddr: 0x34158, symSize: 0x9C }
  - { offset: 0x186F39, size: 0x8, addend: 0x0, symName: __ZNK5godot13MethodBindTRCINS_3RefI11SentryEventEEJEE7ptrcallEPvPKPKvS5_.cold.1, symObjAddr: 0xA63C, symBinAddr: 0x11F898, symSize: 0x30 }
  - { offset: 0x186FB1, size: 0x8, addend: 0x0, symName: __ZN5godot13MethodBindTRCINS_3RefI11SentryEventEEJEED1Ev, symObjAddr: 0x847C, symBinAddr: 0x341F4, symSize: 0x4 }
  - { offset: 0x186FD5, size: 0x8, addend: 0x0, symName: __ZN5godot13MethodBindTRCINS_3RefI11SentryEventEEJEED1Ev, symObjAddr: 0x847C, symBinAddr: 0x341F4, symSize: 0x4 }
  - { offset: 0x18700E, size: 0x8, addend: 0x0, symName: __ZN5godot13MethodBindTRCINS_3RefI11SentryEventEEJEED0Ev, symObjAddr: 0x8480, symBinAddr: 0x341F8, symSize: 0x14 }
  - { offset: 0x18707F, size: 0x8, addend: 0x0, symName: __ZN5godot11GetTypeInfoINS_3RefI11SentryEventEEvE14get_class_infoEv.cold.1, symObjAddr: 0xA66C, symBinAddr: 0x11F8C8, symSize: 0x58 }
  - { offset: 0x187124, size: 0x8, addend: 0x0, symName: __ZN5godot18create_method_bindI9SentrySDKNS_6StringEJRKNS_3RefI11SentryEventEEEEEPNS_10MethodBindEMT_FT0_DpT1_E.cold.1, symObjAddr: 0xA6C4, symBinAddr: 0x11F920, symSize: 0x5C }
  - { offset: 0x187153, size: 0x8, addend: 0x0, symName: __ZNK5godot12MethodBindTRINS_6StringEJRKNS_3RefI11SentryEventEEEE17gen_argument_typeEi, symObjAddr: 0x87CC, symBinAddr: 0x3457C, symSize: 0x14 }
  - { offset: 0x187189, size: 0x8, addend: 0x0, symName: __ZNK5godot12MethodBindTRINS_6StringEJRKNS_3RefI11SentryEventEEEE22gen_argument_type_infoEi, symObjAddr: 0x87E0, symBinAddr: 0x34590, symSize: 0x13C }
  - { offset: 0x18730A, size: 0x8, addend: 0x0, symName: __ZNK5godot12MethodBindTRINS_6StringEJRKNS_3RefI11SentryEventEEEE21get_argument_metadataEi, symObjAddr: 0x8930, symBinAddr: 0x346CC, symSize: 0x8 }
  - { offset: 0x187340, size: 0x8, addend: 0x0, symName: __ZNK5godot12MethodBindTRINS_6StringEJRKNS_3RefI11SentryEventEEEE4callEPvPKPKvxR20GDExtensionCallError, symObjAddr: 0x8938, symBinAddr: 0x346D4, symSize: 0x64 }
  - { offset: 0x1873E9, size: 0x8, addend: 0x0, symName: __ZNK5godot12MethodBindTRINS_6StringEJRKNS_3RefI11SentryEventEEEE7ptrcallEPvPKPKvS8_, symObjAddr: 0x899C, symBinAddr: 0x34738, symSize: 0x18 }
  - { offset: 0x1874B6, size: 0x8, addend: 0x0, symName: __ZN5godot12MethodBindTRINS_6StringEJRKNS_3RefI11SentryEventEEEED1Ev, symObjAddr: 0x89B4, symBinAddr: 0x34750, symSize: 0x4 }
  - { offset: 0x1874DA, size: 0x8, addend: 0x0, symName: __ZN5godot12MethodBindTRINS_6StringEJRKNS_3RefI11SentryEventEEEED1Ev, symObjAddr: 0x89B4, symBinAddr: 0x34750, symSize: 0x4 }
  - { offset: 0x187513, size: 0x8, addend: 0x0, symName: __ZN5godot12MethodBindTRINS_6StringEJRKNS_3RefI11SentryEventEEEED0Ev, symObjAddr: 0x89B8, symBinAddr: 0x34754, symSize: 0x14 }
  - { offset: 0x18757D, size: 0x8, addend: 0x0, symName: __ZN5godot11GetTypeInfoIRKNS_3RefI11SentryEventEEvE14get_class_infoEv, symObjAddr: 0x8AA0, symBinAddr: 0x3483C, symSize: 0x12C }
  - { offset: 0x18762D, size: 0x8, addend: 0x0, symName: __ZN5godot11GetTypeInfoIRKNS_3RefI11SentryEventEEvE14get_class_infoEv.cold.1, symObjAddr: 0xA720, symBinAddr: 0x11F97C, symSize: 0x58 }
  - { offset: 0x1876D2, size: 0x8, addend: 0x0, symName: __ZN5godot6Object7cast_toI11SentryEventEEPT_PS0_, symObjAddr: 0x8DE0, symBinAddr: 0x34C24, symSize: 0xE8 }
  - { offset: 0x187770, size: 0x8, addend: 0x0, symName: __ZN5godot6Object7cast_toI11SentryEventEEPT_PS0_.cold.1, symObjAddr: 0xA778, symBinAddr: 0x11F9D4, symSize: 0x5C }
  - { offset: 0x187853, size: 0x8, addend: 0x0, symName: __ZN5godot18create_method_bindI9SentrySDKJRKNS_8CallableEEEEPNS_10MethodBindEMT_FvDpT0_E.cold.1, symObjAddr: 0xA7D4, symBinAddr: 0x11FA30, symSize: 0x5C }
  - { offset: 0x187882, size: 0x8, addend: 0x0, symName: __ZNK5godot33CallableCustomStaticMethodPointerIJEE10get_objectEv, symObjAddr: 0x95BC, symBinAddr: 0x34F1C, symSize: 0x8 }
  - { offset: 0x1878A9, size: 0x8, addend: 0x0, symName: __ZNK5godot33CallableCustomStaticMethodPointerIJEE18get_argument_countERb, symObjAddr: 0x95C4, symBinAddr: 0x34F24, symSize: 0x10 }
  - { offset: 0x1878DE, size: 0x8, addend: 0x0, symName: __ZNK5godot33CallableCustomStaticMethodPointerIJEE4callEPPKNS_7VariantEiRS2_R20GDExtensionCallError, symObjAddr: 0x95D4, symBinAddr: 0x34F34, symSize: 0x8C }
  - { offset: 0x1879A6, size: 0x8, addend: 0x0, symName: __ZN5godot33CallableCustomStaticMethodPointerIJEED1Ev, symObjAddr: 0x964C, symBinAddr: 0x34FC0, symSize: 0x4 }
  - { offset: 0x1879D1, size: 0x8, addend: 0x0, symName: __ZN5godot33CallableCustomStaticMethodPointerIJEED0Ev, symObjAddr: 0x9650, symBinAddr: 0x34FC4, symSize: 0x4 }
  - { offset: 0x1879FC, size: 0x8, addend: 0x0, symName: __ZNK5godot27CallableCustomMethodPointerI9SentrySDKJEE10get_objectEv, symObjAddr: 0x9654, symBinAddr: 0x34FC8, symSize: 0x8 }
  - { offset: 0x187A23, size: 0x8, addend: 0x0, symName: __ZNK5godot27CallableCustomMethodPointerI9SentrySDKJEE18get_argument_countERb, symObjAddr: 0x965C, symBinAddr: 0x34FD0, symSize: 0x10 }
  - { offset: 0x187A58, size: 0x8, addend: 0x0, symName: __ZNK5godot27CallableCustomMethodPointerI9SentrySDKJEE4callEPPKNS_7VariantEiRS3_R20GDExtensionCallError, symObjAddr: 0x966C, symBinAddr: 0x34FE0, symSize: 0x34 }
  - { offset: 0x187B20, size: 0x8, addend: 0x0, symName: __ZN5godot27CallableCustomMethodPointerI9SentrySDKJEED1Ev, symObjAddr: 0x968C, symBinAddr: 0x35014, symSize: 0x4 }
  - { offset: 0x187B4B, size: 0x8, addend: 0x0, symName: __ZN5godot27CallableCustomMethodPointerI9SentrySDKJEED0Ev, symObjAddr: 0x9690, symBinAddr: 0x35018, symSize: 0x4 }
  - { offset: 0x187B76, size: 0x8, addend: 0x0, symName: _OUTLINED_FUNCTION_0, symObjAddr: 0xA830, symBinAddr: 0x3501C, symSize: 0x10 }
  - { offset: 0x187B8E, size: 0x8, addend: 0x0, symName: _OUTLINED_FUNCTION_1, symObjAddr: 0xA840, symBinAddr: 0x3502C, symSize: 0xC }
  - { offset: 0x187BA6, size: 0x8, addend: 0x0, symName: _OUTLINED_FUNCTION_2, symObjAddr: 0xA84C, symBinAddr: 0x35038, symSize: 0xC }
  - { offset: 0x187BBE, size: 0x8, addend: 0x0, symName: _OUTLINED_FUNCTION_3, symObjAddr: 0xA858, symBinAddr: 0x35044, symSize: 0xC }
  - { offset: 0x187BD6, size: 0x8, addend: 0x0, symName: _OUTLINED_FUNCTION_4, symObjAddr: 0xA864, symBinAddr: 0x35050, symSize: 0x8 }
  - { offset: 0x187BEE, size: 0x8, addend: 0x0, symName: _OUTLINED_FUNCTION_5, symObjAddr: 0xA86C, symBinAddr: 0x35058, symSize: 0x8 }
  - { offset: 0x187C06, size: 0x8, addend: 0x0, symName: _OUTLINED_FUNCTION_6, symObjAddr: 0xA874, symBinAddr: 0x35060, symSize: 0x8 }
  - { offset: 0x187C1E, size: 0x8, addend: 0x0, symName: _OUTLINED_FUNCTION_7, symObjAddr: 0xA87C, symBinAddr: 0x35068, symSize: 0x8 }
  - { offset: 0x187C36, size: 0x8, addend: 0x0, symName: _OUTLINED_FUNCTION_8, symObjAddr: 0xA884, symBinAddr: 0x35070, symSize: 0xC }
  - { offset: 0x18BCB0, size: 0x8, addend: 0x0, symName: __ZN5godot18create_method_bindI10SentryUserJRKNS_6StringEEEEPNS_10MethodBindEMT_FvDpT0_E, symObjAddr: 0x16D8, symBinAddr: 0x36284, symSize: 0x11C }
  - { offset: 0x18BDE0, size: 0x8, addend: 0x0, symName: __ZN5godot18create_method_bindI10SentryUserNS_6StringEJEEEPNS_10MethodBindEMT_KFT0_DpT1_E, symObjAddr: 0x1CC4, symBinAddr: 0x363A0, symSize: 0x134 }
  - { offset: 0x18BEFE, size: 0x8, addend: 0x0, symName: __ZN5godot18create_method_bindI10SentryUserJEEEPNS_10MethodBindEMT_FvDpT0_E, symObjAddr: 0x2064, symBinAddr: 0x364D4, symSize: 0x11C }
  - { offset: 0x18C013, size: 0x8, addend: 0x0, symName: __ZN5godot18create_method_bindI10SentryUserbJEEEPNS_10MethodBindEMT_KFT0_DpT1_E, symObjAddr: 0x2360, symBinAddr: 0x365F0, symSize: 0x134 }
  - { offset: 0x198C3B, size: 0x8, addend: 0x0, symName: ___cxx_global_var_init, symObjAddr: 0x2BC0, symBinAddr: 0x3676C, symSize: 0x4C }
  - { offset: 0x198CC2, size: 0x8, addend: 0x0, symName: ___cxx_global_var_init.1, symObjAddr: 0x2C0C, symBinAddr: 0x367B8, symSize: 0x4C }
  - { offset: 0x198D49, size: 0x8, addend: 0x0, symName: ___cxx_global_var_init.2, symObjAddr: 0x2C58, symBinAddr: 0x36804, symSize: 0x4C }
  - { offset: 0x198D97, size: 0x8, addend: 0x0, symName: __ZNK10SentryUser8is_emptyEv, symObjAddr: 0x0, symBinAddr: 0x35374, symSize: 0x54 }
  - { offset: 0x198DC0, size: 0x8, addend: 0x0, symName: __ZNK10SentryUser10_to_stringEv, symObjAddr: 0x54, symBinAddr: 0x353C8, symSize: 0x194 }
  - { offset: 0x198E89, size: 0x8, addend: 0x0, symName: __ZN10SentryUser15generate_new_idEv, symObjAddr: 0x210, symBinAddr: 0x3555C, symSize: 0x6C }
  - { offset: 0x1993F0, size: 0x8, addend: 0x0, symName: __ZN10SentryUser13_bind_methodsEv, symObjAddr: 0x27C, symBinAddr: 0x355C8, symSize: 0xC5C }
  - { offset: 0x19B79B, size: 0x8, addend: 0x0, symName: __ZN10SentryUser13_bind_methodsEv.cold.1, symObjAddr: 0x26AC, symBinAddr: 0x11FA8C, symSize: 0x58 }
  - { offset: 0x19B7C9, size: 0x8, addend: 0x0, symName: __ZN10SentryUser13_bind_methodsEv.cold.2, symObjAddr: 0x2704, symBinAddr: 0x11FAE4, symSize: 0x58 }
  - { offset: 0x19B7F7, size: 0x8, addend: 0x0, symName: __ZN10SentryUser13_bind_methodsEv.cold.3, symObjAddr: 0x275C, symBinAddr: 0x11FB3C, symSize: 0x58 }
  - { offset: 0x19B825, size: 0x8, addend: 0x0, symName: __ZN10SentryUser13_bind_methodsEv.cold.4, symObjAddr: 0x27B4, symBinAddr: 0x11FB94, symSize: 0x58 }
  - { offset: 0x19B853, size: 0x8, addend: 0x0, symName: __ZN10SentryUser6set_idERKN5godot6StringE, symObjAddr: 0x1030, symBinAddr: 0x36224, symSize: 0x8 }
  - { offset: 0x19B888, size: 0x8, addend: 0x0, symName: __ZNK10SentryUser6get_idEv, symObjAddr: 0x1038, symBinAddr: 0x3622C, symSize: 0xC }
  - { offset: 0x19B8AF, size: 0x8, addend: 0x0, symName: __ZN10SentryUser12set_usernameERKN5godot6StringE, symObjAddr: 0x1044, symBinAddr: 0x36238, symSize: 0x8 }
  - { offset: 0x19B8E4, size: 0x8, addend: 0x0, symName: __ZNK10SentryUser12get_usernameEv, symObjAddr: 0x104C, symBinAddr: 0x36240, symSize: 0xC }
  - { offset: 0x19B90B, size: 0x8, addend: 0x0, symName: __ZN10SentryUser9set_emailERKN5godot6StringE, symObjAddr: 0x1058, symBinAddr: 0x3624C, symSize: 0x8 }
  - { offset: 0x19B940, size: 0x8, addend: 0x0, symName: __ZNK10SentryUser9get_emailEv, symObjAddr: 0x1060, symBinAddr: 0x36254, symSize: 0xC }
  - { offset: 0x19B967, size: 0x8, addend: 0x0, symName: __ZN10SentryUser14set_ip_addressERKN5godot6StringE, symObjAddr: 0x106C, symBinAddr: 0x36260, symSize: 0x8 }
  - { offset: 0x19B99C, size: 0x8, addend: 0x0, symName: __ZNK10SentryUser14get_ip_addressEv, symObjAddr: 0x1074, symBinAddr: 0x36268, symSize: 0xC }
  - { offset: 0x19B9C3, size: 0x8, addend: 0x0, symName: __ZN10SentryUser16infer_ip_addressEv, symObjAddr: 0x1080, symBinAddr: 0x36274, symSize: 0x10 }
  - { offset: 0x19B9F1, size: 0x8, addend: 0x0, symName: __ZN5godot8internal23EngineClassRegistrationINS_6ObjectEE8callbackEv.cold.1, symObjAddr: 0x280C, symBinAddr: 0x11FBEC, symSize: 0x5C }
  - { offset: 0x19BA8C, size: 0x8, addend: 0x0, symName: __ZN5godot6ObjectD1Ev.cold.1, symObjAddr: 0x2868, symBinAddr: 0x11FC48, symSize: 0x1C }
  - { offset: 0x19BAA8, size: 0x8, addend: 0x0, symName: __ZN5godot6ObjectD1Ev.cold.1, symObjAddr: 0x2868, symBinAddr: 0x11FC48, symSize: 0x1C }
  - { offset: 0x19BABD, size: 0x8, addend: 0x0, symName: __ZN5godot6ObjectD1Ev.cold.1, symObjAddr: 0x2868, symBinAddr: 0x11FC48, symSize: 0x1C }
  - { offset: 0x19BAD2, size: 0x8, addend: 0x0, symName: __ZN5godot6ObjectD1Ev.cold.1, symObjAddr: 0x2868, symBinAddr: 0x11FC48, symSize: 0x1C }
  - { offset: 0x19BAE7, size: 0x8, addend: 0x0, symName: __ZN5godot6ObjectD1Ev.cold.1, symObjAddr: 0x2868, symBinAddr: 0x11FC48, symSize: 0x1C }
  - { offset: 0x19BB17, size: 0x8, addend: 0x0, symName: __ZN5godot6ObjectD0Ev.cold.1, symObjAddr: 0x2884, symBinAddr: 0x11FC64, symSize: 0x1C }
  - { offset: 0x19BB33, size: 0x8, addend: 0x0, symName: __ZN5godot6ObjectD0Ev.cold.1, symObjAddr: 0x2884, symBinAddr: 0x11FC64, symSize: 0x1C }
  - { offset: 0x19BB48, size: 0x8, addend: 0x0, symName: __ZN5godot6ObjectD0Ev.cold.1, symObjAddr: 0x2884, symBinAddr: 0x11FC64, symSize: 0x1C }
  - { offset: 0x19BB5D, size: 0x8, addend: 0x0, symName: __ZN5godot6ObjectD0Ev.cold.1, symObjAddr: 0x2884, symBinAddr: 0x11FC64, symSize: 0x1C }
  - { offset: 0x19BB72, size: 0x8, addend: 0x0, symName: __ZN5godot6ObjectD0Ev.cold.1, symObjAddr: 0x2884, symBinAddr: 0x11FC64, symSize: 0x1C }
  - { offset: 0x19BB87, size: 0x8, addend: 0x0, symName: __ZN5godot6ObjectD0Ev.cold.1, symObjAddr: 0x2884, symBinAddr: 0x11FC64, symSize: 0x1C }
  - { offset: 0x19BB9E, size: 0x8, addend: 0x0, symName: __ZN5godot7WrappedD1Ev.cold.1, symObjAddr: 0x28A0, symBinAddr: 0x11FC80, symSize: 0x1C }
  - { offset: 0x19BBBA, size: 0x8, addend: 0x0, symName: __ZN5godot7WrappedD1Ev.cold.1, symObjAddr: 0x28A0, symBinAddr: 0x11FC80, symSize: 0x1C }
  - { offset: 0x19BBCF, size: 0x8, addend: 0x0, symName: __ZN5godot7WrappedD1Ev.cold.1, symObjAddr: 0x28A0, symBinAddr: 0x11FC80, symSize: 0x1C }
  - { offset: 0x19BBE4, size: 0x8, addend: 0x0, symName: __ZN5godot7WrappedD1Ev.cold.1, symObjAddr: 0x28A0, symBinAddr: 0x11FC80, symSize: 0x1C }
  - { offset: 0x19BC13, size: 0x8, addend: 0x0, symName: __ZN5godot7WrappedD0Ev.cold.1, symObjAddr: 0x28BC, symBinAddr: 0x11FC9C, symSize: 0x1C }
  - { offset: 0x19BC2F, size: 0x8, addend: 0x0, symName: __ZN5godot7WrappedD0Ev.cold.1, symObjAddr: 0x28BC, symBinAddr: 0x11FC9C, symSize: 0x1C }
  - { offset: 0x19BC44, size: 0x8, addend: 0x0, symName: __ZN5godot7WrappedD0Ev.cold.1, symObjAddr: 0x28BC, symBinAddr: 0x11FC9C, symSize: 0x1C }
  - { offset: 0x19BC59, size: 0x8, addend: 0x0, symName: __ZN5godot7WrappedD0Ev.cold.1, symObjAddr: 0x28BC, symBinAddr: 0x11FC9C, symSize: 0x1C }
  - { offset: 0x19BC6E, size: 0x8, addend: 0x0, symName: __ZN5godot7WrappedD0Ev.cold.1, symObjAddr: 0x28BC, symBinAddr: 0x11FC9C, symSize: 0x1C }
  - { offset: 0x19BC84, size: 0x8, addend: 0x0, symName: __ZN5godot4ListINS_12PropertyInfoENS_16DefaultAllocatorEE5_Data5eraseEPNS3_7ElementE.cold.2, symObjAddr: 0x28F8, symBinAddr: 0x11FCD8, symSize: 0x20 }
  - { offset: 0x19BC9C, size: 0x8, addend: 0x0, symName: __ZN5godot4ListINS_12PropertyInfoENS_16DefaultAllocatorEE5_Data5eraseEPNS3_7ElementE.cold.1, symObjAddr: 0x28D8, symBinAddr: 0x11FCB8, symSize: 0x20 }
  - { offset: 0x19BCBB, size: 0x8, addend: 0x0, symName: __ZN5godot8internal23EngineClassRegistrationINS_16ClassDBSingletonEE8callbackEv.cold.1, symObjAddr: 0x2918, symBinAddr: 0x11FCF8, symSize: 0x5C }
  - { offset: 0x19BCF0, size: 0x8, addend: 0x0, symName: __ZN5godot8internal23EngineClassRegistrationINS_10RefCountedEE8callbackEv.cold.1, symObjAddr: 0x2974, symBinAddr: 0x11FD54, symSize: 0x5C }
  - { offset: 0x19BD3A, size: 0x8, addend: 0x0, symName: __ZN5godot10RefCountedD1Ev.cold.1, symObjAddr: 0x29D0, symBinAddr: 0x11FDB0, symSize: 0x1C }
  - { offset: 0x19BD56, size: 0x8, addend: 0x0, symName: __ZN5godot10RefCountedD1Ev.cold.1, symObjAddr: 0x29D0, symBinAddr: 0x11FDB0, symSize: 0x1C }
  - { offset: 0x19BD6B, size: 0x8, addend: 0x0, symName: __ZN5godot10RefCountedD1Ev.cold.1, symObjAddr: 0x29D0, symBinAddr: 0x11FDB0, symSize: 0x1C }
  - { offset: 0x19BD80, size: 0x8, addend: 0x0, symName: __ZN5godot10RefCountedD1Ev.cold.1, symObjAddr: 0x29D0, symBinAddr: 0x11FDB0, symSize: 0x1C }
  - { offset: 0x19BD95, size: 0x8, addend: 0x0, symName: __ZN5godot10RefCountedD1Ev.cold.1, symObjAddr: 0x29D0, symBinAddr: 0x11FDB0, symSize: 0x1C }
  - { offset: 0x19BDAA, size: 0x8, addend: 0x0, symName: __ZN5godot10RefCountedD1Ev.cold.1, symObjAddr: 0x29D0, symBinAddr: 0x11FDB0, symSize: 0x1C }
  - { offset: 0x19BDDD, size: 0x8, addend: 0x0, symName: __ZN5godot10RefCountedD0Ev.cold.1, symObjAddr: 0x29EC, symBinAddr: 0x11FDCC, symSize: 0x1C }
  - { offset: 0x19BDF9, size: 0x8, addend: 0x0, symName: __ZN5godot10RefCountedD0Ev.cold.1, symObjAddr: 0x29EC, symBinAddr: 0x11FDCC, symSize: 0x1C }
  - { offset: 0x19BE0E, size: 0x8, addend: 0x0, symName: __ZN5godot10RefCountedD0Ev.cold.1, symObjAddr: 0x29EC, symBinAddr: 0x11FDCC, symSize: 0x1C }
  - { offset: 0x19BE23, size: 0x8, addend: 0x0, symName: __ZN5godot10RefCountedD0Ev.cold.1, symObjAddr: 0x29EC, symBinAddr: 0x11FDCC, symSize: 0x1C }
  - { offset: 0x19BE38, size: 0x8, addend: 0x0, symName: __ZN5godot10RefCountedD0Ev.cold.1, symObjAddr: 0x29EC, symBinAddr: 0x11FDCC, symSize: 0x1C }
  - { offset: 0x19BE4D, size: 0x8, addend: 0x0, symName: __ZN5godot10RefCountedD0Ev.cold.1, symObjAddr: 0x29EC, symBinAddr: 0x11FDCC, symSize: 0x1C }
  - { offset: 0x19BE62, size: 0x8, addend: 0x0, symName: __ZN5godot10RefCountedD0Ev.cold.1, symObjAddr: 0x29EC, symBinAddr: 0x11FDCC, symSize: 0x1C }
  - { offset: 0x19BF50, size: 0x8, addend: 0x0, symName: __ZN5godot18create_method_bindI10SentryUserJRKNS_6StringEEEEPNS_10MethodBindEMT_FvDpT0_E.cold.1, symObjAddr: 0x2A08, symBinAddr: 0x11FDE8, symSize: 0x5C }
  - { offset: 0x19BFE4, size: 0x8, addend: 0x0, symName: __ZN5godot18create_method_bindI10SentryUserNS_6StringEJEEEPNS_10MethodBindEMT_KFT0_DpT1_E.cold.1, symObjAddr: 0x2A64, symBinAddr: 0x11FE44, symSize: 0x5C }
  - { offset: 0x19C073, size: 0x8, addend: 0x0, symName: __ZN5godot18create_method_bindI10SentryUserJEEEPNS_10MethodBindEMT_FvDpT0_E.cold.1, symObjAddr: 0x2AC0, symBinAddr: 0x11FEA0, symSize: 0x5C }
  - { offset: 0x19C102, size: 0x8, addend: 0x0, symName: __ZN5godot18create_method_bindI10SentryUserbJEEEPNS_10MethodBindEMT_KFT0_DpT1_E.cold.1, symObjAddr: 0x2B1C, symBinAddr: 0x11FEFC, symSize: 0x5C }
  - { offset: 0x19C131, size: 0x8, addend: 0x0, symName: _OUTLINED_FUNCTION_0, symObjAddr: 0x2B78, symBinAddr: 0x36724, symSize: 0x10 }
  - { offset: 0x19C149, size: 0x8, addend: 0x0, symName: _OUTLINED_FUNCTION_1, symObjAddr: 0x2B88, symBinAddr: 0x36734, symSize: 0xC }
  - { offset: 0x19C161, size: 0x8, addend: 0x0, symName: _OUTLINED_FUNCTION_2, symObjAddr: 0x2B94, symBinAddr: 0x36740, symSize: 0x8 }
  - { offset: 0x19C179, size: 0x8, addend: 0x0, symName: _OUTLINED_FUNCTION_3, symObjAddr: 0x2B9C, symBinAddr: 0x36748, symSize: 0x8 }
  - { offset: 0x19C191, size: 0x8, addend: 0x0, symName: _OUTLINED_FUNCTION_4, symObjAddr: 0x2BA4, symBinAddr: 0x36750, symSize: 0x8 }
  - { offset: 0x19C1A9, size: 0x8, addend: 0x0, symName: _OUTLINED_FUNCTION_5, symObjAddr: 0x2BAC, symBinAddr: 0x36758, symSize: 0x8 }
  - { offset: 0x19C1C1, size: 0x8, addend: 0x0, symName: _OUTLINED_FUNCTION_6, symObjAddr: 0x2BB4, symBinAddr: 0x36760, symSize: 0xC }
  - { offset: 0x1A8CE5, size: 0x8, addend: 0x0, symName: __ZN5godot22hash_table_size_primesE, symObjAddr: 0x61EC, symBinAddr: 0x1BD4EC, symSize: 0x0 }
  - { offset: 0x1A8D00, size: 0x8, addend: 0x0, symName: __ZN5godot26hash_table_size_primes_invE, symObjAddr: 0x6260, symBinAddr: 0x1BD560, symSize: 0x0 }
  - { offset: 0x1AAD6A, size: 0x8, addend: 0x0, symName: __ZN5godot9DirAccess22_gde_binding_callbacksE, symObjAddr: 0x5E98, symBinAddr: 0x1CAD70, symSize: 0x0 }
  - { offset: 0x1AAD7E, size: 0x8, addend: 0x0, symName: __ZN5godot11Performance22_gde_binding_callbacksE, symObjAddr: 0x5F38, symBinAddr: 0x1CADC8, symSize: 0x0 }
  - { offset: 0x1AAD92, size: 0x8, addend: 0x0, symName: __ZN5godot5Image22_gde_binding_callbacksE, symObjAddr: 0x5F80, symBinAddr: 0x1CADE0, symSize: 0x0 }
  - { offset: 0x1AADA6, size: 0x8, addend: 0x0, symName: __ZN5godot32RDPipelineSpecializationConstant22_gde_binding_callbacksE, symObjAddr: 0x5FF8, symBinAddr: 0x1CAE58, symSize: 0x0 }
  - { offset: 0x1AADBA, size: 0x8, addend: 0x0, symName: __ZN5godot15RenderingDevice22_gde_binding_callbacksE, symObjAddr: 0x6050, symBinAddr: 0x1CAEB0, symSize: 0x0 }
  - { offset: 0x1AADCE, size: 0x8, addend: 0x0, symName: __ZN5godot15RenderingServer22_gde_binding_callbacksE, symObjAddr: 0x60A8, symBinAddr: 0x1CAF08, symSize: 0x0 }
  - { offset: 0x1AADE2, size: 0x8, addend: 0x0, symName: __ZN5godot4Time22_gde_binding_callbacksE, symObjAddr: 0x60C0, symBinAddr: 0x1CAF20, symSize: 0x0 }
  - { offset: 0x1AAE3A, size: 0x8, addend: 0x0, symName: __ZN6sentry8contexts19make_device_contextERKN5godot3RefI13RuntimeConfigEE, symObjAddr: 0x0, symBinAddr: 0x36850, symSize: 0x7A0 }
  - { offset: 0x1AB49E, size: 0x8, addend: 0x0, symName: __ZN6sentry8contexts26make_device_context_updateEv, symObjAddr: 0x844, symBinAddr: 0x3704C, symSize: 0x29C }
  - { offset: 0x1AB6B4, size: 0x8, addend: 0x0, symName: __ZN6sentry8contexts16make_app_contextEv, symObjAddr: 0xAE4, symBinAddr: 0x372E8, symSize: 0x344 }
  - { offset: 0x1AB846, size: 0x8, addend: 0x0, symName: __ZN6sentry8contexts16make_gpu_contextEv, symObjAddr: 0xE28, symBinAddr: 0x3762C, symSize: 0x380 }
  - { offset: 0x1AB9F5, size: 0x8, addend: 0x0, symName: __ZN6sentry8contexts20make_culture_contextEv, symObjAddr: 0x11A8, symBinAddr: 0x379AC, symSize: 0x234 }
  - { offset: 0x1ABB3B, size: 0x8, addend: 0x0, symName: __ZN6sentry8contexts20make_display_contextEv, symObjAddr: 0x13F0, symBinAddr: 0x37BE0, symSize: 0x568 }
  - { offset: 0x1ABE83, size: 0x8, addend: 0x0, symName: __ZN6sentry8contexts25make_godot_engine_contextEv, symObjAddr: 0x196C, symBinAddr: 0x38148, symSize: 0x400 }
  - { offset: 0x1AC0CD, size: 0x8, addend: 0x0, symName: __ZN6sentry8contexts24make_environment_contextEv, symObjAddr: 0x1D6C, symBinAddr: 0x38548, symSize: 0x188 }
  - { offset: 0x1AC18D, size: 0x8, addend: 0x0, symName: __ZN6sentry8contexts24make_performance_contextEv, symObjAddr: 0x1F08, symBinAddr: 0x386D0, symSize: 0x600 }
  - { offset: 0x1AC509, size: 0x8, addend: 0x0, symName: __ZN6sentry8contexts19make_event_contextsEv, symObjAddr: 0x2508, symBinAddr: 0x38CD0, symSize: 0xE0 }
  - { offset: 0x1AC707, size: 0x8, addend: 0x0, symName: ___cxx_global_var_init, symObjAddr: 0x4D50, symBinAddr: 0x39BC8, symSize: 0x4C }
  - { offset: 0x1AC78E, size: 0x8, addend: 0x0, symName: ___cxx_global_var_init.1, symObjAddr: 0x4D9C, symBinAddr: 0x39C14, symSize: 0x4C }
  - { offset: 0x1AC815, size: 0x8, addend: 0x0, symName: ___cxx_global_var_init.2, symObjAddr: 0x4DE8, symBinAddr: 0x39C60, symSize: 0x4C }
  - { offset: 0x1AC89C, size: 0x8, addend: 0x0, symName: ___cxx_global_var_init.3, symObjAddr: 0x4E34, symBinAddr: 0x39CAC, symSize: 0x4C }
  - { offset: 0x1AC923, size: 0x8, addend: 0x0, symName: ___cxx_global_var_init.4, symObjAddr: 0x4E80, symBinAddr: 0x39CF8, symSize: 0x4C }
  - { offset: 0x1AC9AA, size: 0x8, addend: 0x0, symName: ___cxx_global_var_init.5, symObjAddr: 0x4ECC, symBinAddr: 0x39D44, symSize: 0x4C }
  - { offset: 0x1ACA31, size: 0x8, addend: 0x0, symName: ___cxx_global_var_init.6, symObjAddr: 0x4F18, symBinAddr: 0x39D90, symSize: 0x4C }
  - { offset: 0x1ACAB8, size: 0x8, addend: 0x0, symName: ___cxx_global_var_init.7, symObjAddr: 0x4F64, symBinAddr: 0x39DDC, symSize: 0x4C }
  - { offset: 0x1ACB3F, size: 0x8, addend: 0x0, symName: ___cxx_global_var_init.8, symObjAddr: 0x4FB0, symBinAddr: 0x39E28, symSize: 0x4C }
  - { offset: 0x1ACBC6, size: 0x8, addend: 0x0, symName: ___cxx_global_var_init.9, symObjAddr: 0x4FFC, symBinAddr: 0x39E74, symSize: 0x4C }
  - { offset: 0x1ACC4D, size: 0x8, addend: 0x0, symName: ___cxx_global_var_init.10, symObjAddr: 0x5048, symBinAddr: 0x39EC0, symSize: 0x4C }
  - { offset: 0x1ACCD4, size: 0x8, addend: 0x0, symName: ___cxx_global_var_init.11, symObjAddr: 0x5094, symBinAddr: 0x39F0C, symSize: 0x4C }
  - { offset: 0x1ACD5B, size: 0x8, addend: 0x0, symName: ___cxx_global_var_init.12, symObjAddr: 0x50E0, symBinAddr: 0x39F58, symSize: 0x4C }
  - { offset: 0x1ACDE2, size: 0x8, addend: 0x0, symName: ___cxx_global_var_init.13, symObjAddr: 0x512C, symBinAddr: 0x39FA4, symSize: 0x4C }
  - { offset: 0x1ACE69, size: 0x8, addend: 0x0, symName: ___cxx_global_var_init.14, symObjAddr: 0x5178, symBinAddr: 0x39FF0, symSize: 0x4C }
  - { offset: 0x1ACEF0, size: 0x8, addend: 0x0, symName: ___cxx_global_var_init.15, symObjAddr: 0x51C4, symBinAddr: 0x3A03C, symSize: 0x4C }
  - { offset: 0x1ACF77, size: 0x8, addend: 0x0, symName: ___cxx_global_var_init.16, symObjAddr: 0x5210, symBinAddr: 0x3A088, symSize: 0x4C }
  - { offset: 0x1AD197, size: 0x8, addend: 0x0, symName: __ZN12_GLOBAL__N_129_screen_orientation_as_stringEi, symObjAddr: 0x7C4, symBinAddr: 0x36FF0, symSize: 0x5C }
  - { offset: 0x1AD1D5, size: 0x8, addend: 0x0, symName: __ZN6sentry8contexts19make_device_contextERKN5godot3RefI13RuntimeConfigEE.cold.3, symObjAddr: 0x41E8, symBinAddr: 0x11FF98, symSize: 0x20 }
  - { offset: 0x1AD1ED, size: 0x8, addend: 0x0, symName: __ZN6sentry8contexts19make_device_contextERKN5godot3RefI13RuntimeConfigEE.cold.2, symObjAddr: 0x41C8, symBinAddr: 0x11FF78, symSize: 0x20 }
  - { offset: 0x1AD205, size: 0x8, addend: 0x0, symName: __ZN6sentry8contexts19make_device_contextERKN5godot3RefI13RuntimeConfigEE.cold.1, symObjAddr: 0x41A8, symBinAddr: 0x11FF58, symSize: 0x20 }
  - { offset: 0x1AD21D, size: 0x8, addend: 0x0, symName: __ZN12_GLOBAL__N_129_screen_orientation_as_stringEi.cold.1, symObjAddr: 0x4208, symBinAddr: 0x11FFB8, symSize: 0x20 }
  - { offset: 0x1AD235, size: 0x8, addend: 0x0, symName: __ZN6sentry8contexts16make_app_contextEv.cold.3, symObjAddr: 0x4268, symBinAddr: 0x120018, symSize: 0x20 }
  - { offset: 0x1AD24D, size: 0x8, addend: 0x0, symName: __ZN6sentry8contexts16make_app_contextEv.cold.2, symObjAddr: 0x4248, symBinAddr: 0x11FFF8, symSize: 0x20 }
  - { offset: 0x1AD265, size: 0x8, addend: 0x0, symName: __ZN6sentry8contexts16make_app_contextEv.cold.1, symObjAddr: 0x4228, symBinAddr: 0x11FFD8, symSize: 0x20 }
  - { offset: 0x1AD27D, size: 0x8, addend: 0x0, symName: __ZN6sentry8contexts16make_gpu_contextEv.cold.2, symObjAddr: 0x42C8, symBinAddr: 0x120078, symSize: 0x40 }
  - { offset: 0x1AD295, size: 0x8, addend: 0x0, symName: __ZN6sentry8contexts16make_gpu_contextEv.cold.1, symObjAddr: 0x4288, symBinAddr: 0x120038, symSize: 0x40 }
  - { offset: 0x1AD2AD, size: 0x8, addend: 0x0, symName: __ZN6sentry8contexts20make_culture_contextEv.cold.1, symObjAddr: 0x4308, symBinAddr: 0x1200B8, symSize: 0x20 }
  - { offset: 0x1AD2EA, size: 0x8, addend: 0x0, symName: __ZN6sentry8contexts20make_display_contextEv.cold.1, symObjAddr: 0x4328, symBinAddr: 0x1200D8, symSize: 0x20 }
  - { offset: 0x1AD302, size: 0x8, addend: 0x0, symName: __ZN6sentry8contexts25make_godot_engine_contextEv.cold.2, symObjAddr: 0x4368, symBinAddr: 0x120118, symSize: 0x20 }
  - { offset: 0x1AD31A, size: 0x8, addend: 0x0, symName: __ZN6sentry8contexts25make_godot_engine_contextEv.cold.1, symObjAddr: 0x4348, symBinAddr: 0x1200F8, symSize: 0x20 }
  - { offset: 0x1AD332, size: 0x8, addend: 0x0, symName: __ZN6sentry8contexts24make_environment_contextEv.cold.1, symObjAddr: 0x4388, symBinAddr: 0x120138, symSize: 0x20 }
  - { offset: 0x1AD36F, size: 0x8, addend: 0x0, symName: __ZN6sentry8contexts24make_performance_contextEv.cold.4, symObjAddr: 0x4408, symBinAddr: 0x1201B8, symSize: 0x20 }
  - { offset: 0x1AD387, size: 0x8, addend: 0x0, symName: __ZN6sentry8contexts24make_performance_contextEv.cold.3, symObjAddr: 0x43E8, symBinAddr: 0x120198, symSize: 0x20 }
  - { offset: 0x1AD39F, size: 0x8, addend: 0x0, symName: __ZN6sentry8contexts24make_performance_contextEv.cold.2, symObjAddr: 0x43C8, symBinAddr: 0x120178, symSize: 0x20 }
  - { offset: 0x1AD3B7, size: 0x8, addend: 0x0, symName: __ZN6sentry8contexts24make_performance_contextEv.cold.1, symObjAddr: 0x43A8, symBinAddr: 0x120158, symSize: 0x20 }
  - { offset: 0x1AD408, size: 0x8, addend: 0x0, symName: __ZN5godot7HashMapINS_6StringENS_10DictionaryENS_20HashMapHasherDefaultENS_24HashMapComparatorDefaultIS1_EENS_21DefaultTypedAllocatorINS_14HashMapElementIS1_S2_EEEEEixERKS1_, symObjAddr: 0x25E8, symBinAddr: 0x38DB0, symSize: 0x29C }
  - { offset: 0x1ADC67, size: 0x8, addend: 0x0, symName: __ZNK5godot7HashMapINS_6StringENS_10DictionaryENS_20HashMapHasherDefaultENS_24HashMapComparatorDefaultIS1_EENS_21DefaultTypedAllocatorINS_14HashMapElementIS1_S2_EEEEE11_lookup_posERKS1_Rj, symObjAddr: 0x3EF4, symBinAddr: 0x398D0, symSize: 0x114 }
  - { offset: 0x1ADE86, size: 0x8, addend: 0x0, symName: __ZN5godot7HashMapINS_6StringENS_10DictionaryENS_20HashMapHasherDefaultENS_24HashMapComparatorDefaultIS1_EENS_21DefaultTypedAllocatorINS_14HashMapElementIS1_S2_EEEEEixERKS1_.cold.1, symObjAddr: 0x4428, symBinAddr: 0x1201D8, symSize: 0x74 }
  - { offset: 0x1ADECF, size: 0x8, addend: 0x0, symName: __ZN5godot7HashMapINS_6StringENS_10DictionaryENS_20HashMapHasherDefaultENS_24HashMapComparatorDefaultIS1_EENS_21DefaultTypedAllocatorINS_14HashMapElementIS1_S2_EEEEE18_resize_and_rehashEj, symObjAddr: 0x401C, symBinAddr: 0x399E4, symSize: 0x18C }
  - { offset: 0x1AE168, size: 0x8, addend: 0x0, symName: __ZN5godot7HashMapINS_6StringENS_10DictionaryENS_20HashMapHasherDefaultENS_24HashMapComparatorDefaultIS1_EENS_21DefaultTypedAllocatorINS_14HashMapElementIS1_S2_EEEEEixERKS1_.cold.2, symObjAddr: 0x449C, symBinAddr: 0x12024C, symSize: 0x40 }
  - { offset: 0x1AE19E, size: 0x8, addend: 0x0, symName: __ZN5godot8internal23EngineClassRegistrationINS_6ObjectEE8callbackEv.cold.1, symObjAddr: 0x44DC, symBinAddr: 0x12028C, symSize: 0x5C }
  - { offset: 0x1AE36B, size: 0x8, addend: 0x0, symName: __ZN5godot6ObjectD1Ev.cold.1, symObjAddr: 0x4538, symBinAddr: 0x1202E8, symSize: 0x1C }
  - { offset: 0x1AE387, size: 0x8, addend: 0x0, symName: __ZN5godot6ObjectD1Ev.cold.1, symObjAddr: 0x4538, symBinAddr: 0x1202E8, symSize: 0x1C }
  - { offset: 0x1AE39C, size: 0x8, addend: 0x0, symName: __ZN5godot6ObjectD1Ev.cold.1, symObjAddr: 0x4538, symBinAddr: 0x1202E8, symSize: 0x1C }
  - { offset: 0x1AE3B1, size: 0x8, addend: 0x0, symName: __ZN5godot6ObjectD1Ev.cold.1, symObjAddr: 0x4538, symBinAddr: 0x1202E8, symSize: 0x1C }
  - { offset: 0x1AE3C6, size: 0x8, addend: 0x0, symName: __ZN5godot6ObjectD1Ev.cold.1, symObjAddr: 0x4538, symBinAddr: 0x1202E8, symSize: 0x1C }
  - { offset: 0x1AE3F6, size: 0x8, addend: 0x0, symName: __ZN5godot6ObjectD0Ev.cold.1, symObjAddr: 0x4554, symBinAddr: 0x120304, symSize: 0x1C }
  - { offset: 0x1AE412, size: 0x8, addend: 0x0, symName: __ZN5godot6ObjectD0Ev.cold.1, symObjAddr: 0x4554, symBinAddr: 0x120304, symSize: 0x1C }
  - { offset: 0x1AE427, size: 0x8, addend: 0x0, symName: __ZN5godot6ObjectD0Ev.cold.1, symObjAddr: 0x4554, symBinAddr: 0x120304, symSize: 0x1C }
  - { offset: 0x1AE43C, size: 0x8, addend: 0x0, symName: __ZN5godot6ObjectD0Ev.cold.1, symObjAddr: 0x4554, symBinAddr: 0x120304, symSize: 0x1C }
  - { offset: 0x1AE451, size: 0x8, addend: 0x0, symName: __ZN5godot6ObjectD0Ev.cold.1, symObjAddr: 0x4554, symBinAddr: 0x120304, symSize: 0x1C }
  - { offset: 0x1AE466, size: 0x8, addend: 0x0, symName: __ZN5godot6ObjectD0Ev.cold.1, symObjAddr: 0x4554, symBinAddr: 0x120304, symSize: 0x1C }
  - { offset: 0x1AE47D, size: 0x8, addend: 0x0, symName: __ZN5godot7WrappedD1Ev.cold.1, symObjAddr: 0x4570, symBinAddr: 0x120320, symSize: 0x1C }
  - { offset: 0x1AE499, size: 0x8, addend: 0x0, symName: __ZN5godot7WrappedD1Ev.cold.1, symObjAddr: 0x4570, symBinAddr: 0x120320, symSize: 0x1C }
  - { offset: 0x1AE4AE, size: 0x8, addend: 0x0, symName: __ZN5godot7WrappedD1Ev.cold.1, symObjAddr: 0x4570, symBinAddr: 0x120320, symSize: 0x1C }
  - { offset: 0x1AE4C3, size: 0x8, addend: 0x0, symName: __ZN5godot7WrappedD1Ev.cold.1, symObjAddr: 0x4570, symBinAddr: 0x120320, symSize: 0x1C }
  - { offset: 0x1AE4F2, size: 0x8, addend: 0x0, symName: __ZN5godot7WrappedD0Ev.cold.1, symObjAddr: 0x458C, symBinAddr: 0x12033C, symSize: 0x1C }
  - { offset: 0x1AE50E, size: 0x8, addend: 0x0, symName: __ZN5godot7WrappedD0Ev.cold.1, symObjAddr: 0x458C, symBinAddr: 0x12033C, symSize: 0x1C }
  - { offset: 0x1AE523, size: 0x8, addend: 0x0, symName: __ZN5godot7WrappedD0Ev.cold.1, symObjAddr: 0x458C, symBinAddr: 0x12033C, symSize: 0x1C }
  - { offset: 0x1AE538, size: 0x8, addend: 0x0, symName: __ZN5godot7WrappedD0Ev.cold.1, symObjAddr: 0x458C, symBinAddr: 0x12033C, symSize: 0x1C }
  - { offset: 0x1AE54D, size: 0x8, addend: 0x0, symName: __ZN5godot7WrappedD0Ev.cold.1, symObjAddr: 0x458C, symBinAddr: 0x12033C, symSize: 0x1C }
  - { offset: 0x1AE5D3, size: 0x8, addend: 0x0, symName: __ZN5godot4ListINS_12PropertyInfoENS_16DefaultAllocatorEE5_Data5eraseEPNS3_7ElementE.cold.2, symObjAddr: 0x45C8, symBinAddr: 0x120378, symSize: 0x20 }
  - { offset: 0x1AE5EB, size: 0x8, addend: 0x0, symName: __ZN5godot4ListINS_12PropertyInfoENS_16DefaultAllocatorEE5_Data5eraseEPNS3_7ElementE.cold.1, symObjAddr: 0x45A8, symBinAddr: 0x120358, symSize: 0x20 }
  - { offset: 0x1AE60A, size: 0x8, addend: 0x0, symName: __ZN5godot8internal23EngineClassRegistrationINS_16ClassDBSingletonEE8callbackEv.cold.1, symObjAddr: 0x45E8, symBinAddr: 0x120398, symSize: 0x5C }
  - { offset: 0x1AE63F, size: 0x8, addend: 0x0, symName: __ZN5godot8internal23EngineClassRegistrationINS_10RefCountedEE8callbackEv.cold.1, symObjAddr: 0x4644, symBinAddr: 0x1203F4, symSize: 0x5C }
  - { offset: 0x1AE6AE, size: 0x8, addend: 0x0, symName: __ZN5godot10RefCountedD1Ev.cold.1, symObjAddr: 0x46A0, symBinAddr: 0x120450, symSize: 0x1C }
  - { offset: 0x1AE6CA, size: 0x8, addend: 0x0, symName: __ZN5godot10RefCountedD1Ev.cold.1, symObjAddr: 0x46A0, symBinAddr: 0x120450, symSize: 0x1C }
  - { offset: 0x1AE6DF, size: 0x8, addend: 0x0, symName: __ZN5godot10RefCountedD1Ev.cold.1, symObjAddr: 0x46A0, symBinAddr: 0x120450, symSize: 0x1C }
  - { offset: 0x1AE6F4, size: 0x8, addend: 0x0, symName: __ZN5godot10RefCountedD1Ev.cold.1, symObjAddr: 0x46A0, symBinAddr: 0x120450, symSize: 0x1C }
  - { offset: 0x1AE709, size: 0x8, addend: 0x0, symName: __ZN5godot10RefCountedD1Ev.cold.1, symObjAddr: 0x46A0, symBinAddr: 0x120450, symSize: 0x1C }
  - { offset: 0x1AE71E, size: 0x8, addend: 0x0, symName: __ZN5godot10RefCountedD1Ev.cold.1, symObjAddr: 0x46A0, symBinAddr: 0x120450, symSize: 0x1C }
  - { offset: 0x1AE751, size: 0x8, addend: 0x0, symName: __ZN5godot10RefCountedD0Ev.cold.1, symObjAddr: 0x46BC, symBinAddr: 0x12046C, symSize: 0x1C }
  - { offset: 0x1AE76D, size: 0x8, addend: 0x0, symName: __ZN5godot10RefCountedD0Ev.cold.1, symObjAddr: 0x46BC, symBinAddr: 0x12046C, symSize: 0x1C }
  - { offset: 0x1AE782, size: 0x8, addend: 0x0, symName: __ZN5godot10RefCountedD0Ev.cold.1, symObjAddr: 0x46BC, symBinAddr: 0x12046C, symSize: 0x1C }
  - { offset: 0x1AE797, size: 0x8, addend: 0x0, symName: __ZN5godot10RefCountedD0Ev.cold.1, symObjAddr: 0x46BC, symBinAddr: 0x12046C, symSize: 0x1C }
  - { offset: 0x1AE7AC, size: 0x8, addend: 0x0, symName: __ZN5godot10RefCountedD0Ev.cold.1, symObjAddr: 0x46BC, symBinAddr: 0x12046C, symSize: 0x1C }
  - { offset: 0x1AE7C1, size: 0x8, addend: 0x0, symName: __ZN5godot10RefCountedD0Ev.cold.1, symObjAddr: 0x46BC, symBinAddr: 0x12046C, symSize: 0x1C }
  - { offset: 0x1AE7D6, size: 0x8, addend: 0x0, symName: __ZN5godot10RefCountedD0Ev.cold.1, symObjAddr: 0x46BC, symBinAddr: 0x12046C, symSize: 0x1C }
  - { offset: 0x1AE7F5, size: 0x8, addend: 0x0, symName: __ZN5godot8internal23EngineClassRegistrationINS_10ConfigFileEE8callbackEv.cold.1, symObjAddr: 0x46D8, symBinAddr: 0x120488, symSize: 0x5C }
  - { offset: 0x1AE83F, size: 0x8, addend: 0x0, symName: __ZN5godot10ConfigFileD1Ev.cold.1, symObjAddr: 0x4734, symBinAddr: 0x1204E4, symSize: 0x1C }
  - { offset: 0x1AE85B, size: 0x8, addend: 0x0, symName: __ZN5godot10ConfigFileD1Ev.cold.1, symObjAddr: 0x4734, symBinAddr: 0x1204E4, symSize: 0x1C }
  - { offset: 0x1AE870, size: 0x8, addend: 0x0, symName: __ZN5godot10ConfigFileD1Ev.cold.1, symObjAddr: 0x4734, symBinAddr: 0x1204E4, symSize: 0x1C }
  - { offset: 0x1AE885, size: 0x8, addend: 0x0, symName: __ZN5godot10ConfigFileD1Ev.cold.1, symObjAddr: 0x4734, symBinAddr: 0x1204E4, symSize: 0x1C }
  - { offset: 0x1AE89A, size: 0x8, addend: 0x0, symName: __ZN5godot10ConfigFileD1Ev.cold.1, symObjAddr: 0x4734, symBinAddr: 0x1204E4, symSize: 0x1C }
  - { offset: 0x1AE8AF, size: 0x8, addend: 0x0, symName: __ZN5godot10ConfigFileD1Ev.cold.1, symObjAddr: 0x4734, symBinAddr: 0x1204E4, symSize: 0x1C }
  - { offset: 0x1AE8C4, size: 0x8, addend: 0x0, symName: __ZN5godot10ConfigFileD1Ev.cold.1, symObjAddr: 0x4734, symBinAddr: 0x1204E4, symSize: 0x1C }
  - { offset: 0x1AE8F8, size: 0x8, addend: 0x0, symName: __ZN5godot10ConfigFileD0Ev.cold.1, symObjAddr: 0x4750, symBinAddr: 0x120500, symSize: 0x1C }
  - { offset: 0x1AE914, size: 0x8, addend: 0x0, symName: __ZN5godot10ConfigFileD0Ev.cold.1, symObjAddr: 0x4750, symBinAddr: 0x120500, symSize: 0x1C }
  - { offset: 0x1AE929, size: 0x8, addend: 0x0, symName: __ZN5godot10ConfigFileD0Ev.cold.1, symObjAddr: 0x4750, symBinAddr: 0x120500, symSize: 0x1C }
  - { offset: 0x1AE93E, size: 0x8, addend: 0x0, symName: __ZN5godot10ConfigFileD0Ev.cold.1, symObjAddr: 0x4750, symBinAddr: 0x120500, symSize: 0x1C }
  - { offset: 0x1AE953, size: 0x8, addend: 0x0, symName: __ZN5godot10ConfigFileD0Ev.cold.1, symObjAddr: 0x4750, symBinAddr: 0x120500, symSize: 0x1C }
  - { offset: 0x1AE968, size: 0x8, addend: 0x0, symName: __ZN5godot10ConfigFileD0Ev.cold.1, symObjAddr: 0x4750, symBinAddr: 0x120500, symSize: 0x1C }
  - { offset: 0x1AE97D, size: 0x8, addend: 0x0, symName: __ZN5godot10ConfigFileD0Ev.cold.1, symObjAddr: 0x4750, symBinAddr: 0x120500, symSize: 0x1C }
  - { offset: 0x1AE992, size: 0x8, addend: 0x0, symName: __ZN5godot10ConfigFileD0Ev.cold.1, symObjAddr: 0x4750, symBinAddr: 0x120500, symSize: 0x1C }
  - { offset: 0x1AE9B2, size: 0x8, addend: 0x0, symName: __ZN5godot8internal23EngineClassRegistrationINS_6LoggerEE8callbackEv.cold.1, symObjAddr: 0x476C, symBinAddr: 0x12051C, symSize: 0x5C }
  - { offset: 0x1AE9E7, size: 0x8, addend: 0x0, symName: __ZN5godot8internal23EngineClassRegistrationINS_9DirAccessEE8callbackEv, symObjAddr: 0x3174, symBinAddr: 0x3904C, symSize: 0x38 }
  - { offset: 0x1AEA33, size: 0x8, addend: 0x0, symName: __ZN5godot8internal23EngineClassRegistrationINS_9DirAccessEE8callbackEv.cold.1, symObjAddr: 0x47C8, symBinAddr: 0x120578, symSize: 0x5C }
  - { offset: 0x1AEAAB, size: 0x8, addend: 0x0, symName: __ZN5godot9DirAccess28_gde_binding_create_callbackEPvS1_, symObjAddr: 0x31BC, symBinAddr: 0x39084, symSize: 0x44 }
  - { offset: 0x1AEB78, size: 0x8, addend: 0x0, symName: __ZN5godot9DirAccess26_gde_binding_free_callbackEPvS1_S1_, symObjAddr: 0x3200, symBinAddr: 0x390C8, symSize: 0x34 }
  - { offset: 0x1AEBD2, size: 0x8, addend: 0x0, symName: __ZN5godot9DirAccess31_gde_binding_reference_callbackEPvS1_h, symObjAddr: 0x3234, symBinAddr: 0x390FC, symSize: 0x8 }
  - { offset: 0x1AEC2F, size: 0x8, addend: 0x0, symName: __ZN5godot9DirAccessD1Ev, symObjAddr: 0x323C, symBinAddr: 0x39104, symSize: 0x74 }
  - { offset: 0x1AEDE6, size: 0x8, addend: 0x0, symName: __ZN5godot9DirAccessD1Ev.cold.1, symObjAddr: 0x4824, symBinAddr: 0x1205D4, symSize: 0x1C }
  - { offset: 0x1AEE02, size: 0x8, addend: 0x0, symName: __ZN5godot9DirAccessD1Ev.cold.1, symObjAddr: 0x4824, symBinAddr: 0x1205D4, symSize: 0x1C }
  - { offset: 0x1AEE17, size: 0x8, addend: 0x0, symName: __ZN5godot9DirAccessD1Ev.cold.1, symObjAddr: 0x4824, symBinAddr: 0x1205D4, symSize: 0x1C }
  - { offset: 0x1AEE2C, size: 0x8, addend: 0x0, symName: __ZN5godot9DirAccessD1Ev.cold.1, symObjAddr: 0x4824, symBinAddr: 0x1205D4, symSize: 0x1C }
  - { offset: 0x1AEE41, size: 0x8, addend: 0x0, symName: __ZN5godot9DirAccessD1Ev.cold.1, symObjAddr: 0x4824, symBinAddr: 0x1205D4, symSize: 0x1C }
  - { offset: 0x1AEE56, size: 0x8, addend: 0x0, symName: __ZN5godot9DirAccessD1Ev.cold.1, symObjAddr: 0x4824, symBinAddr: 0x1205D4, symSize: 0x1C }
  - { offset: 0x1AEE6B, size: 0x8, addend: 0x0, symName: __ZN5godot9DirAccessD1Ev.cold.1, symObjAddr: 0x4824, symBinAddr: 0x1205D4, symSize: 0x1C }
  - { offset: 0x1AEE9F, size: 0x8, addend: 0x0, symName: __ZN5godot9DirAccessD0Ev, symObjAddr: 0x32C8, symBinAddr: 0x39178, symSize: 0x68 }
  - { offset: 0x1AEFFE, size: 0x8, addend: 0x0, symName: __ZN5godot9DirAccessD0Ev.cold.1, symObjAddr: 0x4840, symBinAddr: 0x1205F0, symSize: 0x1C }
  - { offset: 0x1AF01A, size: 0x8, addend: 0x0, symName: __ZN5godot9DirAccessD0Ev.cold.1, symObjAddr: 0x4840, symBinAddr: 0x1205F0, symSize: 0x1C }
  - { offset: 0x1AF02F, size: 0x8, addend: 0x0, symName: __ZN5godot9DirAccessD0Ev.cold.1, symObjAddr: 0x4840, symBinAddr: 0x1205F0, symSize: 0x1C }
  - { offset: 0x1AF044, size: 0x8, addend: 0x0, symName: __ZN5godot9DirAccessD0Ev.cold.1, symObjAddr: 0x4840, symBinAddr: 0x1205F0, symSize: 0x1C }
  - { offset: 0x1AF059, size: 0x8, addend: 0x0, symName: __ZN5godot9DirAccessD0Ev.cold.1, symObjAddr: 0x4840, symBinAddr: 0x1205F0, symSize: 0x1C }
  - { offset: 0x1AF06E, size: 0x8, addend: 0x0, symName: __ZN5godot9DirAccessD0Ev.cold.1, symObjAddr: 0x4840, symBinAddr: 0x1205F0, symSize: 0x1C }
  - { offset: 0x1AF083, size: 0x8, addend: 0x0, symName: __ZN5godot9DirAccessD0Ev.cold.1, symObjAddr: 0x4840, symBinAddr: 0x1205F0, symSize: 0x1C }
  - { offset: 0x1AF098, size: 0x8, addend: 0x0, symName: __ZN5godot9DirAccessD0Ev.cold.1, symObjAddr: 0x4840, symBinAddr: 0x1205F0, symSize: 0x1C }
  - { offset: 0x1AF0B8, size: 0x8, addend: 0x0, symName: __ZN5godot8internal23EngineClassRegistrationINS_13DisplayServerEE8callbackEv.cold.1, symObjAddr: 0x485C, symBinAddr: 0x12060C, symSize: 0x5C }
  - { offset: 0x1AF0ED, size: 0x8, addend: 0x0, symName: __ZN5godot8internal23EngineClassRegistrationINS_6EngineEE8callbackEv.cold.1, symObjAddr: 0x48B8, symBinAddr: 0x120668, symSize: 0x5C }
  - { offset: 0x1AF122, size: 0x8, addend: 0x0, symName: __ZN5godot8internal23EngineClassRegistrationINS_2OSEE8callbackEv.cold.1, symObjAddr: 0x4914, symBinAddr: 0x1206C4, symSize: 0x5C }
  - { offset: 0x1AF157, size: 0x8, addend: 0x0, symName: __ZN5godot8internal23EngineClassRegistrationINS_11PerformanceEE8callbackEv, symObjAddr: 0x35A0, symBinAddr: 0x391E0, symSize: 0x38 }
  - { offset: 0x1AF1A3, size: 0x8, addend: 0x0, symName: __ZN5godot8internal23EngineClassRegistrationINS_11PerformanceEE8callbackEv.cold.1, symObjAddr: 0x4970, symBinAddr: 0x120720, symSize: 0x5C }
  - { offset: 0x1AF21B, size: 0x8, addend: 0x0, symName: __ZN5godot11Performance28_gde_binding_create_callbackEPvS1_, symObjAddr: 0x35E8, symBinAddr: 0x39218, symSize: 0x48 }
  - { offset: 0x1AF2C2, size: 0x8, addend: 0x0, symName: __ZN5godot11Performance26_gde_binding_free_callbackEPvS1_S1_, symObjAddr: 0x3630, symBinAddr: 0x39260, symSize: 0x34 }
  - { offset: 0x1AF31C, size: 0x8, addend: 0x0, symName: __ZN5godot11Performance31_gde_binding_reference_callbackEPvS1_h, symObjAddr: 0x3664, symBinAddr: 0x39294, symSize: 0x8 }
  - { offset: 0x1AF364, size: 0x8, addend: 0x0, symName: __ZN5godot8internal23EngineClassRegistrationINS_15ProjectSettingsEE8callbackEv.cold.1, symObjAddr: 0x49CC, symBinAddr: 0x12077C, symSize: 0x5C }
  - { offset: 0x1AF399, size: 0x8, addend: 0x0, symName: __ZN5godot8internal23EngineClassRegistrationINS_8ResourceEE8callbackEv.cold.1, symObjAddr: 0x4A28, symBinAddr: 0x1207D8, symSize: 0x5C }
  - { offset: 0x1AF3F3, size: 0x8, addend: 0x0, symName: __ZN5godot8internal23EngineClassRegistrationINS_5ImageEE8callbackEv, symObjAddr: 0x3804, symBinAddr: 0x3929C, symSize: 0x38 }
  - { offset: 0x1AF43F, size: 0x8, addend: 0x0, symName: __ZN5godot8internal23EngineClassRegistrationINS_5ImageEE8callbackEv.cold.1, symObjAddr: 0x4A84, symBinAddr: 0x120834, symSize: 0x5C }
  - { offset: 0x1AF4B7, size: 0x8, addend: 0x0, symName: __ZN5godot5Image28_gde_binding_create_callbackEPvS1_, symObjAddr: 0x384C, symBinAddr: 0x392D4, symSize: 0x44 }
  - { offset: 0x1AF5AA, size: 0x8, addend: 0x0, symName: __ZN5godot5Image26_gde_binding_free_callbackEPvS1_S1_, symObjAddr: 0x3890, symBinAddr: 0x39318, symSize: 0x34 }
  - { offset: 0x1AF604, size: 0x8, addend: 0x0, symName: __ZN5godot5Image31_gde_binding_reference_callbackEPvS1_h, symObjAddr: 0x38C4, symBinAddr: 0x3934C, symSize: 0x8 }
  - { offset: 0x1AF67D, size: 0x8, addend: 0x0, symName: __ZN5godot5ImageD1Ev, symObjAddr: 0x38CC, symBinAddr: 0x39354, symSize: 0x74 }
  - { offset: 0x1AF84C, size: 0x8, addend: 0x0, symName: __ZN5godot5ImageD1Ev.cold.1, symObjAddr: 0x4AE0, symBinAddr: 0x120890, symSize: 0x1C }
  - { offset: 0x1AF868, size: 0x8, addend: 0x0, symName: __ZN5godot5ImageD1Ev.cold.1, symObjAddr: 0x4AE0, symBinAddr: 0x120890, symSize: 0x1C }
  - { offset: 0x1AF87D, size: 0x8, addend: 0x0, symName: __ZN5godot5ImageD1Ev.cold.1, symObjAddr: 0x4AE0, symBinAddr: 0x120890, symSize: 0x1C }
  - { offset: 0x1AF892, size: 0x8, addend: 0x0, symName: __ZN5godot5ImageD1Ev.cold.1, symObjAddr: 0x4AE0, symBinAddr: 0x120890, symSize: 0x1C }
  - { offset: 0x1AF8A7, size: 0x8, addend: 0x0, symName: __ZN5godot5ImageD1Ev.cold.1, symObjAddr: 0x4AE0, symBinAddr: 0x120890, symSize: 0x1C }
  - { offset: 0x1AF8BC, size: 0x8, addend: 0x0, symName: __ZN5godot5ImageD1Ev.cold.1, symObjAddr: 0x4AE0, symBinAddr: 0x120890, symSize: 0x1C }
  - { offset: 0x1AF8D1, size: 0x8, addend: 0x0, symName: __ZN5godot5ImageD1Ev.cold.1, symObjAddr: 0x4AE0, symBinAddr: 0x120890, symSize: 0x1C }
  - { offset: 0x1AF8E6, size: 0x8, addend: 0x0, symName: __ZN5godot5ImageD1Ev.cold.1, symObjAddr: 0x4AE0, symBinAddr: 0x120890, symSize: 0x1C }
  - { offset: 0x1AF91B, size: 0x8, addend: 0x0, symName: __ZN5godot5ImageD0Ev, symObjAddr: 0x3958, symBinAddr: 0x393C8, symSize: 0x68 }
  - { offset: 0x1AFA92, size: 0x8, addend: 0x0, symName: __ZN5godot5ImageD0Ev.cold.1, symObjAddr: 0x4AFC, symBinAddr: 0x1208AC, symSize: 0x1C }
  - { offset: 0x1AFAAE, size: 0x8, addend: 0x0, symName: __ZN5godot5ImageD0Ev.cold.1, symObjAddr: 0x4AFC, symBinAddr: 0x1208AC, symSize: 0x1C }
  - { offset: 0x1AFAC3, size: 0x8, addend: 0x0, symName: __ZN5godot5ImageD0Ev.cold.1, symObjAddr: 0x4AFC, symBinAddr: 0x1208AC, symSize: 0x1C }
  - { offset: 0x1AFAD8, size: 0x8, addend: 0x0, symName: __ZN5godot5ImageD0Ev.cold.1, symObjAddr: 0x4AFC, symBinAddr: 0x1208AC, symSize: 0x1C }
  - { offset: 0x1AFAED, size: 0x8, addend: 0x0, symName: __ZN5godot5ImageD0Ev.cold.1, symObjAddr: 0x4AFC, symBinAddr: 0x1208AC, symSize: 0x1C }
  - { offset: 0x1AFB02, size: 0x8, addend: 0x0, symName: __ZN5godot5ImageD0Ev.cold.1, symObjAddr: 0x4AFC, symBinAddr: 0x1208AC, symSize: 0x1C }
  - { offset: 0x1AFB17, size: 0x8, addend: 0x0, symName: __ZN5godot5ImageD0Ev.cold.1, symObjAddr: 0x4AFC, symBinAddr: 0x1208AC, symSize: 0x1C }
  - { offset: 0x1AFB2C, size: 0x8, addend: 0x0, symName: __ZN5godot5ImageD0Ev.cold.1, symObjAddr: 0x4AFC, symBinAddr: 0x1208AC, symSize: 0x1C }
  - { offset: 0x1AFB41, size: 0x8, addend: 0x0, symName: __ZN5godot5ImageD0Ev.cold.1, symObjAddr: 0x4AFC, symBinAddr: 0x1208AC, symSize: 0x1C }
  - { offset: 0x1AFB62, size: 0x8, addend: 0x0, symName: __ZN5godot8internal23EngineClassRegistrationINS_32RDPipelineSpecializationConstantEE8callbackEv, symObjAddr: 0x39CC, symBinAddr: 0x39430, symSize: 0x38 }
  - { offset: 0x1AFBAE, size: 0x8, addend: 0x0, symName: __ZN5godot8internal23EngineClassRegistrationINS_32RDPipelineSpecializationConstantEE8callbackEv.cold.1, symObjAddr: 0x4B18, symBinAddr: 0x1208C8, symSize: 0x5C }
  - { offset: 0x1AFC26, size: 0x8, addend: 0x0, symName: __ZN5godot32RDPipelineSpecializationConstant28_gde_binding_create_callbackEPvS1_, symObjAddr: 0x3A14, symBinAddr: 0x39468, symSize: 0x44 }
  - { offset: 0x1AFCF3, size: 0x8, addend: 0x0, symName: __ZN5godot32RDPipelineSpecializationConstant26_gde_binding_free_callbackEPvS1_S1_, symObjAddr: 0x3A58, symBinAddr: 0x394AC, symSize: 0x34 }
  - { offset: 0x1AFD4D, size: 0x8, addend: 0x0, symName: __ZN5godot32RDPipelineSpecializationConstant31_gde_binding_reference_callbackEPvS1_h, symObjAddr: 0x3A8C, symBinAddr: 0x394E0, symSize: 0x8 }
  - { offset: 0x1AFDAA, size: 0x8, addend: 0x0, symName: __ZN5godot32RDPipelineSpecializationConstantD1Ev, symObjAddr: 0x3A94, symBinAddr: 0x394E8, symSize: 0x74 }
  - { offset: 0x1AFF61, size: 0x8, addend: 0x0, symName: __ZN5godot32RDPipelineSpecializationConstantD1Ev.cold.1, symObjAddr: 0x4B74, symBinAddr: 0x120924, symSize: 0x1C }
  - { offset: 0x1AFF7D, size: 0x8, addend: 0x0, symName: __ZN5godot32RDPipelineSpecializationConstantD1Ev.cold.1, symObjAddr: 0x4B74, symBinAddr: 0x120924, symSize: 0x1C }
  - { offset: 0x1AFF92, size: 0x8, addend: 0x0, symName: __ZN5godot32RDPipelineSpecializationConstantD1Ev.cold.1, symObjAddr: 0x4B74, symBinAddr: 0x120924, symSize: 0x1C }
  - { offset: 0x1AFFA7, size: 0x8, addend: 0x0, symName: __ZN5godot32RDPipelineSpecializationConstantD1Ev.cold.1, symObjAddr: 0x4B74, symBinAddr: 0x120924, symSize: 0x1C }
  - { offset: 0x1AFFBC, size: 0x8, addend: 0x0, symName: __ZN5godot32RDPipelineSpecializationConstantD1Ev.cold.1, symObjAddr: 0x4B74, symBinAddr: 0x120924, symSize: 0x1C }
  - { offset: 0x1AFFD1, size: 0x8, addend: 0x0, symName: __ZN5godot32RDPipelineSpecializationConstantD1Ev.cold.1, symObjAddr: 0x4B74, symBinAddr: 0x120924, symSize: 0x1C }
  - { offset: 0x1AFFE6, size: 0x8, addend: 0x0, symName: __ZN5godot32RDPipelineSpecializationConstantD1Ev.cold.1, symObjAddr: 0x4B74, symBinAddr: 0x120924, symSize: 0x1C }
  - { offset: 0x1B001A, size: 0x8, addend: 0x0, symName: __ZN5godot32RDPipelineSpecializationConstantD0Ev, symObjAddr: 0x3B20, symBinAddr: 0x3955C, symSize: 0x68 }
  - { offset: 0x1B0179, size: 0x8, addend: 0x0, symName: __ZN5godot32RDPipelineSpecializationConstantD0Ev.cold.1, symObjAddr: 0x4B90, symBinAddr: 0x120940, symSize: 0x1C }
  - { offset: 0x1B0195, size: 0x8, addend: 0x0, symName: __ZN5godot32RDPipelineSpecializationConstantD0Ev.cold.1, symObjAddr: 0x4B90, symBinAddr: 0x120940, symSize: 0x1C }
  - { offset: 0x1B01AA, size: 0x8, addend: 0x0, symName: __ZN5godot32RDPipelineSpecializationConstantD0Ev.cold.1, symObjAddr: 0x4B90, symBinAddr: 0x120940, symSize: 0x1C }
  - { offset: 0x1B01BF, size: 0x8, addend: 0x0, symName: __ZN5godot32RDPipelineSpecializationConstantD0Ev.cold.1, symObjAddr: 0x4B90, symBinAddr: 0x120940, symSize: 0x1C }
  - { offset: 0x1B01D4, size: 0x8, addend: 0x0, symName: __ZN5godot32RDPipelineSpecializationConstantD0Ev.cold.1, symObjAddr: 0x4B90, symBinAddr: 0x120940, symSize: 0x1C }
  - { offset: 0x1B01E9, size: 0x8, addend: 0x0, symName: __ZN5godot32RDPipelineSpecializationConstantD0Ev.cold.1, symObjAddr: 0x4B90, symBinAddr: 0x120940, symSize: 0x1C }
  - { offset: 0x1B01FE, size: 0x8, addend: 0x0, symName: __ZN5godot32RDPipelineSpecializationConstantD0Ev.cold.1, symObjAddr: 0x4B90, symBinAddr: 0x120940, symSize: 0x1C }
  - { offset: 0x1B0213, size: 0x8, addend: 0x0, symName: __ZN5godot32RDPipelineSpecializationConstantD0Ev.cold.1, symObjAddr: 0x4B90, symBinAddr: 0x120940, symSize: 0x1C }
  - { offset: 0x1B0233, size: 0x8, addend: 0x0, symName: __ZN5godot8internal23EngineClassRegistrationINS_15RenderingDeviceEE8callbackEv, symObjAddr: 0x3B94, symBinAddr: 0x395C4, symSize: 0x38 }
  - { offset: 0x1B027F, size: 0x8, addend: 0x0, symName: __ZN5godot8internal23EngineClassRegistrationINS_15RenderingDeviceEE8callbackEv.cold.1, symObjAddr: 0x4BAC, symBinAddr: 0x12095C, symSize: 0x5C }
  - { offset: 0x1B02F7, size: 0x8, addend: 0x0, symName: __ZN5godot15RenderingDevice28_gde_binding_create_callbackEPvS1_, symObjAddr: 0x3BDC, symBinAddr: 0x395FC, symSize: 0x44 }
  - { offset: 0x1B039E, size: 0x8, addend: 0x0, symName: __ZN5godot15RenderingDevice26_gde_binding_free_callbackEPvS1_S1_, symObjAddr: 0x3C20, symBinAddr: 0x39640, symSize: 0x34 }
  - { offset: 0x1B03F8, size: 0x8, addend: 0x0, symName: __ZN5godot15RenderingDevice31_gde_binding_reference_callbackEPvS1_h, symObjAddr: 0x3C54, symBinAddr: 0x39674, symSize: 0x8 }
  - { offset: 0x1B0455, size: 0x8, addend: 0x0, symName: __ZN5godot15RenderingDeviceD1Ev, symObjAddr: 0x3C5C, symBinAddr: 0x3967C, symSize: 0x74 }
  - { offset: 0x1B05F4, size: 0x8, addend: 0x0, symName: __ZN5godot15RenderingDeviceD1Ev.cold.1, symObjAddr: 0x4C08, symBinAddr: 0x1209B8, symSize: 0x1C }
  - { offset: 0x1B0610, size: 0x8, addend: 0x0, symName: __ZN5godot15RenderingDeviceD1Ev.cold.1, symObjAddr: 0x4C08, symBinAddr: 0x1209B8, symSize: 0x1C }
  - { offset: 0x1B0625, size: 0x8, addend: 0x0, symName: __ZN5godot15RenderingDeviceD1Ev.cold.1, symObjAddr: 0x4C08, symBinAddr: 0x1209B8, symSize: 0x1C }
  - { offset: 0x1B063A, size: 0x8, addend: 0x0, symName: __ZN5godot15RenderingDeviceD1Ev.cold.1, symObjAddr: 0x4C08, symBinAddr: 0x1209B8, symSize: 0x1C }
  - { offset: 0x1B064F, size: 0x8, addend: 0x0, symName: __ZN5godot15RenderingDeviceD1Ev.cold.1, symObjAddr: 0x4C08, symBinAddr: 0x1209B8, symSize: 0x1C }
  - { offset: 0x1B0664, size: 0x8, addend: 0x0, symName: __ZN5godot15RenderingDeviceD1Ev.cold.1, symObjAddr: 0x4C08, symBinAddr: 0x1209B8, symSize: 0x1C }
  - { offset: 0x1B0697, size: 0x8, addend: 0x0, symName: __ZN5godot15RenderingDeviceD0Ev, symObjAddr: 0x3CE8, symBinAddr: 0x396F0, symSize: 0x68 }
  - { offset: 0x1B07DE, size: 0x8, addend: 0x0, symName: __ZN5godot15RenderingDeviceD0Ev.cold.1, symObjAddr: 0x4C24, symBinAddr: 0x1209D4, symSize: 0x1C }
  - { offset: 0x1B07FA, size: 0x8, addend: 0x0, symName: __ZN5godot15RenderingDeviceD0Ev.cold.1, symObjAddr: 0x4C24, symBinAddr: 0x1209D4, symSize: 0x1C }
  - { offset: 0x1B080F, size: 0x8, addend: 0x0, symName: __ZN5godot15RenderingDeviceD0Ev.cold.1, symObjAddr: 0x4C24, symBinAddr: 0x1209D4, symSize: 0x1C }
  - { offset: 0x1B0824, size: 0x8, addend: 0x0, symName: __ZN5godot15RenderingDeviceD0Ev.cold.1, symObjAddr: 0x4C24, symBinAddr: 0x1209D4, symSize: 0x1C }
  - { offset: 0x1B0839, size: 0x8, addend: 0x0, symName: __ZN5godot15RenderingDeviceD0Ev.cold.1, symObjAddr: 0x4C24, symBinAddr: 0x1209D4, symSize: 0x1C }
  - { offset: 0x1B084E, size: 0x8, addend: 0x0, symName: __ZN5godot15RenderingDeviceD0Ev.cold.1, symObjAddr: 0x4C24, symBinAddr: 0x1209D4, symSize: 0x1C }
  - { offset: 0x1B0863, size: 0x8, addend: 0x0, symName: __ZN5godot15RenderingDeviceD0Ev.cold.1, symObjAddr: 0x4C24, symBinAddr: 0x1209D4, symSize: 0x1C }
  - { offset: 0x1B0882, size: 0x8, addend: 0x0, symName: __ZN5godot8internal23EngineClassRegistrationINS_15RenderingServerEE8callbackEv, symObjAddr: 0x3D5C, symBinAddr: 0x39758, symSize: 0x38 }
  - { offset: 0x1B08CE, size: 0x8, addend: 0x0, symName: __ZN5godot8internal23EngineClassRegistrationINS_15RenderingServerEE8callbackEv.cold.1, symObjAddr: 0x4C40, symBinAddr: 0x1209F0, symSize: 0x5C }
  - { offset: 0x1B0946, size: 0x8, addend: 0x0, symName: __ZN5godot15RenderingServer28_gde_binding_create_callbackEPvS1_, symObjAddr: 0x3DA4, symBinAddr: 0x39790, symSize: 0x48 }
  - { offset: 0x1B09ED, size: 0x8, addend: 0x0, symName: __ZN5godot15RenderingServer26_gde_binding_free_callbackEPvS1_S1_, symObjAddr: 0x3DEC, symBinAddr: 0x397D8, symSize: 0x34 }
  - { offset: 0x1B0A47, size: 0x8, addend: 0x0, symName: __ZN5godot15RenderingServer31_gde_binding_reference_callbackEPvS1_h, symObjAddr: 0x3E20, symBinAddr: 0x3980C, symSize: 0x8 }
  - { offset: 0x1B0A8F, size: 0x8, addend: 0x0, symName: __ZN5godot8internal23EngineClassRegistrationINS_4TimeEE8callbackEv, symObjAddr: 0x3E28, symBinAddr: 0x39814, symSize: 0x38 }
  - { offset: 0x1B0ADB, size: 0x8, addend: 0x0, symName: __ZN5godot8internal23EngineClassRegistrationINS_4TimeEE8callbackEv.cold.1, symObjAddr: 0x4C9C, symBinAddr: 0x120A4C, symSize: 0x5C }
  - { offset: 0x1B0B53, size: 0x8, addend: 0x0, symName: __ZN5godot4Time28_gde_binding_create_callbackEPvS1_, symObjAddr: 0x3E70, symBinAddr: 0x3984C, symSize: 0x48 }
  - { offset: 0x1B0BFA, size: 0x8, addend: 0x0, symName: __ZN5godot4Time26_gde_binding_free_callbackEPvS1_S1_, symObjAddr: 0x3EB8, symBinAddr: 0x39894, symSize: 0x34 }
  - { offset: 0x1B0C54, size: 0x8, addend: 0x0, symName: __ZN5godot4Time31_gde_binding_reference_callbackEPvS1_h, symObjAddr: 0x3EEC, symBinAddr: 0x398C8, symSize: 0x8 }
  - { offset: 0x1B0CBA, size: 0x8, addend: 0x0, symName: _OUTLINED_FUNCTION_0, symObjAddr: 0x4CF8, symBinAddr: 0x39B70, symSize: 0x10 }
  - { offset: 0x1B0CD2, size: 0x8, addend: 0x0, symName: _OUTLINED_FUNCTION_1, symObjAddr: 0x4D08, symBinAddr: 0x39B80, symSize: 0xC }
  - { offset: 0x1B0CEA, size: 0x8, addend: 0x0, symName: _OUTLINED_FUNCTION_2, symObjAddr: 0x4D14, symBinAddr: 0x39B8C, symSize: 0xC }
  - { offset: 0x1B0D02, size: 0x8, addend: 0x0, symName: _OUTLINED_FUNCTION_3, symObjAddr: 0x4D20, symBinAddr: 0x39B98, symSize: 0x8 }
  - { offset: 0x1B0D1A, size: 0x8, addend: 0x0, symName: _OUTLINED_FUNCTION_4, symObjAddr: 0x4D28, symBinAddr: 0x39BA0, symSize: 0x8 }
  - { offset: 0x1B0D32, size: 0x8, addend: 0x0, symName: _OUTLINED_FUNCTION_5, symObjAddr: 0x4D30, symBinAddr: 0x39BA8, symSize: 0x8 }
  - { offset: 0x1B0D4A, size: 0x8, addend: 0x0, symName: _OUTLINED_FUNCTION_6, symObjAddr: 0x4D38, symBinAddr: 0x39BB0, symSize: 0xC }
  - { offset: 0x1B0D62, size: 0x8, addend: 0x0, symName: _OUTLINED_FUNCTION_7, symObjAddr: 0x4D44, symBinAddr: 0x39BBC, symSize: 0xC }
  - { offset: 0x1B45D4, size: 0x8, addend: 0x0, symName: ___cxx_global_var_init, symObjAddr: 0xCA8, symBinAddr: 0x3A258, symSize: 0x4C }
  - { offset: 0x1B465B, size: 0x8, addend: 0x0, symName: ___cxx_global_var_init.1, symObjAddr: 0xCF4, symBinAddr: 0x3A2A4, symSize: 0x4C }
  - { offset: 0x1B46E2, size: 0x8, addend: 0x0, symName: ___cxx_global_var_init.2, symObjAddr: 0xD40, symBinAddr: 0x3A2F0, symSize: 0x4C }
  - { offset: 0x1B4769, size: 0x8, addend: 0x0, symName: ___cxx_global_var_init.3, symObjAddr: 0xD8C, symBinAddr: 0x3A33C, symSize: 0x4C }
  - { offset: 0x1B47F0, size: 0x8, addend: 0x0, symName: ___cxx_global_var_init.4, symObjAddr: 0xDD8, symBinAddr: 0x3A388, symSize: 0x4C }
  - { offset: 0x1B4848, size: 0x8, addend: 0x0, symName: __ZN6sentry11environment24detect_godot_environmentEv, symObjAddr: 0x0, symBinAddr: 0x3A0D4, symSize: 0x138 }
  - { offset: 0x1B4895, size: 0x8, addend: 0x0, symName: __ZN6sentry11environment24detect_godot_environmentEv.cold.2, symObjAddr: 0x960, symBinAddr: 0x120AF0, symSize: 0x48 }
  - { offset: 0x1B48AD, size: 0x8, addend: 0x0, symName: __ZN6sentry11environment24detect_godot_environmentEv.cold.1, symObjAddr: 0x918, symBinAddr: 0x120AA8, symSize: 0x48 }
  - { offset: 0x1B48CC, size: 0x8, addend: 0x0, symName: __ZN5godot8internal23EngineClassRegistrationINS_6ObjectEE8callbackEv.cold.1, symObjAddr: 0x9A8, symBinAddr: 0x120B38, symSize: 0x5C }
  - { offset: 0x1B4967, size: 0x8, addend: 0x0, symName: __ZN5godot6ObjectD1Ev.cold.1, symObjAddr: 0xA04, symBinAddr: 0x120B94, symSize: 0x1C }
  - { offset: 0x1B4983, size: 0x8, addend: 0x0, symName: __ZN5godot6ObjectD1Ev.cold.1, symObjAddr: 0xA04, symBinAddr: 0x120B94, symSize: 0x1C }
  - { offset: 0x1B4998, size: 0x8, addend: 0x0, symName: __ZN5godot6ObjectD1Ev.cold.1, symObjAddr: 0xA04, symBinAddr: 0x120B94, symSize: 0x1C }
  - { offset: 0x1B49AD, size: 0x8, addend: 0x0, symName: __ZN5godot6ObjectD1Ev.cold.1, symObjAddr: 0xA04, symBinAddr: 0x120B94, symSize: 0x1C }
  - { offset: 0x1B49C2, size: 0x8, addend: 0x0, symName: __ZN5godot6ObjectD1Ev.cold.1, symObjAddr: 0xA04, symBinAddr: 0x120B94, symSize: 0x1C }
  - { offset: 0x1B49F2, size: 0x8, addend: 0x0, symName: __ZN5godot6ObjectD0Ev.cold.1, symObjAddr: 0xA20, symBinAddr: 0x120BB0, symSize: 0x1C }
  - { offset: 0x1B4A0E, size: 0x8, addend: 0x0, symName: __ZN5godot6ObjectD0Ev.cold.1, symObjAddr: 0xA20, symBinAddr: 0x120BB0, symSize: 0x1C }
  - { offset: 0x1B4A23, size: 0x8, addend: 0x0, symName: __ZN5godot6ObjectD0Ev.cold.1, symObjAddr: 0xA20, symBinAddr: 0x120BB0, symSize: 0x1C }
  - { offset: 0x1B4A38, size: 0x8, addend: 0x0, symName: __ZN5godot6ObjectD0Ev.cold.1, symObjAddr: 0xA20, symBinAddr: 0x120BB0, symSize: 0x1C }
  - { offset: 0x1B4A4D, size: 0x8, addend: 0x0, symName: __ZN5godot6ObjectD0Ev.cold.1, symObjAddr: 0xA20, symBinAddr: 0x120BB0, symSize: 0x1C }
  - { offset: 0x1B4A62, size: 0x8, addend: 0x0, symName: __ZN5godot6ObjectD0Ev.cold.1, symObjAddr: 0xA20, symBinAddr: 0x120BB0, symSize: 0x1C }
  - { offset: 0x1B4A79, size: 0x8, addend: 0x0, symName: __ZN5godot7WrappedD1Ev.cold.1, symObjAddr: 0xA3C, symBinAddr: 0x120BCC, symSize: 0x1C }
  - { offset: 0x1B4A95, size: 0x8, addend: 0x0, symName: __ZN5godot7WrappedD1Ev.cold.1, symObjAddr: 0xA3C, symBinAddr: 0x120BCC, symSize: 0x1C }
  - { offset: 0x1B4AAA, size: 0x8, addend: 0x0, symName: __ZN5godot7WrappedD1Ev.cold.1, symObjAddr: 0xA3C, symBinAddr: 0x120BCC, symSize: 0x1C }
  - { offset: 0x1B4ABF, size: 0x8, addend: 0x0, symName: __ZN5godot7WrappedD1Ev.cold.1, symObjAddr: 0xA3C, symBinAddr: 0x120BCC, symSize: 0x1C }
  - { offset: 0x1B4AEE, size: 0x8, addend: 0x0, symName: __ZN5godot7WrappedD0Ev.cold.1, symObjAddr: 0xA58, symBinAddr: 0x120BE8, symSize: 0x1C }
  - { offset: 0x1B4B0A, size: 0x8, addend: 0x0, symName: __ZN5godot7WrappedD0Ev.cold.1, symObjAddr: 0xA58, symBinAddr: 0x120BE8, symSize: 0x1C }
  - { offset: 0x1B4B1F, size: 0x8, addend: 0x0, symName: __ZN5godot7WrappedD0Ev.cold.1, symObjAddr: 0xA58, symBinAddr: 0x120BE8, symSize: 0x1C }
  - { offset: 0x1B4B34, size: 0x8, addend: 0x0, symName: __ZN5godot7WrappedD0Ev.cold.1, symObjAddr: 0xA58, symBinAddr: 0x120BE8, symSize: 0x1C }
  - { offset: 0x1B4B49, size: 0x8, addend: 0x0, symName: __ZN5godot7WrappedD0Ev.cold.1, symObjAddr: 0xA58, symBinAddr: 0x120BE8, symSize: 0x1C }
  - { offset: 0x1B4B5F, size: 0x8, addend: 0x0, symName: __ZN5godot4ListINS_12PropertyInfoENS_16DefaultAllocatorEE5_Data5eraseEPNS3_7ElementE.cold.2, symObjAddr: 0xA94, symBinAddr: 0x120C24, symSize: 0x20 }
  - { offset: 0x1B4B77, size: 0x8, addend: 0x0, symName: __ZN5godot4ListINS_12PropertyInfoENS_16DefaultAllocatorEE5_Data5eraseEPNS3_7ElementE.cold.1, symObjAddr: 0xA74, symBinAddr: 0x120C04, symSize: 0x20 }
  - { offset: 0x1B4B96, size: 0x8, addend: 0x0, symName: __ZN5godot8internal23EngineClassRegistrationINS_16ClassDBSingletonEE8callbackEv.cold.1, symObjAddr: 0xAB4, symBinAddr: 0x120C44, symSize: 0x5C }
  - { offset: 0x1B4BCB, size: 0x8, addend: 0x0, symName: __ZN5godot8internal23EngineClassRegistrationINS_6EngineEE8callbackEv.cold.1, symObjAddr: 0xB10, symBinAddr: 0x120CA0, symSize: 0x5C }
  - { offset: 0x1B4C00, size: 0x8, addend: 0x0, symName: __ZN5godot8internal23EngineClassRegistrationINS_10RefCountedEE8callbackEv.cold.1, symObjAddr: 0xB6C, symBinAddr: 0x120CFC, symSize: 0x5C }
  - { offset: 0x1B4C4A, size: 0x8, addend: 0x0, symName: __ZN5godot10RefCountedD1Ev.cold.1, symObjAddr: 0xBC8, symBinAddr: 0x120D58, symSize: 0x1C }
  - { offset: 0x1B4C66, size: 0x8, addend: 0x0, symName: __ZN5godot10RefCountedD1Ev.cold.1, symObjAddr: 0xBC8, symBinAddr: 0x120D58, symSize: 0x1C }
  - { offset: 0x1B4C7B, size: 0x8, addend: 0x0, symName: __ZN5godot10RefCountedD1Ev.cold.1, symObjAddr: 0xBC8, symBinAddr: 0x120D58, symSize: 0x1C }
  - { offset: 0x1B4C90, size: 0x8, addend: 0x0, symName: __ZN5godot10RefCountedD1Ev.cold.1, symObjAddr: 0xBC8, symBinAddr: 0x120D58, symSize: 0x1C }
  - { offset: 0x1B4CA5, size: 0x8, addend: 0x0, symName: __ZN5godot10RefCountedD1Ev.cold.1, symObjAddr: 0xBC8, symBinAddr: 0x120D58, symSize: 0x1C }
  - { offset: 0x1B4CBA, size: 0x8, addend: 0x0, symName: __ZN5godot10RefCountedD1Ev.cold.1, symObjAddr: 0xBC8, symBinAddr: 0x120D58, symSize: 0x1C }
  - { offset: 0x1B4CED, size: 0x8, addend: 0x0, symName: __ZN5godot10RefCountedD0Ev.cold.1, symObjAddr: 0xBE4, symBinAddr: 0x120D74, symSize: 0x1C }
  - { offset: 0x1B4D09, size: 0x8, addend: 0x0, symName: __ZN5godot10RefCountedD0Ev.cold.1, symObjAddr: 0xBE4, symBinAddr: 0x120D74, symSize: 0x1C }
  - { offset: 0x1B4D1E, size: 0x8, addend: 0x0, symName: __ZN5godot10RefCountedD0Ev.cold.1, symObjAddr: 0xBE4, symBinAddr: 0x120D74, symSize: 0x1C }
  - { offset: 0x1B4D33, size: 0x8, addend: 0x0, symName: __ZN5godot10RefCountedD0Ev.cold.1, symObjAddr: 0xBE4, symBinAddr: 0x120D74, symSize: 0x1C }
  - { offset: 0x1B4D48, size: 0x8, addend: 0x0, symName: __ZN5godot10RefCountedD0Ev.cold.1, symObjAddr: 0xBE4, symBinAddr: 0x120D74, symSize: 0x1C }
  - { offset: 0x1B4D5D, size: 0x8, addend: 0x0, symName: __ZN5godot10RefCountedD0Ev.cold.1, symObjAddr: 0xBE4, symBinAddr: 0x120D74, symSize: 0x1C }
  - { offset: 0x1B4D72, size: 0x8, addend: 0x0, symName: __ZN5godot10RefCountedD0Ev.cold.1, symObjAddr: 0xBE4, symBinAddr: 0x120D74, symSize: 0x1C }
  - { offset: 0x1B4D91, size: 0x8, addend: 0x0, symName: __ZN5godot8internal23EngineClassRegistrationINS_2OSEE8callbackEv.cold.1, symObjAddr: 0xC00, symBinAddr: 0x120D90, symSize: 0x5C }
  - { offset: 0x1B4DBF, size: 0x8, addend: 0x0, symName: _OUTLINED_FUNCTION_0, symObjAddr: 0xC5C, symBinAddr: 0x3A20C, symSize: 0x10 }
  - { offset: 0x1B4DD7, size: 0x8, addend: 0x0, symName: _OUTLINED_FUNCTION_1, symObjAddr: 0xC6C, symBinAddr: 0x3A21C, symSize: 0xC }
  - { offset: 0x1B4DEF, size: 0x8, addend: 0x0, symName: _OUTLINED_FUNCTION_2, symObjAddr: 0xC78, symBinAddr: 0x3A228, symSize: 0xC }
  - { offset: 0x1B4E07, size: 0x8, addend: 0x0, symName: _OUTLINED_FUNCTION_3, symObjAddr: 0xC84, symBinAddr: 0x3A234, symSize: 0x8 }
  - { offset: 0x1B4E1F, size: 0x8, addend: 0x0, symName: _OUTLINED_FUNCTION_4, symObjAddr: 0xC8C, symBinAddr: 0x3A23C, symSize: 0x8 }
  - { offset: 0x1B4E37, size: 0x8, addend: 0x0, symName: _OUTLINED_FUNCTION_5, symObjAddr: 0xC94, symBinAddr: 0x3A244, symSize: 0x8 }
  - { offset: 0x1B4E4F, size: 0x8, addend: 0x0, symName: _OUTLINED_FUNCTION_6, symObjAddr: 0xC9C, symBinAddr: 0x3A24C, symSize: 0xC }
  - { offset: 0x1B6D13, size: 0x8, addend: 0x0, symName: __ZN6sentry16level_as_cstringENS_5LevelE, symObjAddr: 0x0, symBinAddr: 0x3A3D4, symSize: 0x30 }
  - { offset: 0x1B7897, size: 0x8, addend: 0x0, symName: __ZN6sentry16level_as_cstringENS_5LevelE, symObjAddr: 0x0, symBinAddr: 0x3A3D4, symSize: 0x30 }
  - { offset: 0x1B790D, size: 0x8, addend: 0x0, symName: __ZN6sentry24make_level_enum_propertyERKN5godot6StringE, symObjAddr: 0x30, symBinAddr: 0x3A404, symSize: 0xB8 }
  - { offset: 0x1B961F, size: 0x8, addend: 0x0, symName: __ZN6sentry4uuid9make_uuidEv, symObjAddr: 0x0, symBinAddr: 0x3A4BC, symSize: 0x4 }
  - { offset: 0x1CEAD4, size: 0x8, addend: 0x0, symName: __ZN6sentry4uuid9make_uuidEv, symObjAddr: 0x0, symBinAddr: 0x3A4BC, symSize: 0x4 }
  - { offset: 0x1CEAF6, size: 0x8, addend: 0x0, symName: __ZN6sentry4uuid9make_uuidEv, symObjAddr: 0x0, symBinAddr: 0x3A4BC, symSize: 0x4 }
  - { offset: 0x1D5788, size: 0x8, addend: 0x0, symName: __ZN5godot4JSON22_gde_binding_callbacksE, symObjAddr: 0x2DF8, symBinAddr: 0x1CAFC0, symSize: 0x0 }
  - { offset: 0x1D57E8, size: 0x8, addend: 0x0, symName: ___cxx_global_var_init, symObjAddr: 0x25D0, symBinAddr: 0x3B018, symSize: 0x4C }
  - { offset: 0x1D586F, size: 0x8, addend: 0x0, symName: ___cxx_global_var_init.1, symObjAddr: 0x261C, symBinAddr: 0x3B064, symSize: 0x4C }
  - { offset: 0x1D58F6, size: 0x8, addend: 0x0, symName: ___cxx_global_var_init.2, symObjAddr: 0x2668, symBinAddr: 0x3B0B0, symSize: 0x4C }
  - { offset: 0x1D597D, size: 0x8, addend: 0x0, symName: ___cxx_global_var_init.3, symObjAddr: 0x26B4, symBinAddr: 0x3B0FC, symSize: 0x4C }
  - { offset: 0x1D5A04, size: 0x8, addend: 0x0, symName: ___cxx_global_var_init.4, symObjAddr: 0x2700, symBinAddr: 0x3B148, symSize: 0x4C }
  - { offset: 0x1D5A8B, size: 0x8, addend: 0x0, symName: ___cxx_global_var_init.5, symObjAddr: 0x274C, symBinAddr: 0x3B194, symSize: 0x4C }
  - { offset: 0x1D5B12, size: 0x8, addend: 0x0, symName: ___cxx_global_var_init.6, symObjAddr: 0x2798, symBinAddr: 0x3B1E0, symSize: 0x4C }
  - { offset: 0x1D5B99, size: 0x8, addend: 0x0, symName: ___cxx_global_var_init.7, symObjAddr: 0x27E4, symBinAddr: 0x3B22C, symSize: 0x4C }
  - { offset: 0x1D5C20, size: 0x8, addend: 0x0, symName: ___cxx_global_var_init.8, symObjAddr: 0x2830, symBinAddr: 0x3B278, symSize: 0x4C }
  - { offset: 0x1D5CA7, size: 0x8, addend: 0x0, symName: ___cxx_global_var_init.9, symObjAddr: 0x287C, symBinAddr: 0x3B2C4, symSize: 0x4C }
  - { offset: 0x1D5D2E, size: 0x8, addend: 0x0, symName: ___cxx_global_var_init.10, symObjAddr: 0x28C8, symBinAddr: 0x3B310, symSize: 0x4C }
  - { offset: 0x1D5DB5, size: 0x8, addend: 0x0, symName: ___cxx_global_var_init.11, symObjAddr: 0x2914, symBinAddr: 0x3B35C, symSize: 0x4C }
  - { offset: 0x1D5E3C, size: 0x8, addend: 0x0, symName: ___cxx_global_var_init.12, symObjAddr: 0x2960, symBinAddr: 0x3B3A8, symSize: 0x4C }
  - { offset: 0x1D6319, size: 0x8, addend: 0x0, symName: __ZN6sentry25build_view_hierarchy_jsonEv, symObjAddr: 0x0, symBinAddr: 0x3A4C0, symSize: 0x710 }
  - { offset: 0x1D6B61, size: 0x8, addend: 0x0, symName: __ZN5godot6Object7cast_toINS_9SceneTreeEEEPT_PS0_, symObjAddr: 0x9A0, symBinAddr: 0x3ABD0, symSize: 0xE8 }
  - { offset: 0x1D6C79, size: 0x8, addend: 0x0, symName: __ZN6sentry25build_view_hierarchy_jsonEv.cold.3, symObjAddr: 0x1E18, symBinAddr: 0x120E4C, symSize: 0x40 }
  - { offset: 0x1D6C91, size: 0x8, addend: 0x0, symName: __ZN6sentry25build_view_hierarchy_jsonEv.cold.1, symObjAddr: 0x1DA8, symBinAddr: 0x120DEC, symSize: 0x30 }
  - { offset: 0x1D6CD6, size: 0x8, addend: 0x0, symName: __ZN6sentry25build_view_hierarchy_jsonEv.cold.2, symObjAddr: 0x1DE8, symBinAddr: 0x120E1C, symSize: 0x30 }
  - { offset: 0x1D6D22, size: 0x8, addend: 0x0, symName: __ZN5godot6Object7cast_toINS_9SceneTreeEEEPT_PS0_.cold.1, symObjAddr: 0x1E58, symBinAddr: 0x120E8C, symSize: 0x5C }
  - { offset: 0x1D6D57, size: 0x8, addend: 0x0, symName: __ZN5godot8internal23EngineClassRegistrationINS_6ObjectEE8callbackEv.cold.1, symObjAddr: 0x1EB4, symBinAddr: 0x120EE8, symSize: 0x5C }
  - { offset: 0x1D6F11, size: 0x8, addend: 0x0, symName: __ZN5godot6ObjectD1Ev.cold.1, symObjAddr: 0x1F10, symBinAddr: 0x120F44, symSize: 0x1C }
  - { offset: 0x1D6F2D, size: 0x8, addend: 0x0, symName: __ZN5godot6ObjectD1Ev.cold.1, symObjAddr: 0x1F10, symBinAddr: 0x120F44, symSize: 0x1C }
  - { offset: 0x1D6F42, size: 0x8, addend: 0x0, symName: __ZN5godot6ObjectD1Ev.cold.1, symObjAddr: 0x1F10, symBinAddr: 0x120F44, symSize: 0x1C }
  - { offset: 0x1D6F57, size: 0x8, addend: 0x0, symName: __ZN5godot6ObjectD1Ev.cold.1, symObjAddr: 0x1F10, symBinAddr: 0x120F44, symSize: 0x1C }
  - { offset: 0x1D6F6C, size: 0x8, addend: 0x0, symName: __ZN5godot6ObjectD1Ev.cold.1, symObjAddr: 0x1F10, symBinAddr: 0x120F44, symSize: 0x1C }
  - { offset: 0x1D6F9C, size: 0x8, addend: 0x0, symName: __ZN5godot6ObjectD0Ev.cold.1, symObjAddr: 0x1F2C, symBinAddr: 0x120F60, symSize: 0x1C }
  - { offset: 0x1D6FB8, size: 0x8, addend: 0x0, symName: __ZN5godot6ObjectD0Ev.cold.1, symObjAddr: 0x1F2C, symBinAddr: 0x120F60, symSize: 0x1C }
  - { offset: 0x1D6FCD, size: 0x8, addend: 0x0, symName: __ZN5godot6ObjectD0Ev.cold.1, symObjAddr: 0x1F2C, symBinAddr: 0x120F60, symSize: 0x1C }
  - { offset: 0x1D6FE2, size: 0x8, addend: 0x0, symName: __ZN5godot6ObjectD0Ev.cold.1, symObjAddr: 0x1F2C, symBinAddr: 0x120F60, symSize: 0x1C }
  - { offset: 0x1D6FF7, size: 0x8, addend: 0x0, symName: __ZN5godot6ObjectD0Ev.cold.1, symObjAddr: 0x1F2C, symBinAddr: 0x120F60, symSize: 0x1C }
  - { offset: 0x1D700C, size: 0x8, addend: 0x0, symName: __ZN5godot6ObjectD0Ev.cold.1, symObjAddr: 0x1F2C, symBinAddr: 0x120F60, symSize: 0x1C }
  - { offset: 0x1D7023, size: 0x8, addend: 0x0, symName: __ZN5godot7WrappedD1Ev.cold.1, symObjAddr: 0x1F48, symBinAddr: 0x120F7C, symSize: 0x1C }
  - { offset: 0x1D703F, size: 0x8, addend: 0x0, symName: __ZN5godot7WrappedD1Ev.cold.1, symObjAddr: 0x1F48, symBinAddr: 0x120F7C, symSize: 0x1C }
  - { offset: 0x1D7054, size: 0x8, addend: 0x0, symName: __ZN5godot7WrappedD1Ev.cold.1, symObjAddr: 0x1F48, symBinAddr: 0x120F7C, symSize: 0x1C }
  - { offset: 0x1D7069, size: 0x8, addend: 0x0, symName: __ZN5godot7WrappedD1Ev.cold.1, symObjAddr: 0x1F48, symBinAddr: 0x120F7C, symSize: 0x1C }
  - { offset: 0x1D7098, size: 0x8, addend: 0x0, symName: __ZN5godot7WrappedD0Ev.cold.1, symObjAddr: 0x1F64, symBinAddr: 0x120F98, symSize: 0x1C }
  - { offset: 0x1D70B4, size: 0x8, addend: 0x0, symName: __ZN5godot7WrappedD0Ev.cold.1, symObjAddr: 0x1F64, symBinAddr: 0x120F98, symSize: 0x1C }
  - { offset: 0x1D70C9, size: 0x8, addend: 0x0, symName: __ZN5godot7WrappedD0Ev.cold.1, symObjAddr: 0x1F64, symBinAddr: 0x120F98, symSize: 0x1C }
  - { offset: 0x1D70DE, size: 0x8, addend: 0x0, symName: __ZN5godot7WrappedD0Ev.cold.1, symObjAddr: 0x1F64, symBinAddr: 0x120F98, symSize: 0x1C }
  - { offset: 0x1D70F3, size: 0x8, addend: 0x0, symName: __ZN5godot7WrappedD0Ev.cold.1, symObjAddr: 0x1F64, symBinAddr: 0x120F98, symSize: 0x1C }
  - { offset: 0x1D7179, size: 0x8, addend: 0x0, symName: __ZN5godot4ListINS_12PropertyInfoENS_16DefaultAllocatorEE5_Data5eraseEPNS3_7ElementE.cold.2, symObjAddr: 0x1FA0, symBinAddr: 0x120FD4, symSize: 0x20 }
  - { offset: 0x1D7191, size: 0x8, addend: 0x0, symName: __ZN5godot4ListINS_12PropertyInfoENS_16DefaultAllocatorEE5_Data5eraseEPNS3_7ElementE.cold.1, symObjAddr: 0x1F80, symBinAddr: 0x120FB4, symSize: 0x20 }
  - { offset: 0x1D71B0, size: 0x8, addend: 0x0, symName: __ZN5godot8internal23EngineClassRegistrationINS_16ClassDBSingletonEE8callbackEv.cold.1, symObjAddr: 0x1FC0, symBinAddr: 0x120FF4, symSize: 0x5C }
  - { offset: 0x1D71E5, size: 0x8, addend: 0x0, symName: __ZN5godot8internal23EngineClassRegistrationINS_6EngineEE8callbackEv.cold.1, symObjAddr: 0x201C, symBinAddr: 0x121050, symSize: 0x5C }
  - { offset: 0x1D721A, size: 0x8, addend: 0x0, symName: __ZN5godot8internal23EngineClassRegistrationINS_10RefCountedEE8callbackEv.cold.1, symObjAddr: 0x2078, symBinAddr: 0x1210AC, symSize: 0x5C }
  - { offset: 0x1D7289, size: 0x8, addend: 0x0, symName: __ZN5godot10RefCountedD1Ev.cold.1, symObjAddr: 0x20D4, symBinAddr: 0x121108, symSize: 0x1C }
  - { offset: 0x1D72A5, size: 0x8, addend: 0x0, symName: __ZN5godot10RefCountedD1Ev.cold.1, symObjAddr: 0x20D4, symBinAddr: 0x121108, symSize: 0x1C }
  - { offset: 0x1D72BA, size: 0x8, addend: 0x0, symName: __ZN5godot10RefCountedD1Ev.cold.1, symObjAddr: 0x20D4, symBinAddr: 0x121108, symSize: 0x1C }
  - { offset: 0x1D72CF, size: 0x8, addend: 0x0, symName: __ZN5godot10RefCountedD1Ev.cold.1, symObjAddr: 0x20D4, symBinAddr: 0x121108, symSize: 0x1C }
  - { offset: 0x1D72E4, size: 0x8, addend: 0x0, symName: __ZN5godot10RefCountedD1Ev.cold.1, symObjAddr: 0x20D4, symBinAddr: 0x121108, symSize: 0x1C }
  - { offset: 0x1D72F9, size: 0x8, addend: 0x0, symName: __ZN5godot10RefCountedD1Ev.cold.1, symObjAddr: 0x20D4, symBinAddr: 0x121108, symSize: 0x1C }
  - { offset: 0x1D732C, size: 0x8, addend: 0x0, symName: __ZN5godot10RefCountedD0Ev.cold.1, symObjAddr: 0x20F0, symBinAddr: 0x121124, symSize: 0x1C }
  - { offset: 0x1D7348, size: 0x8, addend: 0x0, symName: __ZN5godot10RefCountedD0Ev.cold.1, symObjAddr: 0x20F0, symBinAddr: 0x121124, symSize: 0x1C }
  - { offset: 0x1D735D, size: 0x8, addend: 0x0, symName: __ZN5godot10RefCountedD0Ev.cold.1, symObjAddr: 0x20F0, symBinAddr: 0x121124, symSize: 0x1C }
  - { offset: 0x1D7372, size: 0x8, addend: 0x0, symName: __ZN5godot10RefCountedD0Ev.cold.1, symObjAddr: 0x20F0, symBinAddr: 0x121124, symSize: 0x1C }
  - { offset: 0x1D7387, size: 0x8, addend: 0x0, symName: __ZN5godot10RefCountedD0Ev.cold.1, symObjAddr: 0x20F0, symBinAddr: 0x121124, symSize: 0x1C }
  - { offset: 0x1D739C, size: 0x8, addend: 0x0, symName: __ZN5godot10RefCountedD0Ev.cold.1, symObjAddr: 0x20F0, symBinAddr: 0x121124, symSize: 0x1C }
  - { offset: 0x1D73B1, size: 0x8, addend: 0x0, symName: __ZN5godot10RefCountedD0Ev.cold.1, symObjAddr: 0x20F0, symBinAddr: 0x121124, symSize: 0x1C }
  - { offset: 0x1D73D0, size: 0x8, addend: 0x0, symName: __ZN5godot8internal23EngineClassRegistrationINS_8ResourceEE8callbackEv.cold.1, symObjAddr: 0x210C, symBinAddr: 0x121140, symSize: 0x5C }
  - { offset: 0x1D742A, size: 0x8, addend: 0x0, symName: __ZN5godot8internal23EngineClassRegistrationINS_4JSONEE8callbackEv, symObjAddr: 0x1268, symBinAddr: 0x3ACB8, symSize: 0x38 }
  - { offset: 0x1D7476, size: 0x8, addend: 0x0, symName: __ZN5godot8internal23EngineClassRegistrationINS_4JSONEE8callbackEv.cold.1, symObjAddr: 0x2168, symBinAddr: 0x12119C, symSize: 0x5C }
  - { offset: 0x1D74EE, size: 0x8, addend: 0x0, symName: __ZN5godot4JSON28_gde_binding_create_callbackEPvS1_, symObjAddr: 0x12B0, symBinAddr: 0x3ACF0, symSize: 0x44 }
  - { offset: 0x1D75E1, size: 0x8, addend: 0x0, symName: __ZN5godot4JSON26_gde_binding_free_callbackEPvS1_S1_, symObjAddr: 0x12F4, symBinAddr: 0x3AD34, symSize: 0x34 }
  - { offset: 0x1D763B, size: 0x8, addend: 0x0, symName: __ZN5godot4JSON31_gde_binding_reference_callbackEPvS1_h, symObjAddr: 0x1328, symBinAddr: 0x3AD68, symSize: 0x8 }
  - { offset: 0x1D76B4, size: 0x8, addend: 0x0, symName: __ZN5godot4JSOND1Ev, symObjAddr: 0x1330, symBinAddr: 0x3AD70, symSize: 0x74 }
  - { offset: 0x1D7883, size: 0x8, addend: 0x0, symName: __ZN5godot4JSOND1Ev.cold.1, symObjAddr: 0x21C4, symBinAddr: 0x1211F8, symSize: 0x1C }
  - { offset: 0x1D789F, size: 0x8, addend: 0x0, symName: __ZN5godot4JSOND1Ev.cold.1, symObjAddr: 0x21C4, symBinAddr: 0x1211F8, symSize: 0x1C }
  - { offset: 0x1D78B4, size: 0x8, addend: 0x0, symName: __ZN5godot4JSOND1Ev.cold.1, symObjAddr: 0x21C4, symBinAddr: 0x1211F8, symSize: 0x1C }
  - { offset: 0x1D78C9, size: 0x8, addend: 0x0, symName: __ZN5godot4JSOND1Ev.cold.1, symObjAddr: 0x21C4, symBinAddr: 0x1211F8, symSize: 0x1C }
  - { offset: 0x1D78DE, size: 0x8, addend: 0x0, symName: __ZN5godot4JSOND1Ev.cold.1, symObjAddr: 0x21C4, symBinAddr: 0x1211F8, symSize: 0x1C }
  - { offset: 0x1D78F3, size: 0x8, addend: 0x0, symName: __ZN5godot4JSOND1Ev.cold.1, symObjAddr: 0x21C4, symBinAddr: 0x1211F8, symSize: 0x1C }
  - { offset: 0x1D7908, size: 0x8, addend: 0x0, symName: __ZN5godot4JSOND1Ev.cold.1, symObjAddr: 0x21C4, symBinAddr: 0x1211F8, symSize: 0x1C }
  - { offset: 0x1D791D, size: 0x8, addend: 0x0, symName: __ZN5godot4JSOND1Ev.cold.1, symObjAddr: 0x21C4, symBinAddr: 0x1211F8, symSize: 0x1C }
  - { offset: 0x1D7952, size: 0x8, addend: 0x0, symName: __ZN5godot4JSOND0Ev, symObjAddr: 0x13BC, symBinAddr: 0x3ADE4, symSize: 0x68 }
  - { offset: 0x1D7AC9, size: 0x8, addend: 0x0, symName: __ZN5godot4JSOND0Ev.cold.1, symObjAddr: 0x21E0, symBinAddr: 0x121214, symSize: 0x1C }
  - { offset: 0x1D7AE5, size: 0x8, addend: 0x0, symName: __ZN5godot4JSOND0Ev.cold.1, symObjAddr: 0x21E0, symBinAddr: 0x121214, symSize: 0x1C }
  - { offset: 0x1D7AFA, size: 0x8, addend: 0x0, symName: __ZN5godot4JSOND0Ev.cold.1, symObjAddr: 0x21E0, symBinAddr: 0x121214, symSize: 0x1C }
  - { offset: 0x1D7B0F, size: 0x8, addend: 0x0, symName: __ZN5godot4JSOND0Ev.cold.1, symObjAddr: 0x21E0, symBinAddr: 0x121214, symSize: 0x1C }
  - { offset: 0x1D7B24, size: 0x8, addend: 0x0, symName: __ZN5godot4JSOND0Ev.cold.1, symObjAddr: 0x21E0, symBinAddr: 0x121214, symSize: 0x1C }
  - { offset: 0x1D7B39, size: 0x8, addend: 0x0, symName: __ZN5godot4JSOND0Ev.cold.1, symObjAddr: 0x21E0, symBinAddr: 0x121214, symSize: 0x1C }
  - { offset: 0x1D7B4E, size: 0x8, addend: 0x0, symName: __ZN5godot4JSOND0Ev.cold.1, symObjAddr: 0x21E0, symBinAddr: 0x121214, symSize: 0x1C }
  - { offset: 0x1D7B63, size: 0x8, addend: 0x0, symName: __ZN5godot4JSOND0Ev.cold.1, symObjAddr: 0x21E0, symBinAddr: 0x121214, symSize: 0x1C }
  - { offset: 0x1D7B78, size: 0x8, addend: 0x0, symName: __ZN5godot4JSOND0Ev.cold.1, symObjAddr: 0x21E0, symBinAddr: 0x121214, symSize: 0x1C }
  - { offset: 0x1D7B99, size: 0x8, addend: 0x0, symName: __ZN5godot8internal23EngineClassRegistrationINS_13DisplayServerEE8callbackEv.cold.1, symObjAddr: 0x21FC, symBinAddr: 0x121230, symSize: 0x5C }
  - { offset: 0x1D7BCE, size: 0x8, addend: 0x0, symName: __ZN5godot8internal23EngineClassRegistrationINS_4NodeEE8callbackEv.cold.1, symObjAddr: 0x2258, symBinAddr: 0x12128C, symSize: 0x5C }
  - { offset: 0x1D7C08, size: 0x8, addend: 0x0, symName: __ZN5godot8internal23EngineClassRegistrationINS_8MainLoopEE8callbackEv.cold.1, symObjAddr: 0x22B4, symBinAddr: 0x1212E8, symSize: 0x5C }
  - { offset: 0x1D7C3B, size: 0x8, addend: 0x0, symName: __ZN5godot8internal23EngineClassRegistrationINS_9SceneTreeEE8callbackEv.cold.1, symObjAddr: 0x2310, symBinAddr: 0x121344, symSize: 0x5C }
  - { offset: 0x1D7CA1, size: 0x8, addend: 0x0, symName: __ZN5godot9SceneTreeD1Ev.cold.1, symObjAddr: 0x236C, symBinAddr: 0x1213A0, symSize: 0x1C }
  - { offset: 0x1D7CBD, size: 0x8, addend: 0x0, symName: __ZN5godot9SceneTreeD1Ev.cold.1, symObjAddr: 0x236C, symBinAddr: 0x1213A0, symSize: 0x1C }
  - { offset: 0x1D7CD2, size: 0x8, addend: 0x0, symName: __ZN5godot9SceneTreeD1Ev.cold.1, symObjAddr: 0x236C, symBinAddr: 0x1213A0, symSize: 0x1C }
  - { offset: 0x1D7CE7, size: 0x8, addend: 0x0, symName: __ZN5godot9SceneTreeD1Ev.cold.1, symObjAddr: 0x236C, symBinAddr: 0x1213A0, symSize: 0x1C }
  - { offset: 0x1D7CFC, size: 0x8, addend: 0x0, symName: __ZN5godot9SceneTreeD1Ev.cold.1, symObjAddr: 0x236C, symBinAddr: 0x1213A0, symSize: 0x1C }
  - { offset: 0x1D7D11, size: 0x8, addend: 0x0, symName: __ZN5godot9SceneTreeD1Ev.cold.1, symObjAddr: 0x236C, symBinAddr: 0x1213A0, symSize: 0x1C }
  - { offset: 0x1D7D26, size: 0x8, addend: 0x0, symName: __ZN5godot9SceneTreeD1Ev.cold.1, symObjAddr: 0x236C, symBinAddr: 0x1213A0, symSize: 0x1C }
  - { offset: 0x1D7D5A, size: 0x8, addend: 0x0, symName: __ZN5godot9SceneTreeD0Ev.cold.1, symObjAddr: 0x2388, symBinAddr: 0x1213BC, symSize: 0x1C }
  - { offset: 0x1D7D76, size: 0x8, addend: 0x0, symName: __ZN5godot9SceneTreeD0Ev.cold.1, symObjAddr: 0x2388, symBinAddr: 0x1213BC, symSize: 0x1C }
  - { offset: 0x1D7D8B, size: 0x8, addend: 0x0, symName: __ZN5godot9SceneTreeD0Ev.cold.1, symObjAddr: 0x2388, symBinAddr: 0x1213BC, symSize: 0x1C }
  - { offset: 0x1D7DA0, size: 0x8, addend: 0x0, symName: __ZN5godot9SceneTreeD0Ev.cold.1, symObjAddr: 0x2388, symBinAddr: 0x1213BC, symSize: 0x1C }
  - { offset: 0x1D7DB5, size: 0x8, addend: 0x0, symName: __ZN5godot9SceneTreeD0Ev.cold.1, symObjAddr: 0x2388, symBinAddr: 0x1213BC, symSize: 0x1C }
  - { offset: 0x1D7DCA, size: 0x8, addend: 0x0, symName: __ZN5godot9SceneTreeD0Ev.cold.1, symObjAddr: 0x2388, symBinAddr: 0x1213BC, symSize: 0x1C }
  - { offset: 0x1D7DDF, size: 0x8, addend: 0x0, symName: __ZN5godot9SceneTreeD0Ev.cold.1, symObjAddr: 0x2388, symBinAddr: 0x1213BC, symSize: 0x1C }
  - { offset: 0x1D7DF4, size: 0x8, addend: 0x0, symName: __ZN5godot9SceneTreeD0Ev.cold.1, symObjAddr: 0x2388, symBinAddr: 0x1213BC, symSize: 0x1C }
  - { offset: 0x1D7E14, size: 0x8, addend: 0x0, symName: __ZN5godot8internal23EngineClassRegistrationINS_6ScriptEE8callbackEv.cold.1, symObjAddr: 0x23A4, symBinAddr: 0x1213D8, symSize: 0x5C }
  - { offset: 0x1D7E5E, size: 0x8, addend: 0x0, symName: __ZN5godot6ScriptD1Ev.cold.1, symObjAddr: 0x2400, symBinAddr: 0x121434, symSize: 0x1C }
  - { offset: 0x1D7E7A, size: 0x8, addend: 0x0, symName: __ZN5godot6ScriptD1Ev.cold.1, symObjAddr: 0x2400, symBinAddr: 0x121434, symSize: 0x1C }
  - { offset: 0x1D7E8F, size: 0x8, addend: 0x0, symName: __ZN5godot6ScriptD1Ev.cold.1, symObjAddr: 0x2400, symBinAddr: 0x121434, symSize: 0x1C }
  - { offset: 0x1D7EA4, size: 0x8, addend: 0x0, symName: __ZN5godot6ScriptD1Ev.cold.1, symObjAddr: 0x2400, symBinAddr: 0x121434, symSize: 0x1C }
  - { offset: 0x1D7EB9, size: 0x8, addend: 0x0, symName: __ZN5godot6ScriptD1Ev.cold.1, symObjAddr: 0x2400, symBinAddr: 0x121434, symSize: 0x1C }
  - { offset: 0x1D7ECE, size: 0x8, addend: 0x0, symName: __ZN5godot6ScriptD1Ev.cold.1, symObjAddr: 0x2400, symBinAddr: 0x121434, symSize: 0x1C }
  - { offset: 0x1D7EE3, size: 0x8, addend: 0x0, symName: __ZN5godot6ScriptD1Ev.cold.1, symObjAddr: 0x2400, symBinAddr: 0x121434, symSize: 0x1C }
  - { offset: 0x1D7EF8, size: 0x8, addend: 0x0, symName: __ZN5godot6ScriptD1Ev.cold.1, symObjAddr: 0x2400, symBinAddr: 0x121434, symSize: 0x1C }
  - { offset: 0x1D7F2D, size: 0x8, addend: 0x0, symName: __ZN5godot6ScriptD0Ev.cold.1, symObjAddr: 0x241C, symBinAddr: 0x121450, symSize: 0x1C }
  - { offset: 0x1D7F49, size: 0x8, addend: 0x0, symName: __ZN5godot6ScriptD0Ev.cold.1, symObjAddr: 0x241C, symBinAddr: 0x121450, symSize: 0x1C }
  - { offset: 0x1D7F5E, size: 0x8, addend: 0x0, symName: __ZN5godot6ScriptD0Ev.cold.1, symObjAddr: 0x241C, symBinAddr: 0x121450, symSize: 0x1C }
  - { offset: 0x1D7F73, size: 0x8, addend: 0x0, symName: __ZN5godot6ScriptD0Ev.cold.1, symObjAddr: 0x241C, symBinAddr: 0x121450, symSize: 0x1C }
  - { offset: 0x1D7F88, size: 0x8, addend: 0x0, symName: __ZN5godot6ScriptD0Ev.cold.1, symObjAddr: 0x241C, symBinAddr: 0x121450, symSize: 0x1C }
  - { offset: 0x1D7F9D, size: 0x8, addend: 0x0, symName: __ZN5godot6ScriptD0Ev.cold.1, symObjAddr: 0x241C, symBinAddr: 0x121450, symSize: 0x1C }
  - { offset: 0x1D7FB2, size: 0x8, addend: 0x0, symName: __ZN5godot6ScriptD0Ev.cold.1, symObjAddr: 0x241C, symBinAddr: 0x121450, symSize: 0x1C }
  - { offset: 0x1D7FC7, size: 0x8, addend: 0x0, symName: __ZN5godot6ScriptD0Ev.cold.1, symObjAddr: 0x241C, symBinAddr: 0x121450, symSize: 0x1C }
  - { offset: 0x1D7FDC, size: 0x8, addend: 0x0, symName: __ZN5godot6ScriptD0Ev.cold.1, symObjAddr: 0x241C, symBinAddr: 0x121450, symSize: 0x1C }
  - { offset: 0x1D7FFD, size: 0x8, addend: 0x0, symName: __ZN5godot8internal23EngineClassRegistrationINS_8ViewportEE8callbackEv.cold.1, symObjAddr: 0x2438, symBinAddr: 0x12146C, symSize: 0x5C }
  - { offset: 0x1D8063, size: 0x8, addend: 0x0, symName: __ZN5godot8ViewportD1Ev.cold.1, symObjAddr: 0x2494, symBinAddr: 0x1214C8, symSize: 0x1C }
  - { offset: 0x1D807F, size: 0x8, addend: 0x0, symName: __ZN5godot8ViewportD1Ev.cold.1, symObjAddr: 0x2494, symBinAddr: 0x1214C8, symSize: 0x1C }
  - { offset: 0x1D8094, size: 0x8, addend: 0x0, symName: __ZN5godot8ViewportD1Ev.cold.1, symObjAddr: 0x2494, symBinAddr: 0x1214C8, symSize: 0x1C }
  - { offset: 0x1D80A9, size: 0x8, addend: 0x0, symName: __ZN5godot8ViewportD1Ev.cold.1, symObjAddr: 0x2494, symBinAddr: 0x1214C8, symSize: 0x1C }
  - { offset: 0x1D80BE, size: 0x8, addend: 0x0, symName: __ZN5godot8ViewportD1Ev.cold.1, symObjAddr: 0x2494, symBinAddr: 0x1214C8, symSize: 0x1C }
  - { offset: 0x1D80D3, size: 0x8, addend: 0x0, symName: __ZN5godot8ViewportD1Ev.cold.1, symObjAddr: 0x2494, symBinAddr: 0x1214C8, symSize: 0x1C }
  - { offset: 0x1D80E8, size: 0x8, addend: 0x0, symName: __ZN5godot8ViewportD1Ev.cold.1, symObjAddr: 0x2494, symBinAddr: 0x1214C8, symSize: 0x1C }
  - { offset: 0x1D811C, size: 0x8, addend: 0x0, symName: __ZN5godot8ViewportD0Ev.cold.1, symObjAddr: 0x24B0, symBinAddr: 0x1214E4, symSize: 0x1C }
  - { offset: 0x1D8138, size: 0x8, addend: 0x0, symName: __ZN5godot8ViewportD0Ev.cold.1, symObjAddr: 0x24B0, symBinAddr: 0x1214E4, symSize: 0x1C }
  - { offset: 0x1D814D, size: 0x8, addend: 0x0, symName: __ZN5godot8ViewportD0Ev.cold.1, symObjAddr: 0x24B0, symBinAddr: 0x1214E4, symSize: 0x1C }
  - { offset: 0x1D8162, size: 0x8, addend: 0x0, symName: __ZN5godot8ViewportD0Ev.cold.1, symObjAddr: 0x24B0, symBinAddr: 0x1214E4, symSize: 0x1C }
  - { offset: 0x1D8177, size: 0x8, addend: 0x0, symName: __ZN5godot8ViewportD0Ev.cold.1, symObjAddr: 0x24B0, symBinAddr: 0x1214E4, symSize: 0x1C }
  - { offset: 0x1D818C, size: 0x8, addend: 0x0, symName: __ZN5godot8ViewportD0Ev.cold.1, symObjAddr: 0x24B0, symBinAddr: 0x1214E4, symSize: 0x1C }
  - { offset: 0x1D81A1, size: 0x8, addend: 0x0, symName: __ZN5godot8ViewportD0Ev.cold.1, symObjAddr: 0x24B0, symBinAddr: 0x1214E4, symSize: 0x1C }
  - { offset: 0x1D81B6, size: 0x8, addend: 0x0, symName: __ZN5godot8ViewportD0Ev.cold.1, symObjAddr: 0x24B0, symBinAddr: 0x1214E4, symSize: 0x1C }
  - { offset: 0x1D81D6, size: 0x8, addend: 0x0, symName: __ZN5godot8internal23EngineClassRegistrationINS_6WindowEE8callbackEv.cold.1, symObjAddr: 0x24CC, symBinAddr: 0x121500, symSize: 0x5C }
  - { offset: 0x1D8209, size: 0x8, addend: 0x0, symName: __ZN5godot16DefaultAllocator5allocEm, symObjAddr: 0x1CB8, symBinAddr: 0x3AFC4, symSize: 0x8 }
  - { offset: 0x1D822C, size: 0x8, addend: 0x0, symName: __ZN5godot6Object7cast_toINS_6ScriptEEEPT_PS0_.cold.1, symObjAddr: 0x2528, symBinAddr: 0x12159C, symSize: 0x5C }
  - { offset: 0x1D825A, size: 0x8, addend: 0x0, symName: _OUTLINED_FUNCTION_0, symObjAddr: 0x2584, symBinAddr: 0x3AFCC, symSize: 0x10 }
  - { offset: 0x1D8272, size: 0x8, addend: 0x0, symName: _OUTLINED_FUNCTION_1, symObjAddr: 0x2594, symBinAddr: 0x3AFDC, symSize: 0xC }
  - { offset: 0x1D828A, size: 0x8, addend: 0x0, symName: _OUTLINED_FUNCTION_2, symObjAddr: 0x25A0, symBinAddr: 0x3AFE8, symSize: 0xC }
  - { offset: 0x1D82A2, size: 0x8, addend: 0x0, symName: _OUTLINED_FUNCTION_3, symObjAddr: 0x25AC, symBinAddr: 0x3AFF4, symSize: 0x8 }
  - { offset: 0x1D82BA, size: 0x8, addend: 0x0, symName: _OUTLINED_FUNCTION_4, symObjAddr: 0x25B4, symBinAddr: 0x3AFFC, symSize: 0x8 }
  - { offset: 0x1D82D2, size: 0x8, addend: 0x0, symName: _OUTLINED_FUNCTION_5, symObjAddr: 0x25BC, symBinAddr: 0x3B004, symSize: 0x8 }
  - { offset: 0x1D82EA, size: 0x8, addend: 0x0, symName: _OUTLINED_FUNCTION_6, symObjAddr: 0x25C4, symBinAddr: 0x3B00C, symSize: 0xC }
  - { offset: 0x1E1A62, size: 0x8, addend: 0x0, symName: __ZN5godot7Texture22_gde_binding_callbacksE, symObjAddr: 0x3180, symBinAddr: 0x1CB038, symSize: 0x0 }
  - { offset: 0x1E1A76, size: 0x8, addend: 0x0, symName: __ZN5godot9Texture2D22_gde_binding_callbacksE, symObjAddr: 0x31F8, symBinAddr: 0x1CB0B0, symSize: 0x0 }
  - { offset: 0x1E1A8A, size: 0x8, addend: 0x0, symName: __ZN5godot15ViewportTexture22_gde_binding_callbacksE, symObjAddr: 0x3210, symBinAddr: 0x1CB0C8, symSize: 0x0 }
  - { offset: 0x1E1AF4, size: 0x8, addend: 0x0, symName: ___cxx_global_var_init, symObjAddr: 0x2508, symBinAddr: 0x3B8EC, symSize: 0x4C }
  - { offset: 0x1E1B7B, size: 0x8, addend: 0x0, symName: ___cxx_global_var_init.1, symObjAddr: 0x2554, symBinAddr: 0x3B938, symSize: 0x4C }
  - { offset: 0x1E1C02, size: 0x8, addend: 0x0, symName: ___cxx_global_var_init.2, symObjAddr: 0x25A0, symBinAddr: 0x3B984, symSize: 0x4C }
  - { offset: 0x1E1C89, size: 0x8, addend: 0x0, symName: ___cxx_global_var_init.3, symObjAddr: 0x25EC, symBinAddr: 0x3B9D0, symSize: 0x4C }
  - { offset: 0x1E1D10, size: 0x8, addend: 0x0, symName: ___cxx_global_var_init.4, symObjAddr: 0x2638, symBinAddr: 0x3BA1C, symSize: 0x4C }
  - { offset: 0x1E1D97, size: 0x8, addend: 0x0, symName: ___cxx_global_var_init.5, symObjAddr: 0x2684, symBinAddr: 0x3BA68, symSize: 0x4C }
  - { offset: 0x1E1E1E, size: 0x8, addend: 0x0, symName: ___cxx_global_var_init.6, symObjAddr: 0x26D0, symBinAddr: 0x3BAB4, symSize: 0x4C }
  - { offset: 0x1E1EA5, size: 0x8, addend: 0x0, symName: ___cxx_global_var_init.7, symObjAddr: 0x271C, symBinAddr: 0x3BB00, symSize: 0x4C }
  - { offset: 0x1E1F2C, size: 0x8, addend: 0x0, symName: ___cxx_global_var_init.8, symObjAddr: 0x2768, symBinAddr: 0x3BB4C, symSize: 0x4C }
  - { offset: 0x1E1FB3, size: 0x8, addend: 0x0, symName: ___cxx_global_var_init.9, symObjAddr: 0x27B4, symBinAddr: 0x3BB98, symSize: 0x4C }
  - { offset: 0x1E203A, size: 0x8, addend: 0x0, symName: ___cxx_global_var_init.10, symObjAddr: 0x2800, symBinAddr: 0x3BBE4, symSize: 0x4C }
  - { offset: 0x1E20C1, size: 0x8, addend: 0x0, symName: ___cxx_global_var_init.11, symObjAddr: 0x284C, symBinAddr: 0x3BC30, symSize: 0x4C }
  - { offset: 0x1E2148, size: 0x8, addend: 0x0, symName: ___cxx_global_var_init.12, symObjAddr: 0x2898, symBinAddr: 0x3BC7C, symSize: 0x4C }
  - { offset: 0x1E21CF, size: 0x8, addend: 0x0, symName: ___cxx_global_var_init.13, symObjAddr: 0x28E4, symBinAddr: 0x3BCC8, symSize: 0x4C }
  - { offset: 0x1E2256, size: 0x8, addend: 0x0, symName: ___cxx_global_var_init.14, symObjAddr: 0x2930, symBinAddr: 0x3BD14, symSize: 0x4C }
  - { offset: 0x1E22DD, size: 0x8, addend: 0x0, symName: ___cxx_global_var_init.15, symObjAddr: 0x297C, symBinAddr: 0x3BD60, symSize: 0x4C }
  - { offset: 0x1E2364, size: 0x8, addend: 0x0, symName: ___cxx_global_var_init.16, symObjAddr: 0x29C8, symBinAddr: 0x3BDAC, symSize: 0x4C }
  - { offset: 0x1E23EB, size: 0x8, addend: 0x0, symName: ___cxx_global_var_init.17, symObjAddr: 0x2A14, symBinAddr: 0x3BDF8, symSize: 0x4C }
  - { offset: 0x1E2517, size: 0x8, addend: 0x0, symName: __ZN6sentry4util15take_screenshotEv, symObjAddr: 0x0, symBinAddr: 0x3B3F4, symSize: 0xC8 }
  - { offset: 0x1E2767, size: 0x8, addend: 0x0, symName: __ZN6sentry4util15take_screenshotEv.cold.2, symObjAddr: 0x1B30, symBinAddr: 0x121640, symSize: 0x48 }
  - { offset: 0x1E277F, size: 0x8, addend: 0x0, symName: __ZN6sentry4util15take_screenshotEv.cold.1, symObjAddr: 0x1AE8, symBinAddr: 0x1215F8, symSize: 0x48 }
  - { offset: 0x1E279E, size: 0x8, addend: 0x0, symName: __ZN5godot6Object7cast_toINS_9SceneTreeEEEPT_PS0_.cold.1, symObjAddr: 0x1B78, symBinAddr: 0x121688, symSize: 0x5C }
  - { offset: 0x1E27D3, size: 0x8, addend: 0x0, symName: __ZN5godot8internal23EngineClassRegistrationINS_6ObjectEE8callbackEv.cold.1, symObjAddr: 0x1BD4, symBinAddr: 0x1216E4, symSize: 0x5C }
  - { offset: 0x1E29A0, size: 0x8, addend: 0x0, symName: __ZN5godot6ObjectD1Ev.cold.1, symObjAddr: 0x1C30, symBinAddr: 0x121740, symSize: 0x1C }
  - { offset: 0x1E29BC, size: 0x8, addend: 0x0, symName: __ZN5godot6ObjectD1Ev.cold.1, symObjAddr: 0x1C30, symBinAddr: 0x121740, symSize: 0x1C }
  - { offset: 0x1E29D1, size: 0x8, addend: 0x0, symName: __ZN5godot6ObjectD1Ev.cold.1, symObjAddr: 0x1C30, symBinAddr: 0x121740, symSize: 0x1C }
  - { offset: 0x1E29E6, size: 0x8, addend: 0x0, symName: __ZN5godot6ObjectD1Ev.cold.1, symObjAddr: 0x1C30, symBinAddr: 0x121740, symSize: 0x1C }
  - { offset: 0x1E29FB, size: 0x8, addend: 0x0, symName: __ZN5godot6ObjectD1Ev.cold.1, symObjAddr: 0x1C30, symBinAddr: 0x121740, symSize: 0x1C }
  - { offset: 0x1E2A2B, size: 0x8, addend: 0x0, symName: __ZN5godot6ObjectD0Ev.cold.1, symObjAddr: 0x1C4C, symBinAddr: 0x12175C, symSize: 0x1C }
  - { offset: 0x1E2A47, size: 0x8, addend: 0x0, symName: __ZN5godot6ObjectD0Ev.cold.1, symObjAddr: 0x1C4C, symBinAddr: 0x12175C, symSize: 0x1C }
  - { offset: 0x1E2A5C, size: 0x8, addend: 0x0, symName: __ZN5godot6ObjectD0Ev.cold.1, symObjAddr: 0x1C4C, symBinAddr: 0x12175C, symSize: 0x1C }
  - { offset: 0x1E2A71, size: 0x8, addend: 0x0, symName: __ZN5godot6ObjectD0Ev.cold.1, symObjAddr: 0x1C4C, symBinAddr: 0x12175C, symSize: 0x1C }
  - { offset: 0x1E2A86, size: 0x8, addend: 0x0, symName: __ZN5godot6ObjectD0Ev.cold.1, symObjAddr: 0x1C4C, symBinAddr: 0x12175C, symSize: 0x1C }
  - { offset: 0x1E2A9B, size: 0x8, addend: 0x0, symName: __ZN5godot6ObjectD0Ev.cold.1, symObjAddr: 0x1C4C, symBinAddr: 0x12175C, symSize: 0x1C }
  - { offset: 0x1E2AB2, size: 0x8, addend: 0x0, symName: __ZN5godot7WrappedD1Ev.cold.1, symObjAddr: 0x1C68, symBinAddr: 0x121778, symSize: 0x1C }
  - { offset: 0x1E2ACE, size: 0x8, addend: 0x0, symName: __ZN5godot7WrappedD1Ev.cold.1, symObjAddr: 0x1C68, symBinAddr: 0x121778, symSize: 0x1C }
  - { offset: 0x1E2AE3, size: 0x8, addend: 0x0, symName: __ZN5godot7WrappedD1Ev.cold.1, symObjAddr: 0x1C68, symBinAddr: 0x121778, symSize: 0x1C }
  - { offset: 0x1E2AF8, size: 0x8, addend: 0x0, symName: __ZN5godot7WrappedD1Ev.cold.1, symObjAddr: 0x1C68, symBinAddr: 0x121778, symSize: 0x1C }
  - { offset: 0x1E2B27, size: 0x8, addend: 0x0, symName: __ZN5godot7WrappedD0Ev.cold.1, symObjAddr: 0x1C84, symBinAddr: 0x121794, symSize: 0x1C }
  - { offset: 0x1E2B43, size: 0x8, addend: 0x0, symName: __ZN5godot7WrappedD0Ev.cold.1, symObjAddr: 0x1C84, symBinAddr: 0x121794, symSize: 0x1C }
  - { offset: 0x1E2B58, size: 0x8, addend: 0x0, symName: __ZN5godot7WrappedD0Ev.cold.1, symObjAddr: 0x1C84, symBinAddr: 0x121794, symSize: 0x1C }
  - { offset: 0x1E2B6D, size: 0x8, addend: 0x0, symName: __ZN5godot7WrappedD0Ev.cold.1, symObjAddr: 0x1C84, symBinAddr: 0x121794, symSize: 0x1C }
  - { offset: 0x1E2B82, size: 0x8, addend: 0x0, symName: __ZN5godot7WrappedD0Ev.cold.1, symObjAddr: 0x1C84, symBinAddr: 0x121794, symSize: 0x1C }
  - { offset: 0x1E2C08, size: 0x8, addend: 0x0, symName: __ZN5godot4ListINS_12PropertyInfoENS_16DefaultAllocatorEE5_Data5eraseEPNS3_7ElementE.cold.2, symObjAddr: 0x1CC0, symBinAddr: 0x1217D0, symSize: 0x20 }
  - { offset: 0x1E2C20, size: 0x8, addend: 0x0, symName: __ZN5godot4ListINS_12PropertyInfoENS_16DefaultAllocatorEE5_Data5eraseEPNS3_7ElementE.cold.1, symObjAddr: 0x1CA0, symBinAddr: 0x1217B0, symSize: 0x20 }
  - { offset: 0x1E2C3F, size: 0x8, addend: 0x0, symName: __ZN5godot8internal23EngineClassRegistrationINS_16ClassDBSingletonEE8callbackEv.cold.1, symObjAddr: 0x1CE0, symBinAddr: 0x1217F0, symSize: 0x5C }
  - { offset: 0x1E2C74, size: 0x8, addend: 0x0, symName: __ZN5godot8internal23EngineClassRegistrationINS_6EngineEE8callbackEv.cold.1, symObjAddr: 0x1D3C, symBinAddr: 0x12184C, symSize: 0x5C }
  - { offset: 0x1E2CA9, size: 0x8, addend: 0x0, symName: __ZN5godot8internal23EngineClassRegistrationINS_10RefCountedEE8callbackEv.cold.1, symObjAddr: 0x1D98, symBinAddr: 0x1218A8, symSize: 0x5C }
  - { offset: 0x1E2D18, size: 0x8, addend: 0x0, symName: __ZN5godot10RefCountedD1Ev.cold.1, symObjAddr: 0x1DF4, symBinAddr: 0x121904, symSize: 0x1C }
  - { offset: 0x1E2D34, size: 0x8, addend: 0x0, symName: __ZN5godot10RefCountedD1Ev.cold.1, symObjAddr: 0x1DF4, symBinAddr: 0x121904, symSize: 0x1C }
  - { offset: 0x1E2D49, size: 0x8, addend: 0x0, symName: __ZN5godot10RefCountedD1Ev.cold.1, symObjAddr: 0x1DF4, symBinAddr: 0x121904, symSize: 0x1C }
  - { offset: 0x1E2D5E, size: 0x8, addend: 0x0, symName: __ZN5godot10RefCountedD1Ev.cold.1, symObjAddr: 0x1DF4, symBinAddr: 0x121904, symSize: 0x1C }
  - { offset: 0x1E2D73, size: 0x8, addend: 0x0, symName: __ZN5godot10RefCountedD1Ev.cold.1, symObjAddr: 0x1DF4, symBinAddr: 0x121904, symSize: 0x1C }
  - { offset: 0x1E2D88, size: 0x8, addend: 0x0, symName: __ZN5godot10RefCountedD1Ev.cold.1, symObjAddr: 0x1DF4, symBinAddr: 0x121904, symSize: 0x1C }
  - { offset: 0x1E2DBB, size: 0x8, addend: 0x0, symName: __ZN5godot10RefCountedD0Ev.cold.1, symObjAddr: 0x1E10, symBinAddr: 0x121920, symSize: 0x1C }
  - { offset: 0x1E2DD7, size: 0x8, addend: 0x0, symName: __ZN5godot10RefCountedD0Ev.cold.1, symObjAddr: 0x1E10, symBinAddr: 0x121920, symSize: 0x1C }
  - { offset: 0x1E2DEC, size: 0x8, addend: 0x0, symName: __ZN5godot10RefCountedD0Ev.cold.1, symObjAddr: 0x1E10, symBinAddr: 0x121920, symSize: 0x1C }
  - { offset: 0x1E2E01, size: 0x8, addend: 0x0, symName: __ZN5godot10RefCountedD0Ev.cold.1, symObjAddr: 0x1E10, symBinAddr: 0x121920, symSize: 0x1C }
  - { offset: 0x1E2E16, size: 0x8, addend: 0x0, symName: __ZN5godot10RefCountedD0Ev.cold.1, symObjAddr: 0x1E10, symBinAddr: 0x121920, symSize: 0x1C }
  - { offset: 0x1E2E2B, size: 0x8, addend: 0x0, symName: __ZN5godot10RefCountedD0Ev.cold.1, symObjAddr: 0x1E10, symBinAddr: 0x121920, symSize: 0x1C }
  - { offset: 0x1E2E40, size: 0x8, addend: 0x0, symName: __ZN5godot10RefCountedD0Ev.cold.1, symObjAddr: 0x1E10, symBinAddr: 0x121920, symSize: 0x1C }
  - { offset: 0x1E2E5F, size: 0x8, addend: 0x0, symName: __ZN5godot8internal23EngineClassRegistrationINS_8ResourceEE8callbackEv.cold.1, symObjAddr: 0x1E2C, symBinAddr: 0x12193C, symSize: 0x5C }
  - { offset: 0x1E2EB9, size: 0x8, addend: 0x0, symName: __ZN5godot8internal23EngineClassRegistrationINS_5ImageEE8callbackEv.cold.1, symObjAddr: 0x1E88, symBinAddr: 0x121998, symSize: 0x5C }
  - { offset: 0x1E2F1F, size: 0x8, addend: 0x0, symName: __ZN5godot5ImageD1Ev.cold.1, symObjAddr: 0x1EE4, symBinAddr: 0x1219F4, symSize: 0x1C }
  - { offset: 0x1E2F3B, size: 0x8, addend: 0x0, symName: __ZN5godot5ImageD1Ev.cold.1, symObjAddr: 0x1EE4, symBinAddr: 0x1219F4, symSize: 0x1C }
  - { offset: 0x1E2F50, size: 0x8, addend: 0x0, symName: __ZN5godot5ImageD1Ev.cold.1, symObjAddr: 0x1EE4, symBinAddr: 0x1219F4, symSize: 0x1C }
  - { offset: 0x1E2F65, size: 0x8, addend: 0x0, symName: __ZN5godot5ImageD1Ev.cold.1, symObjAddr: 0x1EE4, symBinAddr: 0x1219F4, symSize: 0x1C }
  - { offset: 0x1E2F7A, size: 0x8, addend: 0x0, symName: __ZN5godot5ImageD1Ev.cold.1, symObjAddr: 0x1EE4, symBinAddr: 0x1219F4, symSize: 0x1C }
  - { offset: 0x1E2F8F, size: 0x8, addend: 0x0, symName: __ZN5godot5ImageD1Ev.cold.1, symObjAddr: 0x1EE4, symBinAddr: 0x1219F4, symSize: 0x1C }
  - { offset: 0x1E2FA4, size: 0x8, addend: 0x0, symName: __ZN5godot5ImageD1Ev.cold.1, symObjAddr: 0x1EE4, symBinAddr: 0x1219F4, symSize: 0x1C }
  - { offset: 0x1E2FB9, size: 0x8, addend: 0x0, symName: __ZN5godot5ImageD1Ev.cold.1, symObjAddr: 0x1EE4, symBinAddr: 0x1219F4, symSize: 0x1C }
  - { offset: 0x1E2FEE, size: 0x8, addend: 0x0, symName: __ZN5godot5ImageD0Ev.cold.1, symObjAddr: 0x1F00, symBinAddr: 0x121A10, symSize: 0x1C }
  - { offset: 0x1E300A, size: 0x8, addend: 0x0, symName: __ZN5godot5ImageD0Ev.cold.1, symObjAddr: 0x1F00, symBinAddr: 0x121A10, symSize: 0x1C }
  - { offset: 0x1E301F, size: 0x8, addend: 0x0, symName: __ZN5godot5ImageD0Ev.cold.1, symObjAddr: 0x1F00, symBinAddr: 0x121A10, symSize: 0x1C }
  - { offset: 0x1E3034, size: 0x8, addend: 0x0, symName: __ZN5godot5ImageD0Ev.cold.1, symObjAddr: 0x1F00, symBinAddr: 0x121A10, symSize: 0x1C }
  - { offset: 0x1E3049, size: 0x8, addend: 0x0, symName: __ZN5godot5ImageD0Ev.cold.1, symObjAddr: 0x1F00, symBinAddr: 0x121A10, symSize: 0x1C }
  - { offset: 0x1E305E, size: 0x8, addend: 0x0, symName: __ZN5godot5ImageD0Ev.cold.1, symObjAddr: 0x1F00, symBinAddr: 0x121A10, symSize: 0x1C }
  - { offset: 0x1E3073, size: 0x8, addend: 0x0, symName: __ZN5godot5ImageD0Ev.cold.1, symObjAddr: 0x1F00, symBinAddr: 0x121A10, symSize: 0x1C }
  - { offset: 0x1E3088, size: 0x8, addend: 0x0, symName: __ZN5godot5ImageD0Ev.cold.1, symObjAddr: 0x1F00, symBinAddr: 0x121A10, symSize: 0x1C }
  - { offset: 0x1E309D, size: 0x8, addend: 0x0, symName: __ZN5godot5ImageD0Ev.cold.1, symObjAddr: 0x1F00, symBinAddr: 0x121A10, symSize: 0x1C }
  - { offset: 0x1E30BE, size: 0x8, addend: 0x0, symName: __ZN5godot8internal23EngineClassRegistrationINS_32RDPipelineSpecializationConstantEE8callbackEv.cold.1, symObjAddr: 0x1F1C, symBinAddr: 0x121A2C, symSize: 0x5C }
  - { offset: 0x1E3108, size: 0x8, addend: 0x0, symName: __ZN5godot32RDPipelineSpecializationConstantD1Ev.cold.1, symObjAddr: 0x1F78, symBinAddr: 0x121A88, symSize: 0x1C }
  - { offset: 0x1E3124, size: 0x8, addend: 0x0, symName: __ZN5godot32RDPipelineSpecializationConstantD1Ev.cold.1, symObjAddr: 0x1F78, symBinAddr: 0x121A88, symSize: 0x1C }
  - { offset: 0x1E3139, size: 0x8, addend: 0x0, symName: __ZN5godot32RDPipelineSpecializationConstantD1Ev.cold.1, symObjAddr: 0x1F78, symBinAddr: 0x121A88, symSize: 0x1C }
  - { offset: 0x1E314E, size: 0x8, addend: 0x0, symName: __ZN5godot32RDPipelineSpecializationConstantD1Ev.cold.1, symObjAddr: 0x1F78, symBinAddr: 0x121A88, symSize: 0x1C }
