---
triple:          'arm64-apple-darwin'
binary-path:     crashpad_handler
relocations:
  - { offset: 0x26, size: 0x8, addend: 0x0, symName: _main, symObjAddr: 0x0, symBinAddr: 0x100003F88, symSize: 0x8 }
  - { offset: 0x33, size: 0x8, addend: 0x0, symName: _main, symObjAddr: 0x0, symBinAddr: 0x100003F88, symSize: 0x8 }
  - { offset: 0x71A5, size: 0x8, addend: 0x0, symName: __ZNSt3__119piecewise_constructE, symObjAddr: 0x2057, symBinAddr: 0x100077BB7, symSize: 0x0 }
  - { offset: 0xFC8F, size: 0x8, addend: 0x0, symName: __ZNSt3__120__throw_length_errorB8ne190102EPKc, symObjAddr: 0x1344, symBinAddr: 0x1000052D4, symSize: 0x50 }
  - { offset: 0xFF82, size: 0x8, addend: 0x0, symName: __ZNSt3__127__tree_balance_after_insertB8ne190102IPNS_16__tree_node_baseIPvEEEEvT_S5_, symObjAddr: 0x1A98, symBinAddr: 0x100005A00, symSize: 0x1B4 }
  - { offset: 0x111E5, size: 0x8, addend: 0x0, symName: __ZSt28__throw_bad_array_new_lengthB8ne190102v, symObjAddr: 0x13B8, symBinAddr: 0x100005348, symSize: 0x28 }
  - { offset: 0x12453, size: 0x8, addend: 0x0, symName: __ZN8crashpad19CrashReportDatabase6ReportC2Ev, symObjAddr: 0x0, symBinAddr: 0x100003F90, symSize: 0x48 }
  - { offset: 0x12492, size: 0x8, addend: 0x0, symName: __ZN8crashpad19CrashReportDatabase6ReportC1Ev, symObjAddr: 0x48, symBinAddr: 0x100003FD8, symSize: 0x48 }
  - { offset: 0x127F2, size: 0x8, addend: 0x0, symName: __ZN8crashpad19CrashReportDatabase9NewReportC2Ev, symObjAddr: 0x90, symBinAddr: 0x100004020, symSize: 0xD4 }
  - { offset: 0x12ADE, size: 0x8, addend: 0x0, symName: __ZN8crashpad19CrashReportDatabase9NewReportC1Ev, symObjAddr: 0x164, symBinAddr: 0x1000040F4, symSize: 0x4 }
  - { offset: 0x12B0B, size: 0x8, addend: 0x0, symName: __ZN8crashpad19CrashReportDatabase9NewReportC1Ev, symObjAddr: 0x164, symBinAddr: 0x1000040F4, symSize: 0x4 }
  - { offset: 0x12E22, size: 0x8, addend: 0x0, symName: __ZN8crashpad19CrashReportDatabase9NewReportD2Ev, symObjAddr: 0x168, symBinAddr: 0x1000040F8, symSize: 0xFC }
  - { offset: 0x13422, size: 0x8, addend: 0x0, symName: __ZN4base13ScopedGenericINS_8FilePathEN8crashpad22ScopedRemoveFileTraitsEE15FreeIfNecessaryEv, symObjAddr: 0x13E0, symBinAddr: 0x100005370, symSize: 0x94 }
  - { offset: 0x13473, size: 0x8, addend: 0x0, symName: __ZN4base13ScopedGenericINS_8FilePathEN8crashpad22ScopedRemoveFileTraitsEED1Ev, symObjAddr: 0x264, symBinAddr: 0x1000041F4, symSize: 0x28 }
  - { offset: 0x1350C, size: 0x8, addend: 0x0, symName: __ZN8crashpad19CrashReportDatabase9NewReportD1Ev, symObjAddr: 0x28C, symBinAddr: 0x10000421C, symSize: 0x4 }
  - { offset: 0x13539, size: 0x8, addend: 0x0, symName: __ZN8crashpad19CrashReportDatabase9NewReportD1Ev, symObjAddr: 0x28C, symBinAddr: 0x10000421C, symSize: 0x4 }
  - { offset: 0x13832, size: 0x8, addend: 0x0, symName: __ZN8crashpad19CrashReportDatabase9NewReport10InitializeEPS0_RKN4base8FilePathERKNSt3__112basic_stringIcNS7_11char_traitsIcEENS7_9allocatorIcEEEE, symObjAddr: 0x290, symBinAddr: 0x100004220, symSize: 0x208 }
  - { offset: 0x141DE, size: 0x8, addend: 0x0, symName: __ZN4base13ScopedGenericINS_8FilePathEN8crashpad22ScopedRemoveFileTraitsEE5resetERKS1_, symObjAddr: 0x498, symBinAddr: 0x100004428, symSize: 0x98 }
  - { offset: 0x1424D, size: 0x8, addend: 0x0, symName: __ZNKSt3__112basic_stringIcNS_11char_traitsIcEENS_9allocatorIcEEE20__throw_length_errorB8ne190102Ev, symObjAddr: 0x1330, symBinAddr: 0x1000052C0, symSize: 0x14 }
  - { offset: 0x14277, size: 0x8, addend: 0x0, symName: __ZNSt3__120__throw_length_errorB8ne190102EPKc, symObjAddr: 0x1344, symBinAddr: 0x1000052D4, symSize: 0x50 }
  - { offset: 0x142C0, size: 0x8, addend: 0x0, symName: __ZN8crashpad19CrashReportDatabase9NewReport6ReaderEv, symObjAddr: 0x530, symBinAddr: 0x1000044C0, symSize: 0xB0 }
  - { offset: 0x14C1C, size: 0x8, addend: 0x0, symName: __ZN8crashpad19CrashReportDatabase9NewReport13AddAttachmentERKNSt3__112basic_stringIcNS2_11char_traitsIcEENS2_9allocatorIcEEEE, symObjAddr: 0x5E0, symBinAddr: 0x100004570, symSize: 0x390 }
  - { offset: 0x15A58, size: 0x8, addend: 0x0, symName: __ZN8crashpad19CrashReportDatabase15AttachmentsPathERKNS_4UUIDE, symObjAddr: 0x970, symBinAddr: 0x100004900, symSize: 0x12C }
  - { offset: 0x1608A, size: 0x8, addend: 0x0, symName: __ZNSt3__112basic_stringIcNS_11char_traitsIcEENS_9allocatorIcEEE25__init_copy_ctor_externalEPKcm, symObjAddr: 0x12A4, symBinAddr: 0x100005234, symSize: 0x8C }
  - { offset: 0x16263, size: 0x8, addend: 0x0, symName: __ZNKSt3__112basic_stringIcNS_11char_traitsIcEENS_9allocatorIcEEE20__throw_length_errorB8ne190102Ev, symObjAddr: 0x1330, symBinAddr: 0x1000052C0, symSize: 0x14 }
  - { offset: 0x1628B, size: 0x8, addend: 0x0, symName: __ZN4base13ScopedGenericINS_8FilePathEN8crashpad22ScopedRemoveFileTraitsEEC2EOS4_, symObjAddr: 0x15D8, symBinAddr: 0x100005568, symSize: 0xA8 }
  - { offset: 0x16349, size: 0x8, addend: 0x0, symName: __ZNSt3__16vectorIN4base13ScopedGenericINS1_8FilePathEN8crashpad22ScopedRemoveFileTraitsEEENS_9allocatorIS6_EEE24__emplace_back_slow_pathIJS6_EEEPS6_DpOT_, symObjAddr: 0x1488, symBinAddr: 0x100005418, symSize: 0x150 }
  - { offset: 0x16859, size: 0x8, addend: 0x0, symName: __ZNKSt3__16vectorINS_10unique_ptrIN8crashpad10FileWriterENS_14default_deleteIS3_EEEENS_9allocatorIS6_EEE20__throw_length_errorB8ne190102Ev, symObjAddr: 0x1474, symBinAddr: 0x100005404, symSize: 0x14 }
  - { offset: 0x16883, size: 0x8, addend: 0x0, symName: __ZNSt3__16vectorIN4base13ScopedGenericINS1_8FilePathEN8crashpad22ScopedRemoveFileTraitsEEENS_9allocatorIS6_EEE24__emplace_back_slow_pathIJS6_EEEPS6_DpOT_, symObjAddr: 0x1488, symBinAddr: 0x100005418, symSize: 0x150 }
  - { offset: 0x16DFE, size: 0x8, addend: 0x0, symName: __ZN8crashpad19CrashReportDatabase12UploadReport21InitializeAttachmentsEv, symObjAddr: 0xA9C, symBinAddr: 0x100004A2C, symSize: 0x2C4 }
  - { offset: 0x17836, size: 0x8, addend: 0x0, symName: __ZNSt3__16__treeINS_12__value_typeINS_12basic_stringIcNS_11char_traitsIcEENS_9allocatorIcEEEEPN8crashpad10FileReaderEEENS_19__map_value_compareIS7_SB_NS_4lessIS7_EELb1EEENS5_ISB_EEE25__emplace_unique_key_argsIS7_JRKNS_21piecewise_construct_tENS_5tupleIJRKS7_EEENSM_IJEEEEEENS_4pairINS_15__tree_iteratorISB_PNS_11__tree_nodeISB_PvEElEEbEERKT_DpOT0_, symObjAddr: 0x1884, symBinAddr: 0x1000057EC, symSize: 0x1B4 }
  - { offset: 0x17F33, size: 0x8, addend: 0x0, symName: __ZNSt3__16__treeINS_12__value_typeINS_12basic_stringIcNS_11char_traitsIcEENS_9allocatorIcEEEEPN8crashpad10FileReaderEEENS_19__map_value_compareIS7_SB_NS_4lessIS7_EELb1EEENS5_ISB_EEE25__emplace_unique_key_argsIS7_JRKNS_21piecewise_construct_tENS_5tupleIJRKS7_EEENSM_IJEEEEEENS_4pairINS_15__tree_iteratorISB_PNS_11__tree_nodeISB_PvEElEEbEERKT_DpOT0_, symObjAddr: 0x1884, symBinAddr: 0x1000057EC, symSize: 0x1B4 }
  - { offset: 0x181D3, size: 0x8, addend: 0x0, symName: __ZN8crashpad19CrashReportDatabase12UploadReportC2Ev, symObjAddr: 0xD60, symBinAddr: 0x100004CF0, symSize: 0xC8 }
  - { offset: 0x18418, size: 0x8, addend: 0x0, symName: __ZN8crashpad19CrashReportDatabase6ReportD2Ev, symObjAddr: 0xE28, symBinAddr: 0x100004DB8, symSize: 0x50 }
  - { offset: 0x1857F, size: 0x8, addend: 0x0, symName: __ZN8crashpad19CrashReportDatabase12UploadReportC1Ev, symObjAddr: 0xE78, symBinAddr: 0x100004E08, symSize: 0xC8 }
  - { offset: 0x18A50, size: 0x8, addend: 0x0, symName: __ZN8crashpad19CrashReportDatabase12UploadReportD2Ev, symObjAddr: 0xF40, symBinAddr: 0x100004ED0, symSize: 0x100 }
  - { offset: 0x19125, size: 0x8, addend: 0x0, symName: __ZNSt3__16__treeINS_12__value_typeINS_12basic_stringIcNS_11char_traitsIcEENS_9allocatorIcEEEEPN8crashpad10FileReaderEEENS_19__map_value_compareIS7_SB_NS_4lessIS7_EELb1EEENS5_ISB_EEE7destroyEPNS_11__tree_nodeISB_PvEE, symObjAddr: 0x1C4C, symBinAddr: 0x100005BB4, symSize: 0x60 }
  - { offset: 0x193CE, size: 0x8, addend: 0x0, symName: __ZN8crashpad19CrashReportDatabase12UploadReportD1Ev, symObjAddr: 0x1050, symBinAddr: 0x100004FE0, symSize: 0x4 }
  - { offset: 0x193F1, size: 0x8, addend: 0x0, symName: __ZN8crashpad19CrashReportDatabase12UploadReportD1Ev, symObjAddr: 0x1050, symBinAddr: 0x100004FE0, symSize: 0x4 }
  - { offset: 0x19420, size: 0x8, addend: 0x0, symName: __ZN8crashpad19CrashReportDatabase12UploadReportD0Ev, symObjAddr: 0x1054, symBinAddr: 0x100004FE4, symSize: 0x14 }
  - { offset: 0x19495, size: 0x8, addend: 0x0, symName: __ZN8crashpad19CrashReportDatabase12UploadReport10InitializeERKN4base8FilePathEPS0_, symObjAddr: 0x1068, symBinAddr: 0x100004FF8, symSize: 0x30 }
  - { offset: 0x19530, size: 0x8, addend: 0x0, symName: __ZN8crashpad19CrashReportDatabase20RecordUploadCompleteENSt3__110unique_ptrIKNS0_12UploadReportENS1_14default_deleteIS4_EEEERKNS1_12basic_stringIcNS1_11char_traitsIcEENS1_9allocatorIcEEEE, symObjAddr: 0x1098, symBinAddr: 0x100005028, symSize: 0x1C }
  - { offset: 0x195C5, size: 0x8, addend: 0x0, symName: __ZN8crashpad19CrashReportDatabase19AttachmentsRootPathEv, symObjAddr: 0x10B4, symBinAddr: 0x100005044, symSize: 0xC0 }
  - { offset: 0x19981, size: 0x8, addend: 0x0, symName: __ZN8crashpad19CrashReportDatabase23RemoveAttachmentsByUUIDERKNS_4UUIDE, symObjAddr: 0x1174, symBinAddr: 0x100005104, symSize: 0x130 }
  - { offset: 0x19A7C, size: 0x8, addend: 0x0, symName: __ZNSt12length_errorC1B8ne190102EPKc, symObjAddr: 0x1394, symBinAddr: 0x100005324, symSize: 0x24 }
  - { offset: 0x19D84, size: 0x8, addend: 0x0, symName: __ZNSt3__16vectorIN4base13ScopedGenericINS1_8FilePathEN8crashpad22ScopedRemoveFileTraitsEEENS_9allocatorIS6_EEE26__swap_out_circular_bufferERNS_14__split_bufferIS6_RS8_EE, symObjAddr: 0x1680, symBinAddr: 0x100005610, symSize: 0x10C }
  - { offset: 0x1A11E, size: 0x8, addend: 0x0, symName: __ZNSt3__128__exception_guard_exceptionsINS_29_AllocatorDestroyRangeReverseINS_9allocatorIN4base13ScopedGenericINS3_8FilePathEN8crashpad22ScopedRemoveFileTraitsEEEEEPS8_EEED1B8ne190102Ev, symObjAddr: 0x1808, symBinAddr: 0x100005784, symSize: 0x68 }
  - { offset: 0x1A129, size: 0x8, addend: 0x0, symName: __ZNSt3__114__split_bufferIN4base13ScopedGenericINS1_8FilePathEN8crashpad22ScopedRemoveFileTraitsEEERNS_9allocatorIS6_EEED1Ev, symObjAddr: 0x178C, symBinAddr: 0x10000571C, symSize: 0x68 }
  - { offset: 0x1A413, size: 0x8, addend: 0x0, symName: __ZNSt3__128__exception_guard_exceptionsINS_29_AllocatorDestroyRangeReverseINS_9allocatorIN4base13ScopedGenericINS3_8FilePathEN8crashpad22ScopedRemoveFileTraitsEEEEEPS8_EEED1B8ne190102Ev, symObjAddr: 0x1808, symBinAddr: 0x100005784, symSize: 0x68 }
  - { offset: 0x1AC84, size: 0x8, addend: 0x0, symName: __ZNSt3__110unique_ptrINS_11__tree_nodeINS_12__value_typeINS_12basic_stringIcNS_11char_traitsIcEENS_9allocatorIcEEEEPN8crashpad10FileReaderEEEPvEENS_22__tree_node_destructorINS6_ISE_EEEEED1B8ne190102Ev, symObjAddr: 0x1A38, symBinAddr: 0x1000059A0, symSize: 0x60 }
  - { offset: 0x1CEF3, size: 0x8, addend: 0x0, symName: __ZN8crashpad15g_crashpad_infoE, symObjAddr: 0x600, symBinAddr: 0x100088B28, symSize: 0x0 }
  - { offset: 0x21B01, size: 0x8, addend: 0x0, symName: __ZNSt3__124__put_character_sequenceB8ne190102IcNS_11char_traitsIcEEEERNS_13basic_ostreamIT_T0_EES7_PKS4_m, symObjAddr: 0x1C8, symBinAddr: 0x100005DDC, symSize: 0x16C }
  - { offset: 0x235AB, size: 0x8, addend: 0x0, symName: __ZNSt3__116__pad_and_outputB8ne190102IcNS_11char_traitsIcEEEENS_19ostreambuf_iteratorIT_T0_EES6_PKS4_S8_S8_RNS_8ios_baseES4_, symObjAddr: 0x334, symBinAddr: 0x100005F48, symSize: 0x1A0 }
  - { offset: 0x25249, size: 0x8, addend: 0x0, symName: __ZN8crashpad12CrashpadInfoC1Ev, symObjAddr: 0x0, symBinAddr: 0x100005C14, symSize: 0x28 }
  - { offset: 0x25292, size: 0x8, addend: 0x0, symName: __ZN8crashpad12CrashpadInfo15GetCrashpadInfoEv, symObjAddr: 0x28, symBinAddr: 0x100005C3C, symSize: 0xC }
  - { offset: 0x252A8, size: 0x8, addend: 0x0, symName: __ZN8crashpad12CrashpadInfoC2Ev, symObjAddr: 0x34, symBinAddr: 0x100005C48, symSize: 0x28 }
  - { offset: 0x252C9, size: 0x8, addend: 0x0, symName: __ZN8crashpad12CrashpadInfo25AddUserDataMinidumpStreamEjPKvm, symObjAddr: 0x5C, symBinAddr: 0x100005C70, symSize: 0x54 }
  - { offset: 0x25400, size: 0x8, addend: 0x0, symName: __ZN8crashpad12CrashpadInfo28UpdateUserDataMinidumpStreamEPNS_8internal31UserDataMinidumpStreamListEntryEjPKvm, symObjAddr: 0xB0, symBinAddr: 0x100005CC4, symSize: 0x118 }
  - { offset: 0x280D8, size: 0x8, addend: 0x0, symName: __ZN8crashpad24PruneCrashReportDatabaseEPNS_19CrashReportDatabaseEPNS_14PruneConditionE, symObjAddr: 0x0, symBinAddr: 0x1000060E8, symSize: 0x3BC }
  - { offset: 0x30A6E, size: 0x8, addend: 0x0, symName: '__ZNSt3__111__introsortINS_17_ClassicAlgPolicyERZN8crashpad24PruneCrashReportDatabaseEPNS2_19CrashReportDatabaseEPNS2_14PruneConditionEE3$_0PNS3_6ReportELb0EEEvT1_SB_T0_NS_15iterator_traitsISB_E15difference_typeEb', symObjAddr: 0x149C, symBinAddr: 0x1000070C8, symSize: 0x1104 }
  - { offset: 0x3394B, size: 0x8, addend: 0x0, symName: '__ZNSt3__127__insertion_sort_incompleteB8ne190102INS_17_ClassicAlgPolicyERZN8crashpad24PruneCrashReportDatabaseEPNS2_19CrashReportDatabaseEPNS2_14PruneConditionEE3$_0PNS3_6ReportEEEbT1_SB_T0_', symObjAddr: 0x25A0, symBinAddr: 0x1000081CC, symSize: 0x3E4 }
  - { offset: 0x3583C, size: 0x8, addend: 0x0, symName: __ZNSt3__134__uninitialized_allocator_relocateB8ne190102INS_9allocatorIN8crashpad19CrashReportDatabase6ReportEEES4_EEvRT_PT0_S9_S9_, symObjAddr: 0x1310, symBinAddr: 0x100006F3C, symSize: 0x18C }
  - { offset: 0x36AC7, size: 0x8, addend: 0x0, symName: __ZNSt3__14swapB8ne190102IN8crashpad19CrashReportDatabase6ReportEEENS_9enable_ifIXaasr21is_move_constructibleIT_EE5valuesr18is_move_assignableIS5_EE5valueEvE4typeERS5_S8_, symObjAddr: 0x2984, symBinAddr: 0x1000085B0, symSize: 0x124 }
  - { offset: 0x36E9F, size: 0x8, addend: 0x0, symName: '__ZNSt3__17__sort4B8ne190102INS_17_ClassicAlgPolicyERZN8crashpad24PruneCrashReportDatabaseEPNS2_19CrashReportDatabaseEPNS2_14PruneConditionEE3$_0PNS3_6ReportEEEvT1_SB_SB_SB_T0_', symObjAddr: 0x2AA8, symBinAddr: 0x1000086D4, symSize: 0x104 }
  - { offset: 0x38CEA, size: 0x8, addend: 0x0, symName: __ZNSt3__16vectorIN8crashpad19CrashReportDatabase6ReportENS_9allocatorIS3_EEE18__insert_with_sizeB8ne190102INS_11__wrap_iterIPS3_EESA_EESA_NS8_IPKS3_EET_T0_l, symObjAddr: 0xC34, symBinAddr: 0x100006900, symSize: 0x440 }
  - { offset: 0x399E6, size: 0x8, addend: 0x0, symName: __ZNSt3__16vectorIN8crashpad19CrashReportDatabase6ReportENS_9allocatorIS3_EEED1B8ne190102Ev, symObjAddr: 0x3BC, symBinAddr: 0x1000064A4, symSize: 0x80 }
  - { offset: 0x3A085, size: 0x8, addend: 0x0, symName: __ZN8crashpad14PruneCondition10GetDefaultEv, symObjAddr: 0x43C, symBinAddr: 0x100006524, symSize: 0xD8 }
  - { offset: 0x3A327, size: 0x8, addend: 0x0, symName: __ZN8crashpad26DatabaseSizePruneConditionC1Em, symObjAddr: 0x514, symBinAddr: 0x1000065FC, symSize: 0x14 }
  - { offset: 0x3A353, size: 0x8, addend: 0x0, symName: __ZN8crashpad26DatabaseSizePruneConditionC1Em, symObjAddr: 0x514, symBinAddr: 0x1000065FC, symSize: 0x14 }
  - { offset: 0x3A376, size: 0x8, addend: 0x0, symName: __ZN8crashpad17AgePruneConditionC1Ei, symObjAddr: 0x528, symBinAddr: 0x100006610, symSize: 0x70 }
  - { offset: 0x3A3DD, size: 0x8, addend: 0x0, symName: __ZN8crashpad17AgePruneConditionC2Ei, symObjAddr: 0x598, symBinAddr: 0x100006680, symSize: 0x70 }
  - { offset: 0x3A41E, size: 0x8, addend: 0x0, symName: __ZN8crashpad17AgePruneConditionD2Ev, symObjAddr: 0x608, symBinAddr: 0x1000066F0, symSize: 0x4 }
  - { offset: 0x3A449, size: 0x8, addend: 0x0, symName: __ZN8crashpad17AgePruneConditionD1Ev, symObjAddr: 0x60C, symBinAddr: 0x1000066F4, symSize: 0x4 }
  - { offset: 0x3A474, size: 0x8, addend: 0x0, symName: __ZN8crashpad17AgePruneConditionD0Ev, symObjAddr: 0x610, symBinAddr: 0x1000066F8, symSize: 0x4 }
  - { offset: 0x3A49F, size: 0x8, addend: 0x0, symName: __ZN8crashpad17AgePruneCondition17ShouldPruneReportERKNS_19CrashReportDatabase6ReportE, symObjAddr: 0x614, symBinAddr: 0x1000066FC, symSize: 0x14 }
  - { offset: 0x3A4D5, size: 0x8, addend: 0x0, symName: __ZN8crashpad26DatabaseSizePruneConditionC2Em, symObjAddr: 0x628, symBinAddr: 0x100006710, symSize: 0x14 }
  - { offset: 0x3A4FE, size: 0x8, addend: 0x0, symName: __ZN8crashpad26DatabaseSizePruneConditionD2Ev, symObjAddr: 0x63C, symBinAddr: 0x100006724, symSize: 0x4 }
  - { offset: 0x3A529, size: 0x8, addend: 0x0, symName: __ZN8crashpad26DatabaseSizePruneConditionD1Ev, symObjAddr: 0x640, symBinAddr: 0x100006728, symSize: 0x4 }
  - { offset: 0x3A554, size: 0x8, addend: 0x0, symName: __ZN8crashpad26DatabaseSizePruneConditionD0Ev, symObjAddr: 0x644, symBinAddr: 0x10000672C, symSize: 0x4 }
  - { offset: 0x3A57F, size: 0x8, addend: 0x0, symName: __ZN8crashpad26DatabaseSizePruneCondition17ShouldPruneReportERKNS_19CrashReportDatabase6ReportE, symObjAddr: 0x648, symBinAddr: 0x100006730, symSize: 0x20 }
  - { offset: 0x3A5B5, size: 0x8, addend: 0x0, symName: __ZN8crashpad20BinaryPruneConditionC2ENS0_8OperatorEPNS_14PruneConditionES3_, symObjAddr: 0x668, symBinAddr: 0x100006750, symSize: 0x18 }
  - { offset: 0x3A69E, size: 0x8, addend: 0x0, symName: __ZN8crashpad20BinaryPruneConditionC1ENS0_8OperatorEPNS_14PruneConditionES3_, symObjAddr: 0x680, symBinAddr: 0x100006768, symSize: 0x18 }
  - { offset: 0x3A6DA, size: 0x8, addend: 0x0, symName: __ZN8crashpad20BinaryPruneConditionC1ENS0_8OperatorEPNS_14PruneConditionES3_, symObjAddr: 0x680, symBinAddr: 0x100006768, symSize: 0x18 }
  - { offset: 0x3A847, size: 0x8, addend: 0x0, symName: __ZN8crashpad20BinaryPruneConditionD2Ev, symObjAddr: 0x698, symBinAddr: 0x100006780, symSize: 0x50 }
  - { offset: 0x3A9D6, size: 0x8, addend: 0x0, symName: __ZN8crashpad20BinaryPruneConditionD1Ev, symObjAddr: 0x6E8, symBinAddr: 0x1000067D0, symSize: 0x50 }
  - { offset: 0x3AB83, size: 0x8, addend: 0x0, symName: __ZN8crashpad20BinaryPruneConditionD0Ev, symObjAddr: 0x738, symBinAddr: 0x100006820, symSize: 0x50 }
  - { offset: 0x3AD57, size: 0x8, addend: 0x0, symName: __ZN8crashpad20BinaryPruneCondition17ShouldPruneReportERKNS_19CrashReportDatabase6ReportE, symObjAddr: 0x788, symBinAddr: 0x100006870, symSize: 0x90 }
  - { offset: 0x3BBE7, size: 0x8, addend: 0x0, symName: __ZNSt3__16vectorIN8crashpad19CrashReportDatabase6ReportENS_9allocatorIS3_EEE18__construct_at_endINS_11__wrap_iterIPS3_EESA_EEvT_T0_m, symObjAddr: 0x1074, symBinAddr: 0x100006D40, symSize: 0x118 }
  - { offset: 0x3C08B, size: 0x8, addend: 0x0, symName: __ZNSt3__134__uninitialized_allocator_relocateB8ne190102INS_9allocatorIN8crashpad19CrashReportDatabase6ReportEEES4_EEvRT_PT0_S9_S9_, symObjAddr: 0x1310, symBinAddr: 0x100006F3C, symSize: 0x18C }
  - { offset: 0x3C096, size: 0x8, addend: 0x0, symName: __ZNSt3__114__split_bufferIN8crashpad19CrashReportDatabase6ReportERNS_9allocatorIS3_EEED1Ev, symObjAddr: 0x118C, symBinAddr: 0x100006E58, symSize: 0x6C }
  - { offset: 0x3C422, size: 0x8, addend: 0x0, symName: __ZNSt3__128__exception_guard_exceptionsINS_29_AllocatorDestroyRangeReverseINS_9allocatorIN8crashpad19CrashReportDatabase6ReportEEEPS5_EEED1B8ne190102Ev, symObjAddr: 0x11F8, symBinAddr: 0x100006EC4, symSize: 0x78 }
  - { offset: 0x43AA9, size: 0x8, addend: 0x0, symName: __ZN8crashpad8internal28ScopedLockedFileHandleTraits4FreeEi, symObjAddr: 0x0, symBinAddr: 0x1000087D8, symSize: 0x30 }
  - { offset: 0x43B1D, size: 0x8, addend: 0x0, symName: __ZN8crashpad8SettingsC2Ev, symObjAddr: 0x30, symBinAddr: 0x100008808, symSize: 0x18 }
  - { offset: 0x43B9F, size: 0x8, addend: 0x0, symName: __ZN8crashpad8SettingsC1Ev, symObjAddr: 0x48, symBinAddr: 0x100008820, symSize: 0x18 }
  - { offset: 0x43C5C, size: 0x8, addend: 0x0, symName: __ZN8crashpad8SettingsD2Ev, symObjAddr: 0x60, symBinAddr: 0x100008838, symSize: 0xC }
  - { offset: 0x43CD9, size: 0x8, addend: 0x0, symName: __ZN8crashpad8SettingsD1Ev, symObjAddr: 0x6C, symBinAddr: 0x100008844, symSize: 0xC }
  - { offset: 0x43E41, size: 0x8, addend: 0x0, symName: __ZN8crashpad8Settings10InitializeERKN4base8FilePathE, symObjAddr: 0x78, symBinAddr: 0x100008850, symSize: 0x84 }
  - { offset: 0x43FDA, size: 0x8, addend: 0x0, symName: __ZN8crashpad8Settings29OpenForWritingAndReadSettingsEPNS0_4DataE, symObjAddr: 0xFC, symBinAddr: 0x1000088D4, symSize: 0x194 }
  - { offset: 0x4463E, size: 0x8, addend: 0x0, symName: __ZN8crashpad8Settings26MakeScopedLockedFileHandleERKNS_8internal33MakeScopedLockedFileHandleOptionsENS_11FileLockingERKN4base8FilePathE, symObjAddr: 0x6E8, symBinAddr: 0x100008EC0, symSize: 0x120 }
  - { offset: 0x44840, size: 0x8, addend: 0x0, symName: __ZN8crashpad8Settings12ReadSettingsEiPNS0_4DataEb, symObjAddr: 0x8F4, symBinAddr: 0x1000090CC, symSize: 0x164 }
  - { offset: 0x4498E, size: 0x8, addend: 0x0, symName: __ZN8crashpad8Settings15RecoverSettingsEiPNS0_4DataE, symObjAddr: 0xA58, symBinAddr: 0x100009230, symSize: 0x1EC }
  - { offset: 0x44D86, size: 0x8, addend: 0x0, symName: __ZN4base13ScopedGenericIiN8crashpad8internal28ScopedLockedFileHandleTraitsEED1Ev, symObjAddr: 0x290, symBinAddr: 0x100008A68, symSize: 0x48 }
  - { offset: 0x44E27, size: 0x8, addend: 0x0, symName: __ZN8crashpad8Settings11GetClientIDEPNS_4UUIDE, symObjAddr: 0x2D8, symBinAddr: 0x100008AB0, symSize: 0x4C }
  - { offset: 0x44ECB, size: 0x8, addend: 0x0, symName: __ZN8crashpad8Settings19OpenAndReadSettingsEPNS0_4DataE, symObjAddr: 0x324, symBinAddr: 0x100008AFC, symSize: 0x118 }
  - { offset: 0x4511E, size: 0x8, addend: 0x0, symName: __ZN8crashpad8Settings17GetUploadsEnabledEPb, symObjAddr: 0x43C, symBinAddr: 0x100008C14, symSize: 0x50 }
  - { offset: 0x451F5, size: 0x8, addend: 0x0, symName: __ZN8crashpad8Settings17SetUploadsEnabledEb, symObjAddr: 0x48C, symBinAddr: 0x100008C64, symSize: 0xE0 }
  - { offset: 0x453F8, size: 0x8, addend: 0x0, symName: __ZN8crashpad8Settings13WriteSettingsEiRKNS0_4DataE, symObjAddr: 0x56C, symBinAddr: 0x100008D44, symSize: 0x5C }
  - { offset: 0x45478, size: 0x8, addend: 0x0, symName: __ZN8crashpad8Settings24GetLastUploadAttemptTimeEPl, symObjAddr: 0x5C8, symBinAddr: 0x100008DA0, symSize: 0x4C }
  - { offset: 0x4551C, size: 0x8, addend: 0x0, symName: __ZN8crashpad8Settings24SetLastUploadAttemptTimeEl, symObjAddr: 0x614, symBinAddr: 0x100008DEC, symSize: 0xD4 }
  - { offset: 0x4586E, size: 0x8, addend: 0x0, symName: __ZN4base13ScopedGenericIiNS_8internal19ScopedFDCloseTraitsEED1Ev, symObjAddr: 0x84C, symBinAddr: 0x100009024, symSize: 0x3C }
  - { offset: 0x458CF, size: 0x8, addend: 0x0, symName: __ZN8crashpad8Settings20GetHandleFromOptionsERKN4base8FilePathERKNS_8internal33MakeScopedLockedFileHandleOptionsE, symObjAddr: 0x808, symBinAddr: 0x100008FE0, symSize: 0x44 }
  - { offset: 0x4593C, size: 0x8, addend: 0x0, symName: __ZN8crashpad8Settings14OpenForReadingEv, symObjAddr: 0x888, symBinAddr: 0x100009060, symSize: 0x2C }
  - { offset: 0x45990, size: 0x8, addend: 0x0, symName: __ZN8crashpad8Settings24OpenForReadingAndWritingENS_13FileWriteModeEb, symObjAddr: 0x8B4, symBinAddr: 0x10000908C, symSize: 0x40 }
  - { offset: 0x45AC9, size: 0x8, addend: 0x0, symName: __ZN8crashpad8Settings18InitializeSettingsEi, symObjAddr: 0xC44, symBinAddr: 0x10000941C, symSize: 0x8C }
  - { offset: 0x54013, size: 0x8, addend: 0x0, symName: __ZNSt3__117__call_once_proxyB8ne190102INS_5tupleIJOZN8crashpad22CrashReportDatabaseMac16SettingsInternalEvEUlvE_EEEEEvPv, symObjAddr: 0x4130, symBinAddr: 0x10000D54C, symSize: 0x4 }
  - { offset: 0x5404C, size: 0x8, addend: 0x0, symName: __ZNSt3__117__call_once_proxyB8ne190102INS_5tupleIJOZN8crashpad22CrashReportDatabaseMac16SettingsInternalEvEUlvE_EEEEEvPv, symObjAddr: 0x4130, symBinAddr: 0x10000D54C, symSize: 0x4 }
  - { offset: 0x54069, size: 0x8, addend: 0x0, symName: __ZNSt3__117__call_once_proxyB8ne190102INS_5tupleIJOZN8crashpad22CrashReportDatabaseMac16SettingsInternalEvEUlvE_EEEEEvPv, symObjAddr: 0x4130, symBinAddr: 0x10000D54C, symSize: 0x4 }
  - { offset: 0x55355, size: 0x8, addend: 0x0, symName: __ZN8crashpad12_GLOBAL__N_125kXattrDatabaseInitializedE, symObjAddr: 0x5328, symBinAddr: 0x100077C60, symSize: 0x0 }
  - { offset: 0x5536F, size: 0x8, addend: 0x0, symName: __ZN8crashpad12_GLOBAL__N_125kCrashReportFileExtensionE, symObjAddr: 0x5334, symBinAddr: 0x100077C6C, symSize: 0x0 }
  - { offset: 0x55389, size: 0x8, addend: 0x0, symName: __ZN8crashpad12_GLOBAL__N_110kXattrUUIDE, symObjAddr: 0x5338, symBinAddr: 0x100077C70, symSize: 0x0 }
  - { offset: 0x553A3, size: 0x8, addend: 0x0, symName: __ZN8crashpad12_GLOBAL__N_118kXattrCreationTimeE, symObjAddr: 0x533D, symBinAddr: 0x100077C75, symSize: 0x0 }
  - { offset: 0x553BD, size: 0x8, addend: 0x0, symName: __ZN8crashpad12_GLOBAL__N_116kXattrIsUploadedE, symObjAddr: 0x534B, symBinAddr: 0x100077C83, symSize: 0x0 }
  - { offset: 0x553D7, size: 0x8, addend: 0x0, symName: __ZN8crashpad12_GLOBAL__N_117kXattrCollectorIDE, symObjAddr: 0x5354, symBinAddr: 0x100077C8C, symSize: 0x0 }
  - { offset: 0x553F1, size: 0x8, addend: 0x0, symName: __ZN8crashpad12_GLOBAL__N_120kXattrLastUploadTimeE, symObjAddr: 0x5357, symBinAddr: 0x100077C8F, symSize: 0x0 }
  - { offset: 0x5540B, size: 0x8, addend: 0x0, symName: __ZN8crashpad12_GLOBAL__N_124kXattrUploadAttemptCountE, symObjAddr: 0x5368, symBinAddr: 0x100077CA0, symSize: 0x0 }
  - { offset: 0x55425, size: 0x8, addend: 0x0, symName: __ZN8crashpad12_GLOBAL__N_133kXattrIsUploadExplicitlyRequestedE, symObjAddr: 0x5375, symBinAddr: 0x100077CAD, symSize: 0x0 }
  - { offset: 0x5545A, size: 0x8, addend: 0x0, symName: __ZN8crashpad12_GLOBAL__N_129CreateOrEnsureDirectoryExistsERKN4base8FilePathE, symObjAddr: 0x510, symBinAddr: 0x1000099B8, symSize: 0x104 }
  - { offset: 0x5563A, size: 0x8, addend: 0x0, symName: __ZN8crashpad12_GLOBAL__N_121EnsureDirectoryExistsERKN4base8FilePathE, symObjAddr: 0x614, symBinAddr: 0x100009ABC, symSize: 0x184 }
  - { offset: 0x56822, size: 0x8, addend: 0x0, symName: __ZN8crashpad18InitializeInternalERKN4base8FilePathEb, symObjAddr: 0x4040, symBinAddr: 0x10000D45C, symSize: 0xE0 }
  - { offset: 0x583B8, size: 0x8, addend: 0x0, symName: __ZN8crashpad22CrashReportDatabaseMac16SettingsInternalEv, symObjAddr: 0x884, symBinAddr: 0x100009D2C, symSize: 0x5C }
  - { offset: 0x5894B, size: 0x8, addend: 0x0, symName: __ZN8crashpad22CrashReportDatabaseMacC2ERKN4base8FilePathE, symObjAddr: 0x0, symBinAddr: 0x1000094A8, symSize: 0x5C }
  - { offset: 0x589E4, size: 0x8, addend: 0x0, symName: __ZN8crashpad22CrashReportDatabaseMacC1ERKN4base8FilePathE, symObjAddr: 0x5C, symBinAddr: 0x100009504, symSize: 0x5C }
  - { offset: 0x58A77, size: 0x8, addend: 0x0, symName: __ZN8crashpad22CrashReportDatabaseMacD2Ev, symObjAddr: 0xB8, symBinAddr: 0x100009560, symSize: 0x40 }
  - { offset: 0x58AB6, size: 0x8, addend: 0x0, symName: __ZN8crashpad22CrashReportDatabaseMacD1Ev, symObjAddr: 0xF8, symBinAddr: 0x1000095A0, symSize: 0x40 }
  - { offset: 0x58B14, size: 0x8, addend: 0x0, symName: __ZN8crashpad22CrashReportDatabaseMacD0Ev, symObjAddr: 0x138, symBinAddr: 0x1000095E0, symSize: 0x40 }
  - { offset: 0x58E6B, size: 0x8, addend: 0x0, symName: __ZN8crashpad22CrashReportDatabaseMac10InitializeEb, symObjAddr: 0x178, symBinAddr: 0x100009620, symSize: 0x398 }
  - { offset: 0x59D9E, size: 0x8, addend: 0x0, symName: __ZN8crashpad22CrashReportDatabaseMac9XattrNameERKN4base16BasicStringPieceINSt3__112basic_stringIcNS3_11char_traitsIcEENS3_9allocatorIcEEEEEE, symObjAddr: 0x798, symBinAddr: 0x100009C40, symSize: 0x84 }
  - { offset: 0x59EBB, size: 0x8, addend: 0x0, symName: __ZN8crashpad22CrashReportDatabaseMac12DatabasePathEv, symObjAddr: 0x81C, symBinAddr: 0x100009CC4, symSize: 0xC }
  - { offset: 0x5A0EC, size: 0x8, addend: 0x0, symName: __ZN8crashpad22CrashReportDatabaseMac11GetSettingsEv, symObjAddr: 0x828, symBinAddr: 0x100009CD0, symSize: 0x5C }
  - { offset: 0x5A4B1, size: 0x8, addend: 0x0, symName: __ZN8crashpad22CrashReportDatabaseMac21PrepareNewCrashReportEPNSt3__110unique_ptrINS_19CrashReportDatabase9NewReportENS1_14default_deleteIS4_EEEE, symObjAddr: 0x8E0, symBinAddr: 0x100009D88, symSize: 0x2CC }
  - { offset: 0x5B4D7, size: 0x8, addend: 0x0, symName: __ZNSt3__110unique_ptrIN8crashpad19CrashReportDatabase9NewReportENS_14default_deleteIS3_EEED1B8ne190102Ev, symObjAddr: 0xBAC, symBinAddr: 0x10000A054, symSize: 0x3C }
  - { offset: 0x5B7D2, size: 0x8, addend: 0x0, symName: __ZN8crashpad22CrashReportDatabaseMac26FinishedWritingCrashReportENSt3__110unique_ptrINS_19CrashReportDatabase9NewReportENS1_14default_deleteIS4_EEEEPNS_4UUIDE, symObjAddr: 0xBE8, symBinAddr: 0x10000A090, symSize: 0x5F0 }
  - { offset: 0x5CF6A, size: 0x8, addend: 0x0, symName: __ZN4base13ScopedGenericINS_8FilePathEN8crashpad22ScopedRemoveFileTraitsEE7releaseEv, symObjAddr: 0x11D8, symBinAddr: 0x10000A680, symSize: 0x80 }
  - { offset: 0x5D10D, size: 0x8, addend: 0x0, symName: __ZN8crashpad22CrashReportDatabaseMac17LookUpCrashReportERKNS_4UUIDEPNS_19CrashReportDatabase6ReportE, symObjAddr: 0x1258, symBinAddr: 0x10000A700, symSize: 0x178 }
  - { offset: 0x5D4B4, size: 0x8, addend: 0x0, symName: __ZN8crashpad22CrashReportDatabaseMac17LocateCrashReportERKNS_4UUIDEh, symObjAddr: 0x13D0, symBinAddr: 0x10000A878, symSize: 0x6BC }
  - { offset: 0x5F8B2, size: 0x8, addend: 0x0, symName: __ZN8crashpad22CrashReportDatabaseMac16ObtainReportLockERKN4base8FilePathE, symObjAddr: 0x1A8C, symBinAddr: 0x10000AF34, symSize: 0xF4 }
  - { offset: 0x5FB24, size: 0x8, addend: 0x0, symName: __ZN8crashpad22CrashReportDatabaseMac24ReadReportMetadataLockedERKN4base8FilePathEPNS_19CrashReportDatabase6ReportE, symObjAddr: 0x1BD0, symBinAddr: 0x10000B028, symSize: 0x604 }
  - { offset: 0x6202F, size: 0x8, addend: 0x0, symName: __ZNSt3__16vectorINS_12basic_stringIcNS_11char_traitsIcEENS_9allocatorIcEEEENS4_IS6_EEED1B8ne190102Ev, symObjAddr: 0x34F4, symBinAddr: 0x10000C910, symSize: 0x70 }
  - { offset: 0x6238B, size: 0x8, addend: 0x0, symName: __ZN8crashpad22CrashReportDatabaseMac17GetPendingReportsEPNSt3__16vectorINS_19CrashReportDatabase6ReportENS1_9allocatorIS4_EEEE, symObjAddr: 0x2210, symBinAddr: 0x10000B62C, symSize: 0xCC }
  - { offset: 0x62730, size: 0x8, addend: 0x0, symName: __ZN8crashpad22CrashReportDatabaseMac18ReportsInDirectoryERKN4base8FilePathEPNSt3__16vectorINS_19CrashReportDatabase6ReportENS5_9allocatorIS8_EEEE, symObjAddr: 0x22DC, symBinAddr: 0x10000B6F8, symSize: 0x5E0 }
  - { offset: 0x63628, size: 0x8, addend: 0x0, symName: __ZNSt3__16vectorIN8crashpad19CrashReportDatabase6ReportENS_9allocatorIS3_EEE7reserveEm, symObjAddr: 0x3F48, symBinAddr: 0x10000D364, symSize: 0xF8 }
  - { offset: 0x639DD, size: 0x8, addend: 0x0, symName: __ZNSt3__16vectorIN8crashpad19CrashReportDatabase6ReportENS_9allocatorIS3_EEE21__push_back_slow_pathIRKS3_EEPS3_OT_, symObjAddr: 0x4984, symBinAddr: 0x10000D6B0, symSize: 0x1AC }
  - { offset: 0x64012, size: 0x8, addend: 0x0, symName: __ZNSt3__16vectorIN8crashpad19CrashReportDatabase6ReportENS_9allocatorIS3_EEE21__push_back_slow_pathIRKS3_EEPS3_OT_, symObjAddr: 0x4984, symBinAddr: 0x10000D6B0, symSize: 0x1AC }
  - { offset: 0x64023, size: 0x8, addend: 0x0, symName: __ZN8crashpad22CrashReportDatabaseMac19GetCompletedReportsEPNSt3__16vectorINS_19CrashReportDatabase6ReportENS1_9allocatorIS4_EEEE, symObjAddr: 0x28BC, symBinAddr: 0x10000BCD8, symSize: 0xC8 }
  - { offset: 0x64593, size: 0x8, addend: 0x0, symName: __ZN8crashpad22CrashReportDatabaseMac21GetReportForUploadingERKNS_4UUIDEPNSt3__110unique_ptrIKNS_19CrashReportDatabase12UploadReportENS4_14default_deleteIS8_EEEEb, symObjAddr: 0x2984, symBinAddr: 0x10000BDA0, symSize: 0x218 }
  - { offset: 0x649FB, size: 0x8, addend: 0x0, symName: __ZN8crashpad22CrashReportDatabaseMac19RecordUploadAttemptEPNS_19CrashReportDatabase12UploadReportEbRKNSt3__112basic_stringIcNS4_11char_traitsIcEENS4_9allocatorIcEEEE, symObjAddr: 0x2B9C, symBinAddr: 0x10000BFB8, symSize: 0x404 }
  - { offset: 0x65A2E, size: 0x8, addend: 0x0, symName: __ZN8crashpad22CrashReportDatabaseMac25MarkReportCompletedLockedERKN4base8FilePathEPS2_, symObjAddr: 0x2FA0, symBinAddr: 0x10000C3BC, symSize: 0x300 }
  - { offset: 0x66585, size: 0x8, addend: 0x0, symName: __ZN8crashpad22CrashReportDatabaseMac16SkipReportUploadERKNS_4UUIDENS_7Metrics18CrashSkippedReasonE, symObjAddr: 0x32A0, symBinAddr: 0x10000C6BC, symSize: 0xE0 }
  - { offset: 0x6675B, size: 0x8, addend: 0x0, symName: __ZN8crashpad22CrashReportDatabaseMac12DeleteReportERKNS_4UUIDE, symObjAddr: 0x3380, symBinAddr: 0x10000C79C, symSize: 0x174 }
  - { offset: 0x66AB6, size: 0x8, addend: 0x0, symName: __ZN8crashpad22CrashReportDatabaseMac13RequestUploadERKNS_4UUIDE, symObjAddr: 0x3564, symBinAddr: 0x10000C980, symSize: 0x470 }
  - { offset: 0x67A69, size: 0x8, addend: 0x0, symName: __ZN8crashpad22CrashReportDatabaseMac13CleanDatabaseEl, symObjAddr: 0x39D4, symBinAddr: 0x10000CDF0, symSize: 0x184 }
  - { offset: 0x67EF7, size: 0x8, addend: 0x0, symName: __ZN8crashpad22CrashReportDatabaseMac24CleanOrphanedAttachmentsEv, symObjAddr: 0x3B58, symBinAddr: 0x10000CF74, symSize: 0x3F0 }
  - { offset: 0x6941A, size: 0x8, addend: 0x0, symName: __ZN8crashpad19CrashReportDatabase10InitializeERKN4base8FilePathE, symObjAddr: 0x4120, symBinAddr: 0x10000D53C, symSize: 0x8 }
  - { offset: 0x69462, size: 0x8, addend: 0x0, symName: __ZN8crashpad19CrashReportDatabase25InitializeWithoutCreatingERKN4base8FilePathE, symObjAddr: 0x4128, symBinAddr: 0x10000D544, symSize: 0x8 }
  - { offset: 0x694C0, size: 0x8, addend: 0x0, symName: __ZNSt3__117__call_once_paramINS_5tupleIJOZN8crashpad22CrashReportDatabaseMac16SettingsInternalEvEUlvE_EEEE9__executeB8ne190102IJEEEvNS_15__tuple_indicesIJXspT_EEEE, symObjAddr: 0x4134, symBinAddr: 0x10000D550, symSize: 0xC4 }
  - { offset: 0x69CD2, size: 0x8, addend: 0x0, symName: __ZN8crashpad22CrashReportDatabaseMac15UploadReportMacD1Ev, symObjAddr: 0x45C4, symBinAddr: 0x10000D614, symSize: 0x4C }
  - { offset: 0x69D82, size: 0x8, addend: 0x0, symName: __ZN8crashpad22CrashReportDatabaseMac15UploadReportMacD0Ev, symObjAddr: 0x4610, symBinAddr: 0x10000D660, symSize: 0x50 }
  - { offset: 0x7B008, size: 0x8, addend: 0x0, symName: __ZN8crashpad14CrashpadClientC2Ev, symObjAddr: 0x0, symBinAddr: 0x10000D85C, symSize: 0x8 }
  - { offset: 0x7B02C, size: 0x8, addend: 0x0, symName: __ZN8crashpad14CrashpadClientC2Ev, symObjAddr: 0x0, symBinAddr: 0x10000D85C, symSize: 0x8 }
  - { offset: 0x7B04A, size: 0x8, addend: 0x0, symName: __ZN8crashpad14CrashpadClientC2Ev, symObjAddr: 0x0, symBinAddr: 0x10000D85C, symSize: 0x8 }
  - { offset: 0x7B067, size: 0x8, addend: 0x0, symName: __ZN8crashpad14CrashpadClientC2Ev, symObjAddr: 0x0, symBinAddr: 0x10000D85C, symSize: 0x8 }
  - { offset: 0x7B084, size: 0x8, addend: 0x0, symName: __ZN8crashpad14CrashpadClientC2Ev, symObjAddr: 0x0, symBinAddr: 0x10000D85C, symSize: 0x8 }
  - { offset: 0x7B0C4, size: 0x8, addend: 0x0, symName: __ZN8crashpad14CrashpadClientC1Ev, symObjAddr: 0x8, symBinAddr: 0x10000D864, symSize: 0x8 }
  - { offset: 0x7B0F3, size: 0x8, addend: 0x0, symName: __ZN8crashpad14CrashpadClientC1Ev, symObjAddr: 0x8, symBinAddr: 0x10000D864, symSize: 0x8 }
  - { offset: 0x7B111, size: 0x8, addend: 0x0, symName: __ZN8crashpad14CrashpadClientC1Ev, symObjAddr: 0x8, symBinAddr: 0x10000D864, symSize: 0x8 }
  - { offset: 0x7B12F, size: 0x8, addend: 0x0, symName: __ZN8crashpad14CrashpadClientC1Ev, symObjAddr: 0x8, symBinAddr: 0x10000D864, symSize: 0x8 }
  - { offset: 0x7B14C, size: 0x8, addend: 0x0, symName: __ZN8crashpad14CrashpadClientC1Ev, symObjAddr: 0x8, symBinAddr: 0x10000D864, symSize: 0x8 }
  - { offset: 0x7B169, size: 0x8, addend: 0x0, symName: __ZN8crashpad14CrashpadClientC1Ev, symObjAddr: 0x8, symBinAddr: 0x10000D864, symSize: 0x8 }
  - { offset: 0x7B1D2, size: 0x8, addend: 0x0, symName: __ZN8crashpad14CrashpadClientD2Ev, symObjAddr: 0x10, symBinAddr: 0x10000D86C, symSize: 0x34 }
  - { offset: 0x7B244, size: 0x8, addend: 0x0, symName: __ZN4base13ScopedGenericIjNS_5apple8internal15SendRightTraitsEED1Ev, symObjAddr: 0x44, symBinAddr: 0x10000D8A0, symSize: 0x34 }
  - { offset: 0x7B2BA, size: 0x8, addend: 0x0, symName: __ZN8crashpad14CrashpadClientD1Ev, symObjAddr: 0x78, symBinAddr: 0x10000D8D4, symSize: 0x34 }
  - { offset: 0x7C098, size: 0x8, addend: 0x0, symName: __ZN8crashpad14CrashpadClient12StartHandlerERKN4base8FilePathES4_S4_RKNSt3__112basic_stringIcNS5_11char_traitsIcEENS5_9allocatorIcEEEESD_RKNS5_3mapISB_SB_NS5_4lessISB_EENS9_INS5_4pairISC_SB_EEEEEERKNS5_6vectorISB_NS9_ISB_EEEEbbRKNSN_IS2_NS9_IS2_EEEES4_b, symObjAddr: 0xAC, symBinAddr: 0x10000D908, symSize: 0x688 }
  - { offset: 0x7D5FD, size: 0x8, addend: 0x0, symName: __ZN8crashpad12_GLOBAL__N_114HandlerStarterD1Ev, symObjAddr: 0x1F14, symBinAddr: 0x10000F760, symSize: 0x10C }
  - { offset: 0x7DD92, size: 0x8, addend: 0x0, symName: __ZN8crashpad12_GLOBAL__N_114HandlerStarter11CommonStartERKN4base8FilePathES5_S5_RKNSt3__112basic_stringIcNS6_11char_traitsIcEENS6_9allocatorIcEEEESE_RKNS6_3mapISC_SC_NS6_4lessISC_EENSA_INS6_4pairISD_SC_EEEEEERKNS6_6vectorISC_NSA_ISC_EEEERKNSO_IS3_NSA_IS3_EEEENS2_13ScopedGenericIjNS2_5apple8internal18ReceiveRightTraitsEEEPS1_b, symObjAddr: 0xA8C, symBinAddr: 0x10000E2E8, symSize: 0x1408 }
  - { offset: 0x83BC5, size: 0x8, addend: 0x0, symName: __ZNSt3__16__treeINS_12__value_typeINS_12basic_stringIcNS_11char_traitsIcEENS_9allocatorIcEEEES7_EENS_19__map_value_compareIS7_S8_NS_4lessIS7_EELb1EEENS5_IS8_EEE14__assign_multiINS_21__tree_const_iteratorIS8_PNS_11__tree_nodeIS8_PvEElEEEEvT_SM_, symObjAddr: 0x2A94, symBinAddr: 0x10000FDD8, symSize: 0x354 }
  - { offset: 0x84278, size: 0x8, addend: 0x0, symName: __ZNSt3__16vectorINS_12basic_stringIcNS_11char_traitsIcEENS_9allocatorIcEEEENS4_IS6_EEE18__assign_with_sizeB8ne190102IPS6_SA_EEvT_T0_l, symObjAddr: 0x3274, symBinAddr: 0x100010404, symSize: 0x2F4 }
  - { offset: 0x85045, size: 0x8, addend: 0x0, symName: __ZNSt3__16vectorIN4base8FilePathENS_9allocatorIS2_EEE18__assign_with_sizeB8ne190102IPS2_S7_EEvT_T0_l, symObjAddr: 0x35C4, symBinAddr: 0x100010754, symSize: 0x280 }
  - { offset: 0x85C23, size: 0x8, addend: 0x0, symName: __ZN8crashpad12_GLOBAL__N_124ScopedPthreadAttrDestroyD1Ev, symObjAddr: 0x29F8, symBinAddr: 0x10000FD3C, symSize: 0x9C }
  - { offset: 0x85D03, size: 0x8, addend: 0x0, symName: __ZNSt3__16vectorIN4base8FilePathENS_9allocatorIS2_EEED1B8ne190102Ev, symObjAddr: 0x2020, symBinAddr: 0x10000F86C, symSize: 0x58 }
  - { offset: 0x8601C, size: 0x8, addend: 0x0, symName: __ZNSt3__16__treeINS_12__value_typeINS_12basic_stringIcNS_11char_traitsIcEENS_9allocatorIcEEEES7_EENS_19__map_value_compareIS7_S8_NS_4lessIS7_EELb1EEENS5_IS8_EEE7destroyEPNS_11__tree_nodeIS8_PvEE, symObjAddr: 0x20E8, symBinAddr: 0x10000F8C4, symSize: 0x78 }
  - { offset: 0x863E5, size: 0x8, addend: 0x0, symName: __ZN4base13ScopedGenericIjNS_5apple8internal18ReceiveRightTraitsEED1Ev, symObjAddr: 0x1E94, symBinAddr: 0x10000F6F0, symSize: 0x34 }
  - { offset: 0x8643E, size: 0x8, addend: 0x0, symName: __ZNSt3__110unique_ptrIN8crashpad12_GLOBAL__N_114HandlerStarterENS_14default_deleteIS3_EEED1B8ne190102Ev, symObjAddr: 0x1EC8, symBinAddr: 0x10000F724, symSize: 0x3C }
  - { offset: 0x864E3, size: 0x8, addend: 0x0, symName: __ZN8crashpad14CrashpadClient18SetHandlerMachPortEN4base13ScopedGenericIjNS1_5apple8internal15SendRightTraitsEEE, symObjAddr: 0x734, symBinAddr: 0x10000DF90, symSize: 0x9C }
  - { offset: 0x86597, size: 0x8, addend: 0x0, symName: __ZN8crashpad14CrashpadClient21SetHandlerMachServiceERKNSt3__112basic_stringIcNS1_11char_traitsIcEENS1_9allocatorIcEEEE, symObjAddr: 0x7D0, symBinAddr: 0x10000E02C, symSize: 0x108 }
  - { offset: 0x86820, size: 0x8, addend: 0x0, symName: __ZNK8crashpad14CrashpadClient18GetHandlerMachPortEv, symObjAddr: 0x8D8, symBinAddr: 0x10000E134, symSize: 0xCC }
  - { offset: 0x869C0, size: 0x8, addend: 0x0, symName: __ZN8crashpad14CrashpadClient23UseSystemDefaultHandlerEv, symObjAddr: 0x9A4, symBinAddr: 0x10000E200, symSize: 0xE8 }
  - { offset: 0x87879, size: 0x8, addend: 0x0, symName: __ZNSt3__114__split_bufferINS_12basic_stringIcNS_11char_traitsIcEENS_9allocatorIcEEEERNS4_IS6_EEED1Ev, symObjAddr: 0x2770, symBinAddr: 0x10000FAB4, symSize: 0x64 }
  - { offset: 0x8788A, size: 0x8, addend: 0x0, symName: __ZNSt3__16vectorINS_12basic_stringIcNS_11char_traitsIcEENS_9allocatorIcEEEENS4_IS6_EEE21__push_back_slow_pathIRKS6_EEPS6_OT_, symObjAddr: 0x27D4, symBinAddr: 0x10000FB18, symSize: 0x158 }
  - { offset: 0x87DC4, size: 0x8, addend: 0x0, symName: __ZNSt3__128__exception_guard_exceptionsINS_6vectorINS_12basic_stringIcNS_11char_traitsIcEENS_9allocatorIcEEEENS5_IS7_EEE16__destroy_vectorEED1B8ne190102Ev, symObjAddr: 0x2650, symBinAddr: 0x10000FA34, symSize: 0x80 }
  - { offset: 0x882D1, size: 0x8, addend: 0x0, symName: __ZN8crashpad12_GLOBAL__N_114HandlerStarter25DoMachNotifyPortDestroyedEjjPK18mach_msg_trailer_tPb, symObjAddr: 0x2160, symBinAddr: 0x10000F93C, symSize: 0xF8 }
  - { offset: 0x8888C, size: 0x8, addend: 0x0, symName: __ZNSt3__114__split_bufferINS_12basic_stringIcNS_11char_traitsIcEENS_9allocatorIcEEEERNS4_IS6_EEED1Ev, symObjAddr: 0x2770, symBinAddr: 0x10000FAB4, symSize: 0x64 }
  - { offset: 0x88BD0, size: 0x8, addend: 0x0, symName: __ZN8crashpad12_GLOBAL__N_114HandlerStarter17RestartThreadMainEPv, symObjAddr: 0x292C, symBinAddr: 0x10000FC70, symSize: 0xCC }
  - { offset: 0x890C0, size: 0x8, addend: 0x0, symName: __ZNSt3__16__treeINS_12__value_typeINS_12basic_stringIcNS_11char_traitsIcEENS_9allocatorIcEEEES7_EENS_19__map_value_compareIS7_S8_NS_4lessIS7_EELb1EEENS5_IS8_EEE15__emplace_multiIJRKNS_4pairIKS7_S7_EEEEENS_15__tree_iteratorIS8_PNS_11__tree_nodeIS8_PvEElEEDpOT_, symObjAddr: 0x2FF0, symBinAddr: 0x100010180, symSize: 0x134 }
  - { offset: 0x893EC, size: 0x8, addend: 0x0, symName: __ZNSt3__16__treeINS_12__value_typeINS_12basic_stringIcNS_11char_traitsIcEENS_9allocatorIcEEEES7_EENS_19__map_value_compareIS7_S8_NS_4lessIS7_EELb1EEENS5_IS8_EEE18_DetachedTreeCacheD1B8ne190102Ev, symObjAddr: 0x2DE8, symBinAddr: 0x10001012C, symSize: 0x54 }
  - { offset: 0x894CB, size: 0x8, addend: 0x0, symName: __ZNSt3__16__treeINS_12__value_typeINS_12basic_stringIcNS_11char_traitsIcEENS_9allocatorIcEEEES7_EENS_19__map_value_compareIS7_S8_NS_4lessIS7_EELb1EEENS5_IS8_EEE16__construct_nodeIJRKNS_4pairIKS7_S7_EEEEENS_10unique_ptrINS_11__tree_nodeIS8_PvEENS_22__tree_node_destructorINS5_ISO_EEEEEEDpOT_, symObjAddr: 0x3124, symBinAddr: 0x1000102B4, symSize: 0xE4 }
  - { offset: 0x89B96, size: 0x8, addend: 0x0, symName: __ZNSt3__110unique_ptrINS_11__tree_nodeINS_12__value_typeINS_12basic_stringIcNS_11char_traitsIcEENS_9allocatorIcEEEES8_EEPvEENS_22__tree_node_destructorINS6_ISB_EEEEED1B8ne190102Ev, symObjAddr: 0x3208, symBinAddr: 0x100010398, symSize: 0x6C }
  - { offset: 0x8A251, size: 0x8, addend: 0x0, symName: __ZNSt3__128__exception_guard_exceptionsINS_29_AllocatorDestroyRangeReverseINS_9allocatorINS_12basic_stringIcNS_11char_traitsIcEENS2_IcEEEEEEPS7_EEED1B8ne190102Ev, symObjAddr: 0x3568, symBinAddr: 0x1000106F8, symSize: 0x5C }
  - { offset: 0xA03A3, size: 0x8, addend: 0x0, symName: __ZNSt3__113__tree_removeB8ne190102IPNS_16__tree_node_baseIPvEEEEvT_S5_, symObjAddr: 0x26C0, symBinAddr: 0x10001286C, symSize: 0x3C0 }
  - { offset: 0xAD255, size: 0x8, addend: 0x0, symName: __ZN8crashpad23CrashReportUploadThread12UploadReportEPKNS_19CrashReportDatabase12UploadReportEPNSt3__112basic_stringIcNS5_11char_traitsIcEENS5_9allocatorIcEEEE, symObjAddr: 0xCCC, symBinAddr: 0x1000115D0, symSize: 0xB50 }
  - { offset: 0xAD27D, size: 0x8, addend: 0x0, symName: __ZZN8crashpad23CrashReportUploadThread12UploadReportEPKNS_19CrashReportDatabase12UploadReportEPNSt3__112basic_stringIcNS5_11char_traitsIcEENS5_9allocatorIcEEEEE12kMinidumpKey, symObjAddr: 0x2DB0, symBinAddr: 0x100077D80, symSize: 0x0 }
  - { offset: 0xAD294, size: 0x8, addend: 0x0, symName: __ZZN8crashpad23CrashReportUploadThread12UploadReportEPKNS_19CrashReportDatabase12UploadReportEPNSt3__112basic_stringIcNS5_11char_traitsIcEENS5_9allocatorIcEEEEE21kURLParameterMappings, symObjAddr: 0x2D28, symBinAddr: 0x100080578, symSize: 0x0 }
  - { offset: 0xB13C4, size: 0x8, addend: 0x0, symName: __ZN8crashpad23CrashReportUploadThreadC2EPNS_19CrashReportDatabaseENSt3__112basic_stringIcNS3_11char_traitsIcEENS3_9allocatorIcEEEES9_RKNS0_7OptionsENS3_8functionIFvvEEE, symObjAddr: 0x0, symBinAddr: 0x1000109D4, symSize: 0x1B4 }
  - { offset: 0xB1A34, size: 0x8, addend: 0x0, symName: __ZN8crashpad23CrashReportUploadThreadC1EPNS_19CrashReportDatabaseENSt3__112basic_stringIcNS3_11char_traitsIcEENS3_9allocatorIcEEEES9_RKNS0_7OptionsENS3_8functionIFvvEEE, symObjAddr: 0x1B4, symBinAddr: 0x100010B88, symSize: 0x4 }
  - { offset: 0xB1AA5, size: 0x8, addend: 0x0, symName: __ZN8crashpad23CrashReportUploadThreadC1EPNS_19CrashReportDatabaseENSt3__112basic_stringIcNS3_11char_traitsIcEENS3_9allocatorIcEEEES9_RKNS0_7OptionsENS3_8functionIFvvEEE, symObjAddr: 0x1B4, symBinAddr: 0x100010B88, symSize: 0x4 }
  - { offset: 0xB1BCA, size: 0x8, addend: 0x0, symName: __ZN8crashpad23CrashReportUploadThreadD2Ev, symObjAddr: 0x1B8, symBinAddr: 0x100010B8C, symSize: 0xC0 }
  - { offset: 0xB20DF, size: 0x8, addend: 0x0, symName: __ZNSt3__16__treeINS_12__value_typeIN8crashpad4UUIDElEENS_19__map_value_compareIS3_S4_NS_4lessIS3_EELb1EEENS_9allocatorIS4_EEE7destroyEPNS_11__tree_nodeIS4_PvEE, symObjAddr: 0x20E8, symBinAddr: 0x10001262C, symSize: 0x44 }
  - { offset: 0xB2229, size: 0x8, addend: 0x0, symName: __ZN8crashpad23CrashReportUploadThreadD1Ev, symObjAddr: 0x278, symBinAddr: 0x100010C4C, symSize: 0x4 }
  - { offset: 0xB224C, size: 0x8, addend: 0x0, symName: __ZN8crashpad23CrashReportUploadThreadD1Ev, symObjAddr: 0x278, symBinAddr: 0x100010C4C, symSize: 0x4 }
  - { offset: 0xB2280, size: 0x8, addend: 0x0, symName: __ZThn8_N8crashpad23CrashReportUploadThreadD1Ev, symObjAddr: 0x27C, symBinAddr: 0x100010C50, symSize: 0x8 }
  - { offset: 0xB22C2, size: 0x8, addend: 0x0, symName: __ZN8crashpad23CrashReportUploadThreadD0Ev, symObjAddr: 0x284, symBinAddr: 0x100010C58, symSize: 0x14 }
  - { offset: 0xB2333, size: 0x8, addend: 0x0, symName: __ZThn8_N8crashpad23CrashReportUploadThreadD0Ev, symObjAddr: 0x298, symBinAddr: 0x100010C6C, symSize: 0x18 }
  - { offset: 0xB23A9, size: 0x8, addend: 0x0, symName: __ZN8crashpad23CrashReportUploadThread13ReportPendingERKNS_4UUIDE, symObjAddr: 0x2B0, symBinAddr: 0x100010C84, symSize: 0x40 }
  - { offset: 0xB2419, size: 0x8, addend: 0x0, symName: __ZN8crashpad16ThreadSafeVectorINS_4UUIDEE8PushBackERKS1_, symObjAddr: 0x2F0, symBinAddr: 0x100010CC4, symSize: 0x128 }
  - { offset: 0xB2D01, size: 0x8, addend: 0x0, symName: __ZNSt3__16__treeINS_12__value_typeIN8crashpad4UUIDElEENS_19__map_value_compareIS3_S4_NS_4lessIS3_EELb1EEENS_9allocatorIS4_EEE25__emplace_unique_key_argsIS3_JRKNS_21piecewise_construct_tENS_5tupleIJRKS3_EEENSG_IJEEEEEENS_4pairINS_15__tree_iteratorIS4_PNS_11__tree_nodeIS4_PvEElEEbEERKT_DpOT0_, symObjAddr: 0x244C, symBinAddr: 0x100012670, symSize: 0x108 }
  - { offset: 0xB2D0C, size: 0x8, addend: 0x0, symName: __ZN8crashpad23CrashReportUploadThread5StartEv, symObjAddr: 0x418, symBinAddr: 0x100010DEC, symSize: 0x20 }
  - { offset: 0xB2D47, size: 0x8, addend: 0x0, symName: __ZThn8_N8crashpad23CrashReportUploadThread5StartEv, symObjAddr: 0x438, symBinAddr: 0x100010E0C, symSize: 0x20 }
  - { offset: 0xB2D61, size: 0x8, addend: 0x0, symName: __ZThn8_N8crashpad23CrashReportUploadThread5StartEv, symObjAddr: 0x438, symBinAddr: 0x100010E0C, symSize: 0x20 }
  - { offset: 0xB2D7D, size: 0x8, addend: 0x0, symName: __ZN8crashpad23CrashReportUploadThread4StopEv, symObjAddr: 0x458, symBinAddr: 0x100010E2C, symSize: 0x8 }
  - { offset: 0xB2DB8, size: 0x8, addend: 0x0, symName: __ZThn8_N8crashpad23CrashReportUploadThread4StopEv, symObjAddr: 0x460, symBinAddr: 0x100010E34, symSize: 0x8 }
  - { offset: 0xB2DD2, size: 0x8, addend: 0x0, symName: __ZThn8_N8crashpad23CrashReportUploadThread4StopEv, symObjAddr: 0x460, symBinAddr: 0x100010E34, symSize: 0x8 }
  - { offset: 0xB30E3, size: 0x8, addend: 0x0, symName: __ZN8crashpad23CrashReportUploadThread21ProcessPendingReportsEv, symObjAddr: 0x468, symBinAddr: 0x100010E3C, symSize: 0x278 }
  - { offset: 0xB3BEF, size: 0x8, addend: 0x0, symName: __ZN8crashpad23CrashReportUploadThread20ProcessPendingReportERKNS_19CrashReportDatabase6ReportE, symObjAddr: 0x6E0, symBinAddr: 0x1000110B4, symSize: 0x354 }
  - { offset: 0xB4CF7, size: 0x8, addend: 0x0, symName: __ZN8crashpad23CrashReportUploadThread20ShouldRateLimitRetryERKNS_19CrashReportDatabase6ReportE, symObjAddr: 0xBE4, symBinAddr: 0x1000114E8, symSize: 0xE8 }
  - { offset: 0xB4F56, size: 0x8, addend: 0x0, symName: __ZNSt3__16__treeINS_12__value_typeIN8crashpad4UUIDElEENS_19__map_value_compareIS3_S4_NS_4lessIS3_EELb1EEENS_9allocatorIS4_EEE25__emplace_unique_key_argsIS3_JRKNS_21piecewise_construct_tENS_5tupleIJRKS3_EEENSG_IJEEEEEENS_4pairINS_15__tree_iteratorIS4_PNS_11__tree_nodeIS4_PvEElEEbEERKT_DpOT0_, symObjAddr: 0x244C, symBinAddr: 0x100012670, symSize: 0x108 }
  - { offset: 0xB5324, size: 0x8, addend: 0x0, symName: __ZN8crashpad23CrashReportUploadThread21ShouldRateLimitUploadERKNS_19CrashReportDatabase6ReportE, symObjAddr: 0xB04, symBinAddr: 0x100011408, symSize: 0xE0 }
  - { offset: 0xB554B, size: 0x8, addend: 0x0, symName: __ZNSt3__16__treeINS_12__value_typeIN8crashpad4UUIDElEENS_19__map_value_compareIS3_S4_NS_4lessIS3_EELb1EEENS_9allocatorIS4_EEE14__erase_uniqueIS3_EEmRKT_, symObjAddr: 0x25CC, symBinAddr: 0x100012778, symSize: 0xF4 }
  - { offset: 0xB6F39, size: 0x8, addend: 0x0, symName: __ZNSt3__16__treeINS_12__value_typeINS_12basic_stringIcNS_11char_traitsIcEENS_9allocatorIcEEEEPN8crashpad10FileReaderEEENS_19__map_value_compareIS7_SB_NS_4lessIS7_EELb1EEENS5_ISB_EEE30__emplace_hint_unique_key_argsIS7_JRKNS_4pairIKS7_SA_EEEEENSJ_INS_15__tree_iteratorISB_PNS_11__tree_nodeISB_PvEElEEbEENS_21__tree_const_iteratorISB_SS_lEERKT_DpOT0_, symObjAddr: 0x1830, symBinAddr: 0x100012124, symSize: 0x110 }
  - { offset: 0xB7657, size: 0x8, addend: 0x0, symName: __ZN8crashpad23CrashReportUploadThread6DoWorkEPKNS_12WorkerThreadE, symObjAddr: 0x181C, symBinAddr: 0x100012120, symSize: 0x4 }
  - { offset: 0xB768E, size: 0x8, addend: 0x0, symName: __ZN8crashpad23CrashReportUploadThread6DoWorkEPKNS_12WorkerThreadE, symObjAddr: 0x181C, symBinAddr: 0x100012120, symSize: 0x4 }
  - { offset: 0xB79C0, size: 0x8, addend: 0x0, symName: __ZNSt3__16__treeINS_12__value_typeINS_12basic_stringIcNS_11char_traitsIcEENS_9allocatorIcEEEEPN8crashpad10FileReaderEEENS_19__map_value_compareIS7_SB_NS_4lessIS7_EELb1EEENS5_ISB_EEE12__find_equalIS7_EERPNS_16__tree_node_baseIPvEENS_21__tree_const_iteratorISB_PNS_11__tree_nodeISB_SK_EElEERPNS_15__tree_end_nodeISM_EESN_RKT_, symObjAddr: 0x1940, symBinAddr: 0x100012234, symSize: 0x3F8 }
  - { offset: 0xBC3E1, size: 0x8, addend: 0x0, symName: __ZN8crashpad11HandlerMainEiPPcPKNSt3__16vectorINS2_10unique_ptrINS_20UserStreamDataSourceENS2_14default_deleteIS5_EEEENS2_9allocatorIS8_EEEE, symObjAddr: 0x0, symBinAddr: 0x100012C2C, symSize: 0x1174 }
  - { offset: 0xBC40D, size: 0x8, addend: 0x0, symName: __ZZN8crashpad11HandlerMainEiPPcPKNSt3__16vectorINS2_10unique_ptrINS_20UserStreamDataSourceENS2_14default_deleteIS5_EEEENS2_9allocatorIS8_EEEEE12long_options, symObjAddr: 0x3D70, symBinAddr: 0x100080600, symSize: 0x0 }
  - { offset: 0xC0583, size: 0x8, addend: 0x0, symName: __MergedGlobals, symObjAddr: 0xB0900, symBinAddr: 0x100088B70, symSize: 0x0 }
  - { offset: 0xC072B, size: 0x8, addend: 0x0, symName: __ZN8crashpad12_GLOBAL__N_116AddKeyValueToMapEPNSt3__13mapINS1_12basic_stringIcNS1_11char_traitsIcEENS1_9allocatorIcEEEES8_NS1_4lessIS8_EENS6_INS1_4pairIKS8_S8_EEEEEERSC_PKc, symObjAddr: 0x1174, symBinAddr: 0x100013DA0, symSize: 0x260 }
  - { offset: 0xC14E2, size: 0x8, addend: 0x0, symName: __ZN8crashpad12_GLOBAL__N_111MonitorSelfERKNS0_7OptionsE, symObjAddr: 0x13D4, symBinAddr: 0x100014000, symSize: 0xA84 }
  - { offset: 0xC3B69, size: 0x8, addend: 0x0, symName: __ZN8crashpad12_GLOBAL__N_113HandleSIGTERMEiP9__siginfoPv, symObjAddr: 0x2664, symBinAddr: 0x100015220, symSize: 0xC }
  - { offset: 0xC3BAC, size: 0x8, addend: 0x0, symName: __ZN8crashpad12_GLOBAL__N_117HandleCrashSignalEiP9__siginfoPv, symObjAddr: 0x2840, symBinAddr: 0x1000153FC, symSize: 0x194 }
  - { offset: 0xC3E11, size: 0x8, addend: 0x0, symName: __ZN8crashpad12_GLOBAL__N_121HandleTerminateSignalEiP9__siginfoPv, symObjAddr: 0x29D4, symBinAddr: 0x100015590, symSize: 0x40 }
  - { offset: 0xC4F6B, size: 0x8, addend: 0x0, symName: __ZN8crashpad18MapInsertOrReplaceINSt3__13mapINS1_12basic_stringIcNS1_11char_traitsIcEENS1_9allocatorIcEEEES8_NS1_4lessIS8_EENS6_INS1_4pairIKS8_S8_EEEEEEEEbPT_RKNSG_8key_typeERKNSG_11mapped_typeEPSL_, symObjAddr: 0x2DE0, symBinAddr: 0x1000155D0, symSize: 0x144 }
  - { offset: 0xD32E7, size: 0x8, addend: 0x0, symName: __ZNSt3__111make_uniqueB8ne190102IN8crashpad27CrashReportExceptionHandlerEJPNS1_19CrashReportDatabaseEPNS1_23CrashReportUploadThreadEPNS_3mapINS_12basic_stringIcNS_11char_traitsIcEENS_9allocatorIcEEEESD_NS_4lessISD_EENSB_INS_4pairIKSD_SD_EEEEEEPNS_6vectorIN4base8FilePathENSB_ISO_EEEERPKNSM_INS_10unique_ptrINS1_20UserStreamDataSourceENS_14default_deleteIST_EEEENSB_ISW_EEEEEEENS_11__unique_ifIT_E15__unique_singleEDpOT0_, symObjAddr: 0x24A4, symBinAddr: 0x1000150D0, symSize: 0x84 }
  - { offset: 0xD873C, size: 0x8, addend: 0x0, symName: __ZNSt3__16vectorIN4base8FilePathENS_9allocatorIS2_EEE21__push_back_slow_pathIS2_EEPS2_OT_, symObjAddr: 0x36B0, symBinAddr: 0x100015A30, symSize: 0x1A8 }
  - { offset: 0xD8EFC, size: 0x8, addend: 0x0, symName: __ZN8crashpad12_GLOBAL__N_17OptionsD1Ev, symObjAddr: 0x2704, symBinAddr: 0x1000152C0, symSize: 0x10C }
  - { offset: 0xD982B, size: 0x8, addend: 0x0, symName: __ZN8crashpad23TSimpleStringDictionaryILm256ELm256ELm64EE11SetKeyValueEN4base16BasicStringPieceINSt3__112basic_stringIcNS4_11char_traitsIcEENS4_9allocatorIcEEEEEESB_, symObjAddr: 0x1E58, symBinAddr: 0x100014A84, symSize: 0x64C }
  - { offset: 0xD9D1D, size: 0x8, addend: 0x0, symName: __ZNSt3__110unique_ptrIN8crashpad27CrashReportExceptionHandlerENS_14default_deleteIS2_EEED1B8ne190102Ev, symObjAddr: 0x2528, symBinAddr: 0x100015154, symSize: 0x3C }
  - { offset: 0xD9DC6, size: 0x8, addend: 0x0, symName: __ZN4base13ScopedGenericIjNS_5apple8internal18ReceiveRightTraitsEE5resetERKj, symObjAddr: 0x2564, symBinAddr: 0x100015190, symSize: 0x48 }
  - { offset: 0xD9E58, size: 0x8, addend: 0x0, symName: __ZN4base13ScopedGenericIjNS_5apple8internal18ReceiveRightTraitsEEaSEOS4_, symObjAddr: 0x25E8, symBinAddr: 0x1000151D8, symSize: 0x48 }
  - { offset: 0xD9F34, size: 0x8, addend: 0x0, symName: __ZN4base13ScopedGenericIP9sigactionN8crashpad12_GLOBAL__N_118ResetSIGTERMTraitsEE5resetERKS2_, symObjAddr: 0x2670, symBinAddr: 0x10001522C, symSize: 0x44 }
  - { offset: 0xD9F7C, size: 0x8, addend: 0x0, symName: __ZN8crashpad12_GLOBAL__N_115ScopedStoppableD1Ev, symObjAddr: 0x26B4, symBinAddr: 0x100015270, symSize: 0x50 }
  - { offset: 0xD9F87, size: 0x8, addend: 0x0, symName: __ZN4base13ScopedGenericIP9sigactionN8crashpad12_GLOBAL__N_118ResetSIGTERMTraitsEE15FreeIfNecessaryEv, symObjAddr: 0x38BC, symBinAddr: 0x100015C28, symSize: 0xA4 }
  - { offset: 0xDA05F, size: 0x8, addend: 0x0, symName: __ZN8crashpad12_GLOBAL__N_115ScopedStoppableD1Ev, symObjAddr: 0x26B4, symBinAddr: 0x100015270, symSize: 0x50 }
  - { offset: 0xDA41C, size: 0x8, addend: 0x0, symName: __ZN8crashpad12_GLOBAL__N_127CallMetricsRecordNormalExitD1Ev, symObjAddr: 0x2810, symBinAddr: 0x1000153CC, symSize: 0x30 }
  - { offset: 0xDA993, size: 0x8, addend: 0x0, symName: __ZNSt3__16vectorINS_12basic_stringIcNS_11char_traitsIcEENS_9allocatorIcEEEENS4_IS6_EEE16__init_with_sizeB8ne190102IPS6_SA_EEvT_T0_m, symObjAddr: 0x337C, symBinAddr: 0x1000158F0, symSize: 0x140 }
  - { offset: 0xDB95E, size: 0x8, addend: 0x0, symName: __ZNSt3__16__treeINS_12__value_typeINS_12basic_stringIcNS_11char_traitsIcEENS_9allocatorIcEEEES7_EENS_19__map_value_compareIS7_S8_NS_4lessIS7_EELb1EEENS5_IS8_EEE25__emplace_unique_key_argsIS7_JNS_4pairIS7_S7_EEEEENSG_INS_15__tree_iteratorIS8_PNS_11__tree_nodeIS8_PvEElEEbEERKT_DpOT0_, symObjAddr: 0x2F7C, symBinAddr: 0x10001576C, symSize: 0x184 }
  - { offset: 0xDBF77, size: 0x8, addend: 0x0, symName: __ZNSt3__14pairINS_12basic_stringIcNS_11char_traitsIcEENS_9allocatorIcEEEES6_ED1Ev, symObjAddr: 0x2F24, symBinAddr: 0x100015714, symSize: 0x58 }
  - { offset: 0xDCF36, size: 0x8, addend: 0x0, symName: __ZN4base13ScopedGenericIP9sigactionN8crashpad12_GLOBAL__N_118ResetSIGTERMTraitsEE15FreeIfNecessaryEv, symObjAddr: 0x38BC, symBinAddr: 0x100015C28, symSize: 0xA4 }
  - { offset: 0xDCF41, size: 0x8, addend: 0x0, symName: __ZNSt3__114__split_bufferIN4base8FilePathERNS_9allocatorIS2_EEED1Ev, symObjAddr: 0x3858, symBinAddr: 0x100015BD8, symSize: 0x50 }
  - { offset: 0xEA077, size: 0x8, addend: 0x0, symName: __ZN8crashpad38BreakpadHTTPFormParametersFromMinidumpEPKNS_15ProcessSnapshotE, symObjAddr: 0x0, symBinAddr: 0x100015CCC, symSize: 0xDDC }
  - { offset: 0xEDF33, size: 0x8, addend: 0x0, symName: __ZN8crashpad12_GLOBAL__N_123InsertOrReplaceMapEntryEPNSt3__13mapINS1_12basic_stringIcNS1_11char_traitsIcEENS1_9allocatorIcEEEES8_NS1_4lessIS8_EENS6_INS1_4pairIKS8_S8_EEEEEERSC_SH_, symObjAddr: 0xEFC, symBinAddr: 0x100016B00, symSize: 0x120 }
  - { offset: 0xF07D6, size: 0x8, addend: 0x0, symName: __ZNSt3__13mapINS_12basic_stringIcNS_11char_traitsIcEENS_9allocatorIcEEEES6_NS_4lessIS6_EENS4_INS_4pairIKS6_S6_EEEEE6insertB8ne190102INS_20__map_const_iteratorINS_21__tree_const_iteratorINS_12__value_typeIS6_S6_EEPNS_11__tree_nodeISI_PvEElEEEEEEvT_SP_, symObjAddr: 0x1934, symBinAddr: 0x100016C20, symSize: 0xF8 }
  - { offset: 0xF081E, size: 0x8, addend: 0x0, symName: __ZNSt3__13mapINS_12basic_stringIcNS_11char_traitsIcEENS_9allocatorIcEEEES6_NS_4lessIS6_EENS4_INS_4pairIKS6_S6_EEEEE6insertB8ne190102INS_20__map_const_iteratorINS_21__tree_const_iteratorINS_12__value_typeIS6_S6_EEPNS_11__tree_nodeISI_PvEElEEEEEEvT_SP_, symObjAddr: 0x1934, symBinAddr: 0x100016C20, symSize: 0xF8 }
  - { offset: 0xF1223, size: 0x8, addend: 0x0, symName: __ZNSt3__16vectorIN8crashpad18AnnotationSnapshotENS_9allocatorIS2_EEED1B8ne190102Ev, symObjAddr: 0xEA4, symBinAddr: 0x100016AA8, symSize: 0x58 }
  - { offset: 0xF4BC9, size: 0x8, addend: 0x0, symName: __ZN8crashpad22PruneCrashReportThreadC2EPNS_19CrashReportDatabaseENSt3__110unique_ptrINS_14PruneConditionENS3_14default_deleteIS5_EEEE, symObjAddr: 0x0, symBinAddr: 0x100016D18, symSize: 0x60 }
  - { offset: 0xFACD2, size: 0x8, addend: 0x0, symName: __ZN8crashpad22PruneCrashReportThreadC2EPNS_19CrashReportDatabaseENSt3__110unique_ptrINS_14PruneConditionENS3_14default_deleteIS5_EEEE, symObjAddr: 0x0, symBinAddr: 0x100016D18, symSize: 0x60 }
  - { offset: 0xFAE18, size: 0x8, addend: 0x0, symName: __ZN8crashpad22PruneCrashReportThreadC1EPNS_19CrashReportDatabaseENSt3__110unique_ptrINS_14PruneConditionENS3_14default_deleteIS5_EEEE, symObjAddr: 0x60, symBinAddr: 0x100016D78, symSize: 0x60 }
  - { offset: 0xFAFF6, size: 0x8, addend: 0x0, symName: __ZN8crashpad22PruneCrashReportThreadD2Ev, symObjAddr: 0xC0, symBinAddr: 0x100016DD8, symSize: 0x50 }
  - { offset: 0xFB0DD, size: 0x8, addend: 0x0, symName: __ZN8crashpad22PruneCrashReportThreadD1Ev, symObjAddr: 0x110, symBinAddr: 0x100016E28, symSize: 0x50 }
  - { offset: 0xFB1E2, size: 0x8, addend: 0x0, symName: __ZThn8_N8crashpad22PruneCrashReportThreadD1Ev, symObjAddr: 0x160, symBinAddr: 0x100016E78, symSize: 0x48 }
  - { offset: 0xFB2E0, size: 0x8, addend: 0x0, symName: __ZN8crashpad22PruneCrashReportThreadD0Ev, symObjAddr: 0x1A8, symBinAddr: 0x100016EC0, symSize: 0x50 }
  - { offset: 0xFB403, size: 0x8, addend: 0x0, symName: __ZThn8_N8crashpad22PruneCrashReportThreadD0Ev, symObjAddr: 0x1F8, symBinAddr: 0x100016F10, symSize: 0x58 }
  - { offset: 0xFB521, size: 0x8, addend: 0x0, symName: __ZN8crashpad22PruneCrashReportThread5StartEv, symObjAddr: 0x250, symBinAddr: 0x100016F68, symSize: 0x14 }
  - { offset: 0xFB55C, size: 0x8, addend: 0x0, symName: __ZThn8_N8crashpad22PruneCrashReportThread5StartEv, symObjAddr: 0x264, symBinAddr: 0x100016F7C, symSize: 0x14 }
  - { offset: 0xFB592, size: 0x8, addend: 0x0, symName: __ZN8crashpad22PruneCrashReportThread4StopEv, symObjAddr: 0x278, symBinAddr: 0x100016F90, symSize: 0x8 }
  - { offset: 0xFB5CD, size: 0x8, addend: 0x0, symName: __ZThn8_N8crashpad22PruneCrashReportThread4StopEv, symObjAddr: 0x280, symBinAddr: 0x100016F98, symSize: 0x8 }
  - { offset: 0xFB5E7, size: 0x8, addend: 0x0, symName: __ZThn8_N8crashpad22PruneCrashReportThread4StopEv, symObjAddr: 0x280, symBinAddr: 0x100016F98, symSize: 0x8 }
  - { offset: 0xFB603, size: 0x8, addend: 0x0, symName: __ZN8crashpad22PruneCrashReportThread6DoWorkEPKNS_12WorkerThreadE, symObjAddr: 0x288, symBinAddr: 0x100016FA0, symSize: 0x38 }
  - { offset: 0xFD894, size: 0x8, addend: 0x0, symName: __ZN8crashpad23AddUserExtensionStreamsEPKNSt3__16vectorINS0_10unique_ptrINS_20UserStreamDataSourceENS0_14default_deleteIS3_EEEENS0_9allocatorIS6_EEEEPNS_15ProcessSnapshotEPNS_18MinidumpFileWriterE, symObjAddr: 0x0, symBinAddr: 0x100016FD8, symSize: 0x1A0 }
  - { offset: 0x10C173, size: 0x8, addend: 0x0, symName: __ZN8crashpad25RecordFileLimitAnnotationEv, symObjAddr: 0x0, symBinAddr: 0x100017178, symSize: 0x650 }
  - { offset: 0x10F259, size: 0x8, addend: 0x0, symName: __ZN8crashpad25RecordFileLimitAnnotationEv, symObjAddr: 0x0, symBinAddr: 0x100017178, symSize: 0x650 }
  - { offset: 0x1122D5, size: 0x8, addend: 0x0, symName: __ZN4base13ScopedGenericIP3DIRN8crashpad8internal20ScopedDIRCloseTraitsEED1Ev, symObjAddr: 0xC9C, symBinAddr: 0x1000177C8, symSize: 0x34 }
  - { offset: 0x1303CF, size: 0x8, addend: 0x0, symName: __ZN8crashpad27CrashReportExceptionHandlerC2EPNS_19CrashReportDatabaseEPNS_23CrashReportUploadThreadEPKNSt3__13mapINS5_12basic_stringIcNS5_11char_traitsIcEENS5_9allocatorIcEEEESC_NS5_4lessISC_EENSA_INS5_4pairIKSC_SC_EEEEEEPKNS5_6vectorIN4base8FilePathENSA_ISO_EEEEPKNSM_INS5_10unique_ptrINS_20UserStreamDataSourceENS5_14default_deleteISU_EEEENSA_ISX_EEEE, symObjAddr: 0x0, symBinAddr: 0x1000177FC, symSize: 0x18 }
  - { offset: 0x130470, size: 0x8, addend: 0x0, symName: __ZN8crashpad27CrashReportExceptionHandlerC1EPNS_19CrashReportDatabaseEPNS_23CrashReportUploadThreadEPKNSt3__13mapINS5_12basic_stringIcNS5_11char_traitsIcEENS5_9allocatorIcEEEESC_NS5_4lessISC_EENSA_INS5_4pairIKSC_SC_EEEEEEPKNS5_6vectorIN4base8FilePathENSA_ISO_EEEEPKNSM_INS5_10unique_ptrINS_20UserStreamDataSourceENS5_14default_deleteISU_EEEENSA_ISX_EEEE, symObjAddr: 0x18, symBinAddr: 0x100017814, symSize: 0x18 }
  - { offset: 0x1304DF, size: 0x8, addend: 0x0, symName: __ZN8crashpad27CrashReportExceptionHandlerC1EPNS_19CrashReportDatabaseEPNS_23CrashReportUploadThreadEPKNSt3__13mapINS5_12basic_stringIcNS5_11char_traitsIcEENS5_9allocatorIcEEEESC_NS5_4lessISC_EENSA_INS5_4pairIKSC_SC_EEEEEEPKNS5_6vectorIN4base8FilePathENSA_ISO_EEEEPKNSM_INS5_10unique_ptrINS_20UserStreamDataSourceENS5_14default_deleteISU_EEEENSA_ISX_EEEE, symObjAddr: 0x18, symBinAddr: 0x100017814, symSize: 0x18 }
  - { offset: 0x130522, size: 0x8, addend: 0x0, symName: __ZN8crashpad27CrashReportExceptionHandlerD2Ev, symObjAddr: 0x30, symBinAddr: 0x10001782C, symSize: 0x4 }
  - { offset: 0x13054D, size: 0x8, addend: 0x0, symName: __ZN8crashpad27CrashReportExceptionHandlerD1Ev, symObjAddr: 0x34, symBinAddr: 0x100017830, symSize: 0x4 }
  - { offset: 0x131C8C, size: 0x8, addend: 0x0, symName: __ZN8crashpad27CrashReportExceptionHandler18CatchMachExceptionEijjjiPKxjPiPKjjPjS6_PK18mach_msg_trailer_tPb, symObjAddr: 0x38, symBinAddr: 0x100017834, symSize: 0xA4C }
  - { offset: 0x13DCB3, size: 0x8, addend: 0x0, symName: __ZN8crashpad22ExceptionHandlerServerC2EN4base13ScopedGenericIjNS1_5apple8internal18ReceiveRightTraitsEEEb, symObjAddr: 0x0, symBinAddr: 0x100018280, symSize: 0x16C }
  - { offset: 0x13E03D, size: 0x8, addend: 0x0, symName: __ZN8crashpad22ExceptionHandlerServerC1EN4base13ScopedGenericIjNS1_5apple8internal18ReceiveRightTraitsEEEb, symObjAddr: 0x1A0, symBinAddr: 0x1000183EC, symSize: 0x4 }
  - { offset: 0x13E08A, size: 0x8, addend: 0x0, symName: __ZN8crashpad22ExceptionHandlerServerC1EN4base13ScopedGenericIjNS1_5apple8internal18ReceiveRightTraitsEEEb, symObjAddr: 0x1A0, symBinAddr: 0x1000183EC, symSize: 0x4 }
  - { offset: 0x13E0C5, size: 0x8, addend: 0x0, symName: __ZN8crashpad22ExceptionHandlerServerD2Ev, symObjAddr: 0x1A4, symBinAddr: 0x1000183F0, symSize: 0x48 }
  - { offset: 0x13E1A7, size: 0x8, addend: 0x0, symName: __ZN8crashpad22ExceptionHandlerServerD1Ev, symObjAddr: 0x1EC, symBinAddr: 0x100018438, symSize: 0x48 }
  - { offset: 0x13E875, size: 0x8, addend: 0x0, symName: __ZN8crashpad22ExceptionHandlerServer3RunEPNS_22UniversalMachExcServer9InterfaceE, symObjAddr: 0x234, symBinAddr: 0x100018480, symSize: 0x490 }
  - { offset: 0x13F00C, size: 0x8, addend: 0x0, symName: __ZN4base13ScopedGenericIjNS_5apple8internal13PortSetTraitsEED1Ev, symObjAddr: 0x9F0, symBinAddr: 0x100018C3C, symSize: 0x34 }
  - { offset: 0x13F065, size: 0x8, addend: 0x0, symName: __ZN8crashpad12_GLOBAL__N_125ExceptionHandlerServerRunD1Ev, symObjAddr: 0x6C4, symBinAddr: 0x100018910, symSize: 0x3C }
  - { offset: 0x13F0A6, size: 0x8, addend: 0x0, symName: __ZN8crashpad22ExceptionHandlerServer4StopEv, symObjAddr: 0x700, symBinAddr: 0x10001894C, symSize: 0xF0 }
  - { offset: 0x13F249, size: 0x8, addend: 0x0, symName: __ZN8crashpad12_GLOBAL__N_125ExceptionHandlerServerRun18CatchMachExceptionEijjjiPKxjPiPKjjPjS7_PK18mach_msg_trailer_tPb, symObjAddr: 0x7F0, symBinAddr: 0x100018A3C, symSize: 0xC0 }
  - { offset: 0x13F3A1, size: 0x8, addend: 0x0, symName: __ZN8crashpad12_GLOBAL__N_125ExceptionHandlerServerRun21DoMachNotifyNoSendersEjjPK18mach_msg_trailer_t, symObjAddr: 0x8B0, symBinAddr: 0x100018AFC, symSize: 0xA0 }
  - { offset: 0x13F463, size: 0x8, addend: 0x0, symName: __ZThn8_N8crashpad12_GLOBAL__N_125ExceptionHandlerServerRun21DoMachNotifyNoSendersEjjPK18mach_msg_trailer_t, symObjAddr: 0x950, symBinAddr: 0x100018B9C, symSize: 0xA0 }
  - { offset: 0x1510D6, size: 0x8, addend: 0x0, symName: __ZN8crashpad24MinidumpAnnotationWriterC2Ev, symObjAddr: 0x0, symBinAddr: 0x100018C70, symSize: 0x8C }
  - { offset: 0x151151, size: 0x8, addend: 0x0, symName: __ZN8crashpad24MinidumpAnnotationWriterC1Ev, symObjAddr: 0x8C, symBinAddr: 0x100018CFC, symSize: 0x8C }
  - { offset: 0x1511C8, size: 0x8, addend: 0x0, symName: __ZN8crashpad24MinidumpAnnotationWriterD2Ev, symObjAddr: 0x118, symBinAddr: 0x100018D88, symSize: 0x30 }
  - { offset: 0x151207, size: 0x8, addend: 0x0, symName: __ZN8crashpad24MinidumpAnnotationWriterD1Ev, symObjAddr: 0x148, symBinAddr: 0x100018DB8, symSize: 0x30 }
  - { offset: 0x151266, size: 0x8, addend: 0x0, symName: __ZN8crashpad24MinidumpAnnotationWriterD0Ev, symObjAddr: 0x178, symBinAddr: 0x100018DE8, symSize: 0x34 }
  - { offset: 0x1513CD, size: 0x8, addend: 0x0, symName: __ZN8crashpad24MinidumpAnnotationWriter22InitializeFromSnapshotERKNS_18AnnotationSnapshotE, symObjAddr: 0x1AC, symBinAddr: 0x100018E1C, symSize: 0x58 }
  - { offset: 0x151542, size: 0x8, addend: 0x0, symName: __ZNSt3__16vectorIhNS_9allocatorIhEEE18__assign_with_sizeB8ne190102IPhS5_EEvT_T0_l, symObjAddr: 0xB30, symBinAddr: 0x1000197A0, symSize: 0x13C }
  - { offset: 0x152014, size: 0x8, addend: 0x0, symName: __ZN8crashpad24MinidumpAnnotationWriter18InitializeWithDataERKNSt3__112basic_stringIcNS1_11char_traitsIcEENS1_9allocatorIcEEEEtRKNS1_6vectorIhNS5_IhEEEE, symObjAddr: 0x204, symBinAddr: 0x100018E74, symSize: 0x60 }
  - { offset: 0x1521B9, size: 0x8, addend: 0x0, symName: __ZN8crashpad24MinidumpAnnotationWriter6FreezeEv, symObjAddr: 0x264, symBinAddr: 0x100018ED4, symSize: 0x44 }
  - { offset: 0x1521E2, size: 0x8, addend: 0x0, symName: __ZN8crashpad24MinidumpAnnotationWriter12SizeOfObjectEv, symObjAddr: 0x2A8, symBinAddr: 0x100018F18, symSize: 0x8 }
  - { offset: 0x1523D1, size: 0x8, addend: 0x0, symName: __ZN8crashpad24MinidumpAnnotationWriter8ChildrenEv, symObjAddr: 0x2B0, symBinAddr: 0x100018F20, symSize: 0x48 }
  - { offset: 0x152653, size: 0x8, addend: 0x0, symName: __ZN8crashpad24MinidumpAnnotationWriter11WriteObjectEPNS_19FileWriterInterfaceE, symObjAddr: 0x2F8, symBinAddr: 0x100018F68, symSize: 0x8 }
  - { offset: 0x1528AB, size: 0x8, addend: 0x0, symName: __ZN8crashpad28MinidumpAnnotationListWriterC2Ev, symObjAddr: 0x300, symBinAddr: 0x100018F70, symSize: 0x58 }
  - { offset: 0x1529E7, size: 0x8, addend: 0x0, symName: __ZN8crashpad28MinidumpAnnotationListWriterC1Ev, symObjAddr: 0x358, symBinAddr: 0x100018FC8, symSize: 0x58 }
  - { offset: 0x152D7F, size: 0x8, addend: 0x0, symName: __ZN8crashpad28MinidumpAnnotationListWriterD2Ev, symObjAddr: 0x3B0, symBinAddr: 0x100019020, symSize: 0x94 }
  - { offset: 0x1530BF, size: 0x8, addend: 0x0, symName: __ZN8crashpad28MinidumpAnnotationListWriterD1Ev, symObjAddr: 0x444, symBinAddr: 0x1000190B4, symSize: 0x4 }
  - { offset: 0x1530E2, size: 0x8, addend: 0x0, symName: __ZN8crashpad28MinidumpAnnotationListWriterD1Ev, symObjAddr: 0x444, symBinAddr: 0x1000190B4, symSize: 0x4 }
  - { offset: 0x153111, size: 0x8, addend: 0x0, symName: __ZN8crashpad28MinidumpAnnotationListWriterD0Ev, symObjAddr: 0x448, symBinAddr: 0x1000190B8, symSize: 0x14 }
  - { offset: 0x15336C, size: 0x8, addend: 0x0, symName: __ZN8crashpad28MinidumpAnnotationListWriter18InitializeFromListERKNSt3__16vectorINS_18AnnotationSnapshotENS1_9allocatorIS3_EEEE, symObjAddr: 0x45C, symBinAddr: 0x1000190CC, symSize: 0x188 }
  - { offset: 0x153873, size: 0x8, addend: 0x0, symName: __ZN8crashpad28MinidumpAnnotationListWriter9AddObjectENSt3__110unique_ptrINS_24MinidumpAnnotationWriterENS1_14default_deleteIS3_EEEE, symObjAddr: 0x5E4, symBinAddr: 0x100019254, symSize: 0x108 }
  - { offset: 0x153DFC, size: 0x8, addend: 0x0, symName: __ZNSt3__110unique_ptrIN8crashpad24MinidumpAnnotationWriterENS_14default_deleteIS2_EEED1B8ne190102Ev, symObjAddr: 0x6EC, symBinAddr: 0x10001935C, symSize: 0x48 }
  - { offset: 0x153E07, size: 0x8, addend: 0x0, symName: __ZNSt3__110unique_ptrIN8crashpad24MinidumpAnnotationWriterENS_14default_deleteIS2_EEED1B8ne190102Ev, symObjAddr: 0x6EC, symBinAddr: 0x10001935C, symSize: 0x48 }
  - { offset: 0x1542C3, size: 0x8, addend: 0x0, symName: __ZNK8crashpad28MinidumpAnnotationListWriter8IsUsefulEv, symObjAddr: 0x734, symBinAddr: 0x1000193A4, symSize: 0x10 }
  - { offset: 0x1542EF, size: 0x8, addend: 0x0, symName: __ZNK8crashpad28MinidumpAnnotationListWriter8IsUsefulEv, symObjAddr: 0x734, symBinAddr: 0x1000193A4, symSize: 0x10 }
  - { offset: 0x1543C6, size: 0x8, addend: 0x0, symName: __ZN8crashpad28MinidumpAnnotationListWriter6FreezeEv, symObjAddr: 0x744, symBinAddr: 0x1000193B4, symSize: 0xE4 }
  - { offset: 0x1544FA, size: 0x8, addend: 0x0, symName: __ZN8crashpad28MinidumpAnnotationListWriter12SizeOfObjectEv, symObjAddr: 0x828, symBinAddr: 0x100019498, symSize: 0x1C }
  - { offset: 0x154526, size: 0x8, addend: 0x0, symName: __ZN8crashpad28MinidumpAnnotationListWriter12SizeOfObjectEv, symObjAddr: 0x828, symBinAddr: 0x100019498, symSize: 0x1C }
  - { offset: 0x15479A, size: 0x8, addend: 0x0, symName: __ZN8crashpad28MinidumpAnnotationListWriter8ChildrenEv, symObjAddr: 0x844, symBinAddr: 0x1000194B4, symSize: 0xF0 }
  - { offset: 0x155037, size: 0x8, addend: 0x0, symName: __ZN8crashpad28MinidumpAnnotationListWriter11WriteObjectEPNS_19FileWriterInterfaceE, symObjAddr: 0x934, symBinAddr: 0x1000195A4, symSize: 0x1FC }
  - { offset: 0x162FB6, size: 0x8, addend: 0x0, symName: __ZN8crashpad23MinidumpByteArrayWriterC2Ev, symObjAddr: 0x0, symBinAddr: 0x1000198DC, symSize: 0x58 }
  - { offset: 0x1630F2, size: 0x8, addend: 0x0, symName: __ZN8crashpad23MinidumpByteArrayWriterC1Ev, symObjAddr: 0x58, symBinAddr: 0x100019934, symSize: 0x58 }
  - { offset: 0x1633B3, size: 0x8, addend: 0x0, symName: __ZN8crashpad23MinidumpByteArrayWriterD2Ev, symObjAddr: 0xB0, symBinAddr: 0x10001998C, symSize: 0x40 }
  - { offset: 0x1635F3, size: 0x8, addend: 0x0, symName: __ZN8crashpad23MinidumpByteArrayWriterD1Ev, symObjAddr: 0xF0, symBinAddr: 0x1000199CC, symSize: 0x40 }
  - { offset: 0x163853, size: 0x8, addend: 0x0, symName: __ZN8crashpad23MinidumpByteArrayWriterD0Ev, symObjAddr: 0x130, symBinAddr: 0x100019A0C, symSize: 0x44 }
  - { offset: 0x163B47, size: 0x8, addend: 0x0, symName: __ZN8crashpad23MinidumpByteArrayWriter8set_dataEPKhm, symObjAddr: 0x174, symBinAddr: 0x100019A50, symSize: 0x18 }
  - { offset: 0x163C56, size: 0x8, addend: 0x0, symName: __ZNSt3__16vectorIhNS_9allocatorIhEEE18__insert_with_sizeB8ne190102IPKhS6_EENS_11__wrap_iterIPhEENS7_IS6_EET_T0_l, symObjAddr: 0x35C, symBinAddr: 0x100019C28, symSize: 0x230 }
  - { offset: 0x164786, size: 0x8, addend: 0x0, symName: __ZN8crashpad23MinidumpByteArrayWriter6FreezeEv, symObjAddr: 0x18C, symBinAddr: 0x100019A68, symSize: 0xD4 }
  - { offset: 0x1648AF, size: 0x8, addend: 0x0, symName: __ZN8crashpad23MinidumpByteArrayWriter12SizeOfObjectEv, symObjAddr: 0x260, symBinAddr: 0x100019B3C, symSize: 0x10 }
  - { offset: 0x1648DB, size: 0x8, addend: 0x0, symName: __ZN8crashpad23MinidumpByteArrayWriter12SizeOfObjectEv, symObjAddr: 0x260, symBinAddr: 0x100019B3C, symSize: 0x10 }
  - { offset: 0x164D54, size: 0x8, addend: 0x0, symName: __ZN8crashpad23MinidumpByteArrayWriter11WriteObjectEPNS_19FileWriterInterfaceE, symObjAddr: 0x270, symBinAddr: 0x100019B4C, symSize: 0xDC }
  - { offset: 0x1756DD, size: 0x8, addend: 0x0, symName: __ZN8crashpad21MinidumpContextWriterD2Ev, symObjAddr: 0x0, symBinAddr: 0x100019E58, symSize: 0x4 }
  - { offset: 0x1756FE, size: 0x8, addend: 0x0, symName: __ZN8crashpad21MinidumpContextWriterD1Ev, symObjAddr: 0x4, symBinAddr: 0x100019E5C, symSize: 0x4 }
  - { offset: 0x175727, size: 0x8, addend: 0x0, symName: __ZN8crashpad21MinidumpContextWriterD0Ev, symObjAddr: 0x8, symBinAddr: 0x100019E60, symSize: 0x4 }
  - { offset: 0x175DEC, size: 0x8, addend: 0x0, symName: __ZN8crashpad21MinidumpContextWriter18CreateFromSnapshotEPKNS_10CPUContextE, symObjAddr: 0xC, symBinAddr: 0x100019E64, symSize: 0x8B0 }
  - { offset: 0x176681, size: 0x8, addend: 0x0, symName: __ZN8crashpad26MinidumpContextAMD64Writer22InitializeFromSnapshotEPKNS_16CPUContextX86_64E, symObjAddr: 0xA10, symBinAddr: 0x10001A868, symSize: 0x1FC }
  - { offset: 0x176CD7, size: 0x8, addend: 0x0, symName: __ZN8crashpad24MinidumpContextX86WriterC1Ev, symObjAddr: 0x8BC, symBinAddr: 0x10001A714, symSize: 0x40 }
  - { offset: 0x176D36, size: 0x8, addend: 0x0, symName: __ZN8crashpad24MinidumpContextX86Writer22InitializeFromSnapshotEPKNS_13CPUContextX86E, symObjAddr: 0x8FC, symBinAddr: 0x10001A754, symSize: 0xB0 }
  - { offset: 0x176D63, size: 0x8, addend: 0x0, symName: __ZN8crashpad26MinidumpContextAMD64WriternwEm, symObjAddr: 0x9AC, symBinAddr: 0x10001A804, symSize: 0xC }
  - { offset: 0x176D9C, size: 0x8, addend: 0x0, symName: __ZN8crashpad26MinidumpContextAMD64WriterC1Ev, symObjAddr: 0x9B8, symBinAddr: 0x10001A810, symSize: 0x40 }
  - { offset: 0x176E3E, size: 0x8, addend: 0x0, symName: __ZN8crashpad26MinidumpContextAMD64WriterdlEPv, symObjAddr: 0x9F8, symBinAddr: 0x10001A850, symSize: 0x18 }
  - { offset: 0x1773D3, size: 0x8, addend: 0x0, symName: __ZN8crashpad24MinidumpContextARMWriter22InitializeFromSnapshotEPKNS_13CPUContextARME, symObjAddr: 0xC0C, symBinAddr: 0x10001AA64, symSize: 0xA4 }
  - { offset: 0x1773FC, size: 0x8, addend: 0x0, symName: __ZN8crashpad26MinidumpContextARM64Writer22InitializeFromSnapshotEPKNS_15CPUContextARM64E, symObjAddr: 0xCB0, symBinAddr: 0x10001AB08, symSize: 0xCC }
  - { offset: 0x177429, size: 0x8, addend: 0x0, symName: __ZN8crashpad25MinidumpContextMIPSWriter22InitializeFromSnapshotEPKNS_14CPUContextMIPSE, symObjAddr: 0xD7C, symBinAddr: 0x10001ABD4, symSize: 0xF4 }
  - { offset: 0x17746B, size: 0x8, addend: 0x0, symName: __ZN8crashpad27MinidumpContextMIPS64Writer22InitializeFromSnapshotEPKNS_16CPUContextMIPS64E, symObjAddr: 0xE70, symBinAddr: 0x10001ACC8, symSize: 0xFC }
  - { offset: 0x1774AD, size: 0x8, addend: 0x0, symName: __ZN8crashpad28MinidumpContextRISCV64Writer22InitializeFromSnapshotEPKNS_17CPUContextRISCV64E, symObjAddr: 0xF6C, symBinAddr: 0x10001ADC4, symSize: 0xD8 }
  - { offset: 0x1774D6, size: 0x8, addend: 0x0, symName: __ZN8crashpad21MinidumpContextWriter12SizeOfObjectEv, symObjAddr: 0x1044, symBinAddr: 0x10001AE9C, symSize: 0xC }
  - { offset: 0x177523, size: 0x8, addend: 0x0, symName: __ZN8crashpad21MinidumpContextWriter24FreezeAndGetSizeOfObjectEv, symObjAddr: 0x1050, symBinAddr: 0x10001AEA8, symSize: 0x34 }
  - { offset: 0x17758C, size: 0x8, addend: 0x0, symName: __ZN8crashpad24MinidumpContextX86WriterC2Ev, symObjAddr: 0x1084, symBinAddr: 0x10001AEDC, symSize: 0x40 }
  - { offset: 0x1775E9, size: 0x8, addend: 0x0, symName: __ZN8crashpad24MinidumpContextX86WriterD2Ev, symObjAddr: 0x10C4, symBinAddr: 0x10001AF1C, symSize: 0x4 }
  - { offset: 0x17760D, size: 0x8, addend: 0x0, symName: __ZN8crashpad24MinidumpContextX86WriterD2Ev, symObjAddr: 0x10C4, symBinAddr: 0x10001AF1C, symSize: 0x4 }
  - { offset: 0x177644, size: 0x8, addend: 0x0, symName: __ZN8crashpad24MinidumpContextX86WriterD1Ev, symObjAddr: 0x10C8, symBinAddr: 0x10001AF20, symSize: 0x4 }
  - { offset: 0x177668, size: 0x8, addend: 0x0, symName: __ZN8crashpad24MinidumpContextX86WriterD1Ev, symObjAddr: 0x10C8, symBinAddr: 0x10001AF20, symSize: 0x4 }
  - { offset: 0x177685, size: 0x8, addend: 0x0, symName: __ZN8crashpad24MinidumpContextX86WriterD1Ev, symObjAddr: 0x10C8, symBinAddr: 0x10001AF20, symSize: 0x4 }
  - { offset: 0x1776BD, size: 0x8, addend: 0x0, symName: __ZN8crashpad24MinidumpContextX86WriterD0Ev, symObjAddr: 0x10CC, symBinAddr: 0x10001AF24, symSize: 0x14 }
  - { offset: 0x177742, size: 0x8, addend: 0x0, symName: __ZN8crashpad24MinidumpContextX86Writer11WriteObjectEPNS_19FileWriterInterfaceE, symObjAddr: 0x10E0, symBinAddr: 0x10001AF38, symSize: 0x1C }
  - { offset: 0x177796, size: 0x8, addend: 0x0, symName: __ZNK8crashpad24MinidumpContextX86Writer11ContextSizeEv, symObjAddr: 0x10FC, symBinAddr: 0x10001AF54, symSize: 0x8 }
  - { offset: 0x1777BB, size: 0x8, addend: 0x0, symName: __ZN8crashpad26MinidumpContextAMD64WriterC2Ev, symObjAddr: 0x1104, symBinAddr: 0x10001AF5C, symSize: 0x40 }
  - { offset: 0x177926, size: 0x8, addend: 0x0, symName: __ZN8crashpad26MinidumpContextAMD64WriterD2Ev, symObjAddr: 0x1144, symBinAddr: 0x10001AF9C, symSize: 0x74 }
  - { offset: 0x177BCA, size: 0x8, addend: 0x0, symName: __ZN8crashpad26MinidumpContextAMD64WriterD1Ev, symObjAddr: 0x11B8, symBinAddr: 0x10001B010, symSize: 0x74 }
  - { offset: 0x177E8E, size: 0x8, addend: 0x0, symName: __ZN8crashpad26MinidumpContextAMD64WriterD0Ev, symObjAddr: 0x122C, symBinAddr: 0x10001B084, symSize: 0x80 }
  - { offset: 0x178180, size: 0x8, addend: 0x0, symName: __ZN8crashpad22MinidumpXSaveAMD64CetU22InitializeFromSnapshotEPKNS_16CPUContextX86_64E, symObjAddr: 0x12BC, symBinAddr: 0x10001B104, symSize: 0x10 }
  - { offset: 0x1781AB, size: 0x8, addend: 0x0, symName: __ZN8crashpad26MinidumpContextAMD64Writer9AlignmentEv, symObjAddr: 0x12CC, symBinAddr: 0x10001B114, symSize: 0x8 }
  - { offset: 0x17858E, size: 0x8, addend: 0x0, symName: __ZN8crashpad26MinidumpContextAMD64Writer11WriteObjectEPNS_19FileWriterInterfaceE, symObjAddr: 0x12D4, symBinAddr: 0x10001B11C, symSize: 0x2B0 }
  - { offset: 0x178D2F, size: 0x8, addend: 0x0, symName: __ZNK8crashpad26MinidumpContextAMD64Writer11ContextSizeEv, symObjAddr: 0x1584, symBinAddr: 0x10001B3CC, symSize: 0x6C }
  - { offset: 0x178DF4, size: 0x8, addend: 0x0, symName: __ZNK8crashpad22MinidumpXSaveAMD64CetU4CopyEPv, symObjAddr: 0x15F0, symBinAddr: 0x10001B438, symSize: 0x10 }
  - { offset: 0x178E2D, size: 0x8, addend: 0x0, symName: __ZN8crashpad24MinidumpContextARMWriterC2Ev, symObjAddr: 0x1600, symBinAddr: 0x10001B448, symSize: 0x70 }
  - { offset: 0x178E6D, size: 0x8, addend: 0x0, symName: __ZN8crashpad24MinidumpContextARMWriterC1Ev, symObjAddr: 0x1670, symBinAddr: 0x10001B4B8, symSize: 0x70 }
  - { offset: 0x178ECC, size: 0x8, addend: 0x0, symName: __ZN8crashpad24MinidumpContextARMWriterD2Ev, symObjAddr: 0x16E0, symBinAddr: 0x10001B528, symSize: 0x4 }
  - { offset: 0x178EF0, size: 0x8, addend: 0x0, symName: __ZN8crashpad24MinidumpContextARMWriterD2Ev, symObjAddr: 0x16E0, symBinAddr: 0x10001B528, symSize: 0x4 }
  - { offset: 0x178F29, size: 0x8, addend: 0x0, symName: __ZN8crashpad24MinidumpContextARMWriterD1Ev, symObjAddr: 0x16E4, symBinAddr: 0x10001B52C, symSize: 0x4 }
  - { offset: 0x178F4D, size: 0x8, addend: 0x0, symName: __ZN8crashpad24MinidumpContextARMWriterD1Ev, symObjAddr: 0x16E4, symBinAddr: 0x10001B52C, symSize: 0x4 }
  - { offset: 0x178F6B, size: 0x8, addend: 0x0, symName: __ZN8crashpad24MinidumpContextARMWriterD1Ev, symObjAddr: 0x16E4, symBinAddr: 0x10001B52C, symSize: 0x4 }
  - { offset: 0x178FA5, size: 0x8, addend: 0x0, symName: __ZN8crashpad24MinidumpContextARMWriterD0Ev, symObjAddr: 0x16E8, symBinAddr: 0x10001B530, symSize: 0x14 }
  - { offset: 0x17902E, size: 0x8, addend: 0x0, symName: __ZN8crashpad24MinidumpContextARMWriter11WriteObjectEPNS_19FileWriterInterfaceE, symObjAddr: 0x16FC, symBinAddr: 0x10001B544, symSize: 0x1C }
  - { offset: 0x179084, size: 0x8, addend: 0x0, symName: __ZNK8crashpad24MinidumpContextARMWriter11ContextSizeEv, symObjAddr: 0x1718, symBinAddr: 0x10001B560, symSize: 0x8 }
  - { offset: 0x1790AA, size: 0x8, addend: 0x0, symName: __ZN8crashpad26MinidumpContextARM64WriterC2Ev, symObjAddr: 0x1720, symBinAddr: 0x10001B568, symSize: 0x40 }
  - { offset: 0x1790EC, size: 0x8, addend: 0x0, symName: __ZN8crashpad26MinidumpContextARM64WriterC1Ev, symObjAddr: 0x1760, symBinAddr: 0x10001B5A8, symSize: 0x40 }
  - { offset: 0x17914D, size: 0x8, addend: 0x0, symName: __ZN8crashpad26MinidumpContextARM64WriterD2Ev, symObjAddr: 0x17A0, symBinAddr: 0x10001B5E8, symSize: 0x4 }
  - { offset: 0x179171, size: 0x8, addend: 0x0, symName: __ZN8crashpad26MinidumpContextARM64WriterD2Ev, symObjAddr: 0x17A0, symBinAddr: 0x10001B5E8, symSize: 0x4 }
  - { offset: 0x1791AA, size: 0x8, addend: 0x0, symName: __ZN8crashpad26MinidumpContextARM64WriterD1Ev, symObjAddr: 0x17A4, symBinAddr: 0x10001B5EC, symSize: 0x4 }
  - { offset: 0x1791CE, size: 0x8, addend: 0x0, symName: __ZN8crashpad26MinidumpContextARM64WriterD1Ev, symObjAddr: 0x17A4, symBinAddr: 0x10001B5EC, symSize: 0x4 }
  - { offset: 0x1791EC, size: 0x8, addend: 0x0, symName: __ZN8crashpad26MinidumpContextARM64WriterD1Ev, symObjAddr: 0x17A4, symBinAddr: 0x10001B5EC, symSize: 0x4 }
  - { offset: 0x179226, size: 0x8, addend: 0x0, symName: __ZN8crashpad26MinidumpContextARM64WriterD0Ev, symObjAddr: 0x17A8, symBinAddr: 0x10001B5F0, symSize: 0x14 }
  - { offset: 0x1792AF, size: 0x8, addend: 0x0, symName: __ZN8crashpad26MinidumpContextARM64Writer11WriteObjectEPNS_19FileWriterInterfaceE, symObjAddr: 0x17BC, symBinAddr: 0x10001B604, symSize: 0x1C }
  - { offset: 0x179305, size: 0x8, addend: 0x0, symName: __ZNK8crashpad26MinidumpContextARM64Writer11ContextSizeEv, symObjAddr: 0x17D8, symBinAddr: 0x10001B620, symSize: 0x8 }
  - { offset: 0x17932B, size: 0x8, addend: 0x0, symName: __ZN8crashpad25MinidumpContextMIPSWriterC2Ev, symObjAddr: 0x17E0, symBinAddr: 0x10001B628, symSize: 0x40 }
  - { offset: 0x17936D, size: 0x8, addend: 0x0, symName: __ZN8crashpad25MinidumpContextMIPSWriterC1Ev, symObjAddr: 0x1820, symBinAddr: 0x10001B668, symSize: 0x40 }
  - { offset: 0x1793CE, size: 0x8, addend: 0x0, symName: __ZN8crashpad25MinidumpContextMIPSWriterD2Ev, symObjAddr: 0x1860, symBinAddr: 0x10001B6A8, symSize: 0x4 }
  - { offset: 0x1793F2, size: 0x8, addend: 0x0, symName: __ZN8crashpad25MinidumpContextMIPSWriterD2Ev, symObjAddr: 0x1860, symBinAddr: 0x10001B6A8, symSize: 0x4 }
  - { offset: 0x17942B, size: 0x8, addend: 0x0, symName: __ZN8crashpad25MinidumpContextMIPSWriterD1Ev, symObjAddr: 0x1864, symBinAddr: 0x10001B6AC, symSize: 0x4 }
  - { offset: 0x17944F, size: 0x8, addend: 0x0, symName: __ZN8crashpad25MinidumpContextMIPSWriterD1Ev, symObjAddr: 0x1864, symBinAddr: 0x10001B6AC, symSize: 0x4 }
  - { offset: 0x17946D, size: 0x8, addend: 0x0, symName: __ZN8crashpad25MinidumpContextMIPSWriterD1Ev, symObjAddr: 0x1864, symBinAddr: 0x10001B6AC, symSize: 0x4 }
  - { offset: 0x1794A7, size: 0x8, addend: 0x0, symName: __ZN8crashpad25MinidumpContextMIPSWriterD0Ev, symObjAddr: 0x1868, symBinAddr: 0x10001B6B0, symSize: 0x14 }
  - { offset: 0x179530, size: 0x8, addend: 0x0, symName: __ZN8crashpad25MinidumpContextMIPSWriter11WriteObjectEPNS_19FileWriterInterfaceE, symObjAddr: 0x187C, symBinAddr: 0x10001B6C4, symSize: 0x1C }
  - { offset: 0x179586, size: 0x8, addend: 0x0, symName: __ZNK8crashpad25MinidumpContextMIPSWriter11ContextSizeEv, symObjAddr: 0x1898, symBinAddr: 0x10001B6E0, symSize: 0x8 }
  - { offset: 0x1795AC, size: 0x8, addend: 0x0, symName: __ZN8crashpad27MinidumpContextMIPS64WriterC2Ev, symObjAddr: 0x18A0, symBinAddr: 0x10001B6E8, symSize: 0x40 }
  - { offset: 0x1795EE, size: 0x8, addend: 0x0, symName: __ZN8crashpad27MinidumpContextMIPS64WriterC1Ev, symObjAddr: 0x18E0, symBinAddr: 0x10001B728, symSize: 0x40 }
  - { offset: 0x17964F, size: 0x8, addend: 0x0, symName: __ZN8crashpad27MinidumpContextMIPS64WriterD2Ev, symObjAddr: 0x1920, symBinAddr: 0x10001B768, symSize: 0x4 }
  - { offset: 0x179673, size: 0x8, addend: 0x0, symName: __ZN8crashpad27MinidumpContextMIPS64WriterD2Ev, symObjAddr: 0x1920, symBinAddr: 0x10001B768, symSize: 0x4 }
  - { offset: 0x1796AC, size: 0x8, addend: 0x0, symName: __ZN8crashpad27MinidumpContextMIPS64WriterD1Ev, symObjAddr: 0x1924, symBinAddr: 0x10001B76C, symSize: 0x4 }
  - { offset: 0x1796D0, size: 0x8, addend: 0x0, symName: __ZN8crashpad27MinidumpContextMIPS64WriterD1Ev, symObjAddr: 0x1924, symBinAddr: 0x10001B76C, symSize: 0x4 }
  - { offset: 0x1796EE, size: 0x8, addend: 0x0, symName: __ZN8crashpad27MinidumpContextMIPS64WriterD1Ev, symObjAddr: 0x1924, symBinAddr: 0x10001B76C, symSize: 0x4 }
  - { offset: 0x179728, size: 0x8, addend: 0x0, symName: __ZN8crashpad27MinidumpContextMIPS64WriterD0Ev, symObjAddr: 0x1928, symBinAddr: 0x10001B770, symSize: 0x14 }
  - { offset: 0x1797B1, size: 0x8, addend: 0x0, symName: __ZN8crashpad27MinidumpContextMIPS64Writer11WriteObjectEPNS_19FileWriterInterfaceE, symObjAddr: 0x193C, symBinAddr: 0x10001B784, symSize: 0x1C }
  - { offset: 0x179807, size: 0x8, addend: 0x0, symName: __ZNK8crashpad27MinidumpContextMIPS64Writer11ContextSizeEv, symObjAddr: 0x1958, symBinAddr: 0x10001B7A0, symSize: 0x8 }
  - { offset: 0x17982D, size: 0x8, addend: 0x0, symName: __ZN8crashpad28MinidumpContextRISCV64WriterC2Ev, symObjAddr: 0x1960, symBinAddr: 0x10001B7A8, symSize: 0x44 }
  - { offset: 0x17986F, size: 0x8, addend: 0x0, symName: __ZN8crashpad28MinidumpContextRISCV64WriterC1Ev, symObjAddr: 0x19A4, symBinAddr: 0x10001B7EC, symSize: 0x44 }
  - { offset: 0x1798D0, size: 0x8, addend: 0x0, symName: __ZN8crashpad28MinidumpContextRISCV64WriterD2Ev, symObjAddr: 0x19E8, symBinAddr: 0x10001B830, symSize: 0x4 }
  - { offset: 0x1798F4, size: 0x8, addend: 0x0, symName: __ZN8crashpad28MinidumpContextRISCV64WriterD2Ev, symObjAddr: 0x19E8, symBinAddr: 0x10001B830, symSize: 0x4 }
  - { offset: 0x17992D, size: 0x8, addend: 0x0, symName: __ZN8crashpad28MinidumpContextRISCV64WriterD1Ev, symObjAddr: 0x19EC, symBinAddr: 0x10001B834, symSize: 0x4 }
  - { offset: 0x179951, size: 0x8, addend: 0x0, symName: __ZN8crashpad28MinidumpContextRISCV64WriterD1Ev, symObjAddr: 0x19EC, symBinAddr: 0x10001B834, symSize: 0x4 }
  - { offset: 0x17996F, size: 0x8, addend: 0x0, symName: __ZN8crashpad28MinidumpContextRISCV64WriterD1Ev, symObjAddr: 0x19EC, symBinAddr: 0x10001B834, symSize: 0x4 }
  - { offset: 0x1799A9, size: 0x8, addend: 0x0, symName: __ZN8crashpad28MinidumpContextRISCV64WriterD0Ev, symObjAddr: 0x19F0, symBinAddr: 0x10001B838, symSize: 0x14 }
  - { offset: 0x179A32, size: 0x8, addend: 0x0, symName: __ZN8crashpad28MinidumpContextRISCV64Writer11WriteObjectEPNS_19FileWriterInterfaceE, symObjAddr: 0x1A04, symBinAddr: 0x10001B84C, symSize: 0x1C }
  - { offset: 0x179A88, size: 0x8, addend: 0x0, symName: __ZNK8crashpad28MinidumpContextRISCV64Writer11ContextSizeEv, symObjAddr: 0x1A20, symBinAddr: 0x10001B868, symSize: 0x8 }
  - { offset: 0x179AAE, size: 0x8, addend: 0x0, symName: __ZN8crashpad22MinidumpXSaveAMD64CetUD1Ev, symObjAddr: 0x1A28, symBinAddr: 0x10001B870, symSize: 0x4 }
  - { offset: 0x179AD7, size: 0x8, addend: 0x0, symName: __ZN8crashpad22MinidumpXSaveAMD64CetUD0Ev, symObjAddr: 0x1A2C, symBinAddr: 0x10001B874, symSize: 0x4 }
  - { offset: 0x179B00, size: 0x8, addend: 0x0, symName: __ZNK8crashpad22MinidumpXSaveAMD64CetU4SizeEv, symObjAddr: 0x1A30, symBinAddr: 0x10001B878, symSize: 0x8 }
  - { offset: 0x179B27, size: 0x8, addend: 0x0, symName: __ZNK8crashpad22MinidumpXSaveAMD64CetU10XCompBVBitEv, symObjAddr: 0x1A38, symBinAddr: 0x10001B880, symSize: 0x8 }
  - { offset: 0x17BE80, size: 0x8, addend: 0x0, symName: __ZN8crashpad26MinidumpCrashpadInfoWriterC2Ev, symObjAddr: 0x0, symBinAddr: 0x10001B888, symSize: 0x40 }
  - { offset: 0x18843F, size: 0x8, addend: 0x0, symName: __ZN8crashpad26MinidumpCrashpadInfoWriterC2Ev, symObjAddr: 0x0, symBinAddr: 0x10001B888, symSize: 0x40 }
  - { offset: 0x188534, size: 0x8, addend: 0x0, symName: __ZN8crashpad26MinidumpCrashpadInfoWriterC1Ev, symObjAddr: 0x40, symBinAddr: 0x10001B8C8, symSize: 0x40 }
  - { offset: 0x188749, size: 0x8, addend: 0x0, symName: __ZN8crashpad26MinidumpCrashpadInfoWriterD2Ev, symObjAddr: 0x80, symBinAddr: 0x10001B908, symSize: 0x48 }
  - { offset: 0x1888AC, size: 0x8, addend: 0x0, symName: __ZNSt3__110unique_ptrIN8crashpad36MinidumpModuleCrashpadInfoListWriterENS_14default_deleteIS2_EEED1B8ne190102Ev, symObjAddr: 0xC8, symBinAddr: 0x10001B950, symSize: 0x3C }
  - { offset: 0x18894D, size: 0x8, addend: 0x0, symName: __ZNSt3__110unique_ptrIN8crashpad36MinidumpSimpleStringDictionaryWriterENS_14default_deleteIS2_EEED1B8ne190102Ev, symObjAddr: 0x104, symBinAddr: 0x10001B98C, symSize: 0x3C }
  - { offset: 0x188A0A, size: 0x8, addend: 0x0, symName: __ZN8crashpad26MinidumpCrashpadInfoWriterD1Ev, symObjAddr: 0x140, symBinAddr: 0x10001B9C8, symSize: 0x48 }
  - { offset: 0x188BA9, size: 0x8, addend: 0x0, symName: __ZN8crashpad26MinidumpCrashpadInfoWriterD0Ev, symObjAddr: 0x188, symBinAddr: 0x10001BA10, symSize: 0x4C }
  - { offset: 0x1891DF, size: 0x8, addend: 0x0, symName: __ZN8crashpad26MinidumpCrashpadInfoWriter22InitializeFromSnapshotEPKNS_15ProcessSnapshotE, symObjAddr: 0x1D4, symBinAddr: 0x10001BA5C, symSize: 0x200 }
  - { offset: 0x189A13, size: 0x8, addend: 0x0, symName: __ZN8crashpad26MinidumpCrashpadInfoWriter11SetReportIDERKNS_4UUIDE, symObjAddr: 0x3D4, symBinAddr: 0x10001BC5C, symSize: 0xC }
  - { offset: 0x189A3C, size: 0x8, addend: 0x0, symName: __ZN8crashpad26MinidumpCrashpadInfoWriter11SetClientIDERKNS_4UUIDE, symObjAddr: 0x3E0, symBinAddr: 0x10001BC68, symSize: 0xC }
  - { offset: 0x189A65, size: 0x8, addend: 0x0, symName: __ZN8crashpad26MinidumpCrashpadInfoWriter20SetSimpleAnnotationsENSt3__110unique_ptrINS_36MinidumpSimpleStringDictionaryWriterENS1_14default_deleteIS3_EEEE, symObjAddr: 0x3EC, symBinAddr: 0x10001BC74, symSize: 0x30 }
  - { offset: 0x189B37, size: 0x8, addend: 0x0, symName: __ZN8crashpad26MinidumpCrashpadInfoWriter14SetAddressMaskEy, symObjAddr: 0x41C, symBinAddr: 0x10001BCA4, symSize: 0x8 }
  - { offset: 0x189B83, size: 0x8, addend: 0x0, symName: __ZN8crashpad26MinidumpCrashpadInfoWriter13SetModuleListENSt3__110unique_ptrINS_36MinidumpModuleCrashpadInfoListWriterENS1_14default_deleteIS3_EEEE, symObjAddr: 0x424, symBinAddr: 0x10001BCAC, symSize: 0x30 }
  - { offset: 0x189C8B, size: 0x8, addend: 0x0, symName: __ZN8crashpad26MinidumpCrashpadInfoWriter6FreezeEv, symObjAddr: 0x454, symBinAddr: 0x10001BCDC, symSize: 0x5C }
  - { offset: 0x189CF5, size: 0x8, addend: 0x0, symName: __ZN8crashpad26MinidumpCrashpadInfoWriter12SizeOfObjectEv, symObjAddr: 0x4B0, symBinAddr: 0x10001BD38, symSize: 0x8 }
  - { offset: 0x18A0C3, size: 0x8, addend: 0x0, symName: __ZN8crashpad26MinidumpCrashpadInfoWriter8ChildrenEv, symObjAddr: 0x4B8, symBinAddr: 0x10001BD40, symSize: 0x148 }
  - { offset: 0x18A817, size: 0x8, addend: 0x0, symName: __ZN8crashpad26MinidumpCrashpadInfoWriter11WriteObjectEPNS_19FileWriterInterfaceE, symObjAddr: 0x600, symBinAddr: 0x10001BE88, symSize: 0x1C }
  - { offset: 0x18A86A, size: 0x8, addend: 0x0, symName: __ZNK8crashpad26MinidumpCrashpadInfoWriter10StreamTypeEv, symObjAddr: 0x61C, symBinAddr: 0x10001BEA4, symSize: 0xC }
  - { offset: 0x18A8B5, size: 0x8, addend: 0x0, symName: __ZNK8crashpad26MinidumpCrashpadInfoWriter8IsUsefulEv, symObjAddr: 0x628, symBinAddr: 0x10001BEB0, symSize: 0x74 }
  - { offset: 0x18C7F5, size: 0x8, addend: 0x0, symName: __ZN7logging17MakeCheckOpStringImmEEPNSt3__112basic_stringIcNS1_11char_traitsIcEENS1_9allocatorIcEEEERKT_RKT0_PKc, symObjAddr: 0x8C0, symBinAddr: 0x10001C440, symSize: 0x1F8 }
  - { offset: 0x198842, size: 0x8, addend: 0x0, symName: __ZN8crashpad23MinidumpExceptionWriterC2Ev, symObjAddr: 0x0, symBinAddr: 0x10001BF24, symSize: 0x3C }
  - { offset: 0x198937, size: 0x8, addend: 0x0, symName: __ZN8crashpad23MinidumpExceptionWriterC1Ev, symObjAddr: 0x3C, symBinAddr: 0x10001BF60, symSize: 0x3C }
  - { offset: 0x198ABD, size: 0x8, addend: 0x0, symName: __ZN8crashpad23MinidumpExceptionWriterD2Ev, symObjAddr: 0x78, symBinAddr: 0x10001BF9C, symSize: 0x3C }
  - { offset: 0x198AE3, size: 0x8, addend: 0x0, symName: __ZN8crashpad23MinidumpExceptionWriterD2Ev, symObjAddr: 0x78, symBinAddr: 0x10001BF9C, symSize: 0x3C }
  - { offset: 0x198B02, size: 0x8, addend: 0x0, symName: __ZN8crashpad23MinidumpExceptionWriterD2Ev, symObjAddr: 0x78, symBinAddr: 0x10001BF9C, symSize: 0x3C }
  - { offset: 0x198B22, size: 0x8, addend: 0x0, symName: __ZN8crashpad23MinidumpExceptionWriterD2Ev, symObjAddr: 0x78, symBinAddr: 0x10001BF9C, symSize: 0x3C }
  - { offset: 0x198BA6, size: 0x8, addend: 0x0, symName: __ZN8crashpad23MinidumpExceptionWriterD1Ev, symObjAddr: 0xB4, symBinAddr: 0x10001BFD8, symSize: 0x3C }
  - { offset: 0x198BCC, size: 0x8, addend: 0x0, symName: __ZN8crashpad23MinidumpExceptionWriterD1Ev, symObjAddr: 0xB4, symBinAddr: 0x10001BFD8, symSize: 0x3C }
  - { offset: 0x198BEB, size: 0x8, addend: 0x0, symName: __ZN8crashpad23MinidumpExceptionWriterD1Ev, symObjAddr: 0xB4, symBinAddr: 0x10001BFD8, symSize: 0x3C }
  - { offset: 0x198C0A, size: 0x8, addend: 0x0, symName: __ZN8crashpad23MinidumpExceptionWriterD1Ev, symObjAddr: 0xB4, symBinAddr: 0x10001BFD8, symSize: 0x3C }
  - { offset: 0x198C2A, size: 0x8, addend: 0x0, symName: __ZN8crashpad23MinidumpExceptionWriterD1Ev, symObjAddr: 0xB4, symBinAddr: 0x10001BFD8, symSize: 0x3C }
  - { offset: 0x198CAF, size: 0x8, addend: 0x0, symName: __ZN8crashpad23MinidumpExceptionWriterD0Ev, symObjAddr: 0xF0, symBinAddr: 0x10001C014, symSize: 0x3C }
  - { offset: 0x199055, size: 0x8, addend: 0x0, symName: __ZN8crashpad23MinidumpExceptionWriter22InitializeFromSnapshotEPKNS_17ExceptionSnapshotERKNSt3__13mapIyjNS4_4lessIyEENS4_9allocatorINS4_4pairIKyjEEEEEEb, symObjAddr: 0x12C, symBinAddr: 0x10001C050, symSize: 0x154 }
  - { offset: 0x1994B5, size: 0x8, addend: 0x0, symName: __ZN8crashpad23MinidumpExceptionWriter23SetExceptionInformationERKNSt3__16vectorIyNS1_9allocatorIyEEEE, symObjAddr: 0x280, symBinAddr: 0x10001C1A4, symSize: 0x140 }
  - { offset: 0x1995F6, size: 0x8, addend: 0x0, symName: __ZN8crashpad23MinidumpExceptionWriter10SetContextENSt3__110unique_ptrINS_21MinidumpContextWriterENS1_14default_deleteIS3_EEEE, symObjAddr: 0x3C0, symBinAddr: 0x10001C2E4, symSize: 0x28 }
  - { offset: 0x19976B, size: 0x8, addend: 0x0, symName: __ZN8crashpad23MinidumpExceptionWriter6FreezeEv, symObjAddr: 0x3E8, symBinAddr: 0x10001C30C, symSize: 0xCC }
  - { offset: 0x199864, size: 0x8, addend: 0x0, symName: __ZN8crashpad23MinidumpExceptionWriter12SizeOfObjectEv, symObjAddr: 0x4B4, symBinAddr: 0x10001C3D8, symSize: 0x8 }
  - { offset: 0x199AC6, size: 0x8, addend: 0x0, symName: __ZN8crashpad23MinidumpExceptionWriter8ChildrenEv, symObjAddr: 0x4BC, symBinAddr: 0x10001C3E0, symSize: 0x3C }
  - { offset: 0x199D3F, size: 0x8, addend: 0x0, symName: __ZN8crashpad23MinidumpExceptionWriter11WriteObjectEPNS_19FileWriterInterfaceE, symObjAddr: 0x4F8, symBinAddr: 0x10001C41C, symSize: 0x1C }
  - { offset: 0x199D93, size: 0x8, addend: 0x0, symName: __ZNK8crashpad23MinidumpExceptionWriter10StreamTypeEv, symObjAddr: 0x514, symBinAddr: 0x10001C438, symSize: 0x8 }
  - { offset: 0x19A4FA, size: 0x8, addend: 0x0, symName: __ZNKSt3__115basic_stringbufIcNS_11char_traitsIcEENS_9allocatorIcEEE3strEv, symObjAddr: 0x113C, symBinAddr: 0x10001CCBC, symSize: 0x174 }
  - { offset: 0x19ACDC, size: 0x8, addend: 0x0, symName: __ZNSt3__119basic_ostringstreamIcNS_11char_traitsIcEENS_9allocatorIcEEED1Ev, symObjAddr: 0xAB8, symBinAddr: 0x10001C638, symSize: 0x8C }
  - { offset: 0x19AE89, size: 0x8, addend: 0x0, symName: __ZNSt3__119basic_ostringstreamIcNS_11char_traitsIcEENS_9allocatorIcEEED0Ev, symObjAddr: 0xB44, symBinAddr: 0x10001C6C4, symSize: 0x8C }
  - { offset: 0x19B054, size: 0x8, addend: 0x0, symName: __ZTv0_n24_NSt3__119basic_ostringstreamIcNS_11char_traitsIcEENS_9allocatorIcEEED1Ev, symObjAddr: 0xBD0, symBinAddr: 0x10001C750, symSize: 0x8C }
  - { offset: 0x19B230, size: 0x8, addend: 0x0, symName: __ZTv0_n24_NSt3__119basic_ostringstreamIcNS_11char_traitsIcEENS_9allocatorIcEEED0Ev, symObjAddr: 0xC5C, symBinAddr: 0x10001C7DC, symSize: 0x94 }
  - { offset: 0x19B40E, size: 0x8, addend: 0x0, symName: __ZNSt3__115basic_stringbufIcNS_11char_traitsIcEENS_9allocatorIcEEED1Ev, symObjAddr: 0xCF0, symBinAddr: 0x10001C870, symSize: 0x48 }
  - { offset: 0x19B434, size: 0x8, addend: 0x0, symName: __ZNSt3__115basic_stringbufIcNS_11char_traitsIcEENS_9allocatorIcEEED1Ev, symObjAddr: 0xCF0, symBinAddr: 0x10001C870, symSize: 0x48 }
  - { offset: 0x19B585, size: 0x8, addend: 0x0, symName: __ZNSt3__115basic_stringbufIcNS_11char_traitsIcEENS_9allocatorIcEEED0Ev, symObjAddr: 0xD38, symBinAddr: 0x10001C8B8, symSize: 0x58 }
  - { offset: 0x19B812, size: 0x8, addend: 0x0, symName: __ZNSt3__115basic_stringbufIcNS_11char_traitsIcEENS_9allocatorIcEEE7seekoffExNS_8ios_base7seekdirEj, symObjAddr: 0xD90, symBinAddr: 0x10001C910, symSize: 0x120 }
  - { offset: 0x19BA57, size: 0x8, addend: 0x0, symName: __ZNSt3__115basic_stringbufIcNS_11char_traitsIcEENS_9allocatorIcEEE7seekposENS_4fposI11__mbstate_tEEj, symObjAddr: 0xEB0, symBinAddr: 0x10001CA30, symSize: 0x18 }
  - { offset: 0x19BAFA, size: 0x8, addend: 0x0, symName: __ZNSt3__115basic_stringbufIcNS_11char_traitsIcEENS_9allocatorIcEEE9underflowEv, symObjAddr: 0xEC8, symBinAddr: 0x10001CA48, symSize: 0x50 }
  - { offset: 0x19BBA5, size: 0x8, addend: 0x0, symName: __ZNSt3__115basic_stringbufIcNS_11char_traitsIcEENS_9allocatorIcEEE9pbackfailEi, symObjAddr: 0xF18, symBinAddr: 0x10001CA98, symSize: 0x6C }
  - { offset: 0x19BD82, size: 0x8, addend: 0x0, symName: __ZNSt3__115basic_stringbufIcNS_11char_traitsIcEENS_9allocatorIcEEE8overflowEi, symObjAddr: 0xF84, symBinAddr: 0x10001CB04, symSize: 0x1B8 }
  - { offset: 0x1C8533, size: 0x8, addend: 0x0, symName: __ZN8crashpad18MinidumpFileWriterC2Ev, symObjAddr: 0x0, symBinAddr: 0x10001CE30, symSize: 0x50 }
  - { offset: 0x1C8679, size: 0x8, addend: 0x0, symName: __ZN8crashpad18MinidumpFileWriterC1Ev, symObjAddr: 0x50, symBinAddr: 0x10001CE80, symSize: 0x50 }
  - { offset: 0x1C8A23, size: 0x8, addend: 0x0, symName: __ZN8crashpad18MinidumpFileWriterD2Ev, symObjAddr: 0xA0, symBinAddr: 0x10001CED0, symSize: 0x80 }
  - { offset: 0x1C8DD1, size: 0x8, addend: 0x0, symName: __ZN8crashpad18MinidumpFileWriterD1Ev, symObjAddr: 0x120, symBinAddr: 0x10001CF50, symSize: 0x80 }
  - { offset: 0x1C90D4, size: 0x8, addend: 0x0, symName: __ZN8crashpad18MinidumpFileWriterD0Ev, symObjAddr: 0x1A0, symBinAddr: 0x10001CFD0, symSize: 0x84 }
  - { offset: 0x1CBC0B, size: 0x8, addend: 0x0, symName: __ZN8crashpad18MinidumpFileWriter22InitializeFromSnapshotEPKNS_15ProcessSnapshotE, symObjAddr: 0x224, symBinAddr: 0x10001D054, symSize: 0xC5C }
  - { offset: 0x1D0608, size: 0x8, addend: 0x0, symName: __ZN8crashpad18MinidumpFileWriter9AddStreamENSt3__110unique_ptrINS_8internal20MinidumpStreamWriterENS1_14default_deleteIS4_EEEE, symObjAddr: 0xE88, symBinAddr: 0x10001DCB8, symSize: 0x218 }
  - { offset: 0x1D0F82, size: 0x8, addend: 0x0, symName: __ZNSt3__110unique_ptrIN8crashpad28MinidumpThreadNameListWriterENS_14default_deleteIS2_EEED1B8ne190102Ev, symObjAddr: 0x10A0, symBinAddr: 0x10001DED0, symSize: 0x3C }
  - { offset: 0x1D102B, size: 0x8, addend: 0x0, symName: __ZNSt3__110unique_ptrIN8crashpad24MinidumpHandleDataWriterENS_14default_deleteIS2_EEED1B8ne190102Ev, symObjAddr: 0x1190, symBinAddr: 0x10001DFC0, symSize: 0x3C }
  - { offset: 0x1D10D4, size: 0x8, addend: 0x0, symName: __ZNSt3__110unique_ptrIN8crashpad28MinidumpMemoryInfoListWriterENS_14default_deleteIS2_EEED1B8ne190102Ev, symObjAddr: 0x1154, symBinAddr: 0x10001DF84, symSize: 0x3C }
  - { offset: 0x1D117D, size: 0x8, addend: 0x0, symName: __ZNSt3__110unique_ptrIN8crashpad32MinidumpUnloadedModuleListWriterENS_14default_deleteIS2_EEED1B8ne190102Ev, symObjAddr: 0x1118, symBinAddr: 0x10001DF48, symSize: 0x3C }
  - { offset: 0x1D1226, size: 0x8, addend: 0x0, symName: __ZNSt3__110unique_ptrIN8crashpad23MinidumpExceptionWriterENS_14default_deleteIS2_EEED1B8ne190102Ev, symObjAddr: 0x10DC, symBinAddr: 0x10001DF0C, symSize: 0x3C }
  - { offset: 0x1D12CF, size: 0x8, addend: 0x0, symName: __ZNSt3__110unique_ptrIN8crashpad24MinidumpSystemInfoWriterENS_14default_deleteIS2_EEED1B8ne190102Ev, symObjAddr: 0x13E4, symBinAddr: 0x10001E214, symSize: 0x3C }
  - { offset: 0x1D1370, size: 0x8, addend: 0x0, symName: __ZNSt3__110unique_ptrIN8crashpad24MinidumpUserStreamWriterENS_14default_deleteIS2_EEED1B8ne190102Ev, symObjAddr: 0x11CC, symBinAddr: 0x10001DFFC, symSize: 0x3C }
  - { offset: 0x1D1419, size: 0x8, addend: 0x0, symName: __ZNSt3__16vectorIN8crashpad14HandleSnapshotENS_9allocatorIS2_EEED1B8ne190102Ev, symObjAddr: 0x1208, symBinAddr: 0x10001E038, symSize: 0x58 }
  - { offset: 0x1D15AB, size: 0x8, addend: 0x0, symName: __ZNSt3__110unique_ptrIN8crashpad26MinidumpCrashpadInfoWriterENS_14default_deleteIS2_EEED1B8ne190102Ev, symObjAddr: 0x1260, symBinAddr: 0x10001E090, symSize: 0x3C }
  - { offset: 0x1D164C, size: 0x8, addend: 0x0, symName: __ZNSt3__16vectorIN8crashpad22UnloadedModuleSnapshotENS_9allocatorIS2_EEED1B8ne190102Ev, symObjAddr: 0x129C, symBinAddr: 0x10001E0CC, symSize: 0x58 }
  - { offset: 0x1D17DE, size: 0x8, addend: 0x0, symName: __ZNSt3__110unique_ptrIN8crashpad24MinidumpModuleListWriterENS_14default_deleteIS2_EEED1B8ne190102Ev, symObjAddr: 0x12F4, symBinAddr: 0x10001E124, symSize: 0x3C }
  - { offset: 0x1D187F, size: 0x8, addend: 0x0, symName: __ZNSt3__110unique_ptrIN8crashpad24MinidumpThreadListWriterENS_14default_deleteIS2_EEED1B8ne190102Ev, symObjAddr: 0x1330, symBinAddr: 0x10001E160, symSize: 0x3C }
  - { offset: 0x1D1920, size: 0x8, addend: 0x0, symName: __ZNSt3__110unique_ptrIN8crashpad24MinidumpMemoryListWriterENS_14default_deleteIS2_EEED1B8ne190102Ev, symObjAddr: 0x136C, symBinAddr: 0x10001E19C, symSize: 0x3C }
  - { offset: 0x1D19C1, size: 0x8, addend: 0x0, symName: __ZNSt3__110unique_ptrIN8crashpad22MinidumpMiscInfoWriterENS_14default_deleteIS2_EEED1B8ne190102Ev, symObjAddr: 0x13A8, symBinAddr: 0x10001E1D8, symSize: 0x3C }
  - { offset: 0x1D1A62, size: 0x8, addend: 0x0, symName: __ZN8crashpad18MinidumpFileWriter12SetTimestampEl, symObjAddr: 0xE80, symBinAddr: 0x10001DCB0, symSize: 0x8 }
  - { offset: 0x1D264D, size: 0x8, addend: 0x0, symName: __ZN8crashpad18MinidumpFileWriter22AddUserExtensionStreamENSt3__110unique_ptrINS_37MinidumpUserExtensionStreamDataSourceENS1_14default_deleteIS3_EEEE, symObjAddr: 0x1420, symBinAddr: 0x10001E250, symSize: 0xF4 }
  - { offset: 0x1D2B7D, size: 0x8, addend: 0x0, symName: __ZN8crashpad18MinidumpFileWriter15WriteEverythingEPNS_19FileWriterInterfaceE, symObjAddr: 0x1514, symBinAddr: 0x10001E344, symSize: 0x110 }
  - { offset: 0x1D2C78, size: 0x8, addend: 0x0, symName: __ZN8crashpad18MinidumpFileWriter13WriteMinidumpEPNS_19FileWriterInterfaceEb, symObjAddr: 0x1624, symBinAddr: 0x10001E454, symSize: 0x140 }
  - { offset: 0x1D2D7F, size: 0x8, addend: 0x0, symName: __ZN8crashpad18MinidumpFileWriter6FreezeEv, symObjAddr: 0x1764, symBinAddr: 0x10001E594, symSize: 0x134 }
  - { offset: 0x1D2F6D, size: 0x8, addend: 0x0, symName: __ZN8crashpad18MinidumpFileWriter12SizeOfObjectEv, symObjAddr: 0x1898, symBinAddr: 0x10001E6C8, symSize: 0x1C }
  - { offset: 0x1D2F9A, size: 0x8, addend: 0x0, symName: __ZN8crashpad18MinidumpFileWriter12SizeOfObjectEv, symObjAddr: 0x1898, symBinAddr: 0x10001E6C8, symSize: 0x1C }
  - { offset: 0x1D3417, size: 0x8, addend: 0x0, symName: __ZN8crashpad18MinidumpFileWriter8ChildrenEv, symObjAddr: 0x18B4, symBinAddr: 0x10001E6E4, symSize: 0x144 }
  - { offset: 0x1D3AA4, size: 0x8, addend: 0x0, symName: __ZN8crashpad18MinidumpFileWriter21WillWriteAtOffsetImplEx, symObjAddr: 0x19F8, symBinAddr: 0x10001E828, symSize: 0xC8 }
  - { offset: 0x1D40AC, size: 0x8, addend: 0x0, symName: __ZN8crashpad18MinidumpFileWriter11WriteObjectEPNS_19FileWriterInterfaceE, symObjAddr: 0x1AC0, symBinAddr: 0x10001E8F0, symSize: 0x1A8 }
  - { offset: 0x1E6644, size: 0x8, addend: 0x0, symName: __ZN8crashpad24MinidumpHandleDataWriterC2Ev, symObjAddr: 0x0, symBinAddr: 0x10001EA98, symSize: 0x38 }
  - { offset: 0x1E67BA, size: 0x8, addend: 0x0, symName: __ZN8crashpad24MinidumpHandleDataWriterC1Ev, symObjAddr: 0x38, symBinAddr: 0x10001EAD0, symSize: 0x38 }
  - { offset: 0x1E6B5C, size: 0x8, addend: 0x0, symName: __ZN8crashpad24MinidumpHandleDataWriterD2Ev, symObjAddr: 0x70, symBinAddr: 0x10001EB08, symSize: 0xA4 }
  - { offset: 0x1E70AF, size: 0x8, addend: 0x0, symName: __ZN8crashpad24MinidumpHandleDataWriterD1Ev, symObjAddr: 0x124, symBinAddr: 0x10001EBAC, symSize: 0x4 }
  - { offset: 0x1E70D2, size: 0x8, addend: 0x0, symName: __ZN8crashpad24MinidumpHandleDataWriterD1Ev, symObjAddr: 0x124, symBinAddr: 0x10001EBAC, symSize: 0x4 }
  - { offset: 0x1E7101, size: 0x8, addend: 0x0, symName: __ZN8crashpad24MinidumpHandleDataWriterD0Ev, symObjAddr: 0x128, symBinAddr: 0x10001EBB0, symSize: 0x14 }
  - { offset: 0x1E7A6F, size: 0x8, addend: 0x0, symName: __ZN8crashpad24MinidumpHandleDataWriter22InitializeFromSnapshotERKNSt3__16vectorINS_14HandleSnapshotENS1_9allocatorIS3_EEEE, symObjAddr: 0x13C, symBinAddr: 0x10001EBC4, symSize: 0x334 }
  - { offset: 0x1E85FC, size: 0x8, addend: 0x0, symName: __ZNSt3__16vectorI26MINIDUMP_HANDLE_DESCRIPTORNS_9allocatorIS1_EEE8__appendEm, symObjAddr: 0xD20, symBinAddr: 0x10001F300, symSize: 0x124 }
  - { offset: 0x1E9456, size: 0x8, addend: 0x0, symName: __ZN8crashpad24MinidumpHandleDataWriter6FreezeEv, symObjAddr: 0x470, symBinAddr: 0x10001EEF8, symSize: 0xE4 }
  - { offset: 0x1E9557, size: 0x8, addend: 0x0, symName: __ZN8crashpad24MinidumpHandleDataWriter12SizeOfObjectEv, symObjAddr: 0x554, symBinAddr: 0x10001EFDC, symSize: 0x10 }
  - { offset: 0x1E9583, size: 0x8, addend: 0x0, symName: __ZN8crashpad24MinidumpHandleDataWriter12SizeOfObjectEv, symObjAddr: 0x554, symBinAddr: 0x10001EFDC, symSize: 0x10 }
  - { offset: 0x1E99B6, size: 0x8, addend: 0x0, symName: __ZN8crashpad24MinidumpHandleDataWriter8ChildrenEv, symObjAddr: 0x564, symBinAddr: 0x10001EFEC, symSize: 0x178 }
  - { offset: 0x1EA614, size: 0x8, addend: 0x0, symName: __ZN8crashpad24MinidumpHandleDataWriter11WriteObjectEPNS_19FileWriterInterfaceE, symObjAddr: 0x6DC, symBinAddr: 0x10001F164, symSize: 0x194 }
  - { offset: 0x1EAFB0, size: 0x8, addend: 0x0, symName: __ZNK8crashpad24MinidumpHandleDataWriter10StreamTypeEv, symObjAddr: 0x870, symBinAddr: 0x10001F2F8, symSize: 0x8 }
  - { offset: 0x1ED6E2, size: 0x8, addend: 0x0, symName: __ZN8crashpad28MinidumpMemoryInfoListWriterC2Ev, symObjAddr: 0x0, symBinAddr: 0x10001F424, symSize: 0x2C }
  - { offset: 0x1F4C74, size: 0x8, addend: 0x0, symName: __ZN8crashpad28MinidumpMemoryInfoListWriterC2Ev, symObjAddr: 0x0, symBinAddr: 0x10001F424, symSize: 0x2C }
  - { offset: 0x1F4CF9, size: 0x8, addend: 0x0, symName: __ZN8crashpad28MinidumpMemoryInfoListWriterC1Ev, symObjAddr: 0x2C, symBinAddr: 0x10001F450, symSize: 0x2C }
  - { offset: 0x1F4E7F, size: 0x8, addend: 0x0, symName: __ZN8crashpad28MinidumpMemoryInfoListWriterD2Ev, symObjAddr: 0x58, symBinAddr: 0x10001F47C, symSize: 0x34 }
  - { offset: 0x1F4EA5, size: 0x8, addend: 0x0, symName: __ZN8crashpad28MinidumpMemoryInfoListWriterD2Ev, symObjAddr: 0x58, symBinAddr: 0x10001F47C, symSize: 0x34 }
  - { offset: 0x1F4EC4, size: 0x8, addend: 0x0, symName: __ZN8crashpad28MinidumpMemoryInfoListWriterD2Ev, symObjAddr: 0x58, symBinAddr: 0x10001F47C, symSize: 0x34 }
  - { offset: 0x1F4EE4, size: 0x8, addend: 0x0, symName: __ZN8crashpad28MinidumpMemoryInfoListWriterD2Ev, symObjAddr: 0x58, symBinAddr: 0x10001F47C, symSize: 0x34 }
  - { offset: 0x1F5021, size: 0x8, addend: 0x0, symName: __ZN8crashpad28MinidumpMemoryInfoListWriterD1Ev, symObjAddr: 0x8C, symBinAddr: 0x10001F4B0, symSize: 0x34 }
  - { offset: 0x1F5047, size: 0x8, addend: 0x0, symName: __ZN8crashpad28MinidumpMemoryInfoListWriterD1Ev, symObjAddr: 0x8C, symBinAddr: 0x10001F4B0, symSize: 0x34 }
  - { offset: 0x1F5066, size: 0x8, addend: 0x0, symName: __ZN8crashpad28MinidumpMemoryInfoListWriterD1Ev, symObjAddr: 0x8C, symBinAddr: 0x10001F4B0, symSize: 0x34 }
  - { offset: 0x1F5085, size: 0x8, addend: 0x0, symName: __ZN8crashpad28MinidumpMemoryInfoListWriterD1Ev, symObjAddr: 0x8C, symBinAddr: 0x10001F4B0, symSize: 0x34 }
  - { offset: 0x1F50A5, size: 0x8, addend: 0x0, symName: __ZN8crashpad28MinidumpMemoryInfoListWriterD1Ev, symObjAddr: 0x8C, symBinAddr: 0x10001F4B0, symSize: 0x34 }
  - { offset: 0x1F51E3, size: 0x8, addend: 0x0, symName: __ZN8crashpad28MinidumpMemoryInfoListWriterD0Ev, symObjAddr: 0xC0, symBinAddr: 0x10001F4E4, symSize: 0x34 }
  - { offset: 0x1F56CB, size: 0x8, addend: 0x0, symName: __ZN8crashpad28MinidumpMemoryInfoListWriter22InitializeFromSnapshotERKNSt3__16vectorIPKNS_23MemoryMapRegionSnapshotENS1_9allocatorIS5_EEEE, symObjAddr: 0xF4, symBinAddr: 0x10001F518, symSize: 0x178 }
  - { offset: 0x1F5ACD, size: 0x8, addend: 0x0, symName: __ZN8crashpad28MinidumpMemoryInfoListWriter6FreezeEv, symObjAddr: 0x26C, symBinAddr: 0x10001F690, symSize: 0x4C }
  - { offset: 0x1F5AFB, size: 0x8, addend: 0x0, symName: __ZN8crashpad28MinidumpMemoryInfoListWriter6FreezeEv, symObjAddr: 0x26C, symBinAddr: 0x10001F690, symSize: 0x4C }
  - { offset: 0x1F5B45, size: 0x8, addend: 0x0, symName: __ZN8crashpad28MinidumpMemoryInfoListWriter12SizeOfObjectEv, symObjAddr: 0x2B8, symBinAddr: 0x10001F6DC, symSize: 0x10 }
  - { offset: 0x1F5B71, size: 0x8, addend: 0x0, symName: __ZN8crashpad28MinidumpMemoryInfoListWriter12SizeOfObjectEv, symObjAddr: 0x2B8, symBinAddr: 0x10001F6DC, symSize: 0x10 }
  - { offset: 0x1F5BC3, size: 0x8, addend: 0x0, symName: __ZN8crashpad28MinidumpMemoryInfoListWriter8ChildrenEv, symObjAddr: 0x2C8, symBinAddr: 0x10001F6EC, symSize: 0xC }
  - { offset: 0x1F5BEB, size: 0x8, addend: 0x0, symName: __ZN8crashpad28MinidumpMemoryInfoListWriter8ChildrenEv, symObjAddr: 0x2C8, symBinAddr: 0x10001F6EC, symSize: 0xC }
  - { offset: 0x1F5C08, size: 0x8, addend: 0x0, symName: __ZN8crashpad28MinidumpMemoryInfoListWriter8ChildrenEv, symObjAddr: 0x2C8, symBinAddr: 0x10001F6EC, symSize: 0xC }
  - { offset: 0x1F6137, size: 0x8, addend: 0x0, symName: __ZN8crashpad28MinidumpMemoryInfoListWriter11WriteObjectEPNS_19FileWriterInterfaceE, symObjAddr: 0x2D4, symBinAddr: 0x10001F6F8, symSize: 0x194 }
  - { offset: 0x1F6AD3, size: 0x8, addend: 0x0, symName: __ZNK8crashpad28MinidumpMemoryInfoListWriter10StreamTypeEv, symObjAddr: 0x468, symBinAddr: 0x10001F88C, symSize: 0x8 }
  - { offset: 0x20719B, size: 0x8, addend: 0x0, symName: '__ZNSt3__111__introsortINS_17_ClassicAlgPolicyERZN8crashpad24MinidumpMemoryListWriter19CoalesceOwnedMemoryEvE3$_0PNS_10unique_ptrINS2_28SnapshotMinidumpMemoryWriterENS_14default_deleteIS7_EEEELb0EEEvT1_SC_T0_NS_15iterator_traitsISC_E15difference_typeEb', symObjAddr: 0x1A68, symBinAddr: 0x100020EE0, symSize: 0x11F0 }
  - { offset: 0x209183, size: 0x8, addend: 0x0, symName: '__ZNSt3__127__insertion_sort_incompleteB8ne190102INS_17_ClassicAlgPolicyERZN8crashpad24MinidumpMemoryListWriter19CoalesceOwnedMemoryEvE3$_0PNS_10unique_ptrINS2_28SnapshotMinidumpMemoryWriterENS_14default_deleteIS7_EEEEEEbT1_SC_T0_', symObjAddr: 0x30F4, symBinAddr: 0x10002256C, symSize: 0x334 }
  - { offset: 0x20B8F6, size: 0x8, addend: 0x0, symName: '__ZNSt3__17__sort3B8ne190102INS_17_ClassicAlgPolicyERZN8crashpad24MinidumpMemoryListWriter19CoalesceOwnedMemoryEvE3$_0PNS_10unique_ptrINS2_28SnapshotMinidumpMemoryWriterENS_14default_deleteIS7_EEEEEEjT1_SC_SC_T0_', symObjAddr: 0x2EA0, symBinAddr: 0x100022318, symSize: 0x254 }
  - { offset: 0x20BFE6, size: 0x8, addend: 0x0, symName: '__ZNSt3__17__sort4B8ne190102INS_17_ClassicAlgPolicyERZN8crashpad24MinidumpMemoryListWriter19CoalesceOwnedMemoryEvE3$_0PNS_10unique_ptrINS2_28SnapshotMinidumpMemoryWriterENS_14default_deleteIS7_EEEEEEvT1_SC_SC_SC_T0_', symObjAddr: 0x3428, symBinAddr: 0x1000228A0, symSize: 0x1C4 }
  - { offset: 0x20C487, size: 0x8, addend: 0x0, symName: '__ZNSt3__124__sort5_maybe_branchlessB8ne190102INS_17_ClassicAlgPolicyERZN8crashpad24MinidumpMemoryListWriter19CoalesceOwnedMemoryEvE3$_0PNS_10unique_ptrINS2_28SnapshotMinidumpMemoryWriterENS_14default_deleteIS7_EEEELi0EEEvT1_SC_SC_SC_SC_T0_', symObjAddr: 0x2C58, symBinAddr: 0x1000220D0, symSize: 0x248 }
  - { offset: 0x20EE74, size: 0x8, addend: 0x0, symName: __ZN8crashpad28SnapshotMinidumpMemoryWriterC2EPKNS_14MemorySnapshotE, symObjAddr: 0x0, symBinAddr: 0x10001F894, symSize: 0x44 }
  - { offset: 0x20EF09, size: 0x8, addend: 0x0, symName: __ZN8crashpad28SnapshotMinidumpMemoryWriterC1EPKNS_14MemorySnapshotE, symObjAddr: 0x44, symBinAddr: 0x10001F8D8, symSize: 0x44 }
  - { offset: 0x20F097, size: 0x8, addend: 0x0, symName: __ZN8crashpad28SnapshotMinidumpMemoryWriterD2Ev, symObjAddr: 0x88, symBinAddr: 0x10001F91C, symSize: 0x48 }
  - { offset: 0x20F239, size: 0x8, addend: 0x0, symName: __ZN8crashpad28SnapshotMinidumpMemoryWriterD1Ev, symObjAddr: 0xD0, symBinAddr: 0x10001F964, symSize: 0x48 }
  - { offset: 0x20F25F, size: 0x8, addend: 0x0, symName: __ZN8crashpad28SnapshotMinidumpMemoryWriterD1Ev, symObjAddr: 0xD0, symBinAddr: 0x10001F964, symSize: 0x48 }
  - { offset: 0x20F3FB, size: 0x8, addend: 0x0, symName: __ZThn120_N8crashpad28SnapshotMinidumpMemoryWriterD1Ev, symObjAddr: 0x118, symBinAddr: 0x10001F9AC, symSize: 0x48 }
  - { offset: 0x20F594, size: 0x8, addend: 0x0, symName: __ZN8crashpad28SnapshotMinidumpMemoryWriterD0Ev, symObjAddr: 0x160, symBinAddr: 0x10001F9F4, symSize: 0x48 }
  - { offset: 0x20F770, size: 0x8, addend: 0x0, symName: __ZThn120_N8crashpad28SnapshotMinidumpMemoryWriterD0Ev, symObjAddr: 0x1A8, symBinAddr: 0x10001FA3C, symSize: 0x4C }
  - { offset: 0x20F929, size: 0x8, addend: 0x0, symName: __ZN8crashpad28SnapshotMinidumpMemoryWriter26MemorySnapshotDelegateReadEPvm, symObjAddr: 0x1F4, symBinAddr: 0x10001FA88, symSize: 0x10 }
  - { offset: 0x20F9A5, size: 0x8, addend: 0x0, symName: __ZThn120_N8crashpad28SnapshotMinidumpMemoryWriter26MemorySnapshotDelegateReadEPvm, symObjAddr: 0x204, symBinAddr: 0x10001FA98, symSize: 0x10 }
  - { offset: 0x20F9BF, size: 0x8, addend: 0x0, symName: __ZThn120_N8crashpad28SnapshotMinidumpMemoryWriter26MemorySnapshotDelegateReadEPvm, symObjAddr: 0x204, symBinAddr: 0x10001FA98, symSize: 0x10 }
  - { offset: 0x20FDD1, size: 0x8, addend: 0x0, symName: __ZN8crashpad28SnapshotMinidumpMemoryWriter11WriteObjectEPNS_19FileWriterInterfaceE, symObjAddr: 0x214, symBinAddr: 0x10001FAA8, symSize: 0x124 }
  - { offset: 0x2103BA, size: 0x8, addend: 0x0, symName: __ZNK8crashpad28SnapshotMinidumpMemoryWriter24MinidumpMemoryDescriptorEv, symObjAddr: 0x338, symBinAddr: 0x10001FBCC, symSize: 0x8 }
  - { offset: 0x2106C3, size: 0x8, addend: 0x0, symName: __ZN8crashpad28SnapshotMinidumpMemoryWriter24RegisterMemoryDescriptorEP26MINIDUMP_MEMORY_DESCRIPTOR, symObjAddr: 0x340, symBinAddr: 0x10001FBD4, symSize: 0xEC }
  - { offset: 0x210A6A, size: 0x8, addend: 0x0, symName: __ZN8crashpad28SnapshotMinidumpMemoryWriter6FreezeEv, symObjAddr: 0x42C, symBinAddr: 0x10001FCC0, symSize: 0x38 }
  - { offset: 0x210A98, size: 0x8, addend: 0x0, symName: __ZN8crashpad28SnapshotMinidumpMemoryWriter6FreezeEv, symObjAddr: 0x42C, symBinAddr: 0x10001FCC0, symSize: 0x38 }
  - { offset: 0x210ADD, size: 0x8, addend: 0x0, symName: __ZN8crashpad28SnapshotMinidumpMemoryWriter9AlignmentEv, symObjAddr: 0x464, symBinAddr: 0x10001FCF8, symSize: 0x8 }
  - { offset: 0x210B1D, size: 0x8, addend: 0x0, symName: __ZN8crashpad28SnapshotMinidumpMemoryWriter12SizeOfObjectEv, symObjAddr: 0x46C, symBinAddr: 0x10001FD00, symSize: 0x10 }
  - { offset: 0x210B49, size: 0x8, addend: 0x0, symName: __ZN8crashpad28SnapshotMinidumpMemoryWriter12SizeOfObjectEv, symObjAddr: 0x46C, symBinAddr: 0x10001FD00, symSize: 0x10 }
  - { offset: 0x210B88, size: 0x8, addend: 0x0, symName: __ZN8crashpad28SnapshotMinidumpMemoryWriter21WillWriteAtOffsetImplEx, symObjAddr: 0x47C, symBinAddr: 0x10001FD10, symSize: 0xAC }
  - { offset: 0x210C75, size: 0x8, addend: 0x0, symName: __ZN8crashpad28SnapshotMinidumpMemoryWriter10WritePhaseEv, symObjAddr: 0x528, symBinAddr: 0x10001FDBC, symSize: 0x8 }
  - { offset: 0x210CEE, size: 0x8, addend: 0x0, symName: __ZN8crashpad24MinidumpMemoryListWriterC2Ev, symObjAddr: 0x530, symBinAddr: 0x10001FDC4, symSize: 0x34 }
  - { offset: 0x210D73, size: 0x8, addend: 0x0, symName: __ZN8crashpad24MinidumpMemoryListWriterC1Ev, symObjAddr: 0x564, symBinAddr: 0x10001FDF8, symSize: 0x34 }
  - { offset: 0x21129B, size: 0x8, addend: 0x0, symName: __ZN8crashpad24MinidumpMemoryListWriterD2Ev, symObjAddr: 0x598, symBinAddr: 0x10001FE2C, symSize: 0xE0 }
  - { offset: 0x211A14, size: 0x8, addend: 0x0, symName: __ZNSt3__16vectorINS_10unique_ptrIN8crashpad28SnapshotMinidumpMemoryWriterENS_14default_deleteIS3_EEEENS_9allocatorIS6_EEED1B8ne190102Ev, symObjAddr: 0x678, symBinAddr: 0x10001FF0C, symSize: 0x74 }
  - { offset: 0x211C52, size: 0x8, addend: 0x0, symName: __ZN8crashpad24MinidumpMemoryListWriterD1Ev, symObjAddr: 0x6EC, symBinAddr: 0x10001FF80, symSize: 0x4 }
  - { offset: 0x211C75, size: 0x8, addend: 0x0, symName: __ZN8crashpad24MinidumpMemoryListWriterD1Ev, symObjAddr: 0x6EC, symBinAddr: 0x10001FF80, symSize: 0x4 }
  - { offset: 0x211CA4, size: 0x8, addend: 0x0, symName: __ZN8crashpad24MinidumpMemoryListWriterD0Ev, symObjAddr: 0x6F0, symBinAddr: 0x10001FF84, symSize: 0x14 }
  - { offset: 0x211E70, size: 0x8, addend: 0x0, symName: __ZN8crashpad24MinidumpMemoryListWriter15AddFromSnapshotERKNSt3__16vectorIPKNS_14MemorySnapshotENS1_9allocatorIS5_EEEE, symObjAddr: 0x704, symBinAddr: 0x10001FF98, symSize: 0xE8 }
  - { offset: 0x2121D7, size: 0x8, addend: 0x0, symName: __ZN8crashpad24MinidumpMemoryListWriter9AddMemoryENSt3__110unique_ptrINS_28SnapshotMinidumpMemoryWriterENS1_14default_deleteIS3_EEEE, symObjAddr: 0x7EC, symBinAddr: 0x100020080, symSize: 0x108 }
  - { offset: 0x212760, size: 0x8, addend: 0x0, symName: __ZN8crashpad24MinidumpMemoryListWriter17AddNonOwnedMemoryEPNS_28SnapshotMinidumpMemoryWriterE, symObjAddr: 0x8F4, symBinAddr: 0x100020188, symSize: 0xE8 }
  - { offset: 0x212D7D, size: 0x8, addend: 0x0, symName: __ZN8crashpad24MinidumpMemoryListWriter17AddNonOwnedMemoryEPNS_28SnapshotMinidumpMemoryWriterE, symObjAddr: 0x8F4, symBinAddr: 0x100020188, symSize: 0xE8 }
  - { offset: 0x213124, size: 0x8, addend: 0x0, symName: __ZN8crashpad24MinidumpMemoryListWriter19CoalesceOwnedMemoryEv, symObjAddr: 0x9DC, symBinAddr: 0x100020270, symSize: 0x494 }
  - { offset: 0x213147, size: 0x8, addend: 0x0, symName: '__ZNSt3__111__introsortINS_17_ClassicAlgPolicyERZN8crashpad24MinidumpMemoryListWriter19CoalesceOwnedMemoryEvE3$_0PNS_10unique_ptrINS2_28SnapshotMinidumpMemoryWriterENS_14default_deleteIS7_EEEELb0EEEvT1_SC_T0_NS_15iterator_traitsISC_E15difference_typeEb', symObjAddr: 0x1A68, symBinAddr: 0x100020EE0, symSize: 0x11F0 }
  - { offset: 0x213168, size: 0x8, addend: 0x0, symName: __ZN8crashpad24MinidumpMemoryListWriter19CoalesceOwnedMemoryEv, symObjAddr: 0x9DC, symBinAddr: 0x100020270, symSize: 0x494 }
  - { offset: 0x21526C, size: 0x8, addend: 0x0, symName: __ZN8crashpad24MinidumpMemoryListWriter29DropRangesThatOverlapNonOwnedEv, symObjAddr: 0xE70, symBinAddr: 0x100020704, symSize: 0x290 }
  - { offset: 0x215F55, size: 0x8, addend: 0x0, symName: __ZNSt3__120back_insert_iteratorINS_6vectorIPN8crashpad28SnapshotMinidumpMemoryWriterENS_9allocatorIS4_EEEEEaSB8ne190102ERKS4_, symObjAddr: 0x3600, symBinAddr: 0x100022A64, symSize: 0xFC }
  - { offset: 0x216253, size: 0x8, addend: 0x0, symName: __ZN8crashpad24MinidumpMemoryListWriter6FreezeEv, symObjAddr: 0x1100, symBinAddr: 0x100020994, symSize: 0x250 }
  - { offset: 0x2169F8, size: 0x8, addend: 0x0, symName: __ZNSt3__120back_insert_iteratorINS_6vectorIPN8crashpad28SnapshotMinidumpMemoryWriterENS_9allocatorIS4_EEEEEaSB8ne190102ERKS4_, symObjAddr: 0x3600, symBinAddr: 0x100022A64, symSize: 0xFC }
  - { offset: 0x216E70, size: 0x8, addend: 0x0, symName: __ZN8crashpad24MinidumpMemoryListWriter12SizeOfObjectEv, symObjAddr: 0x1350, symBinAddr: 0x100020BE4, symSize: 0x14 }
  - { offset: 0x216E9C, size: 0x8, addend: 0x0, symName: __ZN8crashpad24MinidumpMemoryListWriter12SizeOfObjectEv, symObjAddr: 0x1350, symBinAddr: 0x100020BE4, symSize: 0x14 }
  - { offset: 0x2172D0, size: 0x8, addend: 0x0, symName: __ZN8crashpad24MinidumpMemoryListWriter8ChildrenEv, symObjAddr: 0x1364, symBinAddr: 0x100020BF8, symSize: 0x144 }
  - { offset: 0x217E3E, size: 0x8, addend: 0x0, symName: __ZN8crashpad24MinidumpMemoryListWriter11WriteObjectEPNS_19FileWriterInterfaceE, symObjAddr: 0x14A8, symBinAddr: 0x100020D3C, symSize: 0x19C }
  - { offset: 0x218804, size: 0x8, addend: 0x0, symName: __ZNK8crashpad24MinidumpMemoryListWriter10StreamTypeEv, symObjAddr: 0x1644, symBinAddr: 0x100020ED8, symSize: 0x8 }
  - { offset: 0x21B6FF, size: 0x8, addend: 0x0, symName: __ZN8crashpad8internal32MinidumpMiscInfoDebugBuildStringEv, symObjAddr: 0x0, symBinAddr: 0x100022B60, symSize: 0x110 }
  - { offset: 0x21B729, size: 0x8, addend: 0x0, symName: __ZZN8crashpad8internal32MinidumpMiscInfoDebugBuildStringEvE3kOS, symObjAddr: 0x11C4, symBinAddr: 0x100078247, symSize: 0x0 }
  - { offset: 0x21B73F, size: 0x8, addend: 0x0, symName: __ZZN8crashpad8internal32MinidumpMiscInfoDebugBuildStringEvE4kCPU, symObjAddr: 0x11C8, symBinAddr: 0x10007824B, symSize: 0x0 }
  - { offset: 0x21BCA0, size: 0x8, addend: 0x0, symName: __ZN8crashpad12_GLOBAL__N_123TimevalToRoundedSecondsERK7timeval, symObjAddr: 0x904, symBinAddr: 0x100023464, symSize: 0xF0 }
  - { offset: 0x2213EE, size: 0x8, addend: 0x0, symName: __ZN8crashpad22MinidumpMiscInfoWriterC2Ev, symObjAddr: 0x110, symBinAddr: 0x100022C70, symSize: 0x38 }
  - { offset: 0x221432, size: 0x8, addend: 0x0, symName: __ZN8crashpad22MinidumpMiscInfoWriterC1Ev, symObjAddr: 0x148, symBinAddr: 0x100022CA8, symSize: 0x38 }
  - { offset: 0x22147D, size: 0x8, addend: 0x0, symName: __ZN8crashpad22MinidumpMiscInfoWriterD2Ev, symObjAddr: 0x180, symBinAddr: 0x100022CE0, symSize: 0x4 }
  - { offset: 0x2214BA, size: 0x8, addend: 0x0, symName: __ZN8crashpad22MinidumpMiscInfoWriterD1Ev, symObjAddr: 0x184, symBinAddr: 0x100022CE4, symSize: 0x4 }
  - { offset: 0x2214DE, size: 0x8, addend: 0x0, symName: __ZN8crashpad22MinidumpMiscInfoWriterD1Ev, symObjAddr: 0x184, symBinAddr: 0x100022CE4, symSize: 0x4 }
  - { offset: 0x221515, size: 0x8, addend: 0x0, symName: __ZN8crashpad22MinidumpMiscInfoWriterD0Ev, symObjAddr: 0x188, symBinAddr: 0x100022CE8, symSize: 0x14 }
  - { offset: 0x221AF8, size: 0x8, addend: 0x0, symName: __ZN8crashpad22MinidumpMiscInfoWriter22InitializeFromSnapshotEPKNS_15ProcessSnapshotE, symObjAddr: 0x19C, symBinAddr: 0x100022CFC, symSize: 0x73C }
  - { offset: 0x2237A5, size: 0x8, addend: 0x0, symName: __ZN8crashpad22MinidumpMiscInfoWriter12SetProcessIDEj, symObjAddr: 0x8D8, symBinAddr: 0x100023438, symSize: 0x10 }
  - { offset: 0x2237CE, size: 0x8, addend: 0x0, symName: __ZN8crashpad22MinidumpMiscInfoWriter21SetProcessorPowerInfoEjjjjj, symObjAddr: 0x8E8, symBinAddr: 0x100023448, symSize: 0x1C }
  - { offset: 0x223817, size: 0x8, addend: 0x0, symName: __ZN8crashpad22MinidumpMiscInfoWriter15SetProcessTimesEljj, symObjAddr: 0x9F4, symBinAddr: 0x100023554, symSize: 0x44 }
  - { offset: 0x223858, size: 0x8, addend: 0x0, symName: __ZN8crashpad22MinidumpMiscInfoWriter11SetTimeZoneEjiRKNSt3__112basic_stringIcNS1_11char_traitsIcEENS1_9allocatorIcEEEERK10SYSTEMTIMEiS9_SC_i, symObjAddr: 0xA38, symBinAddr: 0x100023598, symSize: 0x8C }
  - { offset: 0x2238CA, size: 0x8, addend: 0x0, symName: __ZN8crashpad22MinidumpMiscInfoWriter14SetBuildStringERKNSt3__112basic_stringIcNS1_11char_traitsIcEENS1_9allocatorIcEEEES9_, symObjAddr: 0xAC4, symBinAddr: 0x100023624, symSize: 0x48 }
  - { offset: 0x223901, size: 0x8, addend: 0x0, symName: __ZN8crashpad22MinidumpMiscInfoWriter13SetXStateDataERK30XSTATE_CONFIG_FEATURE_MSC_INFO, symObjAddr: 0xB0C, symBinAddr: 0x10002366C, symSize: 0x30 }
  - { offset: 0x22392E, size: 0x8, addend: 0x0, symName: __ZN8crashpad22MinidumpMiscInfoWriter24SetProcessIntegrityLevelEj, symObjAddr: 0xB3C, symBinAddr: 0x10002369C, symSize: 0x14 }
  - { offset: 0x223965, size: 0x8, addend: 0x0, symName: __ZN8crashpad22MinidumpMiscInfoWriter22SetProcessExecuteFlagsEj, symObjAddr: 0xB50, symBinAddr: 0x1000236B0, symSize: 0x14 }
  - { offset: 0x22399C, size: 0x8, addend: 0x0, symName: __ZN8crashpad22MinidumpMiscInfoWriter19SetProtectedProcessEj, symObjAddr: 0xB64, symBinAddr: 0x1000236C4, symSize: 0x14 }
  - { offset: 0x2239D3, size: 0x8, addend: 0x0, symName: __ZNK8crashpad22MinidumpMiscInfoWriter13HasXStateDataEv, symObjAddr: 0xB78, symBinAddr: 0x1000236D8, symSize: 0x8 }
  - { offset: 0x2239FD, size: 0x8, addend: 0x0, symName: __ZN8crashpad22MinidumpMiscInfoWriter16SetProcessCookieEj, symObjAddr: 0xB80, symBinAddr: 0x1000236E0, symSize: 0x14 }
  - { offset: 0x223A52, size: 0x8, addend: 0x0, symName: __ZN8crashpad22MinidumpMiscInfoWriter6FreezeEv, symObjAddr: 0xB94, symBinAddr: 0x1000236F4, symSize: 0x70 }
  - { offset: 0x223AC3, size: 0x8, addend: 0x0, symName: __ZNK8crashpad22MinidumpMiscInfoWriter30CalculateSizeOfObjectFromFlagsEv, symObjAddr: 0xC04, symBinAddr: 0x100023764, symSize: 0x4C }
  - { offset: 0x223AE6, size: 0x8, addend: 0x0, symName: __ZN8crashpad22MinidumpMiscInfoWriter12SizeOfObjectEv, symObjAddr: 0xC50, symBinAddr: 0x1000237B0, symSize: 0x4C }
  - { offset: 0x223B29, size: 0x8, addend: 0x0, symName: __ZN8crashpad22MinidumpMiscInfoWriter11WriteObjectEPNS_19FileWriterInterfaceE, symObjAddr: 0xC9C, symBinAddr: 0x1000237FC, symSize: 0x70 }
  - { offset: 0x223B9D, size: 0x8, addend: 0x0, symName: __ZNK8crashpad22MinidumpMiscInfoWriter10StreamTypeEv, symObjAddr: 0xD0C, symBinAddr: 0x10002386C, symSize: 0x8 }
  - { offset: 0x23C0AB, size: 0x8, addend: 0x0, symName: __ZN8crashpad32MinidumpModuleCrashpadInfoWriterC2Ev, symObjAddr: 0x0, symBinAddr: 0x100023874, symSize: 0x38 }
  - { offset: 0x23C18D, size: 0x8, addend: 0x0, symName: __ZN8crashpad32MinidumpModuleCrashpadInfoWriterC1Ev, symObjAddr: 0x38, symBinAddr: 0x1000238AC, symSize: 0x38 }
  - { offset: 0x23C419, size: 0x8, addend: 0x0, symName: __ZN8crashpad32MinidumpModuleCrashpadInfoWriterD2Ev, symObjAddr: 0x70, symBinAddr: 0x1000238E4, symSize: 0x5C }
  - { offset: 0x23C626, size: 0x8, addend: 0x0, symName: __ZNSt3__110unique_ptrIN8crashpad28MinidumpAnnotationListWriterENS_14default_deleteIS2_EEED1B8ne190102Ev, symObjAddr: 0xCC, symBinAddr: 0x100023940, symSize: 0x3C }
  - { offset: 0x23C71E, size: 0x8, addend: 0x0, symName: __ZNSt3__110unique_ptrIN8crashpad8internal24MinidumpStringListWriterINS2_24MinidumpUTF8StringWriterEEENS_14default_deleteIS5_EEED1B8ne190102Ev, symObjAddr: 0x144, symBinAddr: 0x10002397C, symSize: 0x3C }
  - { offset: 0x23C7BF, size: 0x8, addend: 0x0, symName: __ZN8crashpad32MinidumpModuleCrashpadInfoWriterD1Ev, symObjAddr: 0x180, symBinAddr: 0x1000239B8, symSize: 0x4 }
  - { offset: 0x23C7E2, size: 0x8, addend: 0x0, symName: __ZN8crashpad32MinidumpModuleCrashpadInfoWriterD1Ev, symObjAddr: 0x180, symBinAddr: 0x1000239B8, symSize: 0x4 }
  - { offset: 0x23C811, size: 0x8, addend: 0x0, symName: __ZN8crashpad32MinidumpModuleCrashpadInfoWriterD0Ev, symObjAddr: 0x184, symBinAddr: 0x1000239BC, symSize: 0x14 }
  - { offset: 0x23D167, size: 0x8, addend: 0x0, symName: __ZN8crashpad32MinidumpModuleCrashpadInfoWriter22InitializeFromSnapshotEPKNS_14ModuleSnapshotE, symObjAddr: 0x198, symBinAddr: 0x1000239D0, symSize: 0x330 }
  - { offset: 0x23E42D, size: 0x8, addend: 0x0, symName: __ZN8crashpad32MinidumpModuleCrashpadInfoWriter18SetListAnnotationsENSt3__110unique_ptrINS_8internal24MinidumpStringListWriterINS3_24MinidumpUTF8StringWriterEEENS1_14default_deleteIS6_EEEE, symObjAddr: 0x538, symBinAddr: 0x100023D00, symSize: 0x30 }
  - { offset: 0x23E4FF, size: 0x8, addend: 0x0, symName: __ZN8crashpad32MinidumpModuleCrashpadInfoWriter20SetSimpleAnnotationsENSt3__110unique_ptrINS_36MinidumpSimpleStringDictionaryWriterENS1_14default_deleteIS3_EEEE, symObjAddr: 0x568, symBinAddr: 0x100023D30, symSize: 0x30 }
  - { offset: 0x23E5F4, size: 0x8, addend: 0x0, symName: __ZN8crashpad32MinidumpModuleCrashpadInfoWriter20SetAnnotationObjectsENSt3__110unique_ptrINS_28MinidumpAnnotationListWriterENS1_14default_deleteIS3_EEEE, symObjAddr: 0x5F0, symBinAddr: 0x100023D60, symSize: 0x30 }
  - { offset: 0x23E712, size: 0x8, addend: 0x0, symName: __ZNK8crashpad32MinidumpModuleCrashpadInfoWriter8IsUsefulEv, symObjAddr: 0x620, symBinAddr: 0x100023D90, symSize: 0x30 }
  - { offset: 0x23E738, size: 0x8, addend: 0x0, symName: __ZNK8crashpad32MinidumpModuleCrashpadInfoWriter8IsUsefulEv, symObjAddr: 0x620, symBinAddr: 0x100023D90, symSize: 0x30 }
  - { offset: 0x23E798, size: 0x8, addend: 0x0, symName: __ZN8crashpad32MinidumpModuleCrashpadInfoWriter6FreezeEv, symObjAddr: 0x650, symBinAddr: 0x100023DC0, symSize: 0x5C }
  - { offset: 0x23E824, size: 0x8, addend: 0x0, symName: __ZN8crashpad32MinidumpModuleCrashpadInfoWriter12SizeOfObjectEv, symObjAddr: 0x6AC, symBinAddr: 0x100023E1C, symSize: 0x8 }
  - { offset: 0x23EC5E, size: 0x8, addend: 0x0, symName: __ZN8crashpad32MinidumpModuleCrashpadInfoWriter8ChildrenEv, symObjAddr: 0x6B4, symBinAddr: 0x100023E24, symSize: 0x214 }
  - { offset: 0x23F7F3, size: 0x8, addend: 0x0, symName: __ZN8crashpad32MinidumpModuleCrashpadInfoWriter11WriteObjectEPNS_19FileWriterInterfaceE, symObjAddr: 0x8C8, symBinAddr: 0x100024038, symSize: 0x1C }
  - { offset: 0x23F899, size: 0x8, addend: 0x0, symName: __ZN8crashpad36MinidumpModuleCrashpadInfoListWriterC2Ev, symObjAddr: 0x8E4, symBinAddr: 0x100024054, symSize: 0x34 }
  - { offset: 0x23F91E, size: 0x8, addend: 0x0, symName: __ZN8crashpad36MinidumpModuleCrashpadInfoListWriterC1Ev, symObjAddr: 0x918, symBinAddr: 0x100024088, symSize: 0x34 }
  - { offset: 0x23FC75, size: 0x8, addend: 0x0, symName: __ZN8crashpad36MinidumpModuleCrashpadInfoListWriterD2Ev, symObjAddr: 0x94C, symBinAddr: 0x1000240BC, symSize: 0x80 }
  - { offset: 0x24007A, size: 0x8, addend: 0x0, symName: __ZN8crashpad36MinidumpModuleCrashpadInfoListWriterD1Ev, symObjAddr: 0x9CC, symBinAddr: 0x10002413C, symSize: 0x80 }
  - { offset: 0x24049F, size: 0x8, addend: 0x0, symName: __ZN8crashpad36MinidumpModuleCrashpadInfoListWriterD0Ev, symObjAddr: 0xA4C, symBinAddr: 0x1000241BC, symSize: 0x84 }
  - { offset: 0x240ACC, size: 0x8, addend: 0x0, symName: __ZN8crashpad36MinidumpModuleCrashpadInfoListWriter22InitializeFromSnapshotERKNSt3__16vectorIPKNS_14ModuleSnapshotENS1_9allocatorIS5_EEEE, symObjAddr: 0xAD0, symBinAddr: 0x100024240, symSize: 0x144 }
  - { offset: 0x240F96, size: 0x8, addend: 0x0, symName: __ZN8crashpad36MinidumpModuleCrashpadInfoListWriter9AddModuleENSt3__110unique_ptrINS_32MinidumpModuleCrashpadInfoWriterENS1_14default_deleteIS3_EEEEm, symObjAddr: 0xC14, symBinAddr: 0x100024384, symSize: 0x25C }
  - { offset: 0x241975, size: 0x8, addend: 0x0, symName: __ZNSt3__110unique_ptrIN8crashpad32MinidumpModuleCrashpadInfoWriterENS_14default_deleteIS2_EEED1B8ne190102Ev, symObjAddr: 0xE70, symBinAddr: 0x1000245E0, symSize: 0x3C }
  - { offset: 0x24219B, size: 0x8, addend: 0x0, symName: __ZNK8crashpad36MinidumpModuleCrashpadInfoListWriter8IsUsefulEv, symObjAddr: 0xEAC, symBinAddr: 0x10002461C, symSize: 0x10 }
  - { offset: 0x2421C7, size: 0x8, addend: 0x0, symName: __ZNK8crashpad36MinidumpModuleCrashpadInfoListWriter8IsUsefulEv, symObjAddr: 0xEAC, symBinAddr: 0x10002461C, symSize: 0x10 }
  - { offset: 0x242245, size: 0x8, addend: 0x0, symName: __ZN8crashpad36MinidumpModuleCrashpadInfoListWriter6FreezeEv, symObjAddr: 0xEBC, symBinAddr: 0x10002462C, symSize: 0x198 }
  - { offset: 0x242476, size: 0x8, addend: 0x0, symName: __ZN8crashpad36MinidumpModuleCrashpadInfoListWriter12SizeOfObjectEv, symObjAddr: 0x1054, symBinAddr: 0x1000247C4, symSize: 0x10 }
  - { offset: 0x2424A2, size: 0x8, addend: 0x0, symName: __ZN8crashpad36MinidumpModuleCrashpadInfoListWriter12SizeOfObjectEv, symObjAddr: 0x1054, symBinAddr: 0x1000247C4, symSize: 0x10 }
  - { offset: 0x242509, size: 0x8, addend: 0x0, symName: __ZN8crashpad36MinidumpModuleCrashpadInfoListWriter8ChildrenEv, symObjAddr: 0x1064, symBinAddr: 0x1000247D4, symSize: 0x144 }
  - { offset: 0x242F99, size: 0x8, addend: 0x0, symName: __ZN8crashpad36MinidumpModuleCrashpadInfoListWriter11WriteObjectEPNS_19FileWriterInterfaceE, symObjAddr: 0x11A8, symBinAddr: 0x100024918, symSize: 0xDC }
  - { offset: 0x2571EB, size: 0x8, addend: 0x0, symName: __ZN8crashpad8internal41MinidumpModuleCodeViewRecordPDBLinkWriterINS_19CodeViewRecordPDB20EE10SetPDBNameERKNSt3__112basic_stringIcNS4_11char_traitsIcEENS4_9allocatorIcEEEE, symObjAddr: 0x0, symBinAddr: 0x1000249F4, symSize: 0x8 }
  - { offset: 0x257324, size: 0x8, addend: 0x0, symName: __ZN8crashpad8internal41MinidumpModuleCodeViewRecordPDBLinkWriterINS_19CodeViewRecordPDB20EEC2Ev, symObjAddr: 0x8, symBinAddr: 0x1000249FC, symSize: 0x40 }
  - { offset: 0x25742B, size: 0x8, addend: 0x0, symName: __ZN8crashpad8internal41MinidumpModuleCodeViewRecordPDBLinkWriterINS_19CodeViewRecordPDB20EEC1Ev, symObjAddr: 0x48, symBinAddr: 0x100024A3C, symSize: 0x40 }
  - { offset: 0x25761F, size: 0x8, addend: 0x0, symName: __ZN8crashpad8internal41MinidumpModuleCodeViewRecordPDBLinkWriterINS_19CodeViewRecordPDB20EED2Ev, symObjAddr: 0x88, symBinAddr: 0x100024A7C, symSize: 0x48 }
  - { offset: 0x25778E, size: 0x8, addend: 0x0, symName: __ZN8crashpad34MinidumpModuleCodeViewRecordWriterD2Ev, symObjAddr: 0xD0, symBinAddr: 0x100024AC4, symSize: 0x4 }
  - { offset: 0x2577CB, size: 0x8, addend: 0x0, symName: __ZN8crashpad8internal41MinidumpModuleCodeViewRecordPDBLinkWriterINS_19CodeViewRecordPDB20EED1Ev, symObjAddr: 0xD4, symBinAddr: 0x100024AC8, symSize: 0x48 }
  - { offset: 0x2577F1, size: 0x8, addend: 0x0, symName: __ZN8crashpad8internal41MinidumpModuleCodeViewRecordPDBLinkWriterINS_19CodeViewRecordPDB20EED1Ev, symObjAddr: 0xD4, symBinAddr: 0x100024AC8, symSize: 0x48 }
  - { offset: 0x257976, size: 0x8, addend: 0x0, symName: __ZN8crashpad8internal41MinidumpModuleCodeViewRecordPDBLinkWriterINS_19CodeViewRecordPDB20EED0Ev, symObjAddr: 0x11C, symBinAddr: 0x100024B10, symSize: 0x58 }
  - { offset: 0x257B43, size: 0x8, addend: 0x0, symName: __ZN8crashpad8internal41MinidumpModuleCodeViewRecordPDBLinkWriterINS_19CodeViewRecordPDB20EE12SizeOfObjectEv, symObjAddr: 0x174, symBinAddr: 0x100024B68, symSize: 0x1C }
  - { offset: 0x257B86, size: 0x8, addend: 0x0, symName: __ZN8crashpad8internal41MinidumpModuleCodeViewRecordPDBLinkWriterINS_19CodeViewRecordPDB20EE12SizeOfObjectEv, symObjAddr: 0x174, symBinAddr: 0x100024B68, symSize: 0x1C }
  - { offset: 0x258030, size: 0x8, addend: 0x0, symName: __ZN8crashpad8internal41MinidumpModuleCodeViewRecordPDBLinkWriterINS_19CodeViewRecordPDB20EE11WriteObjectEPNS_19FileWriterInterfaceE, symObjAddr: 0x190, symBinAddr: 0x100024B84, symSize: 0xF0 }
  - { offset: 0x258851, size: 0x8, addend: 0x0, symName: __ZN8crashpad8internal41MinidumpModuleCodeViewRecordPDBLinkWriterINS_19CodeViewRecordPDB20EE15codeview_recordEv, symObjAddr: 0x280, symBinAddr: 0x100024C74, symSize: 0x8 }
  - { offset: 0x258878, size: 0x8, addend: 0x0, symName: __ZN8crashpad8internal41MinidumpModuleCodeViewRecordPDBLinkWriterINS_19CodeViewRecordPDB70EE10SetPDBNameERKNSt3__112basic_stringIcNS4_11char_traitsIcEENS4_9allocatorIcEEEE, symObjAddr: 0x288, symBinAddr: 0x100024C7C, symSize: 0x8 }
  - { offset: 0x2588D7, size: 0x8, addend: 0x0, symName: __ZN8crashpad8internal41MinidumpModuleCodeViewRecordPDBLinkWriterINS_19CodeViewRecordPDB70EEC2Ev, symObjAddr: 0x290, symBinAddr: 0x100024C84, symSize: 0x40 }
  - { offset: 0x258A20, size: 0x8, addend: 0x0, symName: __ZN8crashpad8internal41MinidumpModuleCodeViewRecordPDBLinkWriterINS_19CodeViewRecordPDB70EEC1Ev, symObjAddr: 0x2D0, symBinAddr: 0x100024CC4, symSize: 0x40 }
  - { offset: 0x258B70, size: 0x8, addend: 0x0, symName: __ZN8crashpad8internal41MinidumpModuleCodeViewRecordPDBLinkWriterINS_19CodeViewRecordPDB70EED2Ev, symObjAddr: 0x310, symBinAddr: 0x100024D04, symSize: 0x48 }
  - { offset: 0x258CFB, size: 0x8, addend: 0x0, symName: __ZN8crashpad8internal41MinidumpModuleCodeViewRecordPDBLinkWriterINS_19CodeViewRecordPDB70EED1Ev, symObjAddr: 0x358, symBinAddr: 0x100024D4C, symSize: 0x48 }
  - { offset: 0x258D21, size: 0x8, addend: 0x0, symName: __ZN8crashpad8internal41MinidumpModuleCodeViewRecordPDBLinkWriterINS_19CodeViewRecordPDB70EED1Ev, symObjAddr: 0x358, symBinAddr: 0x100024D4C, symSize: 0x48 }
  - { offset: 0x258EA6, size: 0x8, addend: 0x0, symName: __ZN8crashpad8internal41MinidumpModuleCodeViewRecordPDBLinkWriterINS_19CodeViewRecordPDB70EED0Ev, symObjAddr: 0x3A0, symBinAddr: 0x100024D94, symSize: 0x58 }
  - { offset: 0x259047, size: 0x8, addend: 0x0, symName: __ZN8crashpad8internal41MinidumpModuleCodeViewRecordPDBLinkWriterINS_19CodeViewRecordPDB70EE12SizeOfObjectEv, symObjAddr: 0x3F8, symBinAddr: 0x100024DEC, symSize: 0x1C }
  - { offset: 0x25908A, size: 0x8, addend: 0x0, symName: __ZN8crashpad8internal41MinidumpModuleCodeViewRecordPDBLinkWriterINS_19CodeViewRecordPDB70EE12SizeOfObjectEv, symObjAddr: 0x3F8, symBinAddr: 0x100024DEC, symSize: 0x1C }
  - { offset: 0x2590CC, size: 0x8, addend: 0x0, symName: __ZN8crashpad8internal41MinidumpModuleCodeViewRecordPDBLinkWriterINS_19CodeViewRecordPDB70EE11WriteObjectEPNS_19FileWriterInterfaceE, symObjAddr: 0x414, symBinAddr: 0x100024E08, symSize: 0xF0 }
  - { offset: 0x2598ED, size: 0x8, addend: 0x0, symName: __ZN8crashpad8internal41MinidumpModuleCodeViewRecordPDBLinkWriterINS_19CodeViewRecordPDB70EE15codeview_recordEv, symObjAddr: 0x504, symBinAddr: 0x100024EF8, symSize: 0x8 }
  - { offset: 0x259914, size: 0x8, addend: 0x0, symName: __ZN8crashpad34MinidumpModuleCodeViewRecordWriterD1Ev, symObjAddr: 0x50C, symBinAddr: 0x100024F00, symSize: 0x4 }
  - { offset: 0x25993D, size: 0x8, addend: 0x0, symName: __ZN8crashpad34MinidumpModuleCodeViewRecordWriterD0Ev, symObjAddr: 0x510, symBinAddr: 0x100024F04, symSize: 0x4 }
  - { offset: 0x25997C, size: 0x8, addend: 0x0, symName: __ZN8crashpad39MinidumpModuleCodeViewRecordPDB20WriterD2Ev, symObjAddr: 0x514, symBinAddr: 0x100024F08, symSize: 0x48 }
  - { offset: 0x2599A2, size: 0x8, addend: 0x0, symName: __ZN8crashpad39MinidumpModuleCodeViewRecordPDB20WriterD2Ev, symObjAddr: 0x514, symBinAddr: 0x100024F08, symSize: 0x48 }
  - { offset: 0x259B2C, size: 0x8, addend: 0x0, symName: __ZN8crashpad39MinidumpModuleCodeViewRecordPDB20WriterD1Ev, symObjAddr: 0x55C, symBinAddr: 0x100024F50, symSize: 0x48 }
  - { offset: 0x259B52, size: 0x8, addend: 0x0, symName: __ZN8crashpad39MinidumpModuleCodeViewRecordPDB20WriterD1Ev, symObjAddr: 0x55C, symBinAddr: 0x100024F50, symSize: 0x48 }
  - { offset: 0x259B71, size: 0x8, addend: 0x0, symName: __ZN8crashpad39MinidumpModuleCodeViewRecordPDB20WriterD1Ev, symObjAddr: 0x55C, symBinAddr: 0x100024F50, symSize: 0x48 }
  - { offset: 0x259CF7, size: 0x8, addend: 0x0, symName: __ZN8crashpad39MinidumpModuleCodeViewRecordPDB20WriterD0Ev, symObjAddr: 0x5A4, symBinAddr: 0x100024F98, symSize: 0x58 }
  - { offset: 0x259EB0, size: 0x8, addend: 0x0, symName: __ZN8crashpad39MinidumpModuleCodeViewRecordPDB20Writer18SetTimestampAndAgeElj, symObjAddr: 0x5FC, symBinAddr: 0x100024FF0, symSize: 0x2C }
  - { offset: 0x259EF9, size: 0x8, addend: 0x0, symName: __ZN8crashpad39MinidumpModuleCodeViewRecordPDB70WriterD2Ev, symObjAddr: 0x628, symBinAddr: 0x10002501C, symSize: 0x48 }
  - { offset: 0x259F1F, size: 0x8, addend: 0x0, symName: __ZN8crashpad39MinidumpModuleCodeViewRecordPDB70WriterD2Ev, symObjAddr: 0x628, symBinAddr: 0x10002501C, symSize: 0x48 }
  - { offset: 0x25A0A4, size: 0x8, addend: 0x0, symName: __ZN8crashpad39MinidumpModuleCodeViewRecordPDB70WriterD1Ev, symObjAddr: 0x670, symBinAddr: 0x100025064, symSize: 0x48 }
  - { offset: 0x25A0CA, size: 0x8, addend: 0x0, symName: __ZN8crashpad39MinidumpModuleCodeViewRecordPDB70WriterD1Ev, symObjAddr: 0x670, symBinAddr: 0x100025064, symSize: 0x48 }
  - { offset: 0x25A0E9, size: 0x8, addend: 0x0, symName: __ZN8crashpad39MinidumpModuleCodeViewRecordPDB70WriterD1Ev, symObjAddr: 0x670, symBinAddr: 0x100025064, symSize: 0x48 }
  - { offset: 0x25A26F, size: 0x8, addend: 0x0, symName: __ZN8crashpad39MinidumpModuleCodeViewRecordPDB70WriterD0Ev, symObjAddr: 0x6B8, symBinAddr: 0x1000250AC, symSize: 0x58 }
  - { offset: 0x25A475, size: 0x8, addend: 0x0, symName: __ZN8crashpad39MinidumpModuleCodeViewRecordPDB70Writer22InitializeFromSnapshotEPKNS_14ModuleSnapshotE, symObjAddr: 0x710, symBinAddr: 0x100025104, symSize: 0x9C }
  - { offset: 0x25A7EF, size: 0x8, addend: 0x0, symName: __ZN8crashpad41MinidumpModuleCodeViewRecordBuildIDWriterC2Ev, symObjAddr: 0x7AC, symBinAddr: 0x1000251A0, symSize: 0x28 }
  - { offset: 0x25A88D, size: 0x8, addend: 0x0, symName: __ZN8crashpad41MinidumpModuleCodeViewRecordBuildIDWriterC1Ev, symObjAddr: 0x7D4, symBinAddr: 0x1000251C8, symSize: 0x28 }
  - { offset: 0x25AA22, size: 0x8, addend: 0x0, symName: __ZN8crashpad41MinidumpModuleCodeViewRecordBuildIDWriterD2Ev, symObjAddr: 0x7FC, symBinAddr: 0x1000251F0, symSize: 0x34 }
  - { offset: 0x25AA48, size: 0x8, addend: 0x0, symName: __ZN8crashpad41MinidumpModuleCodeViewRecordBuildIDWriterD2Ev, symObjAddr: 0x7FC, symBinAddr: 0x1000251F0, symSize: 0x34 }
  - { offset: 0x25AA67, size: 0x8, addend: 0x0, symName: __ZN8crashpad41MinidumpModuleCodeViewRecordBuildIDWriterD2Ev, symObjAddr: 0x7FC, symBinAddr: 0x1000251F0, symSize: 0x34 }
  - { offset: 0x25AA87, size: 0x8, addend: 0x0, symName: __ZN8crashpad41MinidumpModuleCodeViewRecordBuildIDWriterD2Ev, symObjAddr: 0x7FC, symBinAddr: 0x1000251F0, symSize: 0x34 }
  - { offset: 0x25ABE2, size: 0x8, addend: 0x0, symName: __ZN8crashpad41MinidumpModuleCodeViewRecordBuildIDWriterD1Ev, symObjAddr: 0x830, symBinAddr: 0x100025224, symSize: 0x34 }
  - { offset: 0x25AC08, size: 0x8, addend: 0x0, symName: __ZN8crashpad41MinidumpModuleCodeViewRecordBuildIDWriterD1Ev, symObjAddr: 0x830, symBinAddr: 0x100025224, symSize: 0x34 }
  - { offset: 0x25AC27, size: 0x8, addend: 0x0, symName: __ZN8crashpad41MinidumpModuleCodeViewRecordBuildIDWriterD1Ev, symObjAddr: 0x830, symBinAddr: 0x100025224, symSize: 0x34 }
  - { offset: 0x25AC46, size: 0x8, addend: 0x0, symName: __ZN8crashpad41MinidumpModuleCodeViewRecordBuildIDWriterD1Ev, symObjAddr: 0x830, symBinAddr: 0x100025224, symSize: 0x34 }
  - { offset: 0x25AC66, size: 0x8, addend: 0x0, symName: __ZN8crashpad41MinidumpModuleCodeViewRecordBuildIDWriterD1Ev, symObjAddr: 0x830, symBinAddr: 0x100025224, symSize: 0x34 }
  - { offset: 0x25ADC2, size: 0x8, addend: 0x0, symName: __ZN8crashpad41MinidumpModuleCodeViewRecordBuildIDWriterD0Ev, symObjAddr: 0x864, symBinAddr: 0x100025258, symSize: 0x34 }
  - { offset: 0x25AFC5, size: 0x8, addend: 0x0, symName: __ZN8crashpad41MinidumpModuleCodeViewRecordBuildIDWriter12SizeOfObjectEv, symObjAddr: 0x898, symBinAddr: 0x10002528C, symSize: 0x10 }
  - { offset: 0x25AFF1, size: 0x8, addend: 0x0, symName: __ZN8crashpad41MinidumpModuleCodeViewRecordBuildIDWriter12SizeOfObjectEv, symObjAddr: 0x898, symBinAddr: 0x10002528C, symSize: 0x10 }
  - { offset: 0x25B073, size: 0x8, addend: 0x0, symName: __ZN8crashpad41MinidumpModuleCodeViewRecordBuildIDWriter10SetBuildIDERKNSt3__16vectorIhNS1_9allocatorIhEEEE, symObjAddr: 0x8A8, symBinAddr: 0x10002529C, symSize: 0x20 }
  - { offset: 0x25B7A5, size: 0x8, addend: 0x0, symName: __ZN8crashpad41MinidumpModuleCodeViewRecordBuildIDWriter11WriteObjectEPNS_19FileWriterInterfaceE, symObjAddr: 0x8C8, symBinAddr: 0x1000252BC, symSize: 0xE8 }
  - { offset: 0x25BFA8, size: 0x8, addend: 0x0, symName: __ZN8crashpad35MinidumpModuleMiscDebugRecordWriterC2Ev, symObjAddr: 0x9B0, symBinAddr: 0x1000253A4, symSize: 0x38 }
  - { offset: 0x25C08C, size: 0x8, addend: 0x0, symName: __ZN8crashpad35MinidumpModuleMiscDebugRecordWriterC1Ev, symObjAddr: 0x9E8, symBinAddr: 0x1000253DC, symSize: 0x38 }
  - { offset: 0x25C246, size: 0x8, addend: 0x0, symName: __ZN8crashpad35MinidumpModuleMiscDebugRecordWriterD2Ev, symObjAddr: 0xA20, symBinAddr: 0x100025414, symSize: 0x58 }
  - { offset: 0x25C4D4, size: 0x8, addend: 0x0, symName: __ZN8crashpad35MinidumpModuleMiscDebugRecordWriterD1Ev, symObjAddr: 0xA78, symBinAddr: 0x10002546C, symSize: 0x58 }
  - { offset: 0x25C782, size: 0x8, addend: 0x0, symName: __ZN8crashpad35MinidumpModuleMiscDebugRecordWriterD0Ev, symObjAddr: 0xAD0, symBinAddr: 0x1000254C4, symSize: 0x60 }
  - { offset: 0x25CBC1, size: 0x8, addend: 0x0, symName: __ZN8crashpad35MinidumpModuleMiscDebugRecordWriter7SetDataERKNSt3__112basic_stringIcNS1_11char_traitsIcEENS1_9allocatorIcEEEEb, symObjAddr: 0xB30, symBinAddr: 0x100025524, symSize: 0xC8 }
  - { offset: 0x25CF61, size: 0x8, addend: 0x0, symName: __ZN8crashpad35MinidumpModuleMiscDebugRecordWriter6FreezeEv, symObjAddr: 0xBF8, symBinAddr: 0x1000255EC, symSize: 0x78 }
  - { offset: 0x25D06D, size: 0x8, addend: 0x0, symName: __ZN8crashpad35MinidumpModuleMiscDebugRecordWriter12SizeOfObjectEv, symObjAddr: 0xC70, symBinAddr: 0x100025664, symSize: 0x8 }
  - { offset: 0x25D0CF, size: 0x8, addend: 0x0, symName: __ZN8crashpad35MinidumpModuleMiscDebugRecordWriter11WriteObjectEPNS_19FileWriterInterfaceE, symObjAddr: 0xC78, symBinAddr: 0x10002566C, symSize: 0x100 }
  - { offset: 0x25DA73, size: 0x8, addend: 0x0, symName: __ZN8crashpad20MinidumpModuleWriterC2Ev, symObjAddr: 0xD78, symBinAddr: 0x10002576C, symSize: 0x54 }
  - { offset: 0x25DB55, size: 0x8, addend: 0x0, symName: __ZN8crashpad20MinidumpModuleWriterC1Ev, symObjAddr: 0xDCC, symBinAddr: 0x1000257C0, symSize: 0x54 }
  - { offset: 0x25DDE1, size: 0x8, addend: 0x0, symName: __ZN8crashpad20MinidumpModuleWriterD2Ev, symObjAddr: 0xE20, symBinAddr: 0x100025814, symSize: 0x90 }
  - { offset: 0x25E264, size: 0x8, addend: 0x0, symName: __ZN8crashpad20MinidumpModuleWriterD1Ev, symObjAddr: 0xEB0, symBinAddr: 0x1000258A4, symSize: 0x4 }
  - { offset: 0x25E287, size: 0x8, addend: 0x0, symName: __ZN8crashpad20MinidumpModuleWriterD1Ev, symObjAddr: 0xEB0, symBinAddr: 0x1000258A4, symSize: 0x4 }
  - { offset: 0x25E2B6, size: 0x8, addend: 0x0, symName: __ZN8crashpad20MinidumpModuleWriterD0Ev, symObjAddr: 0xEB4, symBinAddr: 0x1000258A8, symSize: 0x14 }
  - { offset: 0x25E8AE, size: 0x8, addend: 0x0, symName: __ZN8crashpad20MinidumpModuleWriter22InitializeFromSnapshotEPKNS_14ModuleSnapshotE, symObjAddr: 0xEC8, symBinAddr: 0x1000258BC, symSize: 0x41C }
  - { offset: 0x25FAA7, size: 0x8, addend: 0x0, symName: __ZNSt3__110unique_ptrIN8crashpad41MinidumpModuleCodeViewRecordBuildIDWriterENS_14default_deleteIS2_EEED1B8ne190102Ev, symObjAddr: 0x13A8, symBinAddr: 0x100025D9C, symSize: 0x48 }
  - { offset: 0x25FD07, size: 0x8, addend: 0x0, symName: __ZNSt3__110unique_ptrIN8crashpad39MinidumpModuleCodeViewRecordPDB70WriterENS_14default_deleteIS2_EEED1B8ne190102Ev, symObjAddr: 0x13F0, symBinAddr: 0x100025DE4, symSize: 0x58 }
  - { offset: 0x25FF62, size: 0x8, addend: 0x0, symName: __ZN8crashpad20MinidumpModuleWriter7SetNameERKNSt3__112basic_stringIcNS1_11char_traitsIcEENS1_9allocatorIcEEEE, symObjAddr: 0x12E4, symBinAddr: 0x100025CD8, symSize: 0x9C }
  - { offset: 0x260064, size: 0x8, addend: 0x0, symName: __ZN8crashpad20MinidumpModuleWriter12SetTimestampEl, symObjAddr: 0x1380, symBinAddr: 0x100025D74, symSize: 0x8 }
  - { offset: 0x26008F, size: 0x8, addend: 0x0, symName: __ZN8crashpad20MinidumpModuleWriter14SetFileVersionEtttt, symObjAddr: 0x1388, symBinAddr: 0x100025D7C, symSize: 0x10 }
  - { offset: 0x2600D0, size: 0x8, addend: 0x0, symName: __ZN8crashpad20MinidumpModuleWriter17SetProductVersionEtttt, symObjAddr: 0x1398, symBinAddr: 0x100025D8C, symSize: 0x10 }
  - { offset: 0x260214, size: 0x8, addend: 0x0, symName: __ZN8crashpad20MinidumpModuleWriter17SetCodeViewRecordENSt3__110unique_ptrINS_34MinidumpModuleCodeViewRecordWriterENS1_14default_deleteIS3_EEEE, symObjAddr: 0x1448, symBinAddr: 0x100025E3C, symSize: 0x28 }
  - { offset: 0x2602F1, size: 0x8, addend: 0x0, symName: __ZNK8crashpad20MinidumpModuleWriter14MinidumpModuleEv, symObjAddr: 0x1470, symBinAddr: 0x100025E64, symSize: 0x8 }
  - { offset: 0x260358, size: 0x8, addend: 0x0, symName: __ZN8crashpad20MinidumpModuleWriter18SetMiscDebugRecordENSt3__110unique_ptrINS_35MinidumpModuleMiscDebugRecordWriterENS1_14default_deleteIS3_EEEE, symObjAddr: 0x1478, symBinAddr: 0x100025E6C, symSize: 0x7C }
  - { offset: 0x2606A2, size: 0x8, addend: 0x0, symName: __ZN8crashpad20MinidumpModuleWriter19SetFileFlagsAndMaskEjj, symObjAddr: 0x14F4, symBinAddr: 0x100025EE8, symSize: 0x8 }
  - { offset: 0x26071E, size: 0x8, addend: 0x0, symName: __ZN8crashpad20MinidumpModuleWriter6FreezeEv, symObjAddr: 0x14FC, symBinAddr: 0x100025EF0, symSize: 0x100 }
  - { offset: 0x260861, size: 0x8, addend: 0x0, symName: __ZN8crashpad20MinidumpModuleWriter12SizeOfObjectEv, symObjAddr: 0x15FC, symBinAddr: 0x100025FF0, symSize: 0x8 }
  - { offset: 0x260CB2, size: 0x8, addend: 0x0, symName: __ZN8crashpad20MinidumpModuleWriter8ChildrenEv, symObjAddr: 0x1604, symBinAddr: 0x100025FF8, symSize: 0x170 }
  - { offset: 0x2617B4, size: 0x8, addend: 0x0, symName: __ZN8crashpad20MinidumpModuleWriter11WriteObjectEPNS_19FileWriterInterfaceE, symObjAddr: 0x1774, symBinAddr: 0x100026168, symSize: 0x8 }
  - { offset: 0x261802, size: 0x8, addend: 0x0, symName: __ZN8crashpad24MinidumpModuleListWriterC2Ev, symObjAddr: 0x177C, symBinAddr: 0x100026170, symSize: 0x2C }
  - { offset: 0x261845, size: 0x8, addend: 0x0, symName: __ZN8crashpad24MinidumpModuleListWriterC1Ev, symObjAddr: 0x17A8, symBinAddr: 0x10002619C, symSize: 0x2C }
  - { offset: 0x261A66, size: 0x8, addend: 0x0, symName: __ZN8crashpad24MinidumpModuleListWriterD2Ev, symObjAddr: 0x17D4, symBinAddr: 0x1000261C8, symSize: 0x70 }
  - { offset: 0x261D0C, size: 0x8, addend: 0x0, symName: __ZN8crashpad24MinidumpModuleListWriterD1Ev, symObjAddr: 0x1844, symBinAddr: 0x100026238, symSize: 0x70 }
  - { offset: 0x261FD3, size: 0x8, addend: 0x0, symName: __ZN8crashpad24MinidumpModuleListWriterD0Ev, symObjAddr: 0x18B4, symBinAddr: 0x1000262A8, symSize: 0x74 }
  - { offset: 0x26247E, size: 0x8, addend: 0x0, symName: __ZN8crashpad24MinidumpModuleListWriter22InitializeFromSnapshotERKNSt3__16vectorIPKNS_14ModuleSnapshotENS1_9allocatorIS5_EEEE, symObjAddr: 0x1928, symBinAddr: 0x10002631C, symSize: 0x128 }
  - { offset: 0x2628A1, size: 0x8, addend: 0x0, symName: __ZN8crashpad24MinidumpModuleListWriter9AddModuleENSt3__110unique_ptrINS_20MinidumpModuleWriterENS1_14default_deleteIS3_EEEE, symObjAddr: 0x1A50, symBinAddr: 0x100026444, symSize: 0x108 }
  - { offset: 0x262E2D, size: 0x8, addend: 0x0, symName: __ZNSt3__110unique_ptrIN8crashpad20MinidumpModuleWriterENS_14default_deleteIS2_EEED1B8ne190102Ev, symObjAddr: 0x1B58, symBinAddr: 0x10002654C, symSize: 0x3C }
  - { offset: 0x262E38, size: 0x8, addend: 0x0, symName: __ZNSt3__110unique_ptrIN8crashpad20MinidumpModuleWriterENS_14default_deleteIS2_EEED1B8ne190102Ev, symObjAddr: 0x1B58, symBinAddr: 0x10002654C, symSize: 0x3C }
  - { offset: 0x2632D2, size: 0x8, addend: 0x0, symName: __ZN8crashpad24MinidumpModuleListWriter6FreezeEv, symObjAddr: 0x1B94, symBinAddr: 0x100026588, symSize: 0xD8 }
  - { offset: 0x2633DA, size: 0x8, addend: 0x0, symName: __ZN8crashpad24MinidumpModuleListWriter12SizeOfObjectEv, symObjAddr: 0x1C6C, symBinAddr: 0x100026660, symSize: 0x1C }
  - { offset: 0x263407, size: 0x8, addend: 0x0, symName: __ZN8crashpad24MinidumpModuleListWriter12SizeOfObjectEv, symObjAddr: 0x1C6C, symBinAddr: 0x100026660, symSize: 0x1C }
  - { offset: 0x26346F, size: 0x8, addend: 0x0, symName: __ZN8crashpad24MinidumpModuleListWriter8ChildrenEv, symObjAddr: 0x1C88, symBinAddr: 0x10002667C, symSize: 0x144 }
  - { offset: 0x263BA7, size: 0x8, addend: 0x0, symName: __ZN8crashpad24MinidumpModuleListWriter11WriteObjectEPNS_19FileWriterInterfaceE, symObjAddr: 0x1DCC, symBinAddr: 0x1000267C0, symSize: 0x19C }
  - { offset: 0x26458C, size: 0x8, addend: 0x0, symName: __ZNK8crashpad24MinidumpModuleListWriter10StreamTypeEv, symObjAddr: 0x1F68, symBinAddr: 0x10002695C, symSize: 0x8 }
  - { offset: 0x2734E6, size: 0x8, addend: 0x0, symName: __ZN8crashpad8internal21MinidumpRVAListWriterC2Ev, symObjAddr: 0x0, symBinAddr: 0x100026964, symSize: 0x60 }
  - { offset: 0x273622, size: 0x8, addend: 0x0, symName: __ZN8crashpad8internal21MinidumpRVAListWriterC1Ev, symObjAddr: 0x60, symBinAddr: 0x1000269C4, symSize: 0x60 }
  - { offset: 0x273AB9, size: 0x8, addend: 0x0, symName: __ZN8crashpad8internal21MinidumpRVAListWriterD2Ev, symObjAddr: 0xC0, symBinAddr: 0x100026A24, symSize: 0xA0 }
  - { offset: 0x273F3E, size: 0x8, addend: 0x0, symName: __ZN8crashpad8internal21MinidumpRVAListWriterD1Ev, symObjAddr: 0x160, symBinAddr: 0x100026AC4, symSize: 0xA0 }
  - { offset: 0x2743E3, size: 0x8, addend: 0x0, symName: __ZN8crashpad8internal21MinidumpRVAListWriterD0Ev, symObjAddr: 0x200, symBinAddr: 0x100026B64, symSize: 0xA4 }
  - { offset: 0x274CA9, size: 0x8, addend: 0x0, symName: __ZN8crashpad8internal21MinidumpRVAListWriter8AddChildENSt3__110unique_ptrINS0_16MinidumpWritableENS2_14default_deleteIS4_EEEE, symObjAddr: 0x2A4, symBinAddr: 0x100026C08, symSize: 0x108 }
  - { offset: 0x275232, size: 0x8, addend: 0x0, symName: __ZN8crashpad8internal21MinidumpRVAListWriter6FreezeEv, symObjAddr: 0x3AC, symBinAddr: 0x100026D10, symSize: 0x154 }
  - { offset: 0x2753F6, size: 0x8, addend: 0x0, symName: __ZN8crashpad8internal21MinidumpRVAListWriter6FreezeEv, symObjAddr: 0x3AC, symBinAddr: 0x100026D10, symSize: 0x154 }
  - { offset: 0x275632, size: 0x8, addend: 0x0, symName: __ZNSt3__16vectorIjNS_9allocatorIjEEE8__appendEm, symObjAddr: 0xB14, symBinAddr: 0x100027098, symSize: 0x124 }
  - { offset: 0x275A80, size: 0x8, addend: 0x0, symName: __ZN8crashpad8internal21MinidumpRVAListWriter12SizeOfObjectEv, symObjAddr: 0x500, symBinAddr: 0x100026E64, symSize: 0x14 }
  - { offset: 0x275AAC, size: 0x8, addend: 0x0, symName: __ZN8crashpad8internal21MinidumpRVAListWriter12SizeOfObjectEv, symObjAddr: 0x500, symBinAddr: 0x100026E64, symSize: 0x14 }
  - { offset: 0x275F22, size: 0x8, addend: 0x0, symName: __ZN8crashpad8internal21MinidumpRVAListWriter8ChildrenEv, symObjAddr: 0x514, symBinAddr: 0x100026E78, symSize: 0x144 }
  - { offset: 0x2769EB, size: 0x8, addend: 0x0, symName: __ZN8crashpad8internal21MinidumpRVAListWriter11WriteObjectEPNS_19FileWriterInterfaceE, symObjAddr: 0x658, symBinAddr: 0x100026FBC, symSize: 0xDC }
  - { offset: 0x2777A1, size: 0x8, addend: 0x0, symName: __ZNSt3__16vectorIjNS_9allocatorIjEEE8__appendEm, symObjAddr: 0xB14, symBinAddr: 0x100027098, symSize: 0x124 }
  - { offset: 0x287C9C, size: 0x8, addend: 0x0, symName: __ZN8crashpad41MinidumpSimpleStringDictionaryEntryWriterC2Ev, symObjAddr: 0x0, symBinAddr: 0x1000271BC, symSize: 0x88 }
  - { offset: 0x287D31, size: 0x8, addend: 0x0, symName: __ZN8crashpad41MinidumpSimpleStringDictionaryEntryWriterC1Ev, symObjAddr: 0x88, symBinAddr: 0x100027244, symSize: 0x88 }
  - { offset: 0x287DC2, size: 0x8, addend: 0x0, symName: __ZN8crashpad41MinidumpSimpleStringDictionaryEntryWriterD2Ev, symObjAddr: 0x110, symBinAddr: 0x1000272CC, symSize: 0x30 }
  - { offset: 0x287E01, size: 0x8, addend: 0x0, symName: __ZN8crashpad41MinidumpSimpleStringDictionaryEntryWriterD1Ev, symObjAddr: 0x140, symBinAddr: 0x1000272FC, symSize: 0x30 }
  - { offset: 0x287E60, size: 0x8, addend: 0x0, symName: __ZN8crashpad41MinidumpSimpleStringDictionaryEntryWriterD0Ev, symObjAddr: 0x170, symBinAddr: 0x10002732C, symSize: 0x34 }
  - { offset: 0x287EC9, size: 0x8, addend: 0x0, symName: __ZNK8crashpad41MinidumpSimpleStringDictionaryEntryWriter38GetMinidumpSimpleStringDictionaryEntryEv, symObjAddr: 0x1A4, symBinAddr: 0x100027360, symSize: 0x8 }
  - { offset: 0x287F5B, size: 0x8, addend: 0x0, symName: __ZN8crashpad41MinidumpSimpleStringDictionaryEntryWriter11SetKeyValueERKNSt3__112basic_stringIcNS1_11char_traitsIcEENS1_9allocatorIcEEEES9_, symObjAddr: 0x1AC, symBinAddr: 0x100027368, symSize: 0x30 }
  - { offset: 0x288076, size: 0x8, addend: 0x0, symName: __ZN8crashpad41MinidumpSimpleStringDictionaryEntryWriter6FreezeEv, symObjAddr: 0x1DC, symBinAddr: 0x100027398, symSize: 0x44 }
  - { offset: 0x28809F, size: 0x8, addend: 0x0, symName: __ZN8crashpad41MinidumpSimpleStringDictionaryEntryWriter12SizeOfObjectEv, symObjAddr: 0x220, symBinAddr: 0x1000273DC, symSize: 0x8 }
  - { offset: 0x288587, size: 0x8, addend: 0x0, symName: __ZN8crashpad41MinidumpSimpleStringDictionaryEntryWriter8ChildrenEv, symObjAddr: 0x228, symBinAddr: 0x1000273E4, symSize: 0x90 }
  - { offset: 0x288B45, size: 0x8, addend: 0x0, symName: __ZN8crashpad41MinidumpSimpleStringDictionaryEntryWriter11WriteObjectEPNS_19FileWriterInterfaceE, symObjAddr: 0x2B8, symBinAddr: 0x100027474, symSize: 0x8 }
  - { offset: 0x288F90, size: 0x8, addend: 0x0, symName: __ZN8crashpad36MinidumpSimpleStringDictionaryWriterC2Ev, symObjAddr: 0x2C0, symBinAddr: 0x10002747C, symSize: 0x7C }
  - { offset: 0x28939E, size: 0x8, addend: 0x0, symName: __ZN8crashpad36MinidumpSimpleStringDictionaryWriterC1Ev, symObjAddr: 0x33C, symBinAddr: 0x1000274F8, symSize: 0x64 }
  - { offset: 0x2896D2, size: 0x8, addend: 0x0, symName: __ZN8crashpad36MinidumpSimpleStringDictionaryWriterD2Ev, symObjAddr: 0x3A0, symBinAddr: 0x10002755C, symSize: 0xC0 }
  - { offset: 0x2899EB, size: 0x8, addend: 0x0, symName: __ZN8crashpad36MinidumpSimpleStringDictionaryWriterD1Ev, symObjAddr: 0x470, symBinAddr: 0x10002761C, symSize: 0x4 }
  - { offset: 0x289A0E, size: 0x8, addend: 0x0, symName: __ZN8crashpad36MinidumpSimpleStringDictionaryWriterD1Ev, symObjAddr: 0x470, symBinAddr: 0x10002761C, symSize: 0x4 }
  - { offset: 0x289A3C, size: 0x8, addend: 0x0, symName: __ZN8crashpad36MinidumpSimpleStringDictionaryWriterD0Ev, symObjAddr: 0x474, symBinAddr: 0x100027620, symSize: 0x14 }
  - { offset: 0x289D9A, size: 0x8, addend: 0x0, symName: __ZN8crashpad36MinidumpSimpleStringDictionaryWriter17InitializeFromMapERKNSt3__13mapINS1_12basic_stringIcNS1_11char_traitsIcEENS1_9allocatorIcEEEES8_NS1_4lessIS8_EENS6_INS1_4pairIKS8_S8_EEEEEE, symObjAddr: 0x488, symBinAddr: 0x100027634, symSize: 0x1A8 }
  - { offset: 0x28A27A, size: 0x8, addend: 0x0, symName: __ZN8crashpad36MinidumpSimpleStringDictionaryWriter8AddEntryENSt3__110unique_ptrINS_41MinidumpSimpleStringDictionaryEntryWriterENS1_14default_deleteIS3_EEEE, symObjAddr: 0x630, symBinAddr: 0x1000277DC, symSize: 0x180 }
  - { offset: 0x28A7AD, size: 0x8, addend: 0x0, symName: __ZNSt3__110unique_ptrIN8crashpad41MinidumpSimpleStringDictionaryEntryWriterENS_14default_deleteIS2_EEED1B8ne190102Ev, symObjAddr: 0x7B0, symBinAddr: 0x10002795C, symSize: 0x48 }
  - { offset: 0x28B00E, size: 0x8, addend: 0x0, symName: __ZNK8crashpad36MinidumpSimpleStringDictionaryWriter8IsUsefulEv, symObjAddr: 0x7F8, symBinAddr: 0x1000279A4, symSize: 0x10 }
  - { offset: 0x28B03A, size: 0x8, addend: 0x0, symName: __ZNK8crashpad36MinidumpSimpleStringDictionaryWriter8IsUsefulEv, symObjAddr: 0x7F8, symBinAddr: 0x1000279A4, symSize: 0x10 }
  - { offset: 0x28B127, size: 0x8, addend: 0x0, symName: __ZN8crashpad36MinidumpSimpleStringDictionaryWriter6FreezeEv, symObjAddr: 0x808, symBinAddr: 0x1000279B4, symSize: 0xD0 }
  - { offset: 0x28B250, size: 0x8, addend: 0x0, symName: __ZN8crashpad36MinidumpSimpleStringDictionaryWriter12SizeOfObjectEv, symObjAddr: 0x8D8, symBinAddr: 0x100027A84, symSize: 0x10 }
  - { offset: 0x28B27C, size: 0x8, addend: 0x0, symName: __ZN8crashpad36MinidumpSimpleStringDictionaryWriter12SizeOfObjectEv, symObjAddr: 0x8D8, symBinAddr: 0x100027A84, symSize: 0x10 }
  - { offset: 0x28B37E, size: 0x8, addend: 0x0, symName: __ZN8crashpad36MinidumpSimpleStringDictionaryWriter8ChildrenEv, symObjAddr: 0x8E8, symBinAddr: 0x100027A94, symSize: 0x178 }
  - { offset: 0x28BFD7, size: 0x8, addend: 0x0, symName: __ZN8crashpad36MinidumpSimpleStringDictionaryWriter11WriteObjectEPNS_19FileWriterInterfaceE, symObjAddr: 0xA60, symBinAddr: 0x100027C0C, symSize: 0x1D0 }
  - { offset: 0x28F77E, size: 0x8, addend: 0x0, symName: __ZN8crashpad8internal20MinidumpStreamWriterD2Ev, symObjAddr: 0x0, symBinAddr: 0x100027DDC, symSize: 0x4 }
  - { offset: 0x290331, size: 0x8, addend: 0x0, symName: __ZN8crashpad8internal20MinidumpStreamWriterD2Ev, symObjAddr: 0x0, symBinAddr: 0x100027DDC, symSize: 0x4 }
  - { offset: 0x29035C, size: 0x8, addend: 0x0, symName: __ZN8crashpad8internal20MinidumpStreamWriterD1Ev, symObjAddr: 0x4, symBinAddr: 0x100027DE0, symSize: 0x4 }
  - { offset: 0x290385, size: 0x8, addend: 0x0, symName: __ZN8crashpad8internal20MinidumpStreamWriterD0Ev, symObjAddr: 0x8, symBinAddr: 0x100027DE4, symSize: 0x4 }
  - { offset: 0x2903AE, size: 0x8, addend: 0x0, symName: __ZNK8crashpad8internal20MinidumpStreamWriter18DirectoryListEntryEv, symObjAddr: 0xC, symBinAddr: 0x100027DE8, symSize: 0x8 }
  - { offset: 0x2903D7, size: 0x8, addend: 0x0, symName: __ZN8crashpad8internal20MinidumpStreamWriterC2Ev, symObjAddr: 0x14, symBinAddr: 0x100027DF0, symSize: 0x28 }
  - { offset: 0x290402, size: 0x8, addend: 0x0, symName: __ZN8crashpad8internal20MinidumpStreamWriter6FreezeEv, symObjAddr: 0x3C, symBinAddr: 0x100027E18, symSize: 0x4C }
  - { offset: 0x29FE4A, size: 0x8, addend: 0x0, symName: __ZN8crashpad8internal20MinidumpStringWriterINS0_31MinidumpStringWriterUTF16TraitsEEC2Ev, symObjAddr: 0x0, symBinAddr: 0x100027E64, symSize: 0x5C }
  - { offset: 0x29FFE8, size: 0x8, addend: 0x0, symName: __ZN8crashpad8internal20MinidumpStringWriterINS0_31MinidumpStringWriterUTF16TraitsEEC1Ev, symObjAddr: 0x5C, symBinAddr: 0x100027EC0, symSize: 0x5C }
  - { offset: 0x2A02DB, size: 0x8, addend: 0x0, symName: __ZN8crashpad8internal20MinidumpStringWriterINS0_31MinidumpStringWriterUTF16TraitsEED2Ev, symObjAddr: 0xB8, symBinAddr: 0x100027F1C, symSize: 0x50 }
  - { offset: 0x2A04F8, size: 0x8, addend: 0x0, symName: __ZN8crashpad8internal20MinidumpStringWriterINS0_31MinidumpStringWriterUTF16TraitsEED1Ev, symObjAddr: 0x108, symBinAddr: 0x100027F6C, symSize: 0x50 }
  - { offset: 0x2A0735, size: 0x8, addend: 0x0, symName: __ZN8crashpad8internal20MinidumpStringWriterINS0_31MinidumpStringWriterUTF16TraitsEED0Ev, symObjAddr: 0x158, symBinAddr: 0x100027FBC, symSize: 0x54 }
  - { offset: 0x2A0A61, size: 0x8, addend: 0x0, symName: __ZN8crashpad8internal20MinidumpStringWriterINS0_31MinidumpStringWriterUTF16TraitsEE6FreezeEv, symObjAddr: 0x1AC, symBinAddr: 0x100028010, symSize: 0xE8 }
  - { offset: 0x2A0BC7, size: 0x8, addend: 0x0, symName: __ZN8crashpad8internal20MinidumpStringWriterINS0_31MinidumpStringWriterUTF16TraitsEE12SizeOfObjectEv, symObjAddr: 0x294, symBinAddr: 0x1000280F8, symSize: 0x24 }
  - { offset: 0x2A0C0A, size: 0x8, addend: 0x0, symName: __ZN8crashpad8internal20MinidumpStringWriterINS0_31MinidumpStringWriterUTF16TraitsEE12SizeOfObjectEv, symObjAddr: 0x294, symBinAddr: 0x1000280F8, symSize: 0x24 }
  - { offset: 0x2A10CA, size: 0x8, addend: 0x0, symName: __ZN8crashpad8internal20MinidumpStringWriterINS0_31MinidumpStringWriterUTF16TraitsEE11WriteObjectEPNS_19FileWriterInterfaceE, symObjAddr: 0x2B8, symBinAddr: 0x10002811C, symSize: 0xF4 }
  - { offset: 0x2A19C6, size: 0x8, addend: 0x0, symName: __ZN8crashpad8internal20MinidumpStringWriterINS0_31MinidumpStringWriterUTF16TraitsEE10set_stringERKNSt3__112basic_stringIDsNS4_11char_traitsIDsEENS4_9allocatorIDsEEEE, symObjAddr: 0x3AC, symBinAddr: 0x100028210, symSize: 0x58 }
  - { offset: 0x2A1B17, size: 0x8, addend: 0x0, symName: __ZNSt3__112basic_stringIDsNS_11char_traitsIDsEENS_9allocatorIDsEEE17__assign_no_aliasILb0EEERS5_PKDsm, symObjAddr: 0x1360, symBinAddr: 0x100028DF8, symSize: 0x98 }
  - { offset: 0x2A1CD7, size: 0x8, addend: 0x0, symName: __ZNSt3__112basic_stringIDsNS_11char_traitsIDsEENS_9allocatorIDsEEE17__assign_no_aliasILb1EEERS5_PKDsm, symObjAddr: 0x129C, symBinAddr: 0x100028D34, symSize: 0xC4 }
  - { offset: 0x2A1FEA, size: 0x8, addend: 0x0, symName: __ZNSt3__112basic_stringIDsNS_11char_traitsIDsEENS_9allocatorIDsEEE17__assign_no_aliasILb0EEERS5_PKDsm, symObjAddr: 0x1360, symBinAddr: 0x100028DF8, symSize: 0x98 }
  - { offset: 0x2A1FFF, size: 0x8, addend: 0x0, symName: __ZNK8crashpad8internal20MinidumpStringWriterINS0_31MinidumpStringWriterUTF16TraitsEE6stringEv, symObjAddr: 0x404, symBinAddr: 0x100028268, symSize: 0x8 }
  - { offset: 0x2A221D, size: 0x8, addend: 0x0, symName: __ZN8crashpad8internal20MinidumpStringWriterINS0_30MinidumpStringWriterUTF8TraitsEEC2Ev, symObjAddr: 0x40C, symBinAddr: 0x100028270, symSize: 0x5C }
  - { offset: 0x2A23BB, size: 0x8, addend: 0x0, symName: __ZN8crashpad8internal20MinidumpStringWriterINS0_30MinidumpStringWriterUTF8TraitsEEC1Ev, symObjAddr: 0x468, symBinAddr: 0x1000282CC, symSize: 0x5C }
  - { offset: 0x2A26A4, size: 0x8, addend: 0x0, symName: __ZN8crashpad8internal20MinidumpStringWriterINS0_30MinidumpStringWriterUTF8TraitsEED2Ev, symObjAddr: 0x4C4, symBinAddr: 0x100028328, symSize: 0x50 }
  - { offset: 0x2A28C1, size: 0x8, addend: 0x0, symName: __ZN8crashpad8internal20MinidumpStringWriterINS0_30MinidumpStringWriterUTF8TraitsEED1Ev, symObjAddr: 0x514, symBinAddr: 0x100028378, symSize: 0x50 }
  - { offset: 0x2A2AFE, size: 0x8, addend: 0x0, symName: __ZN8crashpad8internal20MinidumpStringWriterINS0_30MinidumpStringWriterUTF8TraitsEED0Ev, symObjAddr: 0x564, symBinAddr: 0x1000283C8, symSize: 0x54 }
  - { offset: 0x2A2D8C, size: 0x8, addend: 0x0, symName: __ZN8crashpad8internal20MinidumpStringWriterINS0_30MinidumpStringWriterUTF8TraitsEE6FreezeEv, symObjAddr: 0x5B8, symBinAddr: 0x10002841C, symSize: 0xD8 }
  - { offset: 0x2A2EE5, size: 0x8, addend: 0x0, symName: __ZN8crashpad8internal20MinidumpStringWriterINS0_30MinidumpStringWriterUTF8TraitsEE12SizeOfObjectEv, symObjAddr: 0x690, symBinAddr: 0x1000284F4, symSize: 0x1C }
  - { offset: 0x2A2F28, size: 0x8, addend: 0x0, symName: __ZN8crashpad8internal20MinidumpStringWriterINS0_30MinidumpStringWriterUTF8TraitsEE12SizeOfObjectEv, symObjAddr: 0x690, symBinAddr: 0x1000284F4, symSize: 0x1C }
  - { offset: 0x2A2FB9, size: 0x8, addend: 0x0, symName: __ZN8crashpad8internal20MinidumpStringWriterINS0_30MinidumpStringWriterUTF8TraitsEE11WriteObjectEPNS_19FileWriterInterfaceE, symObjAddr: 0x6AC, symBinAddr: 0x100028510, symSize: 0xF0 }
  - { offset: 0x2A383E, size: 0x8, addend: 0x0, symName: __ZN8crashpad8internal20MinidumpStringWriterINS0_30MinidumpStringWriterUTF8TraitsEE10set_stringERKNSt3__112basic_stringIcNS4_11char_traitsIcEENS4_9allocatorIcEEEE, symObjAddr: 0x79C, symBinAddr: 0x100028600, symSize: 0x8 }
  - { offset: 0x2A3887, size: 0x8, addend: 0x0, symName: __ZNK8crashpad8internal20MinidumpStringWriterINS0_30MinidumpStringWriterUTF8TraitsEE6stringEv, symObjAddr: 0x7A4, symBinAddr: 0x100028608, symSize: 0x8 }
  - { offset: 0x2A3A09, size: 0x8, addend: 0x0, symName: __ZN8crashpad8internal24MinidumpStringListWriterINS0_25MinidumpUTF16StringWriterEEC2Ev, symObjAddr: 0x7AC, symBinAddr: 0x100028610, symSize: 0x24 }
  - { offset: 0x2A3A49, size: 0x8, addend: 0x0, symName: __ZN8crashpad8internal24MinidumpStringListWriterINS0_25MinidumpUTF16StringWriterEEC1Ev, symObjAddr: 0x7D0, symBinAddr: 0x100028634, symSize: 0x24 }
  - { offset: 0x2A3A90, size: 0x8, addend: 0x0, symName: __ZN8crashpad8internal24MinidumpStringListWriterINS0_25MinidumpUTF16StringWriterEED2Ev, symObjAddr: 0x7F4, symBinAddr: 0x100028658, symSize: 0x4 }
  - { offset: 0x2A3ACD, size: 0x8, addend: 0x0, symName: __ZN8crashpad8internal24MinidumpStringListWriterINS0_25MinidumpUTF16StringWriterEED1Ev, symObjAddr: 0x7F8, symBinAddr: 0x10002865C, symSize: 0x4 }
  - { offset: 0x2A3AF1, size: 0x8, addend: 0x0, symName: __ZN8crashpad8internal24MinidumpStringListWriterINS0_25MinidumpUTF16StringWriterEED1Ev, symObjAddr: 0x7F8, symBinAddr: 0x10002865C, symSize: 0x4 }
  - { offset: 0x2A3B28, size: 0x8, addend: 0x0, symName: __ZN8crashpad8internal24MinidumpStringListWriterINS0_25MinidumpUTF16StringWriterEED0Ev, symObjAddr: 0x7FC, symBinAddr: 0x100028660, symSize: 0x14 }
  - { offset: 0x2A3BC7, size: 0x8, addend: 0x0, symName: __ZN8crashpad8internal24MinidumpStringListWriterINS0_25MinidumpUTF16StringWriterEE20InitializeFromVectorERKNSt3__16vectorINS4_12basic_stringIcNS4_11char_traitsIcEENS4_9allocatorIcEEEENS9_ISB_EEEE, symObjAddr: 0x810, symBinAddr: 0x100028674, symSize: 0x48 }
  - { offset: 0x2A3CA4, size: 0x8, addend: 0x0, symName: __ZN8crashpad8internal24MinidumpStringListWriterINS0_25MinidumpUTF16StringWriterEE13AddStringUTF8ERKNSt3__112basic_stringIcNS4_11char_traitsIcEENS4_9allocatorIcEEEE, symObjAddr: 0x858, symBinAddr: 0x1000286BC, symSize: 0x114 }
  - { offset: 0x2A43BD, size: 0x8, addend: 0x0, symName: __ZN8crashpad8internal25MinidumpUTF16StringWriter7SetUTF8ERKNSt3__112basic_stringIcNS2_11char_traitsIcEENS2_9allocatorIcEEEE, symObjAddr: 0x96C, symBinAddr: 0x1000287D0, symSize: 0xC8 }
  - { offset: 0x2A47B3, size: 0x8, addend: 0x0, symName: __ZNSt3__110unique_ptrIN8crashpad8internal25MinidumpUTF16StringWriterENS_14default_deleteIS3_EEED1B8ne190102Ev, symObjAddr: 0xA34, symBinAddr: 0x100028898, symSize: 0x68 }
  - { offset: 0x2A4B8B, size: 0x8, addend: 0x0, symName: __ZNK8crashpad8internal24MinidumpStringListWriterINS0_25MinidumpUTF16StringWriterEE8IsUsefulEv, symObjAddr: 0xA9C, symBinAddr: 0x100028900, symSize: 0x10 }
  - { offset: 0x2A4BB7, size: 0x8, addend: 0x0, symName: __ZNK8crashpad8internal24MinidumpStringListWriterINS0_25MinidumpUTF16StringWriterEE8IsUsefulEv, symObjAddr: 0xA9C, symBinAddr: 0x100028900, symSize: 0x10 }
  - { offset: 0x2A4BD4, size: 0x8, addend: 0x0, symName: __ZNK8crashpad8internal24MinidumpStringListWriterINS0_25MinidumpUTF16StringWriterEE8IsUsefulEv, symObjAddr: 0xA9C, symBinAddr: 0x100028900, symSize: 0x10 }
  - { offset: 0x2A4C0E, size: 0x8, addend: 0x0, symName: __ZN8crashpad8internal24MinidumpStringListWriterINS0_24MinidumpUTF8StringWriterEEC2Ev, symObjAddr: 0xAAC, symBinAddr: 0x100028910, symSize: 0x24 }
  - { offset: 0x2A4C4E, size: 0x8, addend: 0x0, symName: __ZN8crashpad8internal24MinidumpStringListWriterINS0_24MinidumpUTF8StringWriterEEC1Ev, symObjAddr: 0xAD0, symBinAddr: 0x100028934, symSize: 0x24 }
  - { offset: 0x2A4C95, size: 0x8, addend: 0x0, symName: __ZN8crashpad8internal24MinidumpStringListWriterINS0_24MinidumpUTF8StringWriterEED2Ev, symObjAddr: 0xAF4, symBinAddr: 0x100028958, symSize: 0x4 }
  - { offset: 0x2A4CD2, size: 0x8, addend: 0x0, symName: __ZN8crashpad8internal24MinidumpStringListWriterINS0_24MinidumpUTF8StringWriterEED1Ev, symObjAddr: 0xAF8, symBinAddr: 0x10002895C, symSize: 0x4 }
  - { offset: 0x2A4CF6, size: 0x8, addend: 0x0, symName: __ZN8crashpad8internal24MinidumpStringListWriterINS0_24MinidumpUTF8StringWriterEED1Ev, symObjAddr: 0xAF8, symBinAddr: 0x10002895C, symSize: 0x4 }
  - { offset: 0x2A4D2D, size: 0x8, addend: 0x0, symName: __ZN8crashpad8internal24MinidumpStringListWriterINS0_24MinidumpUTF8StringWriterEED0Ev, symObjAddr: 0xAFC, symBinAddr: 0x100028960, symSize: 0x14 }
  - { offset: 0x2A4D94, size: 0x8, addend: 0x0, symName: __ZN8crashpad8internal24MinidumpStringListWriterINS0_24MinidumpUTF8StringWriterEE20InitializeFromVectorERKNSt3__16vectorINS4_12basic_stringIcNS4_11char_traitsIcEENS4_9allocatorIcEEEENS9_ISB_EEEE, symObjAddr: 0xB10, symBinAddr: 0x100028974, symSize: 0x48 }
  - { offset: 0x2A4E71, size: 0x8, addend: 0x0, symName: __ZN8crashpad8internal24MinidumpStringListWriterINS0_24MinidumpUTF8StringWriterEE13AddStringUTF8ERKNSt3__112basic_stringIcNS4_11char_traitsIcEENS4_9allocatorIcEEEE, symObjAddr: 0xB58, symBinAddr: 0x1000289BC, symSize: 0x118 }
  - { offset: 0x2A5561, size: 0x8, addend: 0x0, symName: __ZNSt3__110unique_ptrIN8crashpad8internal24MinidumpUTF8StringWriterENS_14default_deleteIS3_EEED1B8ne190102Ev, symObjAddr: 0xC70, symBinAddr: 0x100028AD4, symSize: 0x68 }
  - { offset: 0x2A58E2, size: 0x8, addend: 0x0, symName: __ZNK8crashpad8internal24MinidumpStringListWriterINS0_24MinidumpUTF8StringWriterEE8IsUsefulEv, symObjAddr: 0xCD8, symBinAddr: 0x100028B3C, symSize: 0x10 }
  - { offset: 0x2A590E, size: 0x8, addend: 0x0, symName: __ZNK8crashpad8internal24MinidumpStringListWriterINS0_24MinidumpUTF8StringWriterEE8IsUsefulEv, symObjAddr: 0xCD8, symBinAddr: 0x100028B3C, symSize: 0x10 }
  - { offset: 0x2A592B, size: 0x8, addend: 0x0, symName: __ZNK8crashpad8internal24MinidumpStringListWriterINS0_24MinidumpUTF8StringWriterEE8IsUsefulEv, symObjAddr: 0xCD8, symBinAddr: 0x100028B3C, symSize: 0x10 }
  - { offset: 0x2A594A, size: 0x8, addend: 0x0, symName: __ZN8crashpad8internal25MinidumpUTF16StringWriterD2Ev, symObjAddr: 0xCE8, symBinAddr: 0x100028B4C, symSize: 0x50 }
  - { offset: 0x2A5B6B, size: 0x8, addend: 0x0, symName: __ZN8crashpad8internal25MinidumpUTF16StringWriterD1Ev, symObjAddr: 0xD38, symBinAddr: 0x100028B9C, symSize: 0x50 }
  - { offset: 0x2A5DAC, size: 0x8, addend: 0x0, symName: __ZN8crashpad8internal25MinidumpUTF16StringWriterD0Ev, symObjAddr: 0xD88, symBinAddr: 0x100028BEC, symSize: 0x54 }
  - { offset: 0x2A6011, size: 0x8, addend: 0x0, symName: __ZN8crashpad8internal24MinidumpUTF8StringWriterD2Ev, symObjAddr: 0xDDC, symBinAddr: 0x100028C40, symSize: 0x50 }
  - { offset: 0x2A6232, size: 0x8, addend: 0x0, symName: __ZN8crashpad8internal24MinidumpUTF8StringWriterD1Ev, symObjAddr: 0xE2C, symBinAddr: 0x100028C90, symSize: 0x50 }
  - { offset: 0x2A6473, size: 0x8, addend: 0x0, symName: __ZN8crashpad8internal24MinidumpUTF8StringWriterD0Ev, symObjAddr: 0xE7C, symBinAddr: 0x100028CE0, symSize: 0x54 }
  - { offset: 0x2A6D83, size: 0x8, addend: 0x0, symName: __ZNSt3__112basic_stringIDsNS_11char_traitsIDsEENS_9allocatorIDsEEE21__grow_by_and_replaceEmmmmmmPKDs, symObjAddr: 0x13F8, symBinAddr: 0x100028E90, symSize: 0x184 }
  - { offset: 0x2B1769, size: 0x8, addend: 0x0, symName: __ZN8crashpad24MinidumpSystemInfoWriterC2Ev, symObjAddr: 0x0, symBinAddr: 0x100029014, symSize: 0x34 }
  - { offset: 0x2B1850, size: 0x8, addend: 0x0, symName: __ZN8crashpad24MinidumpSystemInfoWriterC1Ev, symObjAddr: 0x34, symBinAddr: 0x100029048, symSize: 0x34 }
  - { offset: 0x2B19C8, size: 0x8, addend: 0x0, symName: __ZN8crashpad24MinidumpSystemInfoWriterD2Ev, symObjAddr: 0x68, symBinAddr: 0x10002907C, symSize: 0x3C }
  - { offset: 0x2B1AA5, size: 0x8, addend: 0x0, symName: __ZN8crashpad24MinidumpSystemInfoWriterD1Ev, symObjAddr: 0xA4, symBinAddr: 0x1000290B8, symSize: 0x3C }
  - { offset: 0x2B1BA2, size: 0x8, addend: 0x0, symName: __ZN8crashpad24MinidumpSystemInfoWriterD0Ev, symObjAddr: 0xE0, symBinAddr: 0x1000290F4, symSize: 0x38 }
  - { offset: 0x2B21EB, size: 0x8, addend: 0x0, symName: __ZN8crashpad24MinidumpSystemInfoWriter22InitializeFromSnapshotEPKNS_14SystemSnapshotE, symObjAddr: 0x118, symBinAddr: 0x10002912C, symSize: 0x4EC }
  - { offset: 0x2B2E6C, size: 0x8, addend: 0x0, symName: __ZN8crashpad24MinidumpSystemInfoWriter21SetCPUX86VendorStringERKNSt3__112basic_stringIcNS1_11char_traitsIcEENS1_9allocatorIcEEEE, symObjAddr: 0x604, symBinAddr: 0x100029618, symSize: 0xB8 }
  - { offset: 0x2B2F73, size: 0x8, addend: 0x0, symName: __ZN8crashpad24MinidumpSystemInfoWriter27SetCPUX86VersionAndFeaturesEjj, symObjAddr: 0x6BC, symBinAddr: 0x1000296D0, symSize: 0x8 }
  - { offset: 0x2B2FA4, size: 0x8, addend: 0x0, symName: __ZN8crashpad24MinidumpSystemInfoWriter28SetCPUX86AMDExtendedFeaturesEj, symObjAddr: 0x6C4, symBinAddr: 0x1000296D8, symSize: 0x8 }
  - { offset: 0x2B2FCD, size: 0x8, addend: 0x0, symName: __ZN8crashpad24MinidumpSystemInfoWriter19SetCPUOtherFeaturesEyy, symObjAddr: 0x6CC, symBinAddr: 0x1000296E0, symSize: 0x8 }
  - { offset: 0x2B2FFE, size: 0x8, addend: 0x0, symName: __ZN8crashpad24MinidumpSystemInfoWriter13SetCSDVersionERKNSt3__112basic_stringIcNS1_11char_traitsIcEENS1_9allocatorIcEEEE, symObjAddr: 0x6D4, symBinAddr: 0x1000296E8, symSize: 0x9C }
  - { offset: 0x2B30FC, size: 0x8, addend: 0x0, symName: __ZN8crashpad24MinidumpSystemInfoWriter15SetCPUX86VendorEjjj, symObjAddr: 0x770, symBinAddr: 0x100029784, symSize: 0xC }
  - { offset: 0x2B319D, size: 0x8, addend: 0x0, symName: __ZN8crashpad24MinidumpSystemInfoWriter6FreezeEv, symObjAddr: 0x77C, symBinAddr: 0x100029790, symSize: 0xCC }
  - { offset: 0x2B329C, size: 0x8, addend: 0x0, symName: __ZN8crashpad24MinidumpSystemInfoWriter12SizeOfObjectEv, symObjAddr: 0x848, symBinAddr: 0x10002985C, symSize: 0x8 }
  - { offset: 0x2B34A6, size: 0x8, addend: 0x0, symName: __ZN8crashpad24MinidumpSystemInfoWriter8ChildrenEv, symObjAddr: 0x850, symBinAddr: 0x100029864, symSize: 0x3C }
  - { offset: 0x2B36BC, size: 0x8, addend: 0x0, symName: __ZN8crashpad24MinidumpSystemInfoWriter11WriteObjectEPNS_19FileWriterInterfaceE, symObjAddr: 0x88C, symBinAddr: 0x1000298A0, symSize: 0x1C }
  - { offset: 0x2B3711, size: 0x8, addend: 0x0, symName: __ZNK8crashpad24MinidumpSystemInfoWriter10StreamTypeEv, symObjAddr: 0x8A8, symBinAddr: 0x1000298BC, symSize: 0x8 }
  - { offset: 0x2B63CF, size: 0x8, addend: 0x0, symName: __ZN8crashpad24BuildMinidumpThreadIDMapERKNSt3__16vectorIPKNS_14ThreadSnapshotENS0_9allocatorIS4_EEEEPNS0_3mapIyjNS0_4lessIyEENS5_INS0_4pairIKyjEEEEEE, symObjAddr: 0x0, symBinAddr: 0x1000298C4, symSize: 0x380 }
  - { offset: 0x2BC588, size: 0x8, addend: 0x0, symName: __ZN8crashpad24BuildMinidumpThreadIDMapERKNSt3__16vectorIPKNS_14ThreadSnapshotENS0_9allocatorIS4_EEEEPNS0_3mapIyjNS0_4lessIyEENS5_INS0_4pairIKyjEEEEEE, symObjAddr: 0x0, symBinAddr: 0x1000298C4, symSize: 0x380 }
  - { offset: 0x2CF85E, size: 0x8, addend: 0x0, symName: __ZN8crashpad24MinidumpThreadNameWriterC2Ev, symObjAddr: 0x0, symBinAddr: 0x100029C44, symSize: 0x2C }
  - { offset: 0x2CF940, size: 0x8, addend: 0x0, symName: __ZN8crashpad24MinidumpThreadNameWriterC1Ev, symObjAddr: 0x2C, symBinAddr: 0x100029C70, symSize: 0x2C }
  - { offset: 0x2CFAAE, size: 0x8, addend: 0x0, symName: __ZN8crashpad24MinidumpThreadNameWriterD2Ev, symObjAddr: 0x58, symBinAddr: 0x100029C9C, symSize: 0x3C }
  - { offset: 0x2CFB8B, size: 0x8, addend: 0x0, symName: __ZN8crashpad24MinidumpThreadNameWriterD1Ev, symObjAddr: 0x94, symBinAddr: 0x100029CD8, symSize: 0x3C }
  - { offset: 0x2CFC88, size: 0x8, addend: 0x0, symName: __ZN8crashpad24MinidumpThreadNameWriterD0Ev, symObjAddr: 0xD0, symBinAddr: 0x100029D14, symSize: 0x38 }
  - { offset: 0x2D0065, size: 0x8, addend: 0x0, symName: __ZN8crashpad24MinidumpThreadNameWriter22InitializeFromSnapshotEPKNS_14ThreadSnapshotERKNSt3__13mapIyjNS4_4lessIyEENS4_9allocatorINS4_4pairIKyjEEEEEE, symObjAddr: 0x108, symBinAddr: 0x100029D4C, symSize: 0x13C }
  - { offset: 0x2D054E, size: 0x8, addend: 0x0, symName: __ZN8crashpad24MinidumpThreadNameWriter13SetThreadNameERKNSt3__112basic_stringIcNS1_11char_traitsIcEENS1_9allocatorIcEEEE, symObjAddr: 0x244, symBinAddr: 0x100029E88, symSize: 0x9C }
  - { offset: 0x2D064C, size: 0x8, addend: 0x0, symName: __ZNK8crashpad24MinidumpThreadNameWriter15RvaOfThreadNameEv, symObjAddr: 0x2E0, symBinAddr: 0x100029F24, symSize: 0x8 }
  - { offset: 0x2D066F, size: 0x8, addend: 0x0, symName: __ZNK8crashpad24MinidumpThreadNameWriter8ThreadIdEv, symObjAddr: 0x2E8, symBinAddr: 0x100029F2C, symSize: 0x8 }
  - { offset: 0x2D0692, size: 0x8, addend: 0x0, symName: __ZN8crashpad24MinidumpThreadNameWriter6FreezeEv, symObjAddr: 0x2F0, symBinAddr: 0x100029F34, symSize: 0x2C }
  - { offset: 0x2D06DC, size: 0x8, addend: 0x0, symName: __ZN8crashpad24MinidumpThreadNameWriter12SizeOfObjectEv, symObjAddr: 0x31C, symBinAddr: 0x100029F60, symSize: 0x8 }
  - { offset: 0x2D0944, size: 0x8, addend: 0x0, symName: __ZN8crashpad24MinidumpThreadNameWriter8ChildrenEv, symObjAddr: 0x324, symBinAddr: 0x100029F68, symSize: 0x3C }
  - { offset: 0x2D0BBD, size: 0x8, addend: 0x0, symName: __ZN8crashpad24MinidumpThreadNameWriter11WriteObjectEPNS_19FileWriterInterfaceE, symObjAddr: 0x360, symBinAddr: 0x100029FA4, symSize: 0x8 }
  - { offset: 0x2D0C41, size: 0x8, addend: 0x0, symName: __ZN8crashpad28MinidumpThreadNameListWriterC2Ev, symObjAddr: 0x368, symBinAddr: 0x100029FAC, symSize: 0x28 }
  - { offset: 0x2D0CC6, size: 0x8, addend: 0x0, symName: __ZN8crashpad28MinidumpThreadNameListWriterC1Ev, symObjAddr: 0x390, symBinAddr: 0x100029FD4, symSize: 0x28 }
  - { offset: 0x2D0F23, size: 0x8, addend: 0x0, symName: __ZN8crashpad28MinidumpThreadNameListWriterD2Ev, symObjAddr: 0x3B8, symBinAddr: 0x100029FFC, symSize: 0x88 }
  - { offset: 0x2D122A, size: 0x8, addend: 0x0, symName: __ZN8crashpad28MinidumpThreadNameListWriterD1Ev, symObjAddr: 0x440, symBinAddr: 0x10002A084, symSize: 0x4 }
  - { offset: 0x2D124D, size: 0x8, addend: 0x0, symName: __ZN8crashpad28MinidumpThreadNameListWriterD1Ev, symObjAddr: 0x440, symBinAddr: 0x10002A084, symSize: 0x4 }
  - { offset: 0x2D127C, size: 0x8, addend: 0x0, symName: __ZN8crashpad28MinidumpThreadNameListWriterD0Ev, symObjAddr: 0x444, symBinAddr: 0x10002A088, symSize: 0x14 }
  - { offset: 0x2D14B4, size: 0x8, addend: 0x0, symName: __ZN8crashpad28MinidumpThreadNameListWriter22InitializeFromSnapshotERKNSt3__16vectorIPKNS_14ThreadSnapshotENS1_9allocatorIS5_EEEERKNS1_3mapIyjNS1_4lessIyEENS6_INS1_4pairIKyjEEEEEE, symObjAddr: 0x458, symBinAddr: 0x10002A09C, symSize: 0x120 }
  - { offset: 0x2D1975, size: 0x8, addend: 0x0, symName: __ZN8crashpad28MinidumpThreadNameListWriter13AddThreadNameENSt3__110unique_ptrINS_24MinidumpThreadNameWriterENS1_14default_deleteIS3_EEEE, symObjAddr: 0x578, symBinAddr: 0x10002A1BC, symSize: 0x108 }
  - { offset: 0x2D1EFE, size: 0x8, addend: 0x0, symName: __ZNSt3__110unique_ptrIN8crashpad24MinidumpThreadNameWriterENS_14default_deleteIS2_EEED1B8ne190102Ev, symObjAddr: 0x680, symBinAddr: 0x10002A2C4, symSize: 0x4C }
  - { offset: 0x2D1F09, size: 0x8, addend: 0x0, symName: __ZNSt3__110unique_ptrIN8crashpad24MinidumpThreadNameWriterENS_14default_deleteIS2_EEED1B8ne190102Ev, symObjAddr: 0x680, symBinAddr: 0x10002A2C4, symSize: 0x4C }
  - { offset: 0x2D24F8, size: 0x8, addend: 0x0, symName: __ZN8crashpad28MinidumpThreadNameListWriter6FreezeEv, symObjAddr: 0x6CC, symBinAddr: 0x10002A310, symSize: 0xD8 }
  - { offset: 0x2D25F9, size: 0x8, addend: 0x0, symName: __ZN8crashpad28MinidumpThreadNameListWriter12SizeOfObjectEv, symObjAddr: 0x7A4, symBinAddr: 0x10002A3E8, symSize: 0x1C }
  - { offset: 0x2D2625, size: 0x8, addend: 0x0, symName: __ZN8crashpad28MinidumpThreadNameListWriter12SizeOfObjectEv, symObjAddr: 0x7A4, symBinAddr: 0x10002A3E8, symSize: 0x1C }
  - { offset: 0x2D29B5, size: 0x8, addend: 0x0, symName: __ZN8crashpad28MinidumpThreadNameListWriter8ChildrenEv, symObjAddr: 0x7C0, symBinAddr: 0x10002A404, symSize: 0x17C }
  - { offset: 0x2D3B3A, size: 0x8, addend: 0x0, symName: __ZN8crashpad28MinidumpThreadNameListWriter11WriteObjectEPNS_19FileWriterInterfaceE, symObjAddr: 0x93C, symBinAddr: 0x10002A580, symSize: 0x37C }
  - { offset: 0x2D506C, size: 0x8, addend: 0x0, symName: __ZNK8crashpad28MinidumpThreadNameListWriter10StreamTypeEv, symObjAddr: 0xCB8, symBinAddr: 0x10002A8FC, symSize: 0x8 }
  - { offset: 0x2E8853, size: 0x8, addend: 0x0, symName: __ZN8crashpad20MinidumpThreadWriterC2Ev, symObjAddr: 0x0, symBinAddr: 0x10002A904, symSize: 0x34 }
  - { offset: 0x2E8943, size: 0x8, addend: 0x0, symName: __ZN8crashpad20MinidumpThreadWriterC1Ev, symObjAddr: 0x34, symBinAddr: 0x10002A938, symSize: 0x34 }
  - { offset: 0x2E8B4E, size: 0x8, addend: 0x0, symName: __ZN8crashpad20MinidumpThreadWriterD2Ev, symObjAddr: 0x68, symBinAddr: 0x10002A96C, symSize: 0x50 }
  - { offset: 0x2E8CE5, size: 0x8, addend: 0x0, symName: __ZN8crashpad20MinidumpThreadWriterD1Ev, symObjAddr: 0xB8, symBinAddr: 0x10002A9BC, symSize: 0x50 }
  - { offset: 0x2E8E9C, size: 0x8, addend: 0x0, symName: __ZN8crashpad20MinidumpThreadWriterD0Ev, symObjAddr: 0x108, symBinAddr: 0x10002AA0C, symSize: 0x54 }
  - { offset: 0x2E9332, size: 0x8, addend: 0x0, symName: __ZN8crashpad20MinidumpThreadWriter22InitializeFromSnapshotEPKNS_14ThreadSnapshotEPKNSt3__13mapIyjNS4_4lessIyEENS4_9allocatorINS4_4pairIKyjEEEEEE, symObjAddr: 0x15C, symBinAddr: 0x10002AA60, symSize: 0x17C }
  - { offset: 0x2E9841, size: 0x8, addend: 0x0, symName: __ZN8crashpad20MinidumpThreadWriter8SetStackENSt3__110unique_ptrINS_28SnapshotMinidumpMemoryWriterENS1_14default_deleteIS3_EEEE, symObjAddr: 0x2D8, symBinAddr: 0x10002ABDC, symSize: 0x28 }
  - { offset: 0x2E991D, size: 0x8, addend: 0x0, symName: __ZN8crashpad20MinidumpThreadWriter10SetContextENSt3__110unique_ptrINS_21MinidumpContextWriterENS1_14default_deleteIS3_EEEE, symObjAddr: 0x300, symBinAddr: 0x10002AC04, symSize: 0x28 }
  - { offset: 0x2E99F9, size: 0x8, addend: 0x0, symName: __ZNK8crashpad20MinidumpThreadWriter14MinidumpThreadEv, symObjAddr: 0x328, symBinAddr: 0x10002AC2C, symSize: 0x8 }
  - { offset: 0x2E9B06, size: 0x8, addend: 0x0, symName: __ZN8crashpad20MinidumpThreadWriter6FreezeEv, symObjAddr: 0x330, symBinAddr: 0x10002AC34, symSize: 0xE8 }
  - { offset: 0x2E9C20, size: 0x8, addend: 0x0, symName: __ZN8crashpad20MinidumpThreadWriter12SizeOfObjectEv, symObjAddr: 0x418, symBinAddr: 0x10002AD1C, symSize: 0x8 }
  - { offset: 0x2E9FF3, size: 0x8, addend: 0x0, symName: __ZN8crashpad20MinidumpThreadWriter8ChildrenEv, symObjAddr: 0x420, symBinAddr: 0x10002AD24, symSize: 0x13C }
  - { offset: 0x2EA729, size: 0x8, addend: 0x0, symName: __ZN8crashpad20MinidumpThreadWriter11WriteObjectEPNS_19FileWriterInterfaceE, symObjAddr: 0x55C, symBinAddr: 0x10002AE60, symSize: 0x8 }
  - { offset: 0x2EA917, size: 0x8, addend: 0x0, symName: __ZN8crashpad24MinidumpThreadListWriterC2Ev, symObjAddr: 0x564, symBinAddr: 0x10002AE68, symSize: 0x2C }
  - { offset: 0x2EA959, size: 0x8, addend: 0x0, symName: __ZN8crashpad24MinidumpThreadListWriterC1Ev, symObjAddr: 0x590, symBinAddr: 0x10002AE94, symSize: 0x2C }
  - { offset: 0x2EAB78, size: 0x8, addend: 0x0, symName: __ZN8crashpad24MinidumpThreadListWriterD2Ev, symObjAddr: 0x5BC, symBinAddr: 0x10002AEC0, symSize: 0xA4 }
  - { offset: 0x2EAF37, size: 0x8, addend: 0x0, symName: __ZN8crashpad24MinidumpThreadListWriterD1Ev, symObjAddr: 0x660, symBinAddr: 0x10002AF64, symSize: 0x4 }
  - { offset: 0x2EAF5A, size: 0x8, addend: 0x0, symName: __ZN8crashpad24MinidumpThreadListWriterD1Ev, symObjAddr: 0x660, symBinAddr: 0x10002AF64, symSize: 0x4 }
  - { offset: 0x2EAF89, size: 0x8, addend: 0x0, symName: __ZN8crashpad24MinidumpThreadListWriterD0Ev, symObjAddr: 0x664, symBinAddr: 0x10002AF68, symSize: 0x14 }
  - { offset: 0x2EB37F, size: 0x8, addend: 0x0, symName: __ZN8crashpad24MinidumpThreadListWriter22InitializeFromSnapshotERKNSt3__16vectorIPKNS_14ThreadSnapshotENS1_9allocatorIS5_EEEEPNS1_3mapIyjNS1_4lessIyEENS6_INS1_4pairIKyjEEEEEE, symObjAddr: 0x678, symBinAddr: 0x10002AF7C, symSize: 0x1B8 }
  - { offset: 0x2EBCB0, size: 0x8, addend: 0x0, symName: __ZN8crashpad24MinidumpThreadListWriter9AddThreadENSt3__110unique_ptrINS_20MinidumpThreadWriterENS1_14default_deleteIS3_EEEE, symObjAddr: 0x830, symBinAddr: 0x10002B134, symSize: 0x120 }
  - { offset: 0x2EC2CF, size: 0x8, addend: 0x0, symName: __ZNSt3__110unique_ptrIN8crashpad20MinidumpThreadWriterENS_14default_deleteIS2_EEED1B8ne190102Ev, symObjAddr: 0x950, symBinAddr: 0x10002B254, symSize: 0x68 }
  - { offset: 0x2EC2DA, size: 0x8, addend: 0x0, symName: __ZNSt3__110unique_ptrIN8crashpad20MinidumpThreadWriterENS_14default_deleteIS2_EEED1B8ne190102Ev, symObjAddr: 0x950, symBinAddr: 0x10002B254, symSize: 0x68 }
  - { offset: 0x2EC85B, size: 0x8, addend: 0x0, symName: __ZN8crashpad24MinidumpThreadListWriter19SetMemoryListWriterEPNS_24MinidumpMemoryListWriterE, symObjAddr: 0x9B8, symBinAddr: 0x10002B2BC, symSize: 0x8 }
  - { offset: 0x2EC88F, size: 0x8, addend: 0x0, symName: __ZN8crashpad24MinidumpThreadListWriter6FreezeEv, symObjAddr: 0x9C0, symBinAddr: 0x10002B2C4, symSize: 0xD8 }
  - { offset: 0x2EC990, size: 0x8, addend: 0x0, symName: __ZN8crashpad24MinidumpThreadListWriter12SizeOfObjectEv, symObjAddr: 0xA98, symBinAddr: 0x10002B39C, symSize: 0x1C }
  - { offset: 0x2EC9BC, size: 0x8, addend: 0x0, symName: __ZN8crashpad24MinidumpThreadListWriter12SizeOfObjectEv, symObjAddr: 0xA98, symBinAddr: 0x10002B39C, symSize: 0x1C }
  - { offset: 0x2ECA8F, size: 0x8, addend: 0x0, symName: __ZN8crashpad24MinidumpThreadListWriter8ChildrenEv, symObjAddr: 0xAB4, symBinAddr: 0x10002B3B8, symSize: 0x144 }
  - { offset: 0x2ED5D1, size: 0x8, addend: 0x0, symName: __ZN8crashpad24MinidumpThreadListWriter11WriteObjectEPNS_19FileWriterInterfaceE, symObjAddr: 0xBF8, symBinAddr: 0x10002B4FC, symSize: 0x19C }
  - { offset: 0x2EDFA9, size: 0x8, addend: 0x0, symName: __ZNK8crashpad24MinidumpThreadListWriter10StreamTypeEv, symObjAddr: 0xD94, symBinAddr: 0x10002B698, symSize: 0x8 }
  - { offset: 0x2FC822, size: 0x8, addend: 0x0, symName: __ZN8crashpad28MinidumpUnloadedModuleWriterC2Ev, symObjAddr: 0x0, symBinAddr: 0x10002B6A0, symSize: 0x30 }
  - { offset: 0x2FC904, size: 0x8, addend: 0x0, symName: __ZN8crashpad28MinidumpUnloadedModuleWriterC1Ev, symObjAddr: 0x30, symBinAddr: 0x10002B6D0, symSize: 0x30 }
  - { offset: 0x2FCA72, size: 0x8, addend: 0x0, symName: __ZN8crashpad28MinidumpUnloadedModuleWriterD2Ev, symObjAddr: 0x60, symBinAddr: 0x10002B700, symSize: 0x3C }
  - { offset: 0x2FCB4F, size: 0x8, addend: 0x0, symName: __ZN8crashpad28MinidumpUnloadedModuleWriterD1Ev, symObjAddr: 0x9C, symBinAddr: 0x10002B73C, symSize: 0x3C }
  - { offset: 0x2FCC4C, size: 0x8, addend: 0x0, symName: __ZN8crashpad28MinidumpUnloadedModuleWriterD0Ev, symObjAddr: 0xD8, symBinAddr: 0x10002B778, symSize: 0x38 }
  - { offset: 0x2FD0A2, size: 0x8, addend: 0x0, symName: __ZN8crashpad28MinidumpUnloadedModuleWriter22InitializeFromSnapshotERKNS_22UnloadedModuleSnapshotE, symObjAddr: 0x110, symBinAddr: 0x10002B7B0, symSize: 0x1A8 }
  - { offset: 0x2FD799, size: 0x8, addend: 0x0, symName: __ZN8crashpad28MinidumpUnloadedModuleWriter7SetNameERKNSt3__112basic_stringIcNS1_11char_traitsIcEENS1_9allocatorIcEEEE, symObjAddr: 0x2B8, symBinAddr: 0x10002B958, symSize: 0x9C }
  - { offset: 0x2FD897, size: 0x8, addend: 0x0, symName: __ZN8crashpad28MinidumpUnloadedModuleWriter12SetTimestampEl, symObjAddr: 0x354, symBinAddr: 0x10002B9F4, symSize: 0x8 }
  - { offset: 0x2FD8C2, size: 0x8, addend: 0x0, symName: __ZNK8crashpad28MinidumpUnloadedModuleWriter22MinidumpUnloadedModuleEv, symObjAddr: 0x35C, symBinAddr: 0x10002B9FC, symSize: 0x8 }
  - { offset: 0x2FD8E5, size: 0x8, addend: 0x0, symName: __ZN8crashpad28MinidumpUnloadedModuleWriter6FreezeEv, symObjAddr: 0x364, symBinAddr: 0x10002BA04, symSize: 0xCC }
  - { offset: 0x2FD9DE, size: 0x8, addend: 0x0, symName: __ZN8crashpad28MinidumpUnloadedModuleWriter12SizeOfObjectEv, symObjAddr: 0x430, symBinAddr: 0x10002BAD0, symSize: 0x8 }
  - { offset: 0x2FDBE7, size: 0x8, addend: 0x0, symName: __ZN8crashpad28MinidumpUnloadedModuleWriter8ChildrenEv, symObjAddr: 0x438, symBinAddr: 0x10002BAD8, symSize: 0x3C }
  - { offset: 0x2FDDF9, size: 0x8, addend: 0x0, symName: __ZN8crashpad28MinidumpUnloadedModuleWriter11WriteObjectEPNS_19FileWriterInterfaceE, symObjAddr: 0x474, symBinAddr: 0x10002BB14, symSize: 0x8 }
  - { offset: 0x2FDE44, size: 0x8, addend: 0x0, symName: __ZN8crashpad32MinidumpUnloadedModuleListWriterC2Ev, symObjAddr: 0x47C, symBinAddr: 0x10002BB1C, symSize: 0x2C }
  - { offset: 0x2FDE86, size: 0x8, addend: 0x0, symName: __ZN8crashpad32MinidumpUnloadedModuleListWriterC1Ev, symObjAddr: 0x4A8, symBinAddr: 0x10002BB48, symSize: 0x2C }
  - { offset: 0x2FE0A5, size: 0x8, addend: 0x0, symName: __ZN8crashpad32MinidumpUnloadedModuleListWriterD2Ev, symObjAddr: 0x4D4, symBinAddr: 0x10002BB74, symSize: 0x88 }
  - { offset: 0x2FE3AC, size: 0x8, addend: 0x0, symName: __ZN8crashpad32MinidumpUnloadedModuleListWriterD1Ev, symObjAddr: 0x55C, symBinAddr: 0x10002BBFC, symSize: 0x4 }
  - { offset: 0x2FE3CF, size: 0x8, addend: 0x0, symName: __ZN8crashpad32MinidumpUnloadedModuleListWriterD1Ev, symObjAddr: 0x55C, symBinAddr: 0x10002BBFC, symSize: 0x4 }
  - { offset: 0x2FE3FE, size: 0x8, addend: 0x0, symName: __ZN8crashpad32MinidumpUnloadedModuleListWriterD0Ev, symObjAddr: 0x560, symBinAddr: 0x10002BC00, symSize: 0x14 }
  - { offset: 0x2FE636, size: 0x8, addend: 0x0, symName: __ZN8crashpad32MinidumpUnloadedModuleListWriter22InitializeFromSnapshotERKNSt3__16vectorINS_22UnloadedModuleSnapshotENS1_9allocatorIS3_EEEE, symObjAddr: 0x574, symBinAddr: 0x10002BC14, symSize: 0x110 }
  - { offset: 0x2FEAE1, size: 0x8, addend: 0x0, symName: __ZN8crashpad32MinidumpUnloadedModuleListWriter17AddUnloadedModuleENSt3__110unique_ptrINS_28MinidumpUnloadedModuleWriterENS1_14default_deleteIS3_EEEE, symObjAddr: 0x684, symBinAddr: 0x10002BD24, symSize: 0x108 }
  - { offset: 0x2FF06A, size: 0x8, addend: 0x0, symName: __ZNSt3__110unique_ptrIN8crashpad28MinidumpUnloadedModuleWriterENS_14default_deleteIS2_EEED1B8ne190102Ev, symObjAddr: 0x78C, symBinAddr: 0x10002BE2C, symSize: 0x4C }
  - { offset: 0x2FF075, size: 0x8, addend: 0x0, symName: __ZNSt3__110unique_ptrIN8crashpad28MinidumpUnloadedModuleWriterENS_14default_deleteIS2_EEED1B8ne190102Ev, symObjAddr: 0x78C, symBinAddr: 0x10002BE2C, symSize: 0x4C }
  - { offset: 0x2FF5BB, size: 0x8, addend: 0x0, symName: __ZN8crashpad32MinidumpUnloadedModuleListWriter6FreezeEv, symObjAddr: 0x7D8, symBinAddr: 0x10002BE78, symSize: 0xE4 }
  - { offset: 0x2FF6BC, size: 0x8, addend: 0x0, symName: __ZN8crashpad32MinidumpUnloadedModuleListWriter12SizeOfObjectEv, symObjAddr: 0x8BC, symBinAddr: 0x10002BF5C, symSize: 0x1C }
  - { offset: 0x2FF6E8, size: 0x8, addend: 0x0, symName: __ZN8crashpad32MinidumpUnloadedModuleListWriter12SizeOfObjectEv, symObjAddr: 0x8BC, symBinAddr: 0x10002BF5C, symSize: 0x1C }
  - { offset: 0x2FFB23, size: 0x8, addend: 0x0, symName: __ZN8crashpad32MinidumpUnloadedModuleListWriter8ChildrenEv, symObjAddr: 0x8D8, symBinAddr: 0x10002BF78, symSize: 0x144 }
  - { offset: 0x3006A3, size: 0x8, addend: 0x0, symName: __ZN8crashpad32MinidumpUnloadedModuleListWriter11WriteObjectEPNS_19FileWriterInterfaceE, symObjAddr: 0xA1C, symBinAddr: 0x10002C0BC, symSize: 0x19C }
  - { offset: 0x30107B, size: 0x8, addend: 0x0, symName: __ZNK8crashpad32MinidumpUnloadedModuleListWriter10StreamTypeEv, symObjAddr: 0xBB8, symBinAddr: 0x10002C258, symSize: 0x8 }
  - { offset: 0x303300, size: 0x8, addend: 0x0, symName: __ZN8crashpad24MinidumpUserStreamWriterC2Ev, symObjAddr: 0x0, symBinAddr: 0x10002C260, symSize: 0x28 }
  - { offset: 0x3089A7, size: 0x8, addend: 0x0, symName: __ZN8crashpad24MinidumpUserStreamWriterC2Ev, symObjAddr: 0x0, symBinAddr: 0x10002C260, symSize: 0x28 }
  - { offset: 0x308A8E, size: 0x8, addend: 0x0, symName: __ZN8crashpad24MinidumpUserStreamWriterC1Ev, symObjAddr: 0x28, symBinAddr: 0x10002C288, symSize: 0x28 }
  - { offset: 0x308C06, size: 0x8, addend: 0x0, symName: __ZN8crashpad24MinidumpUserStreamWriterD2Ev, symObjAddr: 0x50, symBinAddr: 0x10002C2B0, symSize: 0x3C }
  - { offset: 0x308C2C, size: 0x8, addend: 0x0, symName: __ZN8crashpad24MinidumpUserStreamWriterD2Ev, symObjAddr: 0x50, symBinAddr: 0x10002C2B0, symSize: 0x3C }
  - { offset: 0x308C4B, size: 0x8, addend: 0x0, symName: __ZN8crashpad24MinidumpUserStreamWriterD2Ev, symObjAddr: 0x50, symBinAddr: 0x10002C2B0, symSize: 0x3C }
  - { offset: 0x308C6B, size: 0x8, addend: 0x0, symName: __ZN8crashpad24MinidumpUserStreamWriterD2Ev, symObjAddr: 0x50, symBinAddr: 0x10002C2B0, symSize: 0x3C }
  - { offset: 0x308CEF, size: 0x8, addend: 0x0, symName: __ZN8crashpad24MinidumpUserStreamWriterD1Ev, symObjAddr: 0x8C, symBinAddr: 0x10002C2EC, symSize: 0x3C }
  - { offset: 0x308D15, size: 0x8, addend: 0x0, symName: __ZN8crashpad24MinidumpUserStreamWriterD1Ev, symObjAddr: 0x8C, symBinAddr: 0x10002C2EC, symSize: 0x3C }
  - { offset: 0x308D34, size: 0x8, addend: 0x0, symName: __ZN8crashpad24MinidumpUserStreamWriterD1Ev, symObjAddr: 0x8C, symBinAddr: 0x10002C2EC, symSize: 0x3C }
  - { offset: 0x308D53, size: 0x8, addend: 0x0, symName: __ZN8crashpad24MinidumpUserStreamWriterD1Ev, symObjAddr: 0x8C, symBinAddr: 0x10002C2EC, symSize: 0x3C }
  - { offset: 0x308D73, size: 0x8, addend: 0x0, symName: __ZN8crashpad24MinidumpUserStreamWriterD1Ev, symObjAddr: 0x8C, symBinAddr: 0x10002C2EC, symSize: 0x3C }
  - { offset: 0x308DF8, size: 0x8, addend: 0x0, symName: __ZN8crashpad24MinidumpUserStreamWriterD0Ev, symObjAddr: 0xC8, symBinAddr: 0x10002C328, symSize: 0x3C }
  - { offset: 0x308FD9, size: 0x8, addend: 0x0, symName: __ZN8crashpad24MinidumpUserStreamWriter22InitializeFromSnapshotEPKNS_18UserMinidumpStreamE, symObjAddr: 0x104, symBinAddr: 0x10002C364, symSize: 0x6C }
  - { offset: 0x309339, size: 0x8, addend: 0x0, symName: __ZN8crashpad24MinidumpUserStreamWriter33InitializeFromUserExtensionStreamENSt3__110unique_ptrINS_37MinidumpUserExtensionStreamDataSourceENS1_14default_deleteIS3_EEEE, symObjAddr: 0x170, symBinAddr: 0x10002C3D0, symSize: 0x80 }
  - { offset: 0x30958B, size: 0x8, addend: 0x0, symName: __ZN8crashpad24MinidumpUserStreamWriter6FreezeEv, symObjAddr: 0x1F0, symBinAddr: 0x10002C450, symSize: 0x4 }
  - { offset: 0x3095CD, size: 0x8, addend: 0x0, symName: __ZN8crashpad24MinidumpUserStreamWriter12SizeOfObjectEv, symObjAddr: 0x1F4, symBinAddr: 0x10002C454, symSize: 0x10 }
  - { offset: 0x3095F9, size: 0x8, addend: 0x0, symName: __ZN8crashpad24MinidumpUserStreamWriter12SizeOfObjectEv, symObjAddr: 0x1F4, symBinAddr: 0x10002C454, symSize: 0x10 }
  - { offset: 0x309657, size: 0x8, addend: 0x0, symName: __ZN8crashpad24MinidumpUserStreamWriter8ChildrenEv, symObjAddr: 0x204, symBinAddr: 0x10002C464, symSize: 0xC }
  - { offset: 0x30967F, size: 0x8, addend: 0x0, symName: __ZN8crashpad24MinidumpUserStreamWriter8ChildrenEv, symObjAddr: 0x204, symBinAddr: 0x10002C464, symSize: 0xC }
  - { offset: 0x30969C, size: 0x8, addend: 0x0, symName: __ZN8crashpad24MinidumpUserStreamWriter8ChildrenEv, symObjAddr: 0x204, symBinAddr: 0x10002C464, symSize: 0xC }
  - { offset: 0x3096B9, size: 0x8, addend: 0x0, symName: __ZN8crashpad24MinidumpUserStreamWriter11WriteObjectEPNS_19FileWriterInterfaceE, symObjAddr: 0x210, symBinAddr: 0x10002C470, symSize: 0x10 }
  - { offset: 0x3096F2, size: 0x8, addend: 0x0, symName: __ZN8crashpad24MinidumpUserStreamWriter11WriteObjectEPNS_19FileWriterInterfaceE, symObjAddr: 0x210, symBinAddr: 0x10002C470, symSize: 0x10 }
  - { offset: 0x309724, size: 0x8, addend: 0x0, symName: __ZNK8crashpad24MinidumpUserStreamWriter10StreamTypeEv, symObjAddr: 0x220, symBinAddr: 0x10002C480, symSize: 0x8 }
  - { offset: 0x30974D, size: 0x8, addend: 0x0, symName: __ZN8crashpad24MinidumpUserStreamWriter22SnapshotContentsWriter13WriteContentsEPNS_19FileWriterInterfaceE, symObjAddr: 0x230, symBinAddr: 0x10002C488, symSize: 0x28 }
  - { offset: 0x309790, size: 0x8, addend: 0x0, symName: __ZNK8crashpad24MinidumpUserStreamWriter22SnapshotContentsWriter7GetSizeEv, symObjAddr: 0x258, symBinAddr: 0x10002C4B0, symSize: 0x18 }
  - { offset: 0x3097C3, size: 0x8, addend: 0x0, symName: __ZN8crashpad24MinidumpUserStreamWriter22SnapshotContentsWriter26MemorySnapshotDelegateReadEPvm, symObjAddr: 0x270, symBinAddr: 0x10002C4C8, symSize: 0x10 }
  - { offset: 0x30982D, size: 0x8, addend: 0x0, symName: __ZThn8_N8crashpad24MinidumpUserStreamWriter22SnapshotContentsWriterD0Ev, symObjAddr: 0x284, symBinAddr: 0x10002C4D8, symSize: 0x8 }
  - { offset: 0x30988D, size: 0x8, addend: 0x0, symName: __ZThn8_N8crashpad24MinidumpUserStreamWriter22SnapshotContentsWriter26MemorySnapshotDelegateReadEPvm, symObjAddr: 0x28C, symBinAddr: 0x10002C4E0, symSize: 0x10 }
  - { offset: 0x3098A7, size: 0x8, addend: 0x0, symName: __ZThn8_N8crashpad24MinidumpUserStreamWriter22SnapshotContentsWriter26MemorySnapshotDelegateReadEPvm, symObjAddr: 0x28C, symBinAddr: 0x10002C4E0, symSize: 0x10 }
  - { offset: 0x309994, size: 0x8, addend: 0x0, symName: __ZN8crashpad24MinidumpUserStreamWriter29ExtensionStreamContentsWriterD1Ev, symObjAddr: 0x29C, symBinAddr: 0x10002C4F0, symSize: 0x3C }
  - { offset: 0x3099BA, size: 0x8, addend: 0x0, symName: __ZN8crashpad24MinidumpUserStreamWriter29ExtensionStreamContentsWriterD1Ev, symObjAddr: 0x29C, symBinAddr: 0x10002C4F0, symSize: 0x3C }
  - { offset: 0x3099D9, size: 0x8, addend: 0x0, symName: __ZN8crashpad24MinidumpUserStreamWriter29ExtensionStreamContentsWriterD1Ev, symObjAddr: 0x29C, symBinAddr: 0x10002C4F0, symSize: 0x3C }
  - { offset: 0x3099F8, size: 0x8, addend: 0x0, symName: __ZN8crashpad24MinidumpUserStreamWriter29ExtensionStreamContentsWriterD1Ev, symObjAddr: 0x29C, symBinAddr: 0x10002C4F0, symSize: 0x3C }
  - { offset: 0x309A18, size: 0x8, addend: 0x0, symName: __ZN8crashpad24MinidumpUserStreamWriter29ExtensionStreamContentsWriterD1Ev, symObjAddr: 0x29C, symBinAddr: 0x10002C4F0, symSize: 0x3C }
  - { offset: 0x309A9D, size: 0x8, addend: 0x0, symName: __ZN8crashpad24MinidumpUserStreamWriter29ExtensionStreamContentsWriterD0Ev, symObjAddr: 0x2D8, symBinAddr: 0x10002C52C, symSize: 0x3C }
  - { offset: 0x309ACD, size: 0x8, addend: 0x0, symName: __ZN8crashpad24MinidumpUserStreamWriter29ExtensionStreamContentsWriterD0Ev, symObjAddr: 0x2D8, symBinAddr: 0x10002C52C, symSize: 0x3C }
  - { offset: 0x309AEC, size: 0x8, addend: 0x0, symName: __ZN8crashpad24MinidumpUserStreamWriter29ExtensionStreamContentsWriterD0Ev, symObjAddr: 0x2D8, symBinAddr: 0x10002C52C, symSize: 0x3C }
  - { offset: 0x309B0B, size: 0x8, addend: 0x0, symName: __ZN8crashpad24MinidumpUserStreamWriter29ExtensionStreamContentsWriterD0Ev, symObjAddr: 0x2D8, symBinAddr: 0x10002C52C, symSize: 0x3C }
  - { offset: 0x309B2A, size: 0x8, addend: 0x0, symName: __ZN8crashpad24MinidumpUserStreamWriter29ExtensionStreamContentsWriterD0Ev, symObjAddr: 0x2D8, symBinAddr: 0x10002C52C, symSize: 0x3C }
  - { offset: 0x309B4A, size: 0x8, addend: 0x0, symName: __ZN8crashpad24MinidumpUserStreamWriter29ExtensionStreamContentsWriterD0Ev, symObjAddr: 0x2D8, symBinAddr: 0x10002C52C, symSize: 0x3C }
  - { offset: 0x309BB4, size: 0x8, addend: 0x0, symName: __ZN8crashpad24MinidumpUserStreamWriter29ExtensionStreamContentsWriter13WriteContentsEPNS_19FileWriterInterfaceE, symObjAddr: 0x314, symBinAddr: 0x10002C568, symSize: 0x1C }
  - { offset: 0x309C17, size: 0x8, addend: 0x0, symName: __ZNK8crashpad24MinidumpUserStreamWriter29ExtensionStreamContentsWriter7GetSizeEv, symObjAddr: 0x330, symBinAddr: 0x10002C584, symSize: 0x10 }
  - { offset: 0x309C41, size: 0x8, addend: 0x0, symName: __ZNK8crashpad24MinidumpUserStreamWriter29ExtensionStreamContentsWriter7GetSizeEv, symObjAddr: 0x330, symBinAddr: 0x10002C584, symSize: 0x10 }
  - { offset: 0x30BC54, size: 0x8, addend: 0x0, symName: __ZN7logging17MakeCheckOpStringIxiEEPNSt3__112basic_stringIcNS1_11char_traitsIcEENS1_9allocatorIcEEEERKT_RKT0_PKc, symObjAddr: 0xEB4, symBinAddr: 0x10002D34C, symSize: 0x1F8 }
  - { offset: 0x317EBF, size: 0x8, addend: 0x0, symName: __ZN8crashpad8internal16MinidumpWritable21WritePaddingAndObjectEPNS_19FileWriterInterfaceE, symObjAddr: 0x8AC, symBinAddr: 0x10002CE40, symSize: 0x6C }
  - { offset: 0x317EE4, size: 0x8, addend: 0x0, symName: __ZZN8crashpad8internal16MinidumpWritable21WritePaddingAndObjectEPNS_19FileWriterInterfaceEE7kZeroes, symObjAddr: 0x2260, symBinAddr: 0x100078A40, symSize: 0x0 }
  - { offset: 0x317F47, size: 0x8, addend: 0x0, symName: __ZN12_GLOBAL__N_117kMaximumAlignmentE, symObjAddr: 0x2258, symBinAddr: 0x100078A38, symSize: 0x0 }
  - { offset: 0x3185AF, size: 0x8, addend: 0x0, symName: __ZN8crashpad8internal16MinidumpWritableD2Ev, symObjAddr: 0x0, symBinAddr: 0x10002C594, symSize: 0x6C }
  - { offset: 0x318B4E, size: 0x8, addend: 0x0, symName: __ZN8crashpad8internal16MinidumpWritableD1Ev, symObjAddr: 0x6C, symBinAddr: 0x10002C600, symSize: 0x4 }
  - { offset: 0x318B77, size: 0x8, addend: 0x0, symName: __ZN8crashpad8internal16MinidumpWritableD0Ev, symObjAddr: 0x70, symBinAddr: 0x10002C604, symSize: 0x4 }
  - { offset: 0x318D22, size: 0x8, addend: 0x0, symName: __ZN8crashpad8internal16MinidumpWritable15WriteEverythingEPNS_19FileWriterInterfaceE, symObjAddr: 0x74, symBinAddr: 0x10002C608, symSize: 0x14C }
  - { offset: 0x319192, size: 0x8, addend: 0x0, symName: __ZN8crashpad8internal16MinidumpWritable17WillWriteAtOffsetENS1_5PhaseEPxPNSt3__16vectorIPS1_NS4_9allocatorIS6_EEEE, symObjAddr: 0x1C0, symBinAddr: 0x10002C754, symSize: 0x6EC }
  - { offset: 0x31A6C4, size: 0x8, addend: 0x0, symName: __ZN8crashpad8internal16MinidumpWritable11RegisterRVAEPj, symObjAddr: 0x918, symBinAddr: 0x10002CEAC, symSize: 0xE8 }
  - { offset: 0x31AA69, size: 0x8, addend: 0x0, symName: __ZN8crashpad8internal16MinidumpWritable11RegisterRVAEPy, symObjAddr: 0xA00, symBinAddr: 0x10002CF94, symSize: 0xE8 }
  - { offset: 0x31AD78, size: 0x8, addend: 0x0, symName: __ZN8crashpad8internal16MinidumpWritable11RegisterRVAEPy, symObjAddr: 0xA00, symBinAddr: 0x10002CF94, symSize: 0xE8 }
  - { offset: 0x31B11D, size: 0x8, addend: 0x0, symName: __ZN8crashpad8internal16MinidumpWritable26RegisterLocationDescriptorEP28MINIDUMP_LOCATION_DESCRIPTOR, symObjAddr: 0xAE8, symBinAddr: 0x10002D07C, symSize: 0xE8 }
  - { offset: 0x31B42C, size: 0x8, addend: 0x0, symName: __ZN8crashpad8internal16MinidumpWritable26RegisterLocationDescriptorEP28MINIDUMP_LOCATION_DESCRIPTOR, symObjAddr: 0xAE8, symBinAddr: 0x10002D07C, symSize: 0xE8 }
  - { offset: 0x31B7D2, size: 0x8, addend: 0x0, symName: __ZN8crashpad8internal16MinidumpWritable26RegisterLocationDescriptorEP30MINIDUMP_LOCATION_DESCRIPTOR64, symObjAddr: 0xBD0, symBinAddr: 0x10002D164, symSize: 0xE8 }
  - { offset: 0x31BAE1, size: 0x8, addend: 0x0, symName: __ZN8crashpad8internal16MinidumpWritable26RegisterLocationDescriptorEP30MINIDUMP_LOCATION_DESCRIPTOR64, symObjAddr: 0xBD0, symBinAddr: 0x10002D164, symSize: 0xE8 }
  - { offset: 0x31BE87, size: 0x8, addend: 0x0, symName: __ZN8crashpad8internal16MinidumpWritableC2Ev, symObjAddr: 0xCB8, symBinAddr: 0x10002D24C, symSize: 0x30 }
  - { offset: 0x31BEAA, size: 0x8, addend: 0x0, symName: __ZN7logging17MakeCheckOpStringIxiEEPNSt3__112basic_stringIcNS1_11char_traitsIcEENS1_9allocatorIcEEEERKT_RKT0_PKc, symObjAddr: 0xEB4, symBinAddr: 0x10002D34C, symSize: 0x1F8 }
  - { offset: 0x31BEE9, size: 0x8, addend: 0x0, symName: __ZN8crashpad8internal16MinidumpWritableC2Ev, symObjAddr: 0xCB8, symBinAddr: 0x10002D24C, symSize: 0x30 }
  - { offset: 0x31BF55, size: 0x8, addend: 0x0, symName: __ZN8crashpad8internal16MinidumpWritable6FreezeEv, symObjAddr: 0xCE8, symBinAddr: 0x10002D27C, symSize: 0xAC }
  - { offset: 0x31C2D3, size: 0x8, addend: 0x0, symName: __ZN8crashpad8internal16MinidumpWritable9AlignmentEv, symObjAddr: 0xD94, symBinAddr: 0x10002D328, symSize: 0x8 }
  - { offset: 0x31C2F8, size: 0x8, addend: 0x0, symName: __ZN8crashpad8internal16MinidumpWritable8ChildrenEv, symObjAddr: 0xD9C, symBinAddr: 0x10002D330, symSize: 0xC }
  - { offset: 0x31C320, size: 0x8, addend: 0x0, symName: __ZN8crashpad8internal16MinidumpWritable8ChildrenEv, symObjAddr: 0xD9C, symBinAddr: 0x10002D330, symSize: 0xC }
  - { offset: 0x31C33D, size: 0x8, addend: 0x0, symName: __ZN8crashpad8internal16MinidumpWritable8ChildrenEv, symObjAddr: 0xD9C, symBinAddr: 0x10002D330, symSize: 0xC }
  - { offset: 0x31C35A, size: 0x8, addend: 0x0, symName: __ZN8crashpad8internal16MinidumpWritable10WritePhaseEv, symObjAddr: 0xDA8, symBinAddr: 0x10002D33C, symSize: 0x8 }
  - { offset: 0x31C37F, size: 0x8, addend: 0x0, symName: __ZN8crashpad8internal16MinidumpWritable21WillWriteAtOffsetImplEx, symObjAddr: 0xDB0, symBinAddr: 0x10002D344, symSize: 0x8 }
  - { offset: 0x325C58, size: 0x8, addend: 0x0, symName: __ZN8crashpad8internal18MinidumpWriterUtil11AssignTimeTEPjl, symObjAddr: 0x0, symBinAddr: 0x10002D544, symSize: 0xA8 }
  - { offset: 0x325F19, size: 0x8, addend: 0x0, symName: __ZN8crashpad8internal18MinidumpWriterUtil18ConvertUTF8ToUTF16ERKNSt3__112basic_stringIcNS2_11char_traitsIcEENS2_9allocatorIcEEEE, symObjAddr: 0xA8, symBinAddr: 0x10002D5EC, symSize: 0xF8 }
  - { offset: 0x32647D, size: 0x8, addend: 0x0, symName: __ZN8crashpad8internal18MinidumpWriterUtil17AssignUTF8ToUTF16EPDsmRKNSt3__112basic_stringIcNS3_11char_traitsIcEENS3_9allocatorIcEEEE, symObjAddr: 0x1A0, symBinAddr: 0x10002D6E4, symSize: 0x1C8 }
  - { offset: 0x326BF5, size: 0x8, addend: 0x0, symName: __ZNSt3__112basic_stringIDsNS_11char_traitsIDsEENS_9allocatorIDsEEE6appendEmDs, symObjAddr: 0x734, symBinAddr: 0x10002D8AC, symSize: 0x1B0 }
  - { offset: 0x3296BD, size: 0x8, addend: 0x0, symName: __ZN8crashpad18AnnotationSnapshotC2Ev, symObjAddr: 0x0, symBinAddr: 0x10002DA5C, symSize: 0x18 }
  - { offset: 0x32D432, size: 0x8, addend: 0x0, symName: __ZN8crashpad18AnnotationSnapshotC2Ev, symObjAddr: 0x0, symBinAddr: 0x10002DA5C, symSize: 0x18 }
  - { offset: 0x32D456, size: 0x8, addend: 0x0, symName: __ZN8crashpad18AnnotationSnapshotC2Ev, symObjAddr: 0x0, symBinAddr: 0x10002DA5C, symSize: 0x18 }
  - { offset: 0x32D475, size: 0x8, addend: 0x0, symName: __ZN8crashpad18AnnotationSnapshotC2Ev, symObjAddr: 0x0, symBinAddr: 0x10002DA5C, symSize: 0x18 }
  - { offset: 0x32D4B5, size: 0x8, addend: 0x0, symName: __ZN8crashpad18AnnotationSnapshotC1Ev, symObjAddr: 0x18, symBinAddr: 0x10002DA74, symSize: 0x18 }
  - { offset: 0x32D4E3, size: 0x8, addend: 0x0, symName: __ZN8crashpad18AnnotationSnapshotC1Ev, symObjAddr: 0x18, symBinAddr: 0x10002DA74, symSize: 0x18 }
  - { offset: 0x32D500, size: 0x8, addend: 0x0, symName: __ZN8crashpad18AnnotationSnapshotC1Ev, symObjAddr: 0x18, symBinAddr: 0x10002DA74, symSize: 0x18 }
  - { offset: 0x32D51F, size: 0x8, addend: 0x0, symName: __ZN8crashpad18AnnotationSnapshotC1Ev, symObjAddr: 0x18, symBinAddr: 0x10002DA74, symSize: 0x18 }
  - { offset: 0x32D919, size: 0x8, addend: 0x0, symName: __ZN8crashpad18AnnotationSnapshotC2ERKNSt3__112basic_stringIcNS1_11char_traitsIcEENS1_9allocatorIcEEEEtRKNS1_6vectorIhNS5_IhEEEE, symObjAddr: 0x30, symBinAddr: 0x10002DA8C, symSize: 0xD0 }
  - { offset: 0x32E029, size: 0x8, addend: 0x0, symName: __ZN8crashpad18AnnotationSnapshotC2ERKNSt3__112basic_stringIcNS1_11char_traitsIcEENS1_9allocatorIcEEEEtRKNS1_6vectorIhNS5_IhEEEE.cold.1, symObjAddr: 0x388, symBinAddr: 0x100061858, symSize: 0x14 }
  - { offset: 0x32E034, size: 0x8, addend: 0x0, symName: __ZN8crashpad18AnnotationSnapshotC2ERKNSt3__112basic_stringIcNS1_11char_traitsIcEENS1_9allocatorIcEEEEtRKNS1_6vectorIhNS5_IhEEEE.cold.1, symObjAddr: 0x388, symBinAddr: 0x100061858, symSize: 0x14 }
  - { offset: 0x32E050, size: 0x8, addend: 0x0, symName: __ZN8crashpad18AnnotationSnapshotC2ERKNSt3__112basic_stringIcNS1_11char_traitsIcEENS1_9allocatorIcEEEEtRKNS1_6vectorIhNS5_IhEEEE.cold.1, symObjAddr: 0x388, symBinAddr: 0x100061858, symSize: 0x14 }
  - { offset: 0x32E065, size: 0x8, addend: 0x0, symName: __ZN8crashpad18AnnotationSnapshotC2ERKNSt3__112basic_stringIcNS1_11char_traitsIcEENS1_9allocatorIcEEEEtRKNS1_6vectorIhNS5_IhEEEE.cold.1, symObjAddr: 0x388, symBinAddr: 0x100061858, symSize: 0x14 }
  - { offset: 0x32E07B, size: 0x8, addend: 0x0, symName: __ZN8crashpad18AnnotationSnapshotC2ERKNSt3__112basic_stringIcNS1_11char_traitsIcEENS1_9allocatorIcEEEEtRKNS1_6vectorIhNS5_IhEEEE.cold.1, symObjAddr: 0x388, symBinAddr: 0x100061858, symSize: 0x14 }
  - { offset: 0x32E147, size: 0x8, addend: 0x0, symName: __ZN8crashpad18AnnotationSnapshotC1ERKNSt3__112basic_stringIcNS1_11char_traitsIcEENS1_9allocatorIcEEEEtRKNS1_6vectorIhNS5_IhEEEE, symObjAddr: 0x100, symBinAddr: 0x10002DB5C, symSize: 0x4 }
  - { offset: 0x32E19B, size: 0x8, addend: 0x0, symName: __ZN8crashpad18AnnotationSnapshotC1ERKNSt3__112basic_stringIcNS1_11char_traitsIcEENS1_9allocatorIcEEEEtRKNS1_6vectorIhNS5_IhEEEE, symObjAddr: 0x100, symBinAddr: 0x10002DB5C, symSize: 0x4 }
  - { offset: 0x32E26D, size: 0x8, addend: 0x0, symName: __ZN8crashpad18AnnotationSnapshotD2Ev, symObjAddr: 0x104, symBinAddr: 0x10002DB60, symSize: 0x50 }
  - { offset: 0x32E527, size: 0x8, addend: 0x0, symName: __ZN8crashpad18AnnotationSnapshotD1Ev, symObjAddr: 0x154, symBinAddr: 0x10002DBB0, symSize: 0x50 }
  - { offset: 0x32E85D, size: 0x8, addend: 0x0, symName: __ZNK8crashpad18AnnotationSnapshoteqERKS0_, symObjAddr: 0x1A4, symBinAddr: 0x10002DC00, symSize: 0xBC }
  - { offset: 0x32E899, size: 0x8, addend: 0x0, symName: __ZNK8crashpad18AnnotationSnapshoteqERKS0_, symObjAddr: 0x1A4, symBinAddr: 0x10002DC00, symSize: 0xBC }
  - { offset: 0x32E8CC, size: 0x8, addend: 0x0, symName: __ZNK8crashpad18AnnotationSnapshoteqERKS0_, symObjAddr: 0x1A4, symBinAddr: 0x10002DC00, symSize: 0xBC }
  - { offset: 0x32E8EA, size: 0x8, addend: 0x0, symName: __ZNK8crashpad18AnnotationSnapshoteqERKS0_, symObjAddr: 0x1A4, symBinAddr: 0x10002DC00, symSize: 0xBC }
  - { offset: 0x330A96, size: 0x8, addend: 0x0, symName: __ZN8crashpad13CPUContextX8613FxsaveToFsaveERKNS0_6FxsaveEPNS0_5FsaveE, symObjAddr: 0x0, symBinAddr: 0x10002DCBC, symSize: 0x1A4 }
  - { offset: 0x331032, size: 0x8, addend: 0x0, symName: __ZN8crashpad13CPUContextX8613FxsaveToFsaveERKNS0_6FxsaveEPNS0_5FsaveE, symObjAddr: 0x0, symBinAddr: 0x10002DCBC, symSize: 0x1A4 }
  - { offset: 0x331192, size: 0x8, addend: 0x0, symName: __ZN8crashpad13CPUContextX8620FxsaveToFsaveTagWordEthPKNS0_16X87OrMMXRegisterE, symObjAddr: 0x1A4, symBinAddr: 0x10002DE60, symSize: 0xD4 }
  - { offset: 0x331329, size: 0x8, addend: 0x0, symName: __ZN8crashpad13CPUContextX8613FsaveToFxsaveERKNS0_5FsaveEPNS0_6FxsaveE, symObjAddr: 0x278, symBinAddr: 0x10002DF34, symSize: 0x1C4 }
  - { offset: 0x3313D0, size: 0x8, addend: 0x0, symName: __ZN8crashpad13CPUContextX8620FsaveToFxsaveTagWordEt, symObjAddr: 0x43C, symBinAddr: 0x10002E0F8, symSize: 0x80 }
  - { offset: 0x331448, size: 0x8, addend: 0x0, symName: __ZNK8crashpad10CPUContext18InstructionPointerEv, symObjAddr: 0x4BC, symBinAddr: 0x10002E178, symSize: 0x78 }
  - { offset: 0x331471, size: 0x8, addend: 0x0, symName: __ZNK8crashpad10CPUContext12StackPointerEv, symObjAddr: 0x534, symBinAddr: 0x10002E1F0, symSize: 0x78 }
  - { offset: 0x33149A, size: 0x8, addend: 0x0, symName: __ZNK8crashpad10CPUContext18ShadowStackPointerEv, symObjAddr: 0x5AC, symBinAddr: 0x10002E268, symSize: 0x38 }
  - { offset: 0x3314C3, size: 0x8, addend: 0x0, symName: __ZNK8crashpad10CPUContext14HasShadowStackEv, symObjAddr: 0x5E4, symBinAddr: 0x10002E2A0, symSize: 0x28 }
  - { offset: 0x3314EC, size: 0x8, addend: 0x0, symName: __ZNK8crashpad10CPUContext7Is64BitEv, symObjAddr: 0x60C, symBinAddr: 0x10002E2C8, symSize: 0x1C }
  - { offset: 0x33885E, size: 0x8, addend: 0x0, symName: __ZN8crashpad25CrashpadInfoClientOptions24TriStateFromCrashpadInfoEh, symObjAddr: 0x0, symBinAddr: 0x10002E2E4, symSize: 0x94 }
  - { offset: 0x3388D7, size: 0x8, addend: 0x0, symName: __ZN8crashpad25CrashpadInfoClientOptionsC2Ev, symObjAddr: 0x94, symBinAddr: 0x10002E378, symSize: 0x10 }
  - { offset: 0x338919, size: 0x8, addend: 0x0, symName: __ZN8crashpad25CrashpadInfoClientOptionsC1Ev, symObjAddr: 0xA4, symBinAddr: 0x10002E388, symSize: 0x10 }
  - { offset: 0x338947, size: 0x8, addend: 0x0, symName: __ZN8crashpad25CrashpadInfoClientOptionsC1Ev, symObjAddr: 0xA4, symBinAddr: 0x10002E388, symSize: 0x10 }
  - { offset: 0x33AC6F, size: 0x8, addend: 0x0, symName: __ZN8crashpad14HandleSnapshotC2Ev, symObjAddr: 0x0, symBinAddr: 0x10002E398, symSize: 0x10 }
  - { offset: 0x33D761, size: 0x8, addend: 0x0, symName: __ZN8crashpad14HandleSnapshotC2Ev, symObjAddr: 0x0, symBinAddr: 0x10002E398, symSize: 0x10 }
  - { offset: 0x33D7A3, size: 0x8, addend: 0x0, symName: __ZN8crashpad14HandleSnapshotC1Ev, symObjAddr: 0x10, symBinAddr: 0x10002E3A8, symSize: 0x10 }
  - { offset: 0x33D7D1, size: 0x8, addend: 0x0, symName: __ZN8crashpad14HandleSnapshotC1Ev, symObjAddr: 0x10, symBinAddr: 0x10002E3A8, symSize: 0x10 }
  - { offset: 0x33D8BB, size: 0x8, addend: 0x0, symName: __ZN8crashpad14HandleSnapshotD2Ev, symObjAddr: 0x20, symBinAddr: 0x10002E3B8, symSize: 0x38 }
  - { offset: 0x33D910, size: 0x8, addend: 0x0, symName: __ZN8crashpad14HandleSnapshotD2Ev, symObjAddr: 0x20, symBinAddr: 0x10002E3B8, symSize: 0x38 }
  - { offset: 0x33DA28, size: 0x8, addend: 0x0, symName: __ZN8crashpad14HandleSnapshotD1Ev, symObjAddr: 0x58, symBinAddr: 0x10002E3F0, symSize: 0x38 }
  - { offset: 0x33DA9E, size: 0x8, addend: 0x0, symName: __ZN8crashpad14HandleSnapshotD1Ev, symObjAddr: 0x58, symBinAddr: 0x10002E3F0, symSize: 0x38 }
  - { offset: 0x34455F, size: 0x8, addend: 0x0, symName: __ZN8crashpad27LoggingDetermineMergedRangeEPKNS_14MemorySnapshotES2_PNS_12CheckedRangeIymEE, symObjAddr: 0x0, symBinAddr: 0x10002E428, symSize: 0x14 }
  - { offset: 0x3445D7, size: 0x8, addend: 0x0, symName: __ZN8crashpad12_GLOBAL__N_124DetermineMergedRangeImplEbPKNS_14MemorySnapshotES3_PNS_12CheckedRangeIymEE, symObjAddr: 0x14, symBinAddr: 0x10002E43C, symSize: 0x3E0 }
  - { offset: 0x344E48, size: 0x8, addend: 0x0, symName: __ZN8crashpad20DetermineMergedRangeEPKNS_14MemorySnapshotES2_PNS_12CheckedRangeIymEE, symObjAddr: 0x3F4, symBinAddr: 0x10002E81C, symSize: 0x14 }
  - { offset: 0x347433, size: 0x8, addend: 0x0, symName: __ZN8crashpad8internal25ExceptionSnapshotMinidumpC2Ev, symObjAddr: 0x0, symBinAddr: 0x10002E830, symSize: 0x70 }
  - { offset: 0x34AEF3, size: 0x8, addend: 0x0, symName: __ZN8crashpad8internal25ExceptionSnapshotMinidumpC2Ev, symObjAddr: 0x0, symBinAddr: 0x10002E830, symSize: 0x70 }
  - { offset: 0x34AFBC, size: 0x8, addend: 0x0, symName: __ZN8crashpad8internal25ExceptionSnapshotMinidumpC1Ev, symObjAddr: 0x70, symBinAddr: 0x10002E8A0, symSize: 0x70 }
  - { offset: 0x34B2F1, size: 0x8, addend: 0x0, symName: __ZN8crashpad8internal25ExceptionSnapshotMinidumpD2Ev, symObjAddr: 0xE0, symBinAddr: 0x10002E910, symSize: 0x48 }
  - { offset: 0x34B676, size: 0x8, addend: 0x0, symName: __ZN8crashpad8internal25ExceptionSnapshotMinidumpD1Ev, symObjAddr: 0x128, symBinAddr: 0x10002E958, symSize: 0x48 }
  - { offset: 0x34BA19, size: 0x8, addend: 0x0, symName: __ZN8crashpad8internal25ExceptionSnapshotMinidumpD0Ev, symObjAddr: 0x170, symBinAddr: 0x10002E9A0, symSize: 0x48 }
  - { offset: 0x34C32A, size: 0x8, addend: 0x0, symName: __ZN8crashpad8internal25ExceptionSnapshotMinidump10InitializeEPNS_19FileReaderInterfaceENS_15CPUArchitectureEj, symObjAddr: 0x1B8, symBinAddr: 0x10002E9E8, symSize: 0x234 }
  - { offset: 0x34CCD8, size: 0x8, addend: 0x0, symName: __ZNK8crashpad8internal25ExceptionSnapshotMinidump7ContextEv, symObjAddr: 0x3EC, symBinAddr: 0x10002EC1C, symSize: 0x8 }
  - { offset: 0x34CD01, size: 0x8, addend: 0x0, symName: __ZNK8crashpad8internal25ExceptionSnapshotMinidump8ThreadIDEv, symObjAddr: 0x3F4, symBinAddr: 0x10002EC24, symSize: 0x8 }
  - { offset: 0x34CD2A, size: 0x8, addend: 0x0, symName: __ZNK8crashpad8internal25ExceptionSnapshotMinidump9ExceptionEv, symObjAddr: 0x3FC, symBinAddr: 0x10002EC2C, symSize: 0x8 }
  - { offset: 0x34CD53, size: 0x8, addend: 0x0, symName: __ZNK8crashpad8internal25ExceptionSnapshotMinidump13ExceptionInfoEv, symObjAddr: 0x404, symBinAddr: 0x10002EC34, symSize: 0x8 }
  - { offset: 0x34CD7C, size: 0x8, addend: 0x0, symName: __ZNK8crashpad8internal25ExceptionSnapshotMinidump16ExceptionAddressEv, symObjAddr: 0x40C, symBinAddr: 0x10002EC3C, symSize: 0x8 }
  - { offset: 0x34CDA5, size: 0x8, addend: 0x0, symName: __ZNK8crashpad8internal25ExceptionSnapshotMinidump5CodesEv, symObjAddr: 0x414, symBinAddr: 0x10002EC44, symSize: 0x8 }
  - { offset: 0x34CE07, size: 0x8, addend: 0x0, symName: __ZNK8crashpad8internal25ExceptionSnapshotMinidump11ExtraMemoryEv, symObjAddr: 0x41C, symBinAddr: 0x10002EC4C, symSize: 0xC }
  - { offset: 0x34CE2F, size: 0x8, addend: 0x0, symName: __ZNK8crashpad8internal25ExceptionSnapshotMinidump11ExtraMemoryEv, symObjAddr: 0x41C, symBinAddr: 0x10002EC4C, symSize: 0xC }
  - { offset: 0x34CE4C, size: 0x8, addend: 0x0, symName: __ZNK8crashpad8internal25ExceptionSnapshotMinidump11ExtraMemoryEv, symObjAddr: 0x41C, symBinAddr: 0x10002EC4C, symSize: 0xC }
  - { offset: 0x34EC7F, size: 0x8, addend: 0x0, symName: __ZN8crashpad8internal22MemorySnapshotMinidumpC2Ev, symObjAddr: 0x0, symBinAddr: 0x10002EC58, symSize: 0x1C }
  - { offset: 0x351DAF, size: 0x8, addend: 0x0, symName: __ZN8crashpad8internal22MemorySnapshotMinidumpC2Ev, symObjAddr: 0x0, symBinAddr: 0x10002EC58, symSize: 0x1C }
  - { offset: 0x351E2D, size: 0x8, addend: 0x0, symName: __ZN8crashpad8internal22MemorySnapshotMinidumpC1Ev, symObjAddr: 0x1C, symBinAddr: 0x10002EC74, symSize: 0x1C }
  - { offset: 0x351E51, size: 0x8, addend: 0x0, symName: __ZN8crashpad8internal22MemorySnapshotMinidumpC1Ev, symObjAddr: 0x1C, symBinAddr: 0x10002EC74, symSize: 0x1C }
  - { offset: 0x351FA7, size: 0x8, addend: 0x0, symName: __ZN8crashpad8internal22MemorySnapshotMinidumpD2Ev, symObjAddr: 0x38, symBinAddr: 0x10002EC90, symSize: 0x40 }
  - { offset: 0x352147, size: 0x8, addend: 0x0, symName: __ZN8crashpad8internal22MemorySnapshotMinidumpD1Ev, symObjAddr: 0x78, symBinAddr: 0x10002ECD0, symSize: 0x40 }
  - { offset: 0x35216D, size: 0x8, addend: 0x0, symName: __ZN8crashpad8internal22MemorySnapshotMinidumpD1Ev, symObjAddr: 0x78, symBinAddr: 0x10002ECD0, symSize: 0x40 }
  - { offset: 0x352307, size: 0x8, addend: 0x0, symName: __ZN8crashpad8internal22MemorySnapshotMinidumpD0Ev, symObjAddr: 0xB8, symBinAddr: 0x10002ED10, symSize: 0x40 }
  - { offset: 0x352337, size: 0x8, addend: 0x0, symName: __ZN8crashpad8internal22MemorySnapshotMinidumpD0Ev, symObjAddr: 0xB8, symBinAddr: 0x10002ED10, symSize: 0x40 }
  - { offset: 0x352356, size: 0x8, addend: 0x0, symName: __ZN8crashpad8internal22MemorySnapshotMinidumpD0Ev, symObjAddr: 0xB8, symBinAddr: 0x10002ED10, symSize: 0x40 }
  - { offset: 0x35292D, size: 0x8, addend: 0x0, symName: __ZN8crashpad8internal22MemorySnapshotMinidump10InitializeEPNS_19FileReaderInterfaceEj, symObjAddr: 0xF8, symBinAddr: 0x10002ED50, symSize: 0x178 }
  - { offset: 0x352F05, size: 0x8, addend: 0x0, symName: __ZNK8crashpad8internal22MemorySnapshotMinidump7AddressEv, symObjAddr: 0x270, symBinAddr: 0x10002EEC8, symSize: 0x8 }
  - { offset: 0x352F2E, size: 0x8, addend: 0x0, symName: __ZNK8crashpad8internal22MemorySnapshotMinidump4SizeEv, symObjAddr: 0x278, symBinAddr: 0x10002EED0, symSize: 0xC }
  - { offset: 0x352F5A, size: 0x8, addend: 0x0, symName: __ZNK8crashpad8internal22MemorySnapshotMinidump4SizeEv, symObjAddr: 0x278, symBinAddr: 0x10002EED0, symSize: 0xC }
  - { offset: 0x352F8D, size: 0x8, addend: 0x0, symName: __ZNK8crashpad8internal22MemorySnapshotMinidump4ReadEPNS_14MemorySnapshot8DelegateE, symObjAddr: 0x284, symBinAddr: 0x10002EEDC, symSize: 0x1C }
  - { offset: 0x353272, size: 0x8, addend: 0x0, symName: __ZNK8crashpad8internal22MemorySnapshotMinidump22MergeWithOtherSnapshotEPKNS_14MemorySnapshotE, symObjAddr: 0x2A0, symBinAddr: 0x10002EEF8, symSize: 0x218 }
  - { offset: 0x35416C, size: 0x8, addend: 0x0, symName: __ZNSt3__16vectorIhNS_9allocatorIhEEE18__insert_with_sizeB8ne190102INS_11__wrap_iterIPKhEES8_EENS5_IPhEES8_T_T0_l, symObjAddr: 0x67C, symBinAddr: 0x10002F110, symSize: 0x30C }
  - { offset: 0x35418F, size: 0x8, addend: 0x0, symName: __ZNSt3__16vectorIhNS_9allocatorIhEEE18__insert_with_sizeB8ne190102INS_11__wrap_iterIPKhEES8_EENS5_IPhEES8_T_T0_l, symObjAddr: 0x67C, symBinAddr: 0x10002F110, symSize: 0x30C }
  - { offset: 0x35F263, size: 0x8, addend: 0x0, symName: __ZN8crashpad8internal26ReadMinidumpAnnotationListEPNS_19FileReaderInterfaceERK28MINIDUMP_LOCATION_DESCRIPTORPNSt3__16vectorINS_18AnnotationSnapshotENS6_9allocatorIS8_EEEE, symObjAddr: 0x0, symBinAddr: 0x10002F41C, symSize: 0x3B8 }
  - { offset: 0x36095E, size: 0x8, addend: 0x0, symName: __ZNSt3__16vectorIN8crashpad18AnnotationSnapshotENS_9allocatorIS2_EEE7reserveEm, symObjAddr: 0x3B8, symBinAddr: 0x10002F7D4, symSize: 0x150 }
  - { offset: 0x360E86, size: 0x8, addend: 0x0, symName: __ZNSt3__16vectorIN8crashpad18AnnotationSnapshotENS_9allocatorIS2_EEE21__push_back_slow_pathIS2_EEPS2_OT_, symObjAddr: 0xAF8, symBinAddr: 0x10002FA3C, symSize: 0x1CC }
  - { offset: 0x361BDC, size: 0x8, addend: 0x0, symName: __ZNSt3__19allocatorIN8crashpad18AnnotationSnapshotEE9constructB8ne190102IS2_JRKS2_EEEvPT_DpOT0_, symObjAddr: 0x9A4, symBinAddr: 0x10002F974, symSize: 0xC8 }
  - { offset: 0x3621F8, size: 0x8, addend: 0x0, symName: __ZNSt3__114__split_bufferIN8crashpad18AnnotationSnapshotERNS_9allocatorIS2_EEED1Ev, symObjAddr: 0x954, symBinAddr: 0x10002F924, symSize: 0x50 }
  - { offset: 0x362203, size: 0x8, addend: 0x0, symName: __ZNSt3__114__split_bufferIN8crashpad18AnnotationSnapshotERNS_9allocatorIS2_EEED1Ev, symObjAddr: 0x954, symBinAddr: 0x10002F924, symSize: 0x50 }
  - { offset: 0x362D55, size: 0x8, addend: 0x0, symName: __ZNSt3__16vectorIN8crashpad18AnnotationSnapshotENS_9allocatorIS2_EEE21__push_back_slow_pathIS2_EEPS2_OT_, symObjAddr: 0xAF8, symBinAddr: 0x10002FA3C, symSize: 0x1CC }
  - { offset: 0x364CB9, size: 0x8, addend: 0x0, symName: __ZN8crashpad8internal24MinidumpContextConverterC2Ev, symObjAddr: 0x0, symBinAddr: 0x10002FC08, symSize: 0x10 }
  - { offset: 0x366672, size: 0x8, addend: 0x0, symName: __ZN8crashpad8internal24MinidumpContextConverterC2Ev, symObjAddr: 0x0, symBinAddr: 0x10002FC08, symSize: 0x10 }
  - { offset: 0x366696, size: 0x8, addend: 0x0, symName: __ZN8crashpad8internal24MinidumpContextConverterC2Ev, symObjAddr: 0x0, symBinAddr: 0x10002FC08, symSize: 0x10 }
  - { offset: 0x3666B5, size: 0x8, addend: 0x0, symName: __ZN8crashpad8internal24MinidumpContextConverterC2Ev, symObjAddr: 0x0, symBinAddr: 0x10002FC08, symSize: 0x10 }
  - { offset: 0x3666F5, size: 0x8, addend: 0x0, symName: __ZN8crashpad8internal24MinidumpContextConverterC1Ev, symObjAddr: 0x10, symBinAddr: 0x10002FC18, symSize: 0x10 }
  - { offset: 0x366723, size: 0x8, addend: 0x0, symName: __ZN8crashpad8internal24MinidumpContextConverterC1Ev, symObjAddr: 0x10, symBinAddr: 0x10002FC18, symSize: 0x10 }
  - { offset: 0x366740, size: 0x8, addend: 0x0, symName: __ZN8crashpad8internal24MinidumpContextConverterC1Ev, symObjAddr: 0x10, symBinAddr: 0x10002FC18, symSize: 0x10 }
  - { offset: 0x36675F, size: 0x8, addend: 0x0, symName: __ZN8crashpad8internal24MinidumpContextConverterC1Ev, symObjAddr: 0x10, symBinAddr: 0x10002FC18, symSize: 0x10 }
  - { offset: 0x366C7D, size: 0x8, addend: 0x0, symName: __ZN8crashpad8internal24MinidumpContextConverter10InitializeENS_15CPUArchitectureERKNSt3__16vectorIhNS3_9allocatorIhEEEE, symObjAddr: 0x20, symBinAddr: 0x10002FC28, symSize: 0x1470 }
  - { offset: 0x37387E, size: 0x8, addend: 0x0, symName: __ZN8crashpad8internal34ReadMinidumpSimpleStringDictionaryEPNS_19FileReaderInterfaceERK28MINIDUMP_LOCATION_DESCRIPTORPNSt3__13mapINS6_12basic_stringIcNS6_11char_traitsIcEENS6_9allocatorIcEEEESD_NS6_4lessISD_EENSB_INS6_4pairIKSD_SD_EEEEEE, symObjAddr: 0x0, symBinAddr: 0x100031098, symSize: 0x44C }
  - { offset: 0x375FCE, size: 0x8, addend: 0x0, symName: __ZNSt3__13mapINS_12basic_stringIcNS_11char_traitsIcEENS_9allocatorIcEEEES6_NS_4lessIS6_EENS4_INS_4pairIKS6_S6_EEEEE4swapB8ne190102ERSD_, symObjAddr: 0x4A4, symBinAddr: 0x1000314E4, symSize: 0x58 }
  - { offset: 0x376007, size: 0x8, addend: 0x0, symName: __ZNSt3__13mapINS_12basic_stringIcNS_11char_traitsIcEENS_9allocatorIcEEEES6_NS_4lessIS6_EENS4_INS_4pairIKS6_S6_EEEEE4swapB8ne190102ERSD_, symObjAddr: 0x4A4, symBinAddr: 0x1000314E4, symSize: 0x58 }
  - { offset: 0x37602F, size: 0x8, addend: 0x0, symName: __ZNSt3__13mapINS_12basic_stringIcNS_11char_traitsIcEENS_9allocatorIcEEEES6_NS_4lessIS6_EENS4_INS_4pairIKS6_S6_EEEEE4swapB8ne190102ERSD_, symObjAddr: 0x4A4, symBinAddr: 0x1000314E4, symSize: 0x58 }
  - { offset: 0x37FD5A, size: 0x8, addend: 0x0, symName: __ZN8crashpad8internal22ReadMinidumpStringListEPNS_19FileReaderInterfaceERK28MINIDUMP_LOCATION_DESCRIPTORPNSt3__16vectorINS6_12basic_stringIcNS6_11char_traitsIcEENS6_9allocatorIcEEEENSB_ISD_EEEE, symObjAddr: 0x0, symBinAddr: 0x10003153C, symSize: 0x314 }
  - { offset: 0x38377C, size: 0x8, addend: 0x0, symName: __ZN8crashpad8internal22ReadMinidumpUTF8StringEPNS_19FileReaderInterfaceEjPNSt3__112basic_stringIcNS3_11char_traitsIcEENS3_9allocatorIcEEEE, symObjAddr: 0x0, symBinAddr: 0x100031850, symSize: 0x174 }
  - { offset: 0x388445, size: 0x8, addend: 0x0, symName: __ZN8crashpad8internal12_GLOBAL__N_118ReadMinidumpStringINSt3__112basic_stringIDsNS3_11char_traitsIDsEENS3_9allocatorIDsEEEEjEEbPNS_19FileReaderInterfaceET0_PT_, symObjAddr: 0x2E8, symBinAddr: 0x100031B38, symSize: 0x180 }
  - { offset: 0x388B36, size: 0x8, addend: 0x0, symName: __ZN8crashpad8internal12_GLOBAL__N_118ReadMinidumpStringINSt3__112basic_stringIDsNS3_11char_traitsIDsEENS3_9allocatorIDsEEEEyEEbPNS_19FileReaderInterfaceET0_PT_, symObjAddr: 0x46C, symBinAddr: 0x100031CBC, symSize: 0x17C }
  - { offset: 0x389228, size: 0x8, addend: 0x0, symName: __ZN8crashpad8internal22ReadMinidumpUTF8StringEPNS_19FileReaderInterfaceEjPNSt3__112basic_stringIcNS3_11char_traitsIcEENS3_9allocatorIcEEEE, symObjAddr: 0x0, symBinAddr: 0x100031850, symSize: 0x174 }
  - { offset: 0x38991D, size: 0x8, addend: 0x0, symName: __ZN8crashpad8internal22ReadMinidumpUTF8StringEPNS_19FileReaderInterfaceEyPNSt3__112basic_stringIcNS3_11char_traitsIcEENS3_9allocatorIcEEEE, symObjAddr: 0x174, symBinAddr: 0x1000319C4, symSize: 0x170 }
  - { offset: 0x38A012, size: 0x8, addend: 0x0, symName: __ZN8crashpad8internal23ReadMinidumpUTF16StringEPNS_19FileReaderInterfaceEjPNSt3__112basic_stringIDsNS3_11char_traitsIDsEENS3_9allocatorIDsEEEE, symObjAddr: 0x2E4, symBinAddr: 0x100031B34, symSize: 0x4 }
  - { offset: 0x38A05A, size: 0x8, addend: 0x0, symName: __ZN8crashpad8internal23ReadMinidumpUTF16StringEPNS_19FileReaderInterfaceEjPNSt3__112basic_stringIDsNS3_11char_traitsIDsEENS3_9allocatorIDsEEEE, symObjAddr: 0x2E4, symBinAddr: 0x100031B34, symSize: 0x4 }
  - { offset: 0x38A07B, size: 0x8, addend: 0x0, symName: __ZN8crashpad8internal23ReadMinidumpUTF16StringEPNS_19FileReaderInterfaceEyPNSt3__112basic_stringIDsNS3_11char_traitsIDsEENS3_9allocatorIDsEEEE, symObjAddr: 0x468, symBinAddr: 0x100031CB8, symSize: 0x4 }
  - { offset: 0x38A0C3, size: 0x8, addend: 0x0, symName: __ZN8crashpad8internal23ReadMinidumpUTF16StringEPNS_19FileReaderInterfaceEyPNSt3__112basic_stringIDsNS3_11char_traitsIDsEENS3_9allocatorIDsEEEE, symObjAddr: 0x468, symBinAddr: 0x100031CB8, symSize: 0x4 }
  - { offset: 0x38A0E4, size: 0x8, addend: 0x0, symName: __ZN8crashpad8internal23ReadMinidumpUTF16StringEPNS_19FileReaderInterfaceEjPNSt3__112basic_stringIcNS3_11char_traitsIcEENS3_9allocatorIcEEEE, symObjAddr: 0x5E8, symBinAddr: 0x100031E38, symSize: 0xA4 }
  - { offset: 0x38A4DE, size: 0x8, addend: 0x0, symName: __ZN8crashpad8internal23ReadMinidumpUTF16StringEPNS_19FileReaderInterfaceEyPNSt3__112basic_stringIcNS3_11char_traitsIcEENS3_9allocatorIcEEEE, symObjAddr: 0x68C, symBinAddr: 0x100031EDC, symSize: 0xA4 }
  - { offset: 0x39AF25, size: 0x8, addend: 0x0, symName: __ZN8crashpad8internal22ModuleSnapshotMinidumpC2Ev, symObjAddr: 0x0, symBinAddr: 0x100031F80, symSize: 0x68 }
  - { offset: 0x39B08B, size: 0x8, addend: 0x0, symName: __ZN8crashpad8internal22ModuleSnapshotMinidumpC1Ev, symObjAddr: 0x68, symBinAddr: 0x100031FE8, symSize: 0x68 }
  - { offset: 0x39B0B9, size: 0x8, addend: 0x0, symName: __ZN8crashpad8internal22ModuleSnapshotMinidumpC1Ev, symObjAddr: 0x68, symBinAddr: 0x100031FE8, symSize: 0x68 }
  - { offset: 0x39B6CC, size: 0x8, addend: 0x0, symName: __ZN8crashpad8internal22ModuleSnapshotMinidumpD2Ev, symObjAddr: 0xD0, symBinAddr: 0x100032050, symSize: 0xF8 }
  - { offset: 0x39C195, size: 0x8, addend: 0x0, symName: __ZN8crashpad8internal22ModuleSnapshotMinidumpD1Ev, symObjAddr: 0x1C8, symBinAddr: 0x100032148, symSize: 0x4 }
  - { offset: 0x39C1B8, size: 0x8, addend: 0x0, symName: __ZN8crashpad8internal22ModuleSnapshotMinidumpD1Ev, symObjAddr: 0x1C8, symBinAddr: 0x100032148, symSize: 0x4 }
  - { offset: 0x39C1E7, size: 0x8, addend: 0x0, symName: __ZN8crashpad8internal22ModuleSnapshotMinidumpD0Ev, symObjAddr: 0x1CC, symBinAddr: 0x10003214C, symSize: 0x14 }
  - { offset: 0x39C246, size: 0x8, addend: 0x0, symName: __ZN8crashpad8internal22ModuleSnapshotMinidump10InitializeEPNS_19FileReaderInterfaceEjPK28MINIDUMP_LOCATION_DESCRIPTOR, symObjAddr: 0x1E0, symBinAddr: 0x100032160, symSize: 0x98 }
  - { offset: 0x39C2F7, size: 0x8, addend: 0x0, symName: __ZN8crashpad8internal22ModuleSnapshotMinidump28InitializeModuleCrashpadInfoEPNS_19FileReaderInterfaceEPK28MINIDUMP_LOCATION_DESCRIPTOR, symObjAddr: 0x278, symBinAddr: 0x1000321F8, symSize: 0x198 }
  - { offset: 0x39C464, size: 0x8, addend: 0x0, symName: __ZN8crashpad8internal22ModuleSnapshotMinidump24InitializeModuleCodeViewEPNS_19FileReaderInterfaceE, symObjAddr: 0x410, symBinAddr: 0x100032390, symSize: 0x3AC }
  - { offset: 0x39D627, size: 0x8, addend: 0x0, symName: __ZNK8crashpad8internal22ModuleSnapshotMinidump4NameEv, symObjAddr: 0x7BC, symBinAddr: 0x10003273C, symSize: 0x28 }
  - { offset: 0x39D66E, size: 0x8, addend: 0x0, symName: __ZNK8crashpad8internal22ModuleSnapshotMinidump4NameEv, symObjAddr: 0x7BC, symBinAddr: 0x10003273C, symSize: 0x28 }
  - { offset: 0x39D7DB, size: 0x8, addend: 0x0, symName: __ZNK8crashpad8internal22ModuleSnapshotMinidump7AddressEv, symObjAddr: 0x7E4, symBinAddr: 0x100032764, symSize: 0x8 }
  - { offset: 0x39D804, size: 0x8, addend: 0x0, symName: __ZNK8crashpad8internal22ModuleSnapshotMinidump4SizeEv, symObjAddr: 0x7EC, symBinAddr: 0x10003276C, symSize: 0x8 }
  - { offset: 0x39D82D, size: 0x8, addend: 0x0, symName: __ZNK8crashpad8internal22ModuleSnapshotMinidump9TimestampEv, symObjAddr: 0x7F4, symBinAddr: 0x100032774, symSize: 0x8 }
  - { offset: 0x39D856, size: 0x8, addend: 0x0, symName: __ZNK8crashpad8internal22ModuleSnapshotMinidump11FileVersionEPtS2_S2_S2_, symObjAddr: 0x7FC, symBinAddr: 0x10003277C, symSize: 0x20 }
  - { offset: 0x39D8D1, size: 0x8, addend: 0x0, symName: __ZNK8crashpad8internal22ModuleSnapshotMinidump13SourceVersionEPtS2_S2_S2_, symObjAddr: 0x81C, symBinAddr: 0x10003279C, symSize: 0x20 }
  - { offset: 0x39D94C, size: 0x8, addend: 0x0, symName: __ZNK8crashpad8internal22ModuleSnapshotMinidump13GetModuleTypeEv, symObjAddr: 0x83C, symBinAddr: 0x1000327BC, symSize: 0x1C }
  - { offset: 0x39D975, size: 0x8, addend: 0x0, symName: __ZNK8crashpad8internal22ModuleSnapshotMinidump10UUIDAndAgeEPNS_4UUIDEPj, symObjAddr: 0x858, symBinAddr: 0x1000327D8, symSize: 0x14 }
  - { offset: 0x39D9B6, size: 0x8, addend: 0x0, symName: __ZNK8crashpad8internal22ModuleSnapshotMinidump13DebugFileNameEv, symObjAddr: 0x86C, symBinAddr: 0x1000327EC, symSize: 0x28 }
  - { offset: 0x39D9FD, size: 0x8, addend: 0x0, symName: __ZNK8crashpad8internal22ModuleSnapshotMinidump13DebugFileNameEv, symObjAddr: 0x86C, symBinAddr: 0x1000327EC, symSize: 0x28 }
  - { offset: 0x39DC31, size: 0x8, addend: 0x0, symName: __ZNK8crashpad8internal22ModuleSnapshotMinidump7BuildIDEv, symObjAddr: 0x894, symBinAddr: 0x100032814, symSize: 0x88 }
  - { offset: 0x39E133, size: 0x8, addend: 0x0, symName: __ZNK8crashpad8internal22ModuleSnapshotMinidump17AnnotationsVectorEv, symObjAddr: 0x91C, symBinAddr: 0x10003289C, symSize: 0x28 }
  - { offset: 0x39E15F, size: 0x8, addend: 0x0, symName: __ZNK8crashpad8internal22ModuleSnapshotMinidump17AnnotationsVectorEv, symObjAddr: 0x91C, symBinAddr: 0x10003289C, symSize: 0x28 }
  - { offset: 0x39E186, size: 0x8, addend: 0x0, symName: __ZNK8crashpad8internal22ModuleSnapshotMinidump17AnnotationsVectorEv, symObjAddr: 0x91C, symBinAddr: 0x10003289C, symSize: 0x28 }
  - { offset: 0x39E698, size: 0x8, addend: 0x0, symName: __ZNK8crashpad8internal22ModuleSnapshotMinidump20AnnotationsSimpleMapEv, symObjAddr: 0x944, symBinAddr: 0x1000328C4, symSize: 0x50 }
  - { offset: 0x39EB18, size: 0x8, addend: 0x0, symName: __ZNK8crashpad8internal22ModuleSnapshotMinidump17AnnotationObjectsEv, symObjAddr: 0x994, symBinAddr: 0x100032914, symSize: 0x30 }
  - { offset: 0x39EB44, size: 0x8, addend: 0x0, symName: __ZNK8crashpad8internal22ModuleSnapshotMinidump17AnnotationObjectsEv, symObjAddr: 0x994, symBinAddr: 0x100032914, symSize: 0x30 }
  - { offset: 0x39EB6B, size: 0x8, addend: 0x0, symName: __ZNK8crashpad8internal22ModuleSnapshotMinidump17AnnotationObjectsEv, symObjAddr: 0x994, symBinAddr: 0x100032914, symSize: 0x30 }
  - { offset: 0x39EBBD, size: 0x8, addend: 0x0, symName: __ZNSt3__16vectorIN8crashpad18AnnotationSnapshotENS_9allocatorIS2_EEE16__init_with_sizeB8ne190102IPS2_S7_EEvT_T0_m, symObjAddr: 0x18C4, symBinAddr: 0x100032964, symSize: 0x11C }
  - { offset: 0x39F109, size: 0x8, addend: 0x0, symName: __ZNK8crashpad8internal22ModuleSnapshotMinidump17ExtraMemoryRangesEv, symObjAddr: 0x9C4, symBinAddr: 0x100032944, symSize: 0x14 }
  - { offset: 0x39F131, size: 0x8, addend: 0x0, symName: __ZNK8crashpad8internal22ModuleSnapshotMinidump17ExtraMemoryRangesEv, symObjAddr: 0x9C4, symBinAddr: 0x100032944, symSize: 0x14 }
  - { offset: 0x39F14E, size: 0x8, addend: 0x0, symName: __ZNK8crashpad8internal22ModuleSnapshotMinidump17ExtraMemoryRangesEv, symObjAddr: 0x9C4, symBinAddr: 0x100032944, symSize: 0x14 }
  - { offset: 0x39F16C, size: 0x8, addend: 0x0, symName: __ZNK8crashpad8internal22ModuleSnapshotMinidump17ExtraMemoryRangesEv, symObjAddr: 0x9C4, symBinAddr: 0x100032944, symSize: 0x14 }
  - { offset: 0x39F18A, size: 0x8, addend: 0x0, symName: __ZNK8crashpad8internal22ModuleSnapshotMinidump17ExtraMemoryRangesEv, symObjAddr: 0x9C4, symBinAddr: 0x100032944, symSize: 0x14 }
  - { offset: 0x39F1A8, size: 0x8, addend: 0x0, symName: __ZNK8crashpad8internal22ModuleSnapshotMinidump17ExtraMemoryRangesEv, symObjAddr: 0x9C4, symBinAddr: 0x100032944, symSize: 0x14 }
  - { offset: 0x39F1C8, size: 0x8, addend: 0x0, symName: __ZNK8crashpad8internal22ModuleSnapshotMinidump17ExtraMemoryRangesEv, symObjAddr: 0x9C4, symBinAddr: 0x100032944, symSize: 0x14 }
  - { offset: 0x39F1E7, size: 0x8, addend: 0x0, symName: __ZNK8crashpad8internal22ModuleSnapshotMinidump17ExtraMemoryRangesEv, symObjAddr: 0x9C4, symBinAddr: 0x100032944, symSize: 0x14 }
  - { offset: 0x39F243, size: 0x8, addend: 0x0, symName: __ZNK8crashpad8internal22ModuleSnapshotMinidump21CustomMinidumpStreamsEv, symObjAddr: 0x9D8, symBinAddr: 0x100032958, symSize: 0xC }
  - { offset: 0x39F26B, size: 0x8, addend: 0x0, symName: __ZNK8crashpad8internal22ModuleSnapshotMinidump21CustomMinidumpStreamsEv, symObjAddr: 0x9D8, symBinAddr: 0x100032958, symSize: 0xC }
  - { offset: 0x39F288, size: 0x8, addend: 0x0, symName: __ZNK8crashpad8internal22ModuleSnapshotMinidump21CustomMinidumpStreamsEv, symObjAddr: 0x9D8, symBinAddr: 0x100032958, symSize: 0xC }
  - { offset: 0x3A18B9, size: 0x8, addend: 0x0, symName: __ZNSt3__128__exception_guard_exceptionsINS_6vectorIN8crashpad18AnnotationSnapshotENS_9allocatorIS3_EEE16__destroy_vectorEED1B8ne190102Ev, symObjAddr: 0x19E0, symBinAddr: 0x100032A80, symSize: 0x70 }
  - { offset: 0x3A18E7, size: 0x8, addend: 0x0, symName: __ZNSt3__128__exception_guard_exceptionsINS_6vectorIN8crashpad18AnnotationSnapshotENS_9allocatorIS3_EEE16__destroy_vectorEED1B8ne190102Ev, symObjAddr: 0x19E0, symBinAddr: 0x100032A80, symSize: 0x70 }
  - { offset: 0x3CC430, size: 0x8, addend: 0x0, symName: __ZN8crashpad23ProcessSnapshotMinidumpC2Ev, symObjAddr: 0x0, symBinAddr: 0x100032AF0, symSize: 0x15C }
  - { offset: 0x3CCB77, size: 0x8, addend: 0x0, symName: __ZNSt3__16vectorINS_10unique_ptrIN8crashpad14MinidumpStreamENS_14default_deleteIS3_EEEENS_9allocatorIS6_EEED1B8ne190102Ev, symObjAddr: 0x15C, symBinAddr: 0x100032C4C, symSize: 0x80 }
  - { offset: 0x3CD28F, size: 0x8, addend: 0x0, symName: __ZNSt3__16__treeINS_12__value_typeIjNS_12basic_stringIcNS_11char_traitsIcEENS_9allocatorIcEEEEEENS_19__map_value_compareIjS8_NS_4lessIjEELb1EEENS5_IS8_EEE7destroyEPNS_11__tree_nodeIS8_PvEE, symObjAddr: 0x2EFC, symBinAddr: 0x1000357E4, symSize: 0x60 }
  - { offset: 0x3CD67E, size: 0x8, addend: 0x0, symName: __ZNSt3__16vectorINS_10unique_ptrIN8crashpad8internal22ModuleSnapshotMinidumpENS_14default_deleteIS4_EEEENS_9allocatorIS7_EEED1B8ne190102Ev, symObjAddr: 0x390, symBinAddr: 0x100032CCC, symSize: 0x70 }
  - { offset: 0x3CE481, size: 0x8, addend: 0x0, symName: __ZN8crashpad23ProcessSnapshotMinidumpC1Ev, symObjAddr: 0x400, symBinAddr: 0x100032D3C, symSize: 0x4 }
  - { offset: 0x3CE4AE, size: 0x8, addend: 0x0, symName: __ZN8crashpad23ProcessSnapshotMinidumpC1Ev, symObjAddr: 0x400, symBinAddr: 0x100032D3C, symSize: 0x4 }
  - { offset: 0x3CE6A4, size: 0x8, addend: 0x0, symName: __ZN8crashpad23ProcessSnapshotMinidumpD2Ev, symObjAddr: 0x404, symBinAddr: 0x100032D40, symSize: 0x248 }
  - { offset: 0x3CFCA8, size: 0x8, addend: 0x0, symName: __ZN8crashpad23ProcessSnapshotMinidumpD1Ev, symObjAddr: 0x64C, symBinAddr: 0x100032F88, symSize: 0x4 }
  - { offset: 0x3CFCCB, size: 0x8, addend: 0x0, symName: __ZN8crashpad23ProcessSnapshotMinidumpD1Ev, symObjAddr: 0x64C, symBinAddr: 0x100032F88, symSize: 0x4 }
  - { offset: 0x3CFCFF, size: 0x8, addend: 0x0, symName: __ZN8crashpad23ProcessSnapshotMinidumpD0Ev, symObjAddr: 0x650, symBinAddr: 0x100032F8C, symSize: 0x14 }
  - { offset: 0x3D041A, size: 0x8, addend: 0x0, symName: __ZN8crashpad23ProcessSnapshotMinidump10InitializeEPNS_19FileReaderInterfaceE, symObjAddr: 0x664, symBinAddr: 0x100032FA0, symSize: 0x3B4 }
  - { offset: 0x3D0B11, size: 0x8, addend: 0x0, symName: __ZNSt3__16vectorI18MINIDUMP_DIRECTORYNS_9allocatorIS1_EEE8__appendEm, symObjAddr: 0x3390, symBinAddr: 0x100035844, symSize: 0x184 }
  - { offset: 0x3D0F30, size: 0x8, addend: 0x0, symName: __ZN8crashpad23ProcessSnapshotMinidump22InitializeCrashpadInfoEv, symObjAddr: 0xA18, symBinAddr: 0x100033354, symSize: 0x210 }
  - { offset: 0x3D11B5, size: 0x8, addend: 0x0, symName: __ZN8crashpad23ProcessSnapshotMinidump18InitializeMiscInfoEv, symObjAddr: 0xC28, symBinAddr: 0x100033564, symSize: 0x2C0 }
  - { offset: 0x3D1A42, size: 0x8, addend: 0x0, symName: __ZN8crashpad23ProcessSnapshotMinidump17InitializeModulesEv, symObjAddr: 0xEE8, symBinAddr: 0x100033824, symSize: 0x408 }
  - { offset: 0x3D284B, size: 0x8, addend: 0x0, symName: __ZN8crashpad23ProcessSnapshotMinidump24InitializeSystemSnapshotEv, symObjAddr: 0x12F0, symBinAddr: 0x100033C2C, symSize: 0x108 }
  - { offset: 0x3D2A2A, size: 0x8, addend: 0x0, symName: __ZN8crashpad23ProcessSnapshotMinidump20InitializeMemoryInfoEv, symObjAddr: 0x13F8, symBinAddr: 0x100033D34, symSize: 0x3B0 }
  - { offset: 0x3D35ED, size: 0x8, addend: 0x0, symName: __ZN8crashpad23ProcessSnapshotMinidump21InitializeExtraMemoryEv, symObjAddr: 0x17A8, symBinAddr: 0x1000340E4, symSize: 0x268 }
  - { offset: 0x3D3D71, size: 0x8, addend: 0x0, symName: __ZN8crashpad23ProcessSnapshotMinidump17InitializeThreadsEv, symObjAddr: 0x1A10, symBinAddr: 0x10003434C, symSize: 0x310 }
  - { offset: 0x3D45D8, size: 0x8, addend: 0x0, symName: __ZN8crashpad23ProcessSnapshotMinidump31InitializeCustomMinidumpStreamsEv, symObjAddr: 0x1D20, symBinAddr: 0x10003465C, symSize: 0x35C }
  - { offset: 0x3D57D0, size: 0x8, addend: 0x0, symName: __ZN8crashpad23ProcessSnapshotMinidump27InitializeExceptionSnapshotEv, symObjAddr: 0x207C, symBinAddr: 0x1000349B8, symSize: 0xF8 }
  - { offset: 0x3D6644, size: 0x8, addend: 0x0, symName: __ZN8crashpad23ProcessSnapshotMinidump29InitializeModulesCrashpadInfoEPNSt3__13mapIj28MINIDUMP_LOCATION_DESCRIPTORNS1_4lessIjEENS1_9allocatorINS1_4pairIKjS3_EEEEEE, symObjAddr: 0x2810, symBinAddr: 0x10003514C, symSize: 0x330 }
  - { offset: 0x3D6D28, size: 0x8, addend: 0x0, symName: __ZNSt3__110unique_ptrIN8crashpad8internal22ModuleSnapshotMinidumpENS_14default_deleteIS3_EEED1B8ne190102Ev, symObjAddr: 0x2B40, symBinAddr: 0x10003547C, symSize: 0x3C }
  - { offset: 0x3D7E7F, size: 0x8, addend: 0x0, symName: __ZN8crashpad23ProcessSnapshotMinidump21InitializeThreadNamesEv, symObjAddr: 0x2B7C, symBinAddr: 0x1000354B8, symSize: 0x2E8 }
  - { offset: 0x3D91BB, size: 0x8, addend: 0x0, symName: __ZNSt3__110unique_ptrIN8crashpad14MinidumpStreamENS_14default_deleteIS2_EEED1B8ne190102Ev, symObjAddr: 0x2E64, symBinAddr: 0x1000357A0, symSize: 0x44 }
  - { offset: 0x3D93EF, size: 0x8, addend: 0x0, symName: __ZNK8crashpad23ProcessSnapshotMinidump9ProcessIDEv, symObjAddr: 0x2174, symBinAddr: 0x100034AB0, symSize: 0x8 }
  - { offset: 0x3D9418, size: 0x8, addend: 0x0, symName: __ZNK8crashpad23ProcessSnapshotMinidump15ParentProcessIDEv, symObjAddr: 0x217C, symBinAddr: 0x100034AB8, symSize: 0x8 }
  - { offset: 0x3D943D, size: 0x8, addend: 0x0, symName: __ZNK8crashpad23ProcessSnapshotMinidump12SnapshotTimeEP7timeval, symObjAddr: 0x2184, symBinAddr: 0x100034AC0, symSize: 0x10 }
  - { offset: 0x3D9471, size: 0x8, addend: 0x0, symName: __ZNK8crashpad23ProcessSnapshotMinidump16ProcessStartTimeEP7timeval, symObjAddr: 0x2194, symBinAddr: 0x100034AD0, symSize: 0x10 }
  - { offset: 0x3D94A5, size: 0x8, addend: 0x0, symName: __ZNK8crashpad23ProcessSnapshotMinidump15ProcessCPUTimesEP7timevalS2_, symObjAddr: 0x21A4, symBinAddr: 0x100034AE0, symSize: 0x1C }
  - { offset: 0x3D94E6, size: 0x8, addend: 0x0, symName: __ZNK8crashpad23ProcessSnapshotMinidump8ReportIDEPNS_4UUIDE, symObjAddr: 0x21C0, symBinAddr: 0x100034AFC, symSize: 0x10 }
  - { offset: 0x3D951A, size: 0x8, addend: 0x0, symName: __ZNK8crashpad23ProcessSnapshotMinidump8ClientIDEPNS_4UUIDE, symObjAddr: 0x21D0, symBinAddr: 0x100034B0C, symSize: 0x10 }
  - { offset: 0x3D954E, size: 0x8, addend: 0x0, symName: __ZNK8crashpad23ProcessSnapshotMinidump20AnnotationsSimpleMapEv, symObjAddr: 0x21E0, symBinAddr: 0x100034B1C, symSize: 0x8 }
  - { offset: 0x3D9577, size: 0x8, addend: 0x0, symName: __ZNK8crashpad23ProcessSnapshotMinidump6SystemEv, symObjAddr: 0x21E8, symBinAddr: 0x100034B24, symSize: 0x8 }
  - { offset: 0x3D9A03, size: 0x8, addend: 0x0, symName: __ZNK8crashpad23ProcessSnapshotMinidump7ThreadsEv, symObjAddr: 0x21F0, symBinAddr: 0x100034B2C, symSize: 0x144 }
  - { offset: 0x3DA4D4, size: 0x8, addend: 0x0, symName: __ZNK8crashpad23ProcessSnapshotMinidump7ModulesEv, symObjAddr: 0x2334, symBinAddr: 0x100034C70, symSize: 0x144 }
  - { offset: 0x3DAB37, size: 0x8, addend: 0x0, symName: __ZNSt3__16vectorIN8crashpad22UnloadedModuleSnapshotENS_9allocatorIS2_EEE16__init_with_sizeB8ne190102IPS2_S7_EEvT_T0_m, symObjAddr: 0x3704, symBinAddr: 0x1000359C8, symSize: 0x144 }
  - { offset: 0x3DABAF, size: 0x8, addend: 0x0, symName: __ZNK8crashpad23ProcessSnapshotMinidump15UnloadedModulesEv, symObjAddr: 0x2478, symBinAddr: 0x100034DB4, symSize: 0x28 }
  - { offset: 0x3DABDB, size: 0x8, addend: 0x0, symName: __ZNK8crashpad23ProcessSnapshotMinidump15UnloadedModulesEv, symObjAddr: 0x2478, symBinAddr: 0x100034DB4, symSize: 0x28 }
  - { offset: 0x3DAC02, size: 0x8, addend: 0x0, symName: __ZNK8crashpad23ProcessSnapshotMinidump15UnloadedModulesEv, symObjAddr: 0x2478, symBinAddr: 0x100034DB4, symSize: 0x28 }
  - { offset: 0x3DAC54, size: 0x8, addend: 0x0, symName: __ZNSt3__16vectorIN8crashpad22UnloadedModuleSnapshotENS_9allocatorIS2_EEE16__init_with_sizeB8ne190102IPS2_S7_EEvT_T0_m, symObjAddr: 0x3704, symBinAddr: 0x1000359C8, symSize: 0x144 }
  - { offset: 0x3DB1A7, size: 0x8, addend: 0x0, symName: __ZNK8crashpad23ProcessSnapshotMinidump9ExceptionEv, symObjAddr: 0x24A0, symBinAddr: 0x100034DDC, symSize: 0x14 }
  - { offset: 0x3DB426, size: 0x8, addend: 0x0, symName: __ZNK8crashpad23ProcessSnapshotMinidump9MemoryMapEv, symObjAddr: 0x24B4, symBinAddr: 0x100034DF0, symSize: 0x88 }
  - { offset: 0x3DB90C, size: 0x8, addend: 0x0, symName: __ZNK8crashpad23ProcessSnapshotMinidump7HandlesEv, symObjAddr: 0x253C, symBinAddr: 0x100034E78, symSize: 0xC }
  - { offset: 0x3DB934, size: 0x8, addend: 0x0, symName: __ZNK8crashpad23ProcessSnapshotMinidump7HandlesEv, symObjAddr: 0x253C, symBinAddr: 0x100034E78, symSize: 0xC }
  - { offset: 0x3DB951, size: 0x8, addend: 0x0, symName: __ZNK8crashpad23ProcessSnapshotMinidump7HandlesEv, symObjAddr: 0x253C, symBinAddr: 0x100034E78, symSize: 0xC }
  - { offset: 0x3DBDD1, size: 0x8, addend: 0x0, symName: __ZNK8crashpad23ProcessSnapshotMinidump11ExtraMemoryEv, symObjAddr: 0x2548, symBinAddr: 0x100034E84, symSize: 0x144 }
  - { offset: 0x3DC43F, size: 0x8, addend: 0x0, symName: __ZNK8crashpad23ProcessSnapshotMinidump6MemoryEv, symObjAddr: 0x268C, symBinAddr: 0x100034FC8, symSize: 0x8 }
  - { offset: 0x3DC8F1, size: 0x8, addend: 0x0, symName: __ZNK8crashpad23ProcessSnapshotMinidump21CustomMinidumpStreamsEv, symObjAddr: 0x2694, symBinAddr: 0x100034FD0, symSize: 0x17C }
  - { offset: 0x3DE88C, size: 0x8, addend: 0x0, symName: __ZNSt3__128__exception_guard_exceptionsINS_6vectorIN8crashpad22UnloadedModuleSnapshotENS_9allocatorIS3_EEE16__destroy_vectorEED1B8ne190102Ev, symObjAddr: 0x3848, symBinAddr: 0x100035B0C, symSize: 0x70 }
  - { offset: 0x3DE8BA, size: 0x8, addend: 0x0, symName: __ZNSt3__128__exception_guard_exceptionsINS_6vectorIN8crashpad22UnloadedModuleSnapshotENS_9allocatorIS3_EEE16__destroy_vectorEED1B8ne190102Ev, symObjAddr: 0x3848, symBinAddr: 0x100035B0C, symSize: 0x70 }
  - { offset: 0x3DEAAF, size: 0x8, addend: 0x0, symName: __ZNK8crashpad8internal31MemoryMapRegionSnapshotMinidump20AsMinidumpMemoryInfoEv, symObjAddr: 0x39F4, symBinAddr: 0x100035B7C, symSize: 0x8 }
  - { offset: 0x3E088F, size: 0x8, addend: 0x0, symName: __ZN8crashpad8internal22SystemSnapshotMinidumpC2Ev, symObjAddr: 0x0, symBinAddr: 0x100035B84, symSize: 0x30 }
  - { offset: 0x3E39D9, size: 0x8, addend: 0x0, symName: __ZN8crashpad8internal22SystemSnapshotMinidumpC2Ev, symObjAddr: 0x0, symBinAddr: 0x100035B84, symSize: 0x30 }
  - { offset: 0x3E3AC2, size: 0x8, addend: 0x0, symName: __ZN8crashpad8internal22SystemSnapshotMinidumpC1Ev, symObjAddr: 0x30, symBinAddr: 0x100035BB4, symSize: 0x30 }
  - { offset: 0x3E3AF0, size: 0x8, addend: 0x0, symName: __ZN8crashpad8internal22SystemSnapshotMinidumpC1Ev, symObjAddr: 0x30, symBinAddr: 0x100035BB4, symSize: 0x30 }
  - { offset: 0x3E3C7C, size: 0x8, addend: 0x0, symName: __ZN8crashpad8internal22SystemSnapshotMinidumpD2Ev, symObjAddr: 0x60, symBinAddr: 0x100035BE4, symSize: 0x64 }
  - { offset: 0x3E3F0A, size: 0x8, addend: 0x0, symName: __ZN8crashpad8internal22SystemSnapshotMinidumpD1Ev, symObjAddr: 0xC4, symBinAddr: 0x100035C48, symSize: 0x64 }
  - { offset: 0x3E41B0, size: 0x8, addend: 0x0, symName: __ZN8crashpad8internal22SystemSnapshotMinidumpD0Ev, symObjAddr: 0x128, symBinAddr: 0x100035CAC, symSize: 0x64 }
  - { offset: 0x3E445C, size: 0x8, addend: 0x0, symName: __ZN8crashpad8internal22SystemSnapshotMinidump10InitializeEPNS_19FileReaderInterfaceEjRKNSt3__112basic_stringIcNS4_11char_traitsIcEENS4_9allocatorIcEEEE, symObjAddr: 0x18C, symBinAddr: 0x100035D10, symSize: 0x84 }
  - { offset: 0x3E44C3, size: 0x8, addend: 0x0, symName: __ZNK8crashpad8internal22SystemSnapshotMinidump18GetCPUArchitectureEv, symObjAddr: 0x210, symBinAddr: 0x100035D94, symSize: 0xA0 }
  - { offset: 0x3E44EC, size: 0x8, addend: 0x0, symName: __ZNK8crashpad8internal22SystemSnapshotMinidump11CPURevisionEv, symObjAddr: 0x2B0, symBinAddr: 0x100035E34, symSize: 0x8 }
  - { offset: 0x3E4515, size: 0x8, addend: 0x0, symName: __ZNK8crashpad8internal22SystemSnapshotMinidump8CPUCountEv, symObjAddr: 0x2B8, symBinAddr: 0x100035E3C, symSize: 0x8 }
  - { offset: 0x3E473C, size: 0x8, addend: 0x0, symName: __ZNK8crashpad8internal22SystemSnapshotMinidump9CPUVendorEv, symObjAddr: 0x2C0, symBinAddr: 0x100035E44, symSize: 0x64 }
  - { offset: 0x3E4A0C, size: 0x8, addend: 0x0, symName: __ZNK8crashpad8internal22SystemSnapshotMinidump12CPUFrequencyEPyS2_, symObjAddr: 0x324, symBinAddr: 0x100035EA8, symSize: 0x4 }
  - { offset: 0x3E4A47, size: 0x8, addend: 0x0, symName: __ZNK8crashpad8internal22SystemSnapshotMinidump15CPUX86SignatureEv, symObjAddr: 0x328, symBinAddr: 0x100035EAC, symSize: 0x8 }
  - { offset: 0x3E4A6C, size: 0x8, addend: 0x0, symName: __ZNK8crashpad8internal22SystemSnapshotMinidump14CPUX86FeaturesEv, symObjAddr: 0x330, symBinAddr: 0x100035EB4, symSize: 0x8 }
  - { offset: 0x3E4A91, size: 0x8, addend: 0x0, symName: __ZNK8crashpad8internal22SystemSnapshotMinidump22CPUX86ExtendedFeaturesEv, symObjAddr: 0x338, symBinAddr: 0x100035EBC, symSize: 0x8 }
  - { offset: 0x3E4AB6, size: 0x8, addend: 0x0, symName: __ZNK8crashpad8internal22SystemSnapshotMinidump19CPUX86Leaf7FeaturesEv, symObjAddr: 0x340, symBinAddr: 0x100035EC4, symSize: 0x8 }
  - { offset: 0x3E4ADB, size: 0x8, addend: 0x0, symName: __ZNK8crashpad8internal22SystemSnapshotMinidump17CPUX86SupportsDAZEv, symObjAddr: 0x348, symBinAddr: 0x100035ECC, symSize: 0x8 }
  - { offset: 0x3E4B00, size: 0x8, addend: 0x0, symName: __ZNK8crashpad8internal22SystemSnapshotMinidump18GetOperatingSystemEv, symObjAddr: 0x350, symBinAddr: 0x100035ED4, symSize: 0x84 }
  - { offset: 0x3E4B29, size: 0x8, addend: 0x0, symName: __ZNK8crashpad8internal22SystemSnapshotMinidump8OSServerEv, symObjAddr: 0x3D4, symBinAddr: 0x100035F58, symSize: 0x10 }
  - { offset: 0x3E4B52, size: 0x8, addend: 0x0, symName: __ZNK8crashpad8internal22SystemSnapshotMinidump9OSVersionEPiS2_S2_PNSt3__112basic_stringIcNS3_11char_traitsIcEENS3_9allocatorIcEEEE, symObjAddr: 0x3E4, symBinAddr: 0x100035F68, symSize: 0x24 }
  - { offset: 0x3E4C19, size: 0x8, addend: 0x0, symName: __ZNK8crashpad8internal22SystemSnapshotMinidump13OSVersionFullEv, symObjAddr: 0x408, symBinAddr: 0x100035F8C, symSize: 0x28 }
  - { offset: 0x3E4C60, size: 0x8, addend: 0x0, symName: __ZNK8crashpad8internal22SystemSnapshotMinidump13OSVersionFullEv, symObjAddr: 0x408, symBinAddr: 0x100035F8C, symSize: 0x28 }
  - { offset: 0x3E4DCD, size: 0x8, addend: 0x0, symName: __ZNK8crashpad8internal22SystemSnapshotMinidump18MachineDescriptionEv, symObjAddr: 0x430, symBinAddr: 0x100035FB4, symSize: 0xC }
  - { offset: 0x3E4DF5, size: 0x8, addend: 0x0, symName: __ZNK8crashpad8internal22SystemSnapshotMinidump18MachineDescriptionEv, symObjAddr: 0x430, symBinAddr: 0x100035FB4, symSize: 0xC }
  - { offset: 0x3E4E12, size: 0x8, addend: 0x0, symName: __ZNK8crashpad8internal22SystemSnapshotMinidump18MachineDescriptionEv, symObjAddr: 0x430, symBinAddr: 0x100035FB4, symSize: 0xC }
  - { offset: 0x3E4E30, size: 0x8, addend: 0x0, symName: __ZNK8crashpad8internal22SystemSnapshotMinidump18MachineDescriptionEv, symObjAddr: 0x430, symBinAddr: 0x100035FB4, symSize: 0xC }
  - { offset: 0x3E4E4E, size: 0x8, addend: 0x0, symName: __ZNK8crashpad8internal22SystemSnapshotMinidump18MachineDescriptionEv, symObjAddr: 0x430, symBinAddr: 0x100035FB4, symSize: 0xC }
  - { offset: 0x3E4E6B, size: 0x8, addend: 0x0, symName: __ZNK8crashpad8internal22SystemSnapshotMinidump18MachineDescriptionEv, symObjAddr: 0x430, symBinAddr: 0x100035FB4, symSize: 0xC }
  - { offset: 0x3E4E8A, size: 0x8, addend: 0x0, symName: __ZNK8crashpad8internal22SystemSnapshotMinidump9NXEnabledEv, symObjAddr: 0x43C, symBinAddr: 0x100035FC0, symSize: 0x8 }
  - { offset: 0x3E4EAF, size: 0x8, addend: 0x0, symName: __ZNK8crashpad8internal22SystemSnapshotMinidump8TimeZoneEPNS_14SystemSnapshot24DaylightSavingTimeStatusEPiS5_PNSt3__112basic_stringIcNS6_11char_traitsIcEENS6_9allocatorIcEEEESD_, symObjAddr: 0x444, symBinAddr: 0x100035FC8, symSize: 0x4 }
  - { offset: 0x3E4F0B, size: 0x8, addend: 0x0, symName: __ZNK8crashpad8internal22SystemSnapshotMinidump11AddressMaskEv, symObjAddr: 0x448, symBinAddr: 0x100035FCC, symSize: 0x8 }
  - { offset: 0x3E6E08, size: 0x8, addend: 0x0, symName: __ZN8crashpad8internal22ThreadSnapshotMinidumpC2Ev, symObjAddr: 0x0, symBinAddr: 0x100035FD4, symSize: 0xA0 }
  - { offset: 0x3ED2B7, size: 0x8, addend: 0x0, symName: __ZN8crashpad8internal22ThreadSnapshotMinidumpC2Ev, symObjAddr: 0x0, symBinAddr: 0x100035FD4, symSize: 0xA0 }
  - { offset: 0x3ED62A, size: 0x8, addend: 0x0, symName: __ZN8crashpad8internal22ThreadSnapshotMinidumpC1Ev, symObjAddr: 0xA0, symBinAddr: 0x100036074, symSize: 0xA0 }
  - { offset: 0x3ED99E, size: 0x8, addend: 0x0, symName: __ZN8crashpad8internal22ThreadSnapshotMinidumpD2Ev, symObjAddr: 0x140, symBinAddr: 0x100036114, symSize: 0x60 }
  - { offset: 0x3EDCA8, size: 0x8, addend: 0x0, symName: __ZN8crashpad8internal22ThreadSnapshotMinidumpD1Ev, symObjAddr: 0x1A0, symBinAddr: 0x100036174, symSize: 0x60 }
  - { offset: 0x3EDFCA, size: 0x8, addend: 0x0, symName: __ZN8crashpad8internal22ThreadSnapshotMinidumpD0Ev, symObjAddr: 0x200, symBinAddr: 0x1000361D4, symSize: 0x60 }
  - { offset: 0x3EE688, size: 0x8, addend: 0x0, symName: __ZN8crashpad8internal22ThreadSnapshotMinidump10InitializeEPNS_19FileReaderInterfaceEjNS_15CPUArchitectureERKNSt3__13mapIjNS5_12basic_stringIcNS5_11char_traitsIcEENS5_9allocatorIcEEEENS5_4lessIjEENSA_INS5_4pairIKjSC_EEEEEE, symObjAddr: 0x260, symBinAddr: 0x100036234, symSize: 0x19C }
  - { offset: 0x3EED65, size: 0x8, addend: 0x0, symName: __ZNK8crashpad8internal22ThreadSnapshotMinidump8ThreadIDEv, symObjAddr: 0x3FC, symBinAddr: 0x1000363D0, symSize: 0x8 }
  - { offset: 0x3EEDF2, size: 0x8, addend: 0x0, symName: __ZNK8crashpad8internal22ThreadSnapshotMinidump10ThreadNameEv, symObjAddr: 0x404, symBinAddr: 0x1000363D8, symSize: 0x28 }
  - { offset: 0x3EEE39, size: 0x8, addend: 0x0, symName: __ZNK8crashpad8internal22ThreadSnapshotMinidump10ThreadNameEv, symObjAddr: 0x404, symBinAddr: 0x1000363D8, symSize: 0x28 }
  - { offset: 0x3EEFA6, size: 0x8, addend: 0x0, symName: __ZNK8crashpad8internal22ThreadSnapshotMinidump12SuspendCountEv, symObjAddr: 0x42C, symBinAddr: 0x100036400, symSize: 0x8 }
  - { offset: 0x3EEFCF, size: 0x8, addend: 0x0, symName: __ZNK8crashpad8internal22ThreadSnapshotMinidump25ThreadSpecificDataAddressEv, symObjAddr: 0x434, symBinAddr: 0x100036408, symSize: 0x8 }
  - { offset: 0x3EEFF8, size: 0x8, addend: 0x0, symName: __ZNK8crashpad8internal22ThreadSnapshotMinidump8PriorityEv, symObjAddr: 0x43C, symBinAddr: 0x100036410, symSize: 0x8 }
  - { offset: 0x3EF021, size: 0x8, addend: 0x0, symName: __ZNK8crashpad8internal22ThreadSnapshotMinidump7ContextEv, symObjAddr: 0x444, symBinAddr: 0x100036418, symSize: 0x8 }
  - { offset: 0x3EF04A, size: 0x8, addend: 0x0, symName: __ZNK8crashpad8internal22ThreadSnapshotMinidump5StackEv, symObjAddr: 0x44C, symBinAddr: 0x100036420, symSize: 0x8 }
  - { offset: 0x3EF0AC, size: 0x8, addend: 0x0, symName: __ZNK8crashpad8internal22ThreadSnapshotMinidump11ExtraMemoryEv, symObjAddr: 0x454, symBinAddr: 0x100036428, symSize: 0xC }
  - { offset: 0x3EF0D4, size: 0x8, addend: 0x0, symName: __ZNK8crashpad8internal22ThreadSnapshotMinidump11ExtraMemoryEv, symObjAddr: 0x454, symBinAddr: 0x100036428, symSize: 0xC }
  - { offset: 0x3EF0F1, size: 0x8, addend: 0x0, symName: __ZNK8crashpad8internal22ThreadSnapshotMinidump11ExtraMemoryEv, symObjAddr: 0x454, symBinAddr: 0x100036428, symSize: 0xC }
  - { offset: 0x3F1029, size: 0x8, addend: 0x0, symName: __ZN8crashpad22UnloadedModuleSnapshotC2EyyjjRKNSt3__112basic_stringIcNS1_11char_traitsIcEENS1_9allocatorIcEEEE, symObjAddr: 0x0, symBinAddr: 0x100036434, symSize: 0x6C }
  - { offset: 0x3F3DA4, size: 0x8, addend: 0x0, symName: __ZN8crashpad22UnloadedModuleSnapshotC2EyyjjRKNSt3__112basic_stringIcNS1_11char_traitsIcEENS1_9allocatorIcEEEE, symObjAddr: 0x0, symBinAddr: 0x100036434, symSize: 0x6C }
  - { offset: 0x3F4026, size: 0x8, addend: 0x0, symName: __ZN8crashpad22UnloadedModuleSnapshotC1EyyjjRKNSt3__112basic_stringIcNS1_11char_traitsIcEENS1_9allocatorIcEEEE, symObjAddr: 0x6C, symBinAddr: 0x1000364A0, symSize: 0x6C }
  - { offset: 0x3F423D, size: 0x8, addend: 0x0, symName: __ZN8crashpad22UnloadedModuleSnapshotD2Ev, symObjAddr: 0xD8, symBinAddr: 0x10003650C, symSize: 0x38 }
  - { offset: 0x3F4292, size: 0x8, addend: 0x0, symName: __ZN8crashpad22UnloadedModuleSnapshotD2Ev, symObjAddr: 0xD8, symBinAddr: 0x10003650C, symSize: 0x38 }
  - { offset: 0x3F43AA, size: 0x8, addend: 0x0, symName: __ZN8crashpad22UnloadedModuleSnapshotD1Ev, symObjAddr: 0x110, symBinAddr: 0x100036544, symSize: 0x38 }
  - { offset: 0x3F4420, size: 0x8, addend: 0x0, symName: __ZN8crashpad22UnloadedModuleSnapshotD1Ev, symObjAddr: 0x110, symBinAddr: 0x100036544, symSize: 0x38 }
  - { offset: 0x3F65C9, size: 0x8, addend: 0x0, symName: __ZN8crashpad8internal8TimeZoneERK7timevalPNS_14SystemSnapshot24DaylightSavingTimeStatusEPiS7_PNSt3__112basic_stringIcNS8_11char_traitsIcEENS8_9allocatorIcEEEESF_, symObjAddr: 0x0, symBinAddr: 0x10003657C, symSize: 0x2E0 }
  - { offset: 0x3F65EF, size: 0x8, addend: 0x0, symName: __ZZN8crashpad8internal8TimeZoneERK7timevalPNS_14SystemSnapshot24DaylightSavingTimeStatusEPiS7_PNSt3__112basic_stringIcNS8_11char_traitsIcEENS8_9allocatorIcEEEESF_E12kMonthDeltas, symObjAddr: 0x890, symBinAddr: 0x100078CA0, symSize: 0x0 }
  - { offset: 0x4020DD, size: 0x8, addend: 0x0, symName: __ZN8crashpad8internal25InitializeCPUContextARM64EPNS_15CPUContextARM64EiPKjjPK27__darwin_arm_thread_state64PK25__darwin_arm_neon_state64PK26__darwin_arm_debug_state64, symObjAddr: 0x0, symBinAddr: 0x10003685C, symSize: 0x350 }
  - { offset: 0x40DF1E, size: 0x8, addend: 0x0, symName: __ZN8crashpad8internal20ExceptionSnapshotMacC2Ev, symObjAddr: 0x0, symBinAddr: 0x100036BAC, symSize: 0x34 }
  - { offset: 0x40DF62, size: 0x8, addend: 0x0, symName: __ZN8crashpad8internal20ExceptionSnapshotMacC1Ev, symObjAddr: 0x34, symBinAddr: 0x100036BE0, symSize: 0x34 }
  - { offset: 0x40E0AC, size: 0x8, addend: 0x0, symName: __ZN8crashpad8internal20ExceptionSnapshotMacD2Ev, symObjAddr: 0x68, symBinAddr: 0x100036C14, symSize: 0x34 }
  - { offset: 0x40E0D2, size: 0x8, addend: 0x0, symName: __ZN8crashpad8internal20ExceptionSnapshotMacD2Ev, symObjAddr: 0x68, symBinAddr: 0x100036C14, symSize: 0x34 }
  - { offset: 0x40E0F1, size: 0x8, addend: 0x0, symName: __ZN8crashpad8internal20ExceptionSnapshotMacD2Ev, symObjAddr: 0x68, symBinAddr: 0x100036C14, symSize: 0x34 }
  - { offset: 0x40E111, size: 0x8, addend: 0x0, symName: __ZN8crashpad8internal20ExceptionSnapshotMacD2Ev, symObjAddr: 0x68, symBinAddr: 0x100036C14, symSize: 0x34 }
  - { offset: 0x40E24E, size: 0x8, addend: 0x0, symName: __ZN8crashpad8internal20ExceptionSnapshotMacD1Ev, symObjAddr: 0x9C, symBinAddr: 0x100036C48, symSize: 0x34 }
  - { offset: 0x40E274, size: 0x8, addend: 0x0, symName: __ZN8crashpad8internal20ExceptionSnapshotMacD1Ev, symObjAddr: 0x9C, symBinAddr: 0x100036C48, symSize: 0x34 }
  - { offset: 0x40E293, size: 0x8, addend: 0x0, symName: __ZN8crashpad8internal20ExceptionSnapshotMacD1Ev, symObjAddr: 0x9C, symBinAddr: 0x100036C48, symSize: 0x34 }
  - { offset: 0x40E2B2, size: 0x8, addend: 0x0, symName: __ZN8crashpad8internal20ExceptionSnapshotMacD1Ev, symObjAddr: 0x9C, symBinAddr: 0x100036C48, symSize: 0x34 }
  - { offset: 0x40E2D2, size: 0x8, addend: 0x0, symName: __ZN8crashpad8internal20ExceptionSnapshotMacD1Ev, symObjAddr: 0x9C, symBinAddr: 0x100036C48, symSize: 0x34 }
  - { offset: 0x40E410, size: 0x8, addend: 0x0, symName: __ZN8crashpad8internal20ExceptionSnapshotMacD0Ev, symObjAddr: 0xD0, symBinAddr: 0x100036C7C, symSize: 0x34 }
  - { offset: 0x40E440, size: 0x8, addend: 0x0, symName: __ZN8crashpad8internal20ExceptionSnapshotMacD0Ev, symObjAddr: 0xD0, symBinAddr: 0x100036C7C, symSize: 0x34 }
  - { offset: 0x40E45F, size: 0x8, addend: 0x0, symName: __ZN8crashpad8internal20ExceptionSnapshotMacD0Ev, symObjAddr: 0xD0, symBinAddr: 0x100036C7C, symSize: 0x34 }
  - { offset: 0x40E47E, size: 0x8, addend: 0x0, symName: __ZN8crashpad8internal20ExceptionSnapshotMacD0Ev, symObjAddr: 0xD0, symBinAddr: 0x100036C7C, symSize: 0x34 }
  - { offset: 0x40E49D, size: 0x8, addend: 0x0, symName: __ZN8crashpad8internal20ExceptionSnapshotMacD0Ev, symObjAddr: 0xD0, symBinAddr: 0x100036C7C, symSize: 0x34 }
  - { offset: 0x40E4BD, size: 0x8, addend: 0x0, symName: __ZN8crashpad8internal20ExceptionSnapshotMacD0Ev, symObjAddr: 0xD0, symBinAddr: 0x100036C7C, symSize: 0x34 }
  - { offset: 0x40EA94, size: 0x8, addend: 0x0, symName: __ZN8crashpad8internal20ExceptionSnapshotMac10InitializeEPNS_16ProcessReaderMacEijiPKxjiPKjj, symObjAddr: 0x104, symBinAddr: 0x100036CB0, symSize: 0x754 }
  - { offset: 0x4108D3, size: 0x8, addend: 0x0, symName: __ZNK8crashpad8internal20ExceptionSnapshotMac7ContextEv, symObjAddr: 0x858, symBinAddr: 0x100037404, symSize: 0x8 }
  - { offset: 0x4108FC, size: 0x8, addend: 0x0, symName: __ZNK8crashpad8internal20ExceptionSnapshotMac8ThreadIDEv, symObjAddr: 0x860, symBinAddr: 0x10003740C, symSize: 0x8 }
  - { offset: 0x410925, size: 0x8, addend: 0x0, symName: __ZNK8crashpad8internal20ExceptionSnapshotMac9ExceptionEv, symObjAddr: 0x868, symBinAddr: 0x100037414, symSize: 0x8 }
  - { offset: 0x41094E, size: 0x8, addend: 0x0, symName: __ZNK8crashpad8internal20ExceptionSnapshotMac13ExceptionInfoEv, symObjAddr: 0x870, symBinAddr: 0x10003741C, symSize: 0x8 }
  - { offset: 0x410977, size: 0x8, addend: 0x0, symName: __ZNK8crashpad8internal20ExceptionSnapshotMac16ExceptionAddressEv, symObjAddr: 0x878, symBinAddr: 0x100037424, symSize: 0x8 }
  - { offset: 0x4109A0, size: 0x8, addend: 0x0, symName: __ZNK8crashpad8internal20ExceptionSnapshotMac5CodesEv, symObjAddr: 0x880, symBinAddr: 0x10003742C, symSize: 0x8 }
  - { offset: 0x410A02, size: 0x8, addend: 0x0, symName: __ZNK8crashpad8internal20ExceptionSnapshotMac11ExtraMemoryEv, symObjAddr: 0x888, symBinAddr: 0x100037434, symSize: 0xC }
  - { offset: 0x410A2B, size: 0x8, addend: 0x0, symName: __ZNK8crashpad8internal20ExceptionSnapshotMac11ExtraMemoryEv, symObjAddr: 0x888, symBinAddr: 0x100037434, symSize: 0xC }
  - { offset: 0x410A49, size: 0x8, addend: 0x0, symName: __ZNK8crashpad8internal20ExceptionSnapshotMac11ExtraMemoryEv, symObjAddr: 0x888, symBinAddr: 0x100037434, symSize: 0xC }
  - { offset: 0x426A14, size: 0x8, addend: 0x0, symName: __ZN8crashpad27MachOImageAnnotationsReaderC2EPNS_16ProcessReaderMacEPKNS_16MachOImageReaderERKNSt3__112basic_stringIcNS6_11char_traitsIcEENS6_9allocatorIcEEEE, symObjAddr: 0x0, symBinAddr: 0x100037440, symSize: 0x68 }
  - { offset: 0x426C5C, size: 0x8, addend: 0x0, symName: __ZN8crashpad27MachOImageAnnotationsReaderC1EPNS_16ProcessReaderMacEPKNS_16MachOImageReaderERKNSt3__112basic_stringIcNS6_11char_traitsIcEENS6_9allocatorIcEEEE, symObjAddr: 0x68, symBinAddr: 0x1000374A8, symSize: 0x68 }
  - { offset: 0x426DB4, size: 0x8, addend: 0x0, symName: __ZNK8crashpad27MachOImageAnnotationsReader6VectorEv, symObjAddr: 0xD0, symBinAddr: 0x100037510, symSize: 0x50 }
  - { offset: 0x426E77, size: 0x8, addend: 0x0, symName: __ZNK8crashpad27MachOImageAnnotationsReader34ReadCrashReporterClientAnnotationsEPNSt3__16vectorINS1_12basic_stringIcNS1_11char_traitsIcEENS1_9allocatorIcEEEENS6_IS8_EEEE, symObjAddr: 0x120, symBinAddr: 0x100037560, symSize: 0x5D4 }
  - { offset: 0x428610, size: 0x8, addend: 0x0, symName: __ZNK8crashpad27MachOImageAnnotationsReader29ReadDyldErrorStringAnnotationEPNSt3__16vectorINS1_12basic_stringIcNS1_11char_traitsIcEENS1_9allocatorIcEEEENS6_IS8_EEEE, symObjAddr: 0x6F4, symBinAddr: 0x100037B34, symSize: 0x214 }
  - { offset: 0x429CC3, size: 0x8, addend: 0x0, symName: __ZNK8crashpad27MachOImageAnnotationsReader9SimpleMapEv, symObjAddr: 0x978, symBinAddr: 0x100037D48, symSize: 0x48 }
  - { offset: 0x429EA3, size: 0x8, addend: 0x0, symName: __ZNK8crashpad27MachOImageAnnotationsReader29ReadCrashpadSimpleAnnotationsEPNSt3__13mapINS1_12basic_stringIcNS1_11char_traitsIcEENS1_9allocatorIcEEEES8_NS1_4lessIS8_EENS6_INS1_4pairIKS8_S8_EEEEEE, symObjAddr: 0x9C0, symBinAddr: 0x100037D90, symSize: 0x498 }
  - { offset: 0x42C232, size: 0x8, addend: 0x0, symName: __ZNK8crashpad27MachOImageAnnotationsReader15AnnotationsListEv, symObjAddr: 0xE58, symBinAddr: 0x100038228, symSize: 0x40 }
  - { offset: 0x42C2DA, size: 0x8, addend: 0x0, symName: __ZNK8crashpad27MachOImageAnnotationsReader27ReadCrashpadAnnotationsListEPNSt3__16vectorINS_18AnnotationSnapshotENS1_9allocatorIS3_EEEE, symObjAddr: 0xE98, symBinAddr: 0x100038268, symSize: 0x45C }
  - { offset: 0x43E8BB, size: 0x8, addend: 0x0, symName: __ZNSt3__1eqB8ne190102IcNS_11char_traitsIcEENS_9allocatorIcEEEEbRKNS_12basic_stringIT_T0_T1_EEPKS6_, symObjAddr: 0x1FFC, symBinAddr: 0x10003A6C0, symSize: 0x8C }
  - { offset: 0x43F061, size: 0x8, addend: 0x0, symName: __ZNSt3__120__throw_out_of_rangeB8ne190102EPKc, symObjAddr: 0x2DCC, symBinAddr: 0x10003AFD8, symSize: 0x50 }
  - { offset: 0x442CC2, size: 0x8, addend: 0x0, symName: __ZN8crashpad16MachOImageReaderC2Ev, symObjAddr: 0x0, symBinAddr: 0x1000386C4, symSize: 0x38 }
  - { offset: 0x442EB7, size: 0x8, addend: 0x0, symName: __ZN8crashpad16MachOImageReaderC1Ev, symObjAddr: 0x38, symBinAddr: 0x1000386FC, symSize: 0x38 }
  - { offset: 0x442EE5, size: 0x8, addend: 0x0, symName: __ZN8crashpad16MachOImageReaderC1Ev, symObjAddr: 0x38, symBinAddr: 0x1000386FC, symSize: 0x38 }
  - { offset: 0x443645, size: 0x8, addend: 0x0, symName: __ZN8crashpad16MachOImageReaderD2Ev, symObjAddr: 0x70, symBinAddr: 0x100038734, symSize: 0x130 }
  - { offset: 0x4440E3, size: 0x8, addend: 0x0, symName: __ZN8crashpad16MachOImageReaderD1Ev, symObjAddr: 0x1A0, symBinAddr: 0x100038864, symSize: 0x4 }
  - { offset: 0x444110, size: 0x8, addend: 0x0, symName: __ZN8crashpad16MachOImageReaderD1Ev, symObjAddr: 0x1A0, symBinAddr: 0x100038864, symSize: 0x4 }
  - { offset: 0x4448BD, size: 0x8, addend: 0x0, symName: __ZN8crashpad16MachOImageReader10InitializeEPNS_16ProcessReaderMacEyRKNSt3__112basic_stringIcNS3_11char_traitsIcEENS3_9allocatorIcEEEE, symObjAddr: 0x1A4, symBinAddr: 0x100038868, symSize: 0xDF8 }
  - { offset: 0x4475A6, size: 0x8, addend: 0x0, symName: __ZN8crashpad16MachOImageReader18ReadSegmentCommandEyRKNSt3__112basic_stringIcNS1_11char_traitsIcEENS1_9allocatorIcEEEE, symObjAddr: 0xF9C, symBinAddr: 0x100039660, symSize: 0x448 }
  - { offset: 0x448C9A, size: 0x8, addend: 0x0, symName: __ZNSt3__16__treeINS_12__value_typeINS_12basic_stringIcNS_11char_traitsIcEENS_9allocatorIcEEEEmEENS_19__map_value_compareIS7_S8_NS_4lessIS7_EELb1EEENS5_IS8_EEE25__emplace_unique_key_argsIS7_JNS_4pairIS7_mEEEEENSG_INS_15__tree_iteratorIS8_PNS_11__tree_nodeIS8_PvEElEEbEERKT_DpOT0_, symObjAddr: 0x2E54, symBinAddr: 0x10003B04C, symSize: 0x170 }
  - { offset: 0x449296, size: 0x8, addend: 0x0, symName: __ZNSt3__16__treeINS_12__value_typeINS_12basic_stringIcNS_11char_traitsIcEENS_9allocatorIcEEEEmEENS_19__map_value_compareIS7_S8_NS_4lessIS7_EELb1EEENS5_IS8_EEE25__emplace_unique_key_argsIS7_JNS_4pairIS7_mEEEEENSG_INS_15__tree_iteratorIS8_PNS_11__tree_nodeIS8_PvEElEEbEERKT_DpOT0_, symObjAddr: 0x2E54, symBinAddr: 0x10003B04C, symSize: 0x170 }
  - { offset: 0x4492A1, size: 0x8, addend: 0x0, symName: __ZNSt3__110unique_ptrIN8crashpad23MachOImageSegmentReaderENS_14default_deleteIS2_EEED1B8ne190102Ev, symObjAddr: 0x248C, symBinAddr: 0x10003AB50, symSize: 0x3C }
  - { offset: 0x44935D, size: 0x8, addend: 0x0, symName: __ZN8crashpad16MachOImageReader17ReadSymTabCommandEyRKNSt3__112basic_stringIcNS1_11char_traitsIcEENS1_9allocatorIcEEEE, symObjAddr: 0x13E4, symBinAddr: 0x100039AA8, symSize: 0x64 }
  - { offset: 0x449430, size: 0x8, addend: 0x0, symName: __ZN8crashpad16MachOImageReader15ReadLoadCommandINS_13process_types14symtab_commandEEEbyRKNSt3__112basic_stringIcNS4_11char_traitsIcEENS4_9allocatorIcEEEEjPT_, symObjAddr: 0x24C8, symBinAddr: 0x10003AB8C, symSize: 0xB4 }
  - { offset: 0x4495D4, size: 0x8, addend: 0x0, symName: __ZN8crashpad16MachOImageReader19ReadDySymTabCommandEyRKNSt3__112basic_stringIcNS1_11char_traitsIcEENS1_9allocatorIcEEEE, symObjAddr: 0x1448, symBinAddr: 0x100039B0C, symSize: 0x70 }
  - { offset: 0x4496A7, size: 0x8, addend: 0x0, symName: __ZN8crashpad16MachOImageReader15ReadLoadCommandINS_13process_types16dysymtab_commandEEEbyRKNSt3__112basic_stringIcNS4_11char_traitsIcEENS4_9allocatorIcEEEEjPT_, symObjAddr: 0x257C, symBinAddr: 0x10003AC40, symSize: 0xB4 }
  - { offset: 0x449846, size: 0x8, addend: 0x0, symName: __ZN8crashpad16MachOImageReader18ReadIdDylibCommandEyRKNSt3__112basic_stringIcNS1_11char_traitsIcEENS1_9allocatorIcEEEE, symObjAddr: 0x14B8, symBinAddr: 0x100039B7C, symSize: 0x15C }
  - { offset: 0x449CE4, size: 0x8, addend: 0x0, symName: __ZN8crashpad16MachOImageReader15ReadLoadCommandINS_13process_types13dylib_commandEEEbyRKNSt3__112basic_stringIcNS4_11char_traitsIcEENS4_9allocatorIcEEEEjPT_, symObjAddr: 0x2630, symBinAddr: 0x10003ACF4, symSize: 0xB4 }
  - { offset: 0x449EC4, size: 0x8, addend: 0x0, symName: __ZN8crashpad16MachOImageReader19ReadDylinkerCommandEyRKNSt3__112basic_stringIcNS1_11char_traitsIcEENS1_9allocatorIcEEEE, symObjAddr: 0x1614, symBinAddr: 0x100039CD8, symSize: 0x1D4 }
  - { offset: 0x44A46B, size: 0x8, addend: 0x0, symName: __ZN8crashpad16MachOImageReader15ReadLoadCommandINS_13process_types16dylinker_commandEEEbyRKNSt3__112basic_stringIcNS4_11char_traitsIcEENS4_9allocatorIcEEEEjPT_, symObjAddr: 0x26E4, symBinAddr: 0x10003ADA8, symSize: 0xB4 }
  - { offset: 0x44A5F4, size: 0x8, addend: 0x0, symName: __ZN8crashpad16MachOImageReader15ReadUUIDCommandEyRKNSt3__112basic_stringIcNS1_11char_traitsIcEENS1_9allocatorIcEEEE, symObjAddr: 0x17E8, symBinAddr: 0x100039EAC, symSize: 0x80 }
  - { offset: 0x44A69F, size: 0x8, addend: 0x0, symName: __ZN8crashpad16MachOImageReader15ReadLoadCommandINS_13process_types12uuid_commandEEEbyRKNSt3__112basic_stringIcNS4_11char_traitsIcEENS4_9allocatorIcEEEEjPT_, symObjAddr: 0x2798, symBinAddr: 0x10003AE5C, symSize: 0xB4 }
  - { offset: 0x44A828, size: 0x8, addend: 0x0, symName: __ZN8crashpad16MachOImageReader24ReadSourceVersionCommandEyRKNSt3__112basic_stringIcNS1_11char_traitsIcEENS1_9allocatorIcEEEE, symObjAddr: 0x1868, symBinAddr: 0x100039F2C, symSize: 0x3C }
  - { offset: 0x44A8C8, size: 0x8, addend: 0x0, symName: __ZN8crashpad16MachOImageReader15ReadLoadCommandINS_13process_types22source_version_commandEEEbyRKNSt3__112basic_stringIcNS4_11char_traitsIcEENS4_9allocatorIcEEEEjPT_, symObjAddr: 0x284C, symBinAddr: 0x10003AF10, symSize: 0xB4 }
  - { offset: 0x44AA51, size: 0x8, addend: 0x0, symName: __ZN8crashpad16MachOImageReader21ReadUnexpectedCommandEyRKNSt3__112basic_stringIcNS1_11char_traitsIcEENS1_9allocatorIcEEEE, symObjAddr: 0x18A4, symBinAddr: 0x100039F68, symSize: 0xA0 }
  - { offset: 0x44AC42, size: 0x8, addend: 0x0, symName: __ZNK8crashpad16MachOImageReader16GetSegmentByNameERKNSt3__112basic_stringIcNS1_11char_traitsIcEENS1_9allocatorIcEEEE, symObjAddr: 0x1944, symBinAddr: 0x10003A008, symSize: 0x130 }
  - { offset: 0x44B04C, size: 0x8, addend: 0x0, symName: __ZNK8crashpad16MachOImageReader16GetSectionByNameERKNSt3__112basic_stringIcNS1_11char_traitsIcEENS1_9allocatorIcEEEES9_Py, symObjAddr: 0x1A74, symBinAddr: 0x10003A138, symSize: 0x3C }
  - { offset: 0x44B0FD, size: 0x8, addend: 0x0, symName: __ZNK8crashpad16MachOImageReader17GetSectionAtIndexEmPPKNS_23MachOImageSegmentReaderEPy, symObjAddr: 0x1AB0, symBinAddr: 0x10003A174, symSize: 0x168 }
  - { offset: 0x44B404, size: 0x8, addend: 0x0, symName: __ZNK8crashpad16MachOImageReader27LookUpExternalDefinedSymbolERKNSt3__112basic_stringIcNS1_11char_traitsIcEENS1_9allocatorIcEEEEPy, symObjAddr: 0x1C18, symBinAddr: 0x10003A2DC, symSize: 0x284 }
  - { offset: 0x44BE2C, size: 0x8, addend: 0x0, symName: __ZNK8crashpad16MachOImageReader21InitializeSymbolTableEv, symObjAddr: 0x1E9C, symBinAddr: 0x10003A560, symSize: 0x160 }
  - { offset: 0x44C1CC, size: 0x8, addend: 0x0, symName: __ZNKSt3__112basic_stringIcNS_11char_traitsIcEENS_9allocatorIcEEE20__throw_out_of_rangeB8ne190102Ev, symObjAddr: 0x2DB8, symBinAddr: 0x10003AFC4, symSize: 0x14 }
  - { offset: 0x44C1F6, size: 0x8, addend: 0x0, symName: __ZNSt3__120__throw_out_of_rangeB8ne190102EPKc, symObjAddr: 0x2DCC, symBinAddr: 0x10003AFD8, symSize: 0x50 }
  - { offset: 0x44C201, size: 0x8, addend: 0x0, symName: __ZNK8crashpad16MachOImageReader12DylibVersionEv, symObjAddr: 0x2088, symBinAddr: 0x10003A74C, symSize: 0x18 }
  - { offset: 0x44C22E, size: 0x8, addend: 0x0, symName: __ZNK8crashpad16MachOImageReader12DylibVersionEv, symObjAddr: 0x2088, symBinAddr: 0x10003A74C, symSize: 0x18 }
  - { offset: 0x44C24D, size: 0x8, addend: 0x0, symName: __ZNK8crashpad16MachOImageReader4UUIDEPNS_4UUIDE, symObjAddr: 0x20A0, symBinAddr: 0x10003A764, symSize: 0xC }
  - { offset: 0x44C2FD, size: 0x8, addend: 0x0, symName: __ZNK8crashpad16MachOImageReader15GetCrashpadInfoEPNS_13process_types12CrashpadInfoE, symObjAddr: 0x20AC, symBinAddr: 0x10003A770, symSize: 0x3E0 }
  - { offset: 0x44D695, size: 0x8, addend: 0x0, symName: __ZNSt12out_of_rangeC1B8ne190102EPKc, symObjAddr: 0x2E1C, symBinAddr: 0x10003B028, symSize: 0x24 }
  - { offset: 0x45ABDF, size: 0x8, addend: 0x0, symName: __ZN8crashpad26IsMalformedCLKernelsModuleEjRKNSt3__112basic_stringIcNS0_11char_traitsIcEENS0_9allocatorIcEEEE, symObjAddr: 0x0, symBinAddr: 0x10003B1BC, symSize: 0x8 }
  - { offset: 0x45B8A3, size: 0x8, addend: 0x0, symName: __ZN8crashpad23MachOImageSegmentReaderC2Ev, symObjAddr: 0x8, symBinAddr: 0x10003B1C4, symSize: 0x24 }
  - { offset: 0x45B9E1, size: 0x8, addend: 0x0, symName: __ZN8crashpad23MachOImageSegmentReaderC1Ev, symObjAddr: 0x2C, symBinAddr: 0x10003B1E8, symSize: 0x24 }
  - { offset: 0x45BA0F, size: 0x8, addend: 0x0, symName: __ZN8crashpad23MachOImageSegmentReaderC1Ev, symObjAddr: 0x2C, symBinAddr: 0x10003B1E8, symSize: 0x24 }
  - { offset: 0x45BCA7, size: 0x8, addend: 0x0, symName: __ZN8crashpad23MachOImageSegmentReaderD2Ev, symObjAddr: 0x50, symBinAddr: 0x10003B20C, symSize: 0x3C }
  - { offset: 0x45C05A, size: 0x8, addend: 0x0, symName: __ZN8crashpad23MachOImageSegmentReaderD1Ev, symObjAddr: 0x8C, symBinAddr: 0x10003B248, symSize: 0x3C }
  - { offset: 0x45C90F, size: 0x8, addend: 0x0, symName: __ZN8crashpad23MachOImageSegmentReader10InitializeEPNS_16ProcessReaderMacEyRKNSt3__112basic_stringIcNS3_11char_traitsIcEENS3_9allocatorIcEEEESB_j, symObjAddr: 0xC8, symBinAddr: 0x10003B284, symSize: 0xB60 }
  - { offset: 0x45FA43, size: 0x8, addend: 0x0, symName: __ZNSt3__16vectorIN8crashpad13process_types7sectionENS_9allocatorIS3_EEE8__appendEm, symObjAddr: 0x1890, symBinAddr: 0x10003C594, symSize: 0x194 }
  - { offset: 0x45FE62, size: 0x8, addend: 0x0, symName: __ZN8crashpad23MachOImageSegmentReader27SegmentAndSectionNameStringEPKcS2_, symObjAddr: 0xE24, symBinAddr: 0x10003BFE0, symSize: 0x1E8 }
  - { offset: 0x460F20, size: 0x8, addend: 0x0, symName: __ZNK8crashpad23MachOImageSegmentReader12NameInternalEv, symObjAddr: 0xC28, symBinAddr: 0x10003BDE4, symSize: 0xAC }
  - { offset: 0x46118E, size: 0x8, addend: 0x0, symName: __ZN8crashpad23MachOImageSegmentReader17SegmentNameStringEPKc, symObjAddr: 0xCD4, symBinAddr: 0x10003BE90, symSize: 0xA8 }
  - { offset: 0x4611A0, size: 0x8, addend: 0x0, symName: __ZN8crashpad23MachOImageSegmentReader17SegmentNameStringEPKc, symObjAddr: 0xCD4, symBinAddr: 0x10003BE90, symSize: 0xA8 }
  - { offset: 0x461446, size: 0x8, addend: 0x0, symName: __ZN8crashpad23MachOImageSegmentReader17SectionNameStringEPKc, symObjAddr: 0xD7C, symBinAddr: 0x10003BF38, symSize: 0xA8 }
  - { offset: 0x461458, size: 0x8, addend: 0x0, symName: __ZN8crashpad23MachOImageSegmentReader17SectionNameStringEPKc, symObjAddr: 0xD7C, symBinAddr: 0x10003BF38, symSize: 0xA8 }
  - { offset: 0x4616FE, size: 0x8, addend: 0x0, symName: __ZN8crashpad23MachOImageSegmentReader27SegmentAndSectionNameStringEPKcS2_, symObjAddr: 0xE24, symBinAddr: 0x10003BFE0, symSize: 0x1E8 }
  - { offset: 0x461710, size: 0x8, addend: 0x0, symName: __ZNK8crashpad23MachOImageSegmentReader4NameEv, symObjAddr: 0x100C, symBinAddr: 0x10003C1C8, symSize: 0xAC }
  - { offset: 0x46199C, size: 0x8, addend: 0x0, symName: __ZNK8crashpad23MachOImageSegmentReader7AddressEv, symObjAddr: 0x10B8, symBinAddr: 0x10003C274, symSize: 0x44 }
  - { offset: 0x4619DC, size: 0x8, addend: 0x0, symName: __ZNK8crashpad23MachOImageSegmentReader7AddressEv, symObjAddr: 0x10B8, symBinAddr: 0x10003C274, symSize: 0x44 }
  - { offset: 0x461A08, size: 0x8, addend: 0x0, symName: __ZNK8crashpad23MachOImageSegmentReader7AddressEv, symObjAddr: 0x10B8, symBinAddr: 0x10003C274, symSize: 0x44 }
  - { offset: 0x461A3B, size: 0x8, addend: 0x0, symName: __ZNK8crashpad23MachOImageSegmentReader13SegmentSlidesEv, symObjAddr: 0x10FC, symBinAddr: 0x10003C2B8, symSize: 0x3C }
  - { offset: 0x461A74, size: 0x8, addend: 0x0, symName: __ZNK8crashpad23MachOImageSegmentReader4SizeEv, symObjAddr: 0x1138, symBinAddr: 0x10003C2F4, symSize: 0x5C }
  - { offset: 0x461AA4, size: 0x8, addend: 0x0, symName: __ZNK8crashpad23MachOImageSegmentReader4SizeEv, symObjAddr: 0x1138, symBinAddr: 0x10003C2F4, symSize: 0x5C }
  - { offset: 0x461CB9, size: 0x8, addend: 0x0, symName: __ZNK8crashpad23MachOImageSegmentReader16GetSectionByNameERKNSt3__112basic_stringIcNS1_11char_traitsIcEENS1_9allocatorIcEEEEPy, symObjAddr: 0x1194, symBinAddr: 0x10003C350, symSize: 0x140 }
  - { offset: 0x4620A5, size: 0x8, addend: 0x0, symName: __ZNK8crashpad23MachOImageSegmentReader17GetSectionAtIndexEmPy, symObjAddr: 0x12D4, symBinAddr: 0x10003C490, symSize: 0xFC }
  - { offset: 0x4621DF, size: 0x8, addend: 0x0, symName: __ZN8crashpad23MachOImageSegmentReader8SetSlideEy, symObjAddr: 0x13D0, symBinAddr: 0x10003C58C, symSize: 0x8 }
  - { offset: 0x472EFF, size: 0x8, addend: 0x0, symName: __ZN8crashpad27MachOImageSymbolTableReaderC2Ev, symObjAddr: 0x0, symBinAddr: 0x10003C728, symSize: 0x14 }
  - { offset: 0x472F23, size: 0x8, addend: 0x0, symName: __ZN8crashpad27MachOImageSymbolTableReaderC2Ev, symObjAddr: 0x0, symBinAddr: 0x10003C728, symSize: 0x14 }
  - { offset: 0x472F41, size: 0x8, addend: 0x0, symName: __ZN8crashpad27MachOImageSymbolTableReaderC2Ev, symObjAddr: 0x0, symBinAddr: 0x10003C728, symSize: 0x14 }
  - { offset: 0x472F5F, size: 0x8, addend: 0x0, symName: __ZN8crashpad27MachOImageSymbolTableReaderC2Ev, symObjAddr: 0x0, symBinAddr: 0x10003C728, symSize: 0x14 }
  - { offset: 0x472F7D, size: 0x8, addend: 0x0, symName: __ZN8crashpad27MachOImageSymbolTableReaderC2Ev, symObjAddr: 0x0, symBinAddr: 0x10003C728, symSize: 0x14 }
  - { offset: 0x472F9B, size: 0x8, addend: 0x0, symName: __ZN8crashpad27MachOImageSymbolTableReaderC2Ev, symObjAddr: 0x0, symBinAddr: 0x10003C728, symSize: 0x14 }
  - { offset: 0x472FBB, size: 0x8, addend: 0x0, symName: __ZN8crashpad27MachOImageSymbolTableReaderC2Ev, symObjAddr: 0x0, symBinAddr: 0x10003C728, symSize: 0x14 }
  - { offset: 0x472FDA, size: 0x8, addend: 0x0, symName: __ZN8crashpad27MachOImageSymbolTableReaderC2Ev, symObjAddr: 0x0, symBinAddr: 0x10003C728, symSize: 0x14 }
  - { offset: 0x47301F, size: 0x8, addend: 0x0, symName: __ZN8crashpad27MachOImageSymbolTableReaderC1Ev, symObjAddr: 0x14, symBinAddr: 0x10003C73C, symSize: 0x14 }
  - { offset: 0x47304E, size: 0x8, addend: 0x0, symName: __ZN8crashpad27MachOImageSymbolTableReaderC1Ev, symObjAddr: 0x14, symBinAddr: 0x10003C73C, symSize: 0x14 }
  - { offset: 0x47306C, size: 0x8, addend: 0x0, symName: __ZN8crashpad27MachOImageSymbolTableReaderC1Ev, symObjAddr: 0x14, symBinAddr: 0x10003C73C, symSize: 0x14 }
  - { offset: 0x47308A, size: 0x8, addend: 0x0, symName: __ZN8crashpad27MachOImageSymbolTableReaderC1Ev, symObjAddr: 0x14, symBinAddr: 0x10003C73C, symSize: 0x14 }
  - { offset: 0x4730A8, size: 0x8, addend: 0x0, symName: __ZN8crashpad27MachOImageSymbolTableReaderC1Ev, symObjAddr: 0x14, symBinAddr: 0x10003C73C, symSize: 0x14 }
  - { offset: 0x4730C6, size: 0x8, addend: 0x0, symName: __ZN8crashpad27MachOImageSymbolTableReaderC1Ev, symObjAddr: 0x14, symBinAddr: 0x10003C73C, symSize: 0x14 }
  - { offset: 0x4730E4, size: 0x8, addend: 0x0, symName: __ZN8crashpad27MachOImageSymbolTableReaderC1Ev, symObjAddr: 0x14, symBinAddr: 0x10003C73C, symSize: 0x14 }
  - { offset: 0x473104, size: 0x8, addend: 0x0, symName: __ZN8crashpad27MachOImageSymbolTableReaderC1Ev, symObjAddr: 0x14, symBinAddr: 0x10003C73C, symSize: 0x14 }
  - { offset: 0x473123, size: 0x8, addend: 0x0, symName: __ZN8crashpad27MachOImageSymbolTableReaderC1Ev, symObjAddr: 0x14, symBinAddr: 0x10003C73C, symSize: 0x14 }
  - { offset: 0x4731CE, size: 0x8, addend: 0x0, symName: __ZN8crashpad27MachOImageSymbolTableReaderD2Ev, symObjAddr: 0x28, symBinAddr: 0x10003C750, symSize: 0x28 }
  - { offset: 0x473473, size: 0x8, addend: 0x0, symName: __ZN8crashpad27MachOImageSymbolTableReaderD1Ev, symObjAddr: 0x50, symBinAddr: 0x10003C778, symSize: 0x28 }
  - { offset: 0x4736CF, size: 0x8, addend: 0x0, symName: __ZN8crashpad27MachOImageSymbolTableReader10InitializeEPNS_16ProcessReaderMacEPKNS_13process_types14symtab_commandEPKNS3_16dysymtab_commandEPKNS_23MachOImageSegmentReaderERKNSt3__112basic_stringIcNSD_11char_traitsIcEENSD_9allocatorIcEEEE, symObjAddr: 0x78, symBinAddr: 0x10003C7A0, symSize: 0xA4 }
  - { offset: 0x473AAA, size: 0x8, addend: 0x0, symName: __ZN8crashpad8internal38MachOImageSymbolTableReaderInitializerC2EPNS_16ProcessReaderMacEPKNS_23MachOImageSegmentReaderERKNSt3__112basic_stringIcNS7_11char_traitsIcEENS7_9allocatorIcEEEE, symObjAddr: 0xBD8, symBinAddr: 0x10003D300, symSize: 0xA8 }
  - { offset: 0x473CC1, size: 0x8, addend: 0x0, symName: __ZN8crashpad8internal38MachOImageSymbolTableReaderInitializer10InitializeEPKNS_13process_types14symtab_commandEPKNS2_16dysymtab_commandEPNSt3__13mapINS9_12basic_stringIcNS9_11char_traitsIcEENS9_9allocatorIcEEEENS_27MachOImageSymbolTableReader17SymbolInformationENS9_4lessISG_EENSE_INS9_4pairIKSG_SI_EEEEEE, symObjAddr: 0x11C, symBinAddr: 0x10003C844, symSize: 0x998 }
  - { offset: 0x4766D0, size: 0x8, addend: 0x0, symName: __ZNK8crashpad8internal38MachOImageSymbolTableReaderInitializer19IsInLinkEditSegmentEyyPKc, symObjAddr: 0xDA4, symBinAddr: 0x10003D3A8, symSize: 0x1FC }
  - { offset: 0x476B90, size: 0x8, addend: 0x0, symName: __ZNSt3__16__treeINS_12__value_typeINS_12basic_stringIcNS_11char_traitsIcEENS_9allocatorIcEEEEN8crashpad27MachOImageSymbolTableReader17SymbolInformationEEENS_19__map_value_compareIS7_SB_NS_4lessIS7_EELb1EEENS5_ISB_EEE25__emplace_unique_key_argsIS7_JNS_4pairIS7_SA_EEEEENSJ_INS_15__tree_iteratorISB_PNS_11__tree_nodeISB_PvEElEEbEERKT_DpOT0_, symObjAddr: 0x12E8, symBinAddr: 0x10003D5E0, symSize: 0x178 }
  - { offset: 0x477174, size: 0x8, addend: 0x0, symName: __ZNSt3__110unique_ptrIN8crashpad16ProcessMemoryMac12MappedMemoryENS_14default_deleteIS3_EEED1B8ne190102Ev, symObjAddr: 0xFA0, symBinAddr: 0x10003D5A4, symSize: 0x3C }
  - { offset: 0x477436, size: 0x8, addend: 0x0, symName: __ZNK8crashpad27MachOImageSymbolTableReader27LookUpExternalDefinedSymbolERKNSt3__112basic_stringIcNS1_11char_traitsIcEENS1_9allocatorIcEEEE, symObjAddr: 0xAB4, symBinAddr: 0x10003D1DC, symSize: 0x124 }
  - { offset: 0x479DD4, size: 0x8, addend: 0x0, symName: __ZN8crashpad8internal17ModuleSnapshotMacC2Ev, symObjAddr: 0x0, symBinAddr: 0x10003D758, symSize: 0x20 }
  - { offset: 0x487175, size: 0x8, addend: 0x0, symName: __ZN8crashpad8internal17ModuleSnapshotMacC2Ev, symObjAddr: 0x0, symBinAddr: 0x10003D758, symSize: 0x20 }
  - { offset: 0x4871B7, size: 0x8, addend: 0x0, symName: __ZN8crashpad8internal17ModuleSnapshotMacC1Ev, symObjAddr: 0x20, symBinAddr: 0x10003D778, symSize: 0x20 }
  - { offset: 0x4871E5, size: 0x8, addend: 0x0, symName: __ZN8crashpad8internal17ModuleSnapshotMacC1Ev, symObjAddr: 0x20, symBinAddr: 0x10003D778, symSize: 0x20 }
  - { offset: 0x4872C5, size: 0x8, addend: 0x0, symName: __ZN8crashpad8internal17ModuleSnapshotMacD2Ev, symObjAddr: 0x40, symBinAddr: 0x10003D798, symSize: 0x38 }
  - { offset: 0x48731A, size: 0x8, addend: 0x0, symName: __ZN8crashpad8internal17ModuleSnapshotMacD2Ev, symObjAddr: 0x40, symBinAddr: 0x10003D798, symSize: 0x38 }
  - { offset: 0x487436, size: 0x8, addend: 0x0, symName: __ZN8crashpad8internal17ModuleSnapshotMacD1Ev, symObjAddr: 0x78, symBinAddr: 0x10003D7D0, symSize: 0x38 }
  - { offset: 0x4874A2, size: 0x8, addend: 0x0, symName: __ZN8crashpad8internal17ModuleSnapshotMacD1Ev, symObjAddr: 0x78, symBinAddr: 0x10003D7D0, symSize: 0x38 }
  - { offset: 0x4875BF, size: 0x8, addend: 0x0, symName: __ZN8crashpad8internal17ModuleSnapshotMacD0Ev, symObjAddr: 0xB0, symBinAddr: 0x10003D808, symSize: 0x38 }
  - { offset: 0x48764C, size: 0x8, addend: 0x0, symName: __ZN8crashpad8internal17ModuleSnapshotMacD0Ev, symObjAddr: 0xB0, symBinAddr: 0x10003D808, symSize: 0x38 }
  - { offset: 0x48774E, size: 0x8, addend: 0x0, symName: __ZN8crashpad8internal17ModuleSnapshotMac10InitializeEPNS_16ProcessReaderMacERKNS2_6ModuleE, symObjAddr: 0xE8, symBinAddr: 0x10003D840, symSize: 0x40 }
  - { offset: 0x487797, size: 0x8, addend: 0x0, symName: __ZN8crashpad8internal17ModuleSnapshotMac18GetCrashpadOptionsEPNS_25CrashpadInfoClientOptionsE, symObjAddr: 0x128, symBinAddr: 0x10003D880, symSize: 0x7C }
  - { offset: 0x487843, size: 0x8, addend: 0x0, symName: __ZNK8crashpad8internal17ModuleSnapshotMac4NameEv, symObjAddr: 0x1A4, symBinAddr: 0x10003D8FC, symSize: 0x28 }
  - { offset: 0x487884, size: 0x8, addend: 0x0, symName: __ZNK8crashpad8internal17ModuleSnapshotMac4NameEv, symObjAddr: 0x1A4, symBinAddr: 0x10003D8FC, symSize: 0x28 }
  - { offset: 0x487A07, size: 0x8, addend: 0x0, symName: __ZNK8crashpad8internal17ModuleSnapshotMac7AddressEv, symObjAddr: 0x1CC, symBinAddr: 0x10003D924, symSize: 0xC }
  - { offset: 0x487A64, size: 0x8, addend: 0x0, symName: __ZNK8crashpad8internal17ModuleSnapshotMac4SizeEv, symObjAddr: 0x1D8, symBinAddr: 0x10003D930, symSize: 0xC }
  - { offset: 0x487AAB, size: 0x8, addend: 0x0, symName: __ZNK8crashpad8internal17ModuleSnapshotMac9TimestampEv, symObjAddr: 0x1E4, symBinAddr: 0x10003D93C, symSize: 0x8 }
  - { offset: 0x487AEA, size: 0x8, addend: 0x0, symName: __ZNK8crashpad8internal17ModuleSnapshotMac11FileVersionEPtS2_S2_S2_, symObjAddr: 0x1EC, symBinAddr: 0x10003D944, symSize: 0x70 }
  - { offset: 0x487BA6, size: 0x8, addend: 0x0, symName: __ZNK8crashpad8internal17ModuleSnapshotMac13SourceVersionEPtS2_S2_S2_, symObjAddr: 0x25C, symBinAddr: 0x10003D9B4, symSize: 0x28 }
  - { offset: 0x487C2F, size: 0x8, addend: 0x0, symName: __ZNK8crashpad8internal17ModuleSnapshotMac13GetModuleTypeEv, symObjAddr: 0x284, symBinAddr: 0x10003D9DC, symSize: 0x2C }
  - { offset: 0x487C86, size: 0x8, addend: 0x0, symName: __ZNK8crashpad8internal17ModuleSnapshotMac10UUIDAndAgeEPNS_4UUIDEPj, symObjAddr: 0x2B0, symBinAddr: 0x10003DA08, symSize: 0x28 }
  - { offset: 0x487CEC, size: 0x8, addend: 0x0, symName: __ZNK8crashpad8internal17ModuleSnapshotMac13DebugFileNameEv, symObjAddr: 0x2D8, symBinAddr: 0x10003DA30, symSize: 0xF8 }
  - { offset: 0x4880E0, size: 0x8, addend: 0x0, symName: __ZNK8crashpad8internal17ModuleSnapshotMac7BuildIDEv, symObjAddr: 0x3D0, symBinAddr: 0x10003DB28, symSize: 0xC }
  - { offset: 0x488108, size: 0x8, addend: 0x0, symName: __ZNK8crashpad8internal17ModuleSnapshotMac7BuildIDEv, symObjAddr: 0x3D0, symBinAddr: 0x10003DB28, symSize: 0xC }
  - { offset: 0x488125, size: 0x8, addend: 0x0, symName: __ZNK8crashpad8internal17ModuleSnapshotMac7BuildIDEv, symObjAddr: 0x3D0, symBinAddr: 0x10003DB28, symSize: 0xC }
  - { offset: 0x4881A0, size: 0x8, addend: 0x0, symName: __ZNK8crashpad8internal17ModuleSnapshotMac17AnnotationsVectorEv, symObjAddr: 0x3DC, symBinAddr: 0x10003DB34, symSize: 0x80 }
  - { offset: 0x4884A8, size: 0x8, addend: 0x0, symName: __ZNK8crashpad8internal17ModuleSnapshotMac20AnnotationsSimpleMapEv, symObjAddr: 0x45C, symBinAddr: 0x10003DBB4, symSize: 0x80 }
  - { offset: 0x4887B0, size: 0x8, addend: 0x0, symName: __ZNK8crashpad8internal17ModuleSnapshotMac17AnnotationObjectsEv, symObjAddr: 0x4DC, symBinAddr: 0x10003DC34, symSize: 0x80 }
  - { offset: 0x488C06, size: 0x8, addend: 0x0, symName: __ZNK8crashpad8internal17ModuleSnapshotMac17ExtraMemoryRangesEv, symObjAddr: 0x55C, symBinAddr: 0x10003DCB4, symSize: 0x14 }
  - { offset: 0x488C2E, size: 0x8, addend: 0x0, symName: __ZNK8crashpad8internal17ModuleSnapshotMac17ExtraMemoryRangesEv, symObjAddr: 0x55C, symBinAddr: 0x10003DCB4, symSize: 0x14 }
  - { offset: 0x488C4B, size: 0x8, addend: 0x0, symName: __ZNK8crashpad8internal17ModuleSnapshotMac17ExtraMemoryRangesEv, symObjAddr: 0x55C, symBinAddr: 0x10003DCB4, symSize: 0x14 }
  - { offset: 0x488C69, size: 0x8, addend: 0x0, symName: __ZNK8crashpad8internal17ModuleSnapshotMac17ExtraMemoryRangesEv, symObjAddr: 0x55C, symBinAddr: 0x10003DCB4, symSize: 0x14 }
  - { offset: 0x488C87, size: 0x8, addend: 0x0, symName: __ZNK8crashpad8internal17ModuleSnapshotMac17ExtraMemoryRangesEv, symObjAddr: 0x55C, symBinAddr: 0x10003DCB4, symSize: 0x14 }
  - { offset: 0x488CA5, size: 0x8, addend: 0x0, symName: __ZNK8crashpad8internal17ModuleSnapshotMac17ExtraMemoryRangesEv, symObjAddr: 0x55C, symBinAddr: 0x10003DCB4, symSize: 0x14 }
  - { offset: 0x488CC5, size: 0x8, addend: 0x0, symName: __ZNK8crashpad8internal17ModuleSnapshotMac17ExtraMemoryRangesEv, symObjAddr: 0x55C, symBinAddr: 0x10003DCB4, symSize: 0x14 }
  - { offset: 0x488CE4, size: 0x8, addend: 0x0, symName: __ZNK8crashpad8internal17ModuleSnapshotMac17ExtraMemoryRangesEv, symObjAddr: 0x55C, symBinAddr: 0x10003DCB4, symSize: 0x14 }
  - { offset: 0x488D40, size: 0x8, addend: 0x0, symName: __ZNK8crashpad8internal17ModuleSnapshotMac21CustomMinidumpStreamsEv, symObjAddr: 0x570, symBinAddr: 0x10003DCC8, symSize: 0xC }
  - { offset: 0x488D68, size: 0x8, addend: 0x0, symName: __ZNK8crashpad8internal17ModuleSnapshotMac21CustomMinidumpStreamsEv, symObjAddr: 0x570, symBinAddr: 0x10003DCC8, symSize: 0xC }
  - { offset: 0x488D85, size: 0x8, addend: 0x0, symName: __ZNK8crashpad8internal17ModuleSnapshotMac21CustomMinidumpStreamsEv, symObjAddr: 0x570, symBinAddr: 0x10003DCC8, symSize: 0xC }
  - { offset: 0x496345, size: 0x8, addend: 0x0, symName: __ZNSt3__116__rotate_forwardB8ne190102INS_17_ClassicAlgPolicyENS_16reverse_iteratorINS_11__wrap_iterIPN8crashpad16ProcessReaderMac6ModuleEEEEEEET0_SA_SA_SA_, symObjAddr: 0x3730, symBinAddr: 0x100040580, symSize: 0xE4 }
  - { offset: 0x499BC7, size: 0x8, addend: 0x0, symName: __ZN8crashpad16ProcessReaderMac6ThreadC2Ev, symObjAddr: 0x0, symBinAddr: 0x10003DCD4, symSize: 0x28 }
  - { offset: 0x499C06, size: 0x8, addend: 0x0, symName: __ZN8crashpad16ProcessReaderMac6ThreadC1Ev, symObjAddr: 0x28, symBinAddr: 0x10003DCFC, symSize: 0x28 }
  - { offset: 0x499C47, size: 0x8, addend: 0x0, symName: __ZN8crashpad16ProcessReaderMac6ModuleC2Ev, symObjAddr: 0x50, symBinAddr: 0x10003DD24, symSize: 0x10 }
  - { offset: 0x499C84, size: 0x8, addend: 0x0, symName: __ZN8crashpad16ProcessReaderMac6ModuleC1Ev, symObjAddr: 0x60, symBinAddr: 0x10003DD34, symSize: 0x10 }
  - { offset: 0x499CA8, size: 0x8, addend: 0x0, symName: __ZN8crashpad16ProcessReaderMac6ModuleC1Ev, symObjAddr: 0x60, symBinAddr: 0x10003DD34, symSize: 0x10 }
  - { offset: 0x499D92, size: 0x8, addend: 0x0, symName: __ZN8crashpad16ProcessReaderMac6ModuleD2Ev, symObjAddr: 0x70, symBinAddr: 0x10003DD44, symSize: 0x38 }
  - { offset: 0x499DE7, size: 0x8, addend: 0x0, symName: __ZN8crashpad16ProcessReaderMac6ModuleD2Ev, symObjAddr: 0x70, symBinAddr: 0x10003DD44, symSize: 0x38 }
  - { offset: 0x499EFF, size: 0x8, addend: 0x0, symName: __ZN8crashpad16ProcessReaderMac6ModuleD1Ev, symObjAddr: 0xA8, symBinAddr: 0x10003DD7C, symSize: 0x38 }
  - { offset: 0x499F6B, size: 0x8, addend: 0x0, symName: __ZN8crashpad16ProcessReaderMac6ModuleD1Ev, symObjAddr: 0xA8, symBinAddr: 0x10003DD7C, symSize: 0x38 }
  - { offset: 0x49A0A1, size: 0x8, addend: 0x0, symName: __ZN8crashpad16ProcessReaderMacC2Ev, symObjAddr: 0xE0, symBinAddr: 0x10003DDB4, symSize: 0x70 }
  - { offset: 0x49A149, size: 0x8, addend: 0x0, symName: __ZNSt3__16vectorINS_10unique_ptrIN8crashpad16MachOImageReaderENS_14default_deleteIS3_EEEENS_9allocatorIS6_EEED1B8ne190102Ev, symObjAddr: 0x150, symBinAddr: 0x10003DE24, symSize: 0x70 }
  - { offset: 0x49A37B, size: 0x8, addend: 0x0, symName: __ZNSt3__16vectorIN8crashpad16ProcessReaderMac6ModuleENS_9allocatorIS3_EEED1B8ne190102Ev, symObjAddr: 0x1C0, symBinAddr: 0x10003DE94, symSize: 0x70 }
  - { offset: 0x49A652, size: 0x8, addend: 0x0, symName: __ZNSt3__16vectorIN8crashpad16ProcessReaderMac6ThreadENS_9allocatorIS3_EEED1B8ne190102Ev, symObjAddr: 0x230, symBinAddr: 0x10003DF04, symSize: 0x70 }
  - { offset: 0x49ADC1, size: 0x8, addend: 0x0, symName: __ZN8crashpad16ProcessReaderMacC1Ev, symObjAddr: 0x2A0, symBinAddr: 0x10003DF74, symSize: 0x70 }
  - { offset: 0x49AF2A, size: 0x8, addend: 0x0, symName: __ZN8crashpad16ProcessReaderMacD2Ev, symObjAddr: 0x310, symBinAddr: 0x10003DFE4, symSize: 0x1B8 }
  - { offset: 0x49B86F, size: 0x8, addend: 0x0, symName: __ZN8crashpad16ProcessReaderMacD1Ev, symObjAddr: 0x4D8, symBinAddr: 0x10003E19C, symSize: 0x4 }
  - { offset: 0x49B89C, size: 0x8, addend: 0x0, symName: __ZN8crashpad16ProcessReaderMacD1Ev, symObjAddr: 0x4D8, symBinAddr: 0x10003E19C, symSize: 0x4 }
  - { offset: 0x49B8AF, size: 0x8, addend: 0x0, symName: __ZN8crashpad16ProcessReaderMac10InitializeEj, symObjAddr: 0x4DC, symBinAddr: 0x10003E1A0, symSize: 0x44 }
  - { offset: 0x49B8E8, size: 0x8, addend: 0x0, symName: __ZNK8crashpad16ProcessReaderMac9StartTimeEP7timeval, symObjAddr: 0x520, symBinAddr: 0x10003E1E4, symSize: 0x8 }
  - { offset: 0x49BA59, size: 0x8, addend: 0x0, symName: __ZNK8crashpad16ProcessReaderMac8CPUTimesEP7timevalS2_, symObjAddr: 0x528, symBinAddr: 0x10003E1EC, symSize: 0x210 }
  - { offset: 0x49BC6E, size: 0x8, addend: 0x0, symName: __ZN8crashpad16ProcessReaderMac7ThreadsEv, symObjAddr: 0x738, symBinAddr: 0x10003E3FC, symSize: 0x30 }
  - { offset: 0x49BCAC, size: 0x8, addend: 0x0, symName: __ZN8crashpad16ProcessReaderMac17InitializeThreadsEv, symObjAddr: 0x768, symBinAddr: 0x10003E42C, symSize: 0x624 }
  - { offset: 0x49CC81, size: 0x8, addend: 0x0, symName: __ZN8crashpad16ProcessReaderMac20CalculateStackRegionEyPy, symObjAddr: 0x1D40, symBinAddr: 0x10003FA04, symSize: 0x1E8 }
  - { offset: 0x49CF06, size: 0x8, addend: 0x0, symName: __ZNSt3__16vectorIN8crashpad16ProcessReaderMac6ThreadENS_9allocatorIS3_EEE21__push_back_slow_pathIRKS3_EEPS3_OT_, symObjAddr: 0x2598, symBinAddr: 0x10003FE14, symSize: 0x1C4 }
  - { offset: 0x49D69D, size: 0x8, addend: 0x0, symName: __ZNSt3__16vectorIN8crashpad16ProcessReaderMac6ThreadENS_9allocatorIS3_EEE21__push_back_slow_pathIRKS3_EEPS3_OT_, symObjAddr: 0x2598, symBinAddr: 0x10003FE14, symSize: 0x1C4 }
  - { offset: 0x49D6D4, size: 0x8, addend: 0x0, symName: __ZN4base5apple12ScopedMachVMD1Ev, symObjAddr: 0x1F28, symBinAddr: 0x10003FBEC, symSize: 0x44 }
  - { offset: 0x49D71D, size: 0x8, addend: 0x0, symName: __ZN8crashpad16ProcessReaderMac7ModulesEv, symObjAddr: 0xD8C, symBinAddr: 0x10003EA50, symSize: 0x30 }
  - { offset: 0x49D75B, size: 0x8, addend: 0x0, symName: __ZN8crashpad16ProcessReaderMac17InitializeModulesEv, symObjAddr: 0xDBC, symBinAddr: 0x10003EA80, symSize: 0xE3C }
  - { offset: 0x4A1AB0, size: 0x8, addend: 0x0, symName: __ZN8crashpad16ProcessReaderMac16DyldAllImageInfoEPy, symObjAddr: 0x1BF8, symBinAddr: 0x10003F8BC, symSize: 0x148 }
  - { offset: 0x4A1BF0, size: 0x8, addend: 0x0, symName: __ZNSt3__16vectorIN8crashpad16ProcessReaderMac6ModuleENS_9allocatorIS3_EEE7reserveEm, symObjAddr: 0x1F6C, symBinAddr: 0x10003FC30, symSize: 0xFC }
  - { offset: 0x4A206F, size: 0x8, addend: 0x0, symName: __ZNSt3__16vectorIN8crashpad16ProcessReaderMac6ModuleENS_9allocatorIS3_EEE21__push_back_slow_pathIRKS3_EEPS3_OT_, symObjAddr: 0x2BC4, symBinAddr: 0x100040404, symSize: 0x17C }
  - { offset: 0x4A26D4, size: 0x8, addend: 0x0, symName: __ZNSt3__112basic_stringIcNS_11char_traitsIcEENS_9allocatorIcEEEC1B8ne190102ILi0EEEPKc, symObjAddr: 0x20A4, symBinAddr: 0x10003FD68, symSize: 0xA8 }
  - { offset: 0x4A2973, size: 0x8, addend: 0x0, symName: __ZN8crashpad16ProcessReaderMac13LocateRedZoneEPyS1_S1_j, symObjAddr: 0x214C, symBinAddr: 0x10003FE10, symSize: 0x4 }
  - { offset: 0x4A29A3, size: 0x8, addend: 0x0, symName: __ZNSt3__16vectorIN8crashpad16ProcessReaderMac6ModuleENS_9allocatorIS3_EEE21__push_back_slow_pathIRKS3_EEPS3_OT_, symObjAddr: 0x2BC4, symBinAddr: 0x100040404, symSize: 0x17C }
  - { offset: 0x4A29AE, size: 0x8, addend: 0x0, symName: __ZNSt3__110unique_ptrIN8crashpad16MachOImageReaderENS_14default_deleteIS2_EEED1B8ne190102Ev, symObjAddr: 0x2068, symBinAddr: 0x10003FD2C, symSize: 0x3C }
  - { offset: 0x4A2D8F, size: 0x8, addend: 0x0, symName: __ZNSt3__16vectorIN8crashpad16ProcessReaderMac6ModuleENS_9allocatorIS3_EEE26__swap_out_circular_bufferERNS_14__split_bufferIS3_RS5_EE, symObjAddr: 0x29B4, symBinAddr: 0x100040208, symSize: 0x13C }
  - { offset: 0x4A3299, size: 0x8, addend: 0x0, symName: __ZNSt3__16vectorIN8crashpad16ProcessReaderMac6ModuleENS_9allocatorIS3_EEE26__swap_out_circular_bufferERNS_14__split_bufferIS3_RS5_EE, symObjAddr: 0x29B4, symBinAddr: 0x100040208, symSize: 0x13C }
  - { offset: 0x4A32A4, size: 0x8, addend: 0x0, symName: __ZNSt3__114__split_bufferIN8crashpad16ProcessReaderMac6ModuleERNS_9allocatorIS3_EEED1Ev, symObjAddr: 0x2AF0, symBinAddr: 0x100040344, symSize: 0x64 }
  - { offset: 0x4A36FF, size: 0x8, addend: 0x0, symName: __ZN8crashpad16ProcessReaderMac13LocateRedZoneEPyS1_S1_j, symObjAddr: 0x214C, symBinAddr: 0x10003FE10, symSize: 0x4 }
  - { offset: 0x4A3D84, size: 0x8, addend: 0x0, symName: __ZNSt3__16vectorIN8crashpad16ProcessReaderMac6ThreadENS_9allocatorIS3_EEE26__swap_out_circular_bufferERNS_14__split_bufferIS3_RS5_EE, symObjAddr: 0x275C, symBinAddr: 0x10003FFD8, symSize: 0x16C }
  - { offset: 0x4A42A9, size: 0x8, addend: 0x0, symName: __ZNSt3__128__exception_guard_exceptionsINS_29_AllocatorDestroyRangeReverseINS_9allocatorIN8crashpad16ProcessReaderMac6ThreadEEEPS5_EEED1B8ne190102Ev, symObjAddr: 0x2940, symBinAddr: 0x1000401A8, symSize: 0x60 }
  - { offset: 0x4A42B4, size: 0x8, addend: 0x0, symName: __ZNSt3__114__split_bufferIN8crashpad16ProcessReaderMac6ThreadERNS_9allocatorIS3_EEED1Ev, symObjAddr: 0x28C8, symBinAddr: 0x100040144, symSize: 0x64 }
  - { offset: 0x4A45C7, size: 0x8, addend: 0x0, symName: __ZNSt3__128__exception_guard_exceptionsINS_29_AllocatorDestroyRangeReverseINS_9allocatorIN8crashpad16ProcessReaderMac6ThreadEEEPS5_EEED1B8ne190102Ev, symObjAddr: 0x2940, symBinAddr: 0x1000401A8, symSize: 0x60 }
  - { offset: 0x4A4881, size: 0x8, addend: 0x0, symName: __ZNSt3__128__exception_guard_exceptionsINS_29_AllocatorDestroyRangeReverseINS_9allocatorIN8crashpad16ProcessReaderMac6ModuleEEEPS5_EEED1B8ne190102Ev, symObjAddr: 0x2B54, symBinAddr: 0x1000403A8, symSize: 0x5C }
  - { offset: 0x4A51F5, size: 0x8, addend: 0x0, symName: __ZNSt3__116__rotate_forwardB8ne190102INS_17_ClassicAlgPolicyENS_16reverse_iteratorINS_11__wrap_iterIPN8crashpad16ProcessReaderMac6ModuleEEEEEEET0_SA_SA_SA_, symObjAddr: 0x3730, symBinAddr: 0x100040580, symSize: 0xE4 }
  - { offset: 0x4A5621, size: 0x8, addend: 0x0, symName: __ZNSt3__18_IterOpsINS_17_ClassicAlgPolicyEE9iter_swapB8ne190102IRNS_16reverse_iteratorINS_11__wrap_iterIPN8crashpad16ProcessReaderMac6ModuleEEEEESC_EEvOT_OT0_, symObjAddr: 0x3814, symBinAddr: 0x100040664, symSize: 0xDC }
  - { offset: 0x4BB9B5, size: 0x8, addend: 0x0, symName: __ZN8crashpad18ProcessSnapshotMacC2Ev, symObjAddr: 0x0, symBinAddr: 0x100040740, symSize: 0xA0 }
  - { offset: 0x4BBB1B, size: 0x8, addend: 0x0, symName: __ZNSt3__110unique_ptrIN8crashpad8internal20ExceptionSnapshotMacENS_14default_deleteIS3_EEED1B8ne190102Ev, symObjAddr: 0xA0, symBinAddr: 0x1000407E0, symSize: 0x3C }
  - { offset: 0x4BBBBC, size: 0x8, addend: 0x0, symName: __ZNSt3__16vectorINS_10unique_ptrIN8crashpad8internal17ModuleSnapshotMacENS_14default_deleteIS4_EEEENS_9allocatorIS7_EEED1B8ne190102Ev, symObjAddr: 0xDC, symBinAddr: 0x10004081C, symSize: 0x70 }
  - { offset: 0x4BBDEE, size: 0x8, addend: 0x0, symName: __ZNSt3__16vectorINS_10unique_ptrIN8crashpad8internal17ThreadSnapshotMacENS_14default_deleteIS4_EEEENS_9allocatorIS7_EEED1B8ne190102Ev, symObjAddr: 0x14C, symBinAddr: 0x10004088C, symSize: 0x70 }
  - { offset: 0x4BC42E, size: 0x8, addend: 0x0, symName: __ZN8crashpad18ProcessSnapshotMacC1Ev, symObjAddr: 0x1BC, symBinAddr: 0x1000408FC, symSize: 0xA0 }
  - { offset: 0x4BC68B, size: 0x8, addend: 0x0, symName: __ZN8crashpad18ProcessSnapshotMacD2Ev, symObjAddr: 0x25C, symBinAddr: 0x10004099C, symSize: 0xE8 }
  - { offset: 0x4BCE87, size: 0x8, addend: 0x0, symName: __ZN8crashpad18ProcessSnapshotMacD1Ev, symObjAddr: 0x344, symBinAddr: 0x100040A84, symSize: 0x4 }
  - { offset: 0x4BCEAA, size: 0x8, addend: 0x0, symName: __ZN8crashpad18ProcessSnapshotMacD1Ev, symObjAddr: 0x344, symBinAddr: 0x100040A84, symSize: 0x4 }
  - { offset: 0x4BCED9, size: 0x8, addend: 0x0, symName: __ZN8crashpad18ProcessSnapshotMacD0Ev, symObjAddr: 0x348, symBinAddr: 0x100040A88, symSize: 0x14 }
  - { offset: 0x4BCFD1, size: 0x8, addend: 0x0, symName: __ZN8crashpad18ProcessSnapshotMac10InitializeEj, symObjAddr: 0x35C, symBinAddr: 0x100040A9C, symSize: 0xF0 }
  - { offset: 0x4BD0DC, size: 0x8, addend: 0x0, symName: __ZN8crashpad18ProcessSnapshotMac17InitializeThreadsEv, symObjAddr: 0x44C, symBinAddr: 0x100040B8C, symSize: 0x194 }
  - { offset: 0x4BD866, size: 0x8, addend: 0x0, symName: __ZN8crashpad18ProcessSnapshotMac17InitializeModulesEv, symObjAddr: 0x5E0, symBinAddr: 0x100040D20, symSize: 0x194 }
  - { offset: 0x4BE55D, size: 0x8, addend: 0x0, symName: __ZNSt3__110unique_ptrIN8crashpad8internal17ThreadSnapshotMacENS_14default_deleteIS3_EEED1B8ne190102Ev, symObjAddr: 0xC58, symBinAddr: 0x100041398, symSize: 0x3C }
  - { offset: 0x4BEB65, size: 0x8, addend: 0x0, symName: __ZNSt3__110unique_ptrIN8crashpad8internal17ModuleSnapshotMacENS_14default_deleteIS3_EEED1B8ne190102Ev, symObjAddr: 0xC94, symBinAddr: 0x1000413D4, symSize: 0x3C }
  - { offset: 0x4BEC21, size: 0x8, addend: 0x0, symName: __ZN8crashpad18ProcessSnapshotMac19InitializeExceptionEijiPKxjiPKjj, symObjAddr: 0x774, symBinAddr: 0x100040EB4, symSize: 0xF0 }
  - { offset: 0x4BEDB8, size: 0x8, addend: 0x0, symName: __ZN8crashpad18ProcessSnapshotMac18GetCrashpadOptionsEPNS_25CrashpadInfoClientOptionsE, symObjAddr: 0x864, symBinAddr: 0x100040FA4, symSize: 0xD0 }
  - { offset: 0x4BEED2, size: 0x8, addend: 0x0, symName: __ZNK8crashpad18ProcessSnapshotMac9ProcessIDEv, symObjAddr: 0x934, symBinAddr: 0x100041074, symSize: 0x8 }
  - { offset: 0x4BEEFE, size: 0x8, addend: 0x0, symName: __ZNK8crashpad18ProcessSnapshotMac9ProcessIDEv, symObjAddr: 0x934, symBinAddr: 0x100041074, symSize: 0x8 }
  - { offset: 0x4BEF31, size: 0x8, addend: 0x0, symName: __ZNK8crashpad18ProcessSnapshotMac15ParentProcessIDEv, symObjAddr: 0x93C, symBinAddr: 0x10004107C, symSize: 0x8 }
  - { offset: 0x4BEF5D, size: 0x8, addend: 0x0, symName: __ZNK8crashpad18ProcessSnapshotMac15ParentProcessIDEv, symObjAddr: 0x93C, symBinAddr: 0x10004107C, symSize: 0x8 }
  - { offset: 0x4BEF7A, size: 0x8, addend: 0x0, symName: __ZNK8crashpad18ProcessSnapshotMac12SnapshotTimeEP7timeval, symObjAddr: 0x944, symBinAddr: 0x100041084, symSize: 0xC }
  - { offset: 0x4BEFAE, size: 0x8, addend: 0x0, symName: __ZNK8crashpad18ProcessSnapshotMac16ProcessStartTimeEP7timeval, symObjAddr: 0x950, symBinAddr: 0x100041090, symSize: 0x8 }
  - { offset: 0x4BEFE4, size: 0x8, addend: 0x0, symName: __ZNK8crashpad18ProcessSnapshotMac15ProcessCPUTimesEP7timevalS2_, symObjAddr: 0x958, symBinAddr: 0x100041098, symSize: 0x8 }
  - { offset: 0x4BF027, size: 0x8, addend: 0x0, symName: __ZNK8crashpad18ProcessSnapshotMac8ReportIDEPNS_4UUIDE, symObjAddr: 0x960, symBinAddr: 0x1000410A0, symSize: 0x10 }
  - { offset: 0x4BF05B, size: 0x8, addend: 0x0, symName: __ZNK8crashpad18ProcessSnapshotMac8ClientIDEPNS_4UUIDE, symObjAddr: 0x970, symBinAddr: 0x1000410B0, symSize: 0x10 }
  - { offset: 0x4BF08F, size: 0x8, addend: 0x0, symName: __ZNK8crashpad18ProcessSnapshotMac20AnnotationsSimpleMapEv, symObjAddr: 0x980, symBinAddr: 0x1000410C0, symSize: 0x8 }
  - { offset: 0x4BF0B8, size: 0x8, addend: 0x0, symName: __ZNK8crashpad18ProcessSnapshotMac6SystemEv, symObjAddr: 0x988, symBinAddr: 0x1000410C8, symSize: 0x8 }
  - { offset: 0x4BF544, size: 0x8, addend: 0x0, symName: __ZNK8crashpad18ProcessSnapshotMac7ThreadsEv, symObjAddr: 0x990, symBinAddr: 0x1000410D0, symSize: 0x144 }
  - { offset: 0x4C0015, size: 0x8, addend: 0x0, symName: __ZNK8crashpad18ProcessSnapshotMac7ModulesEv, symObjAddr: 0xAD4, symBinAddr: 0x100041214, symSize: 0x144 }
  - { offset: 0x4C06BC, size: 0x8, addend: 0x0, symName: __ZNK8crashpad18ProcessSnapshotMac15UnloadedModulesEv, symObjAddr: 0xC18, symBinAddr: 0x100041358, symSize: 0xC }
  - { offset: 0x4C06E4, size: 0x8, addend: 0x0, symName: __ZNK8crashpad18ProcessSnapshotMac15UnloadedModulesEv, symObjAddr: 0xC18, symBinAddr: 0x100041358, symSize: 0xC }
  - { offset: 0x4C0701, size: 0x8, addend: 0x0, symName: __ZNK8crashpad18ProcessSnapshotMac15UnloadedModulesEv, symObjAddr: 0xC18, symBinAddr: 0x100041358, symSize: 0xC }
  - { offset: 0x4C0734, size: 0x8, addend: 0x0, symName: __ZNK8crashpad18ProcessSnapshotMac9ExceptionEv, symObjAddr: 0xC24, symBinAddr: 0x100041364, symSize: 0x8 }
  - { offset: 0x4C0760, size: 0x8, addend: 0x0, symName: __ZNK8crashpad18ProcessSnapshotMac9ExceptionEv, symObjAddr: 0xC24, symBinAddr: 0x100041364, symSize: 0x8 }
  - { offset: 0x4C07B7, size: 0x8, addend: 0x0, symName: __ZNK8crashpad18ProcessSnapshotMac9MemoryMapEv, symObjAddr: 0xC2C, symBinAddr: 0x10004136C, symSize: 0xC }
  - { offset: 0x4C07DF, size: 0x8, addend: 0x0, symName: __ZNK8crashpad18ProcessSnapshotMac9MemoryMapEv, symObjAddr: 0xC2C, symBinAddr: 0x10004136C, symSize: 0xC }
  - { offset: 0x4C07FC, size: 0x8, addend: 0x0, symName: __ZNK8crashpad18ProcessSnapshotMac9MemoryMapEv, symObjAddr: 0xC2C, symBinAddr: 0x10004136C, symSize: 0xC }
  - { offset: 0x4C0852, size: 0x8, addend: 0x0, symName: __ZNK8crashpad18ProcessSnapshotMac7HandlesEv, symObjAddr: 0xC38, symBinAddr: 0x100041378, symSize: 0xC }
  - { offset: 0x4C087A, size: 0x8, addend: 0x0, symName: __ZNK8crashpad18ProcessSnapshotMac7HandlesEv, symObjAddr: 0xC38, symBinAddr: 0x100041378, symSize: 0xC }
  - { offset: 0x4C0897, size: 0x8, addend: 0x0, symName: __ZNK8crashpad18ProcessSnapshotMac7HandlesEv, symObjAddr: 0xC38, symBinAddr: 0x100041378, symSize: 0xC }
  - { offset: 0x4C08ED, size: 0x8, addend: 0x0, symName: __ZNK8crashpad18ProcessSnapshotMac11ExtraMemoryEv, symObjAddr: 0xC44, symBinAddr: 0x100041384, symSize: 0xC }
  - { offset: 0x4C0915, size: 0x8, addend: 0x0, symName: __ZNK8crashpad18ProcessSnapshotMac11ExtraMemoryEv, symObjAddr: 0xC44, symBinAddr: 0x100041384, symSize: 0xC }
  - { offset: 0x4C0932, size: 0x8, addend: 0x0, symName: __ZNK8crashpad18ProcessSnapshotMac11ExtraMemoryEv, symObjAddr: 0xC44, symBinAddr: 0x100041384, symSize: 0xC }
  - { offset: 0x4C0965, size: 0x8, addend: 0x0, symName: __ZNK8crashpad18ProcessSnapshotMac6MemoryEv, symObjAddr: 0xC50, symBinAddr: 0x100041390, symSize: 0x8 }
  - { offset: 0x4C0991, size: 0x8, addend: 0x0, symName: __ZNK8crashpad18ProcessSnapshotMac6MemoryEv, symObjAddr: 0xC50, symBinAddr: 0x100041390, symSize: 0x8 }
  - { offset: 0x4C2D78, size: 0x8, addend: 0x0, symName: __ZN8crashpad13process_types10Annotation12ExpectedSizeEPNS_16ProcessReaderMacE, symObjAddr: 0x0, symBinAddr: 0x100041410, symSize: 0x8 }
  - { offset: 0x4CF2E9, size: 0x8, addend: 0x0, symName: __ZN8crashpad13process_types10Annotation12ExpectedSizeEPNS_16ProcessReaderMacE, symObjAddr: 0x0, symBinAddr: 0x100041410, symSize: 0x8 }
  - { offset: 0x4CF418, size: 0x8, addend: 0x0, symName: __ZN8crashpad13process_types10Annotation8ReadIntoEPNS_16ProcessReaderMacEyPS1_, symObjAddr: 0x8, symBinAddr: 0x100041418, symSize: 0x60 }
  - { offset: 0x4CF5D1, size: 0x8, addend: 0x0, symName: __ZN8crashpad13process_types14AnnotationList12ExpectedSizeEPNS_16ProcessReaderMacE, symObjAddr: 0x68, symBinAddr: 0x100041478, symSize: 0x8 }
  - { offset: 0x4CF6C5, size: 0x8, addend: 0x0, symName: __ZN8crashpad13process_types14AnnotationList8ReadIntoEPNS_16ProcessReaderMacEyPS1_, symObjAddr: 0x70, symBinAddr: 0x100041480, symSize: 0x6C }
  - { offset: 0x4CF865, size: 0x8, addend: 0x0, symName: __ZN8crashpad13process_types12CrashpadInfo12ExpectedSizeEPNS_16ProcessReaderMacE, symObjAddr: 0xDC, symBinAddr: 0x1000414EC, symSize: 0x8 }
  - { offset: 0x4CF93A, size: 0x8, addend: 0x0, symName: __ZN8crashpad13process_types12CrashpadInfo8ReadIntoEPNS_16ProcessReaderMacEyPS1_, symObjAddr: 0xE4, symBinAddr: 0x1000414F4, symSize: 0x60 }
  - { offset: 0x4CFAC3, size: 0x8, addend: 0x0, symName: __ZN8crashpad13process_types27crashreporter_annotations_t12ExpectedSizeEPNS_16ProcessReaderMacE, symObjAddr: 0x144, symBinAddr: 0x100041554, symSize: 0x8 }
  - { offset: 0x4CFB88, size: 0x8, addend: 0x0, symName: __ZN8crashpad13process_types27crashreporter_annotations_t8ReadIntoEPNS_16ProcessReaderMacEyPS1_, symObjAddr: 0x14C, symBinAddr: 0x10004155C, symSize: 0x48 }
  - { offset: 0x4CFC9E, size: 0x8, addend: 0x0, symName: __ZN8crashpad13process_types15dyld_image_info12ExpectedSizeEPNS_16ProcessReaderMacE, symObjAddr: 0x194, symBinAddr: 0x1000415A4, symSize: 0x8 }
  - { offset: 0x4CFD82, size: 0x8, addend: 0x0, symName: __ZN8crashpad13process_types15dyld_image_info8ReadIntoEPNS_16ProcessReaderMacEyPS1_, symObjAddr: 0x19C, symBinAddr: 0x1000415AC, symSize: 0x4C }
  - { offset: 0x4CFEBE, size: 0x8, addend: 0x0, symName: __ZN8crashpad13process_types14dyld_uuid_info12ExpectedSizeEPNS_16ProcessReaderMacE, symObjAddr: 0x1E8, symBinAddr: 0x1000415F8, symSize: 0x8 }
  - { offset: 0x4CFFB2, size: 0x8, addend: 0x0, symName: __ZN8crashpad13process_types14dyld_uuid_info8ReadIntoEPNS_16ProcessReaderMacEyPS1_, symObjAddr: 0x1F0, symBinAddr: 0x100041600, symSize: 0x7C }
  - { offset: 0x4D0143, size: 0x8, addend: 0x0, symName: __ZN8crashpad13process_types20dyld_all_image_infos12ExpectedSizeEPNS_16ProcessReaderMacE, symObjAddr: 0x26C, symBinAddr: 0x10004167C, symSize: 0x8 }
  - { offset: 0x4D0168, size: 0x8, addend: 0x0, symName: __ZN8crashpad13process_types20dyld_all_image_infos8ReadIntoEPNS_16ProcessReaderMacEyPS1_, symObjAddr: 0x274, symBinAddr: 0x100041684, symSize: 0x4 }
  - { offset: 0x4D01A7, size: 0x8, addend: 0x0, symName: __ZN8crashpad13process_types20dyld_all_image_infos8ReadIntoEPNS_16ProcessReaderMacEyPS1_, symObjAddr: 0x274, symBinAddr: 0x100041684, symSize: 0x4 }
  - { offset: 0x4D01DE, size: 0x8, addend: 0x0, symName: __ZN8crashpad13process_types20dyld_all_image_infos16ReadIntoInternalINS0_8internal20dyld_all_image_infosINS3_8Traits64EEEEEbPNS_16ProcessReaderMacEyPS1_, symObjAddr: 0x278, symBinAddr: 0x100041688, symSize: 0x138 }
  - { offset: 0x4D0588, size: 0x8, addend: 0x0, symName: __ZN8crashpad13process_types11mach_header12ExpectedSizeEPNS_16ProcessReaderMacE, symObjAddr: 0x3B0, symBinAddr: 0x1000417C0, symSize: 0x8 }
  - { offset: 0x4D066C, size: 0x8, addend: 0x0, symName: __ZN8crashpad13process_types11mach_header8ReadIntoEPNS_16ProcessReaderMacEyPS1_, symObjAddr: 0x3B8, symBinAddr: 0x1000417C8, symSize: 0x48 }
  - { offset: 0x4D07B1, size: 0x8, addend: 0x0, symName: __ZN8crashpad13process_types12load_command12ExpectedSizeEPNS_16ProcessReaderMacE, symObjAddr: 0x400, symBinAddr: 0x100041810, symSize: 0x8 }
  - { offset: 0x4D0895, size: 0x8, addend: 0x0, symName: __ZN8crashpad13process_types12load_command8ReadIntoEPNS_16ProcessReaderMacEyPS1_, symObjAddr: 0x408, symBinAddr: 0x100041818, symSize: 0x48 }
  - { offset: 0x4D09E0, size: 0x8, addend: 0x0, symName: __ZN8crashpad13process_types15segment_command12ExpectedSizeEPNS_16ProcessReaderMacE, symObjAddr: 0x450, symBinAddr: 0x100041860, symSize: 0x8 }
  - { offset: 0x4D0ADA, size: 0x8, addend: 0x0, symName: __ZN8crashpad13process_types15segment_command8ReadIntoEPNS_16ProcessReaderMacEyPS1_, symObjAddr: 0x458, symBinAddr: 0x100041868, symSize: 0x94 }
  - { offset: 0x4D0CA0, size: 0x8, addend: 0x0, symName: __ZN8crashpad13process_types13dylib_command12ExpectedSizeEPNS_16ProcessReaderMacE, symObjAddr: 0x4EC, symBinAddr: 0x1000418FC, symSize: 0x8 }
  - { offset: 0x4D0D84, size: 0x8, addend: 0x0, symName: __ZN8crashpad13process_types13dylib_command8ReadIntoEPNS_16ProcessReaderMacEyPS1_, symObjAddr: 0x4F4, symBinAddr: 0x100041904, symSize: 0x50 }
  - { offset: 0x4D0EE9, size: 0x8, addend: 0x0, symName: __ZN8crashpad13process_types16dylinker_command12ExpectedSizeEPNS_16ProcessReaderMacE, symObjAddr: 0x544, symBinAddr: 0x100041954, symSize: 0x8 }
  - { offset: 0x4D0FCD, size: 0x8, addend: 0x0, symName: __ZN8crashpad13process_types16dylinker_command8ReadIntoEPNS_16ProcessReaderMacEyPS1_, symObjAddr: 0x54C, symBinAddr: 0x10004195C, symSize: 0x50 }
  - { offset: 0x4D1132, size: 0x8, addend: 0x0, symName: __ZN8crashpad13process_types14symtab_command12ExpectedSizeEPNS_16ProcessReaderMacE, symObjAddr: 0x59C, symBinAddr: 0x1000419AC, symSize: 0x8 }
  - { offset: 0x4D1216, size: 0x8, addend: 0x0, symName: __ZN8crashpad13process_types14symtab_command8ReadIntoEPNS_16ProcessReaderMacEyPS1_, symObjAddr: 0x5A4, symBinAddr: 0x1000419B4, symSize: 0x50 }
  - { offset: 0x4D137B, size: 0x8, addend: 0x0, symName: __ZN8crashpad13process_types16dysymtab_command12ExpectedSizeEPNS_16ProcessReaderMacE, symObjAddr: 0x5F4, symBinAddr: 0x100041A04, symSize: 0x8 }
  - { offset: 0x4D145F, size: 0x8, addend: 0x0, symName: __ZN8crashpad13process_types16dysymtab_command8ReadIntoEPNS_16ProcessReaderMacEyPS1_, symObjAddr: 0x5FC, symBinAddr: 0x100041A0C, symSize: 0x58 }
  - { offset: 0x4D15E6, size: 0x8, addend: 0x0, symName: __ZN8crashpad13process_types12uuid_command12ExpectedSizeEPNS_16ProcessReaderMacE, symObjAddr: 0x654, symBinAddr: 0x100041A64, symSize: 0x8 }
  - { offset: 0x4D16CA, size: 0x8, addend: 0x0, symName: __ZN8crashpad13process_types12uuid_command8ReadIntoEPNS_16ProcessReaderMacEyPS1_, symObjAddr: 0x65C, symBinAddr: 0x100041A6C, symSize: 0x7C }
  - { offset: 0x4D182F, size: 0x8, addend: 0x0, symName: __ZN8crashpad13process_types22source_version_command12ExpectedSizeEPNS_16ProcessReaderMacE, symObjAddr: 0x6D8, symBinAddr: 0x100041AE8, symSize: 0x8 }
  - { offset: 0x4D1913, size: 0x8, addend: 0x0, symName: __ZN8crashpad13process_types22source_version_command8ReadIntoEPNS_16ProcessReaderMacEyPS1_, symObjAddr: 0x6E0, symBinAddr: 0x100041AF0, symSize: 0x4C }
  - { offset: 0x4D1A4F, size: 0x8, addend: 0x0, symName: __ZN8crashpad13process_types7section12ExpectedSizeEPNS_16ProcessReaderMacE, symObjAddr: 0x72C, symBinAddr: 0x100041B3C, symSize: 0x8 }
  - { offset: 0x4D1B33, size: 0x8, addend: 0x0, symName: __ZN8crashpad13process_types7section8ReadIntoEPNS_16ProcessReaderMacEyPS1_, symObjAddr: 0x734, symBinAddr: 0x100041B44, symSize: 0x8C }
  - { offset: 0x4D1CD7, size: 0x8, addend: 0x0, symName: __ZN8crashpad13process_types5nlist12ExpectedSizeEPNS_16ProcessReaderMacE, symObjAddr: 0x7C0, symBinAddr: 0x100041BD0, symSize: 0x8 }
  - { offset: 0x4D1DBB, size: 0x8, addend: 0x0, symName: __ZN8crashpad13process_types5nlist8ReadIntoEPNS_16ProcessReaderMacEyPS1_, symObjAddr: 0x7C8, symBinAddr: 0x100041BD8, symSize: 0x4C }
  - { offset: 0x4D1F00, size: 0x8, addend: 0x0, symName: __ZN8crashpad13process_types10Annotation13ReadArrayIntoEPNS_16ProcessReaderMacEymPS1_, symObjAddr: 0x814, symBinAddr: 0x100041C24, symSize: 0x4 }
  - { offset: 0x4D1F4B, size: 0x8, addend: 0x0, symName: __ZN8crashpad13process_types10Annotation13ReadArrayIntoEPNS_16ProcessReaderMacEymPS1_, symObjAddr: 0x814, symBinAddr: 0x100041C24, symSize: 0x4 }
  - { offset: 0x4D1F73, size: 0x8, addend: 0x0, symName: __ZN8crashpad13process_types10Annotation21ReadArrayIntoInternalINS0_8internal10AnnotationINS3_8Traits64EEEEEbPNS_16ProcessReaderMacEymPS1_, symObjAddr: 0x818, symBinAddr: 0x100041C28, symSize: 0xEC }
  - { offset: 0x4D8CF6, size: 0x8, addend: 0x0, symName: __ZN8crashpad13process_types15dyld_image_info13ReadArrayIntoEPNS_16ProcessReaderMacEymPS1_, symObjAddr: 0x904, symBinAddr: 0x100041D14, symSize: 0x1CC }
  - { offset: 0x4D913D, size: 0x8, addend: 0x0, symName: __ZN8crashpad13process_types14dyld_uuid_info13ReadArrayIntoEPNS_16ProcessReaderMacEymPS1_, symObjAddr: 0xAD0, symBinAddr: 0x100041EE0, symSize: 0xE4 }
  - { offset: 0x4D93DE, size: 0x8, addend: 0x0, symName: __ZN8crashpad13process_types11mach_header13ReadArrayIntoEPNS_16ProcessReaderMacEymPS1_, symObjAddr: 0xBB4, symBinAddr: 0x100041FC4, symSize: 0x4 }
  - { offset: 0x4D9429, size: 0x8, addend: 0x0, symName: __ZN8crashpad13process_types11mach_header13ReadArrayIntoEPNS_16ProcessReaderMacEymPS1_, symObjAddr: 0xBB4, symBinAddr: 0x100041FC4, symSize: 0x4 }
  - { offset: 0x4D9451, size: 0x8, addend: 0x0, symName: __ZN8crashpad13process_types11mach_header21ReadArrayIntoInternalINS0_8internal11mach_headerINS3_8Traits64EEEEEbPNS_16ProcessReaderMacEymPS1_, symObjAddr: 0xBB8, symBinAddr: 0x100041FC8, symSize: 0xDC }
  - { offset: 0x4D9A20, size: 0x8, addend: 0x0, symName: __ZN8crashpad13process_types12load_command13ReadArrayIntoEPNS_16ProcessReaderMacEymPS1_, symObjAddr: 0xC94, symBinAddr: 0x1000420A4, symSize: 0x160 }
  - { offset: 0x4D9C9C, size: 0x8, addend: 0x0, symName: __ZN8crashpad13process_types15segment_command13ReadArrayIntoEPNS_16ProcessReaderMacEymPS1_, symObjAddr: 0xDF4, symBinAddr: 0x100042204, symSize: 0x4 }
  - { offset: 0x4D9CE7, size: 0x8, addend: 0x0, symName: __ZN8crashpad13process_types15segment_command13ReadArrayIntoEPNS_16ProcessReaderMacEymPS1_, symObjAddr: 0xDF4, symBinAddr: 0x100042204, symSize: 0x4 }
  - { offset: 0x4D9D0F, size: 0x8, addend: 0x0, symName: __ZN8crashpad13process_types15segment_command21ReadArrayIntoInternalINS0_8internal15segment_commandINS3_8Traits64EEEEEbPNS_16ProcessReaderMacEymPS1_, symObjAddr: 0xDF8, symBinAddr: 0x100042208, symSize: 0xFC }
  - { offset: 0x4DA154, size: 0x8, addend: 0x0, symName: __ZN8crashpad13process_types13dylib_command13ReadArrayIntoEPNS_16ProcessReaderMacEymPS1_, symObjAddr: 0xEF4, symBinAddr: 0x100042304, symSize: 0x4 }
  - { offset: 0x4DA19F, size: 0x8, addend: 0x0, symName: __ZN8crashpad13process_types13dylib_command13ReadArrayIntoEPNS_16ProcessReaderMacEymPS1_, symObjAddr: 0xEF4, symBinAddr: 0x100042304, symSize: 0x4 }
  - { offset: 0x4DA1C7, size: 0x8, addend: 0x0, symName: __ZN8crashpad13process_types13dylib_command21ReadArrayIntoInternalINS0_8internal13dylib_commandINS3_8Traits64EEEEEbPNS_16ProcessReaderMacEymPS1_, symObjAddr: 0xEF8, symBinAddr: 0x100042308, symSize: 0xE8 }
  - { offset: 0x4DA7AB, size: 0x8, addend: 0x0, symName: __ZN8crashpad13process_types16dylinker_command13ReadArrayIntoEPNS_16ProcessReaderMacEymPS1_, symObjAddr: 0xFE0, symBinAddr: 0x1000423F0, symSize: 0xE8 }
  - { offset: 0x4DAA4C, size: 0x8, addend: 0x0, symName: __ZN8crashpad13process_types14symtab_command13ReadArrayIntoEPNS_16ProcessReaderMacEymPS1_, symObjAddr: 0x10C8, symBinAddr: 0x1000424D8, symSize: 0x4 }
  - { offset: 0x4DAA97, size: 0x8, addend: 0x0, symName: __ZN8crashpad13process_types14symtab_command13ReadArrayIntoEPNS_16ProcessReaderMacEymPS1_, symObjAddr: 0x10C8, symBinAddr: 0x1000424D8, symSize: 0x4 }
  - { offset: 0x4DAD9D, size: 0x8, addend: 0x0, symName: __ZN8crashpad13process_types16dysymtab_command13ReadArrayIntoEPNS_16ProcessReaderMacEymPS1_, symObjAddr: 0x11B4, symBinAddr: 0x1000424DC, symSize: 0x4 }
  - { offset: 0x4DADE8, size: 0x8, addend: 0x0, symName: __ZN8crashpad13process_types16dysymtab_command13ReadArrayIntoEPNS_16ProcessReaderMacEymPS1_, symObjAddr: 0x11B4, symBinAddr: 0x1000424DC, symSize: 0x4 }
  - { offset: 0x4DAE10, size: 0x8, addend: 0x0, symName: __ZN8crashpad13process_types16dysymtab_command21ReadArrayIntoInternalINS0_8internal16dysymtab_commandINS3_8Traits64EEEEEbPNS_16ProcessReaderMacEymPS1_, symObjAddr: 0x11B8, symBinAddr: 0x1000424E0, symSize: 0xF4 }
  - { offset: 0x4DB401, size: 0x8, addend: 0x0, symName: __ZN8crashpad13process_types12uuid_command13ReadArrayIntoEPNS_16ProcessReaderMacEymPS1_, symObjAddr: 0x12AC, symBinAddr: 0x1000425D4, symSize: 0xE4 }
  - { offset: 0x4DB880, size: 0x8, addend: 0x0, symName: __ZN8crashpad13process_types22source_version_command13ReadArrayIntoEPNS_16ProcessReaderMacEymPS1_, symObjAddr: 0x1390, symBinAddr: 0x1000426B8, symSize: 0xDC }
  - { offset: 0x4DBB0C, size: 0x8, addend: 0x0, symName: __ZN8crashpad13process_types7section13ReadArrayIntoEPNS_16ProcessReaderMacEymPS1_, symObjAddr: 0x146C, symBinAddr: 0x100042794, symSize: 0x4 }
  - { offset: 0x4DBB57, size: 0x8, addend: 0x0, symName: __ZN8crashpad13process_types7section13ReadArrayIntoEPNS_16ProcessReaderMacEymPS1_, symObjAddr: 0x146C, symBinAddr: 0x100042794, symSize: 0x4 }
  - { offset: 0x4DBE66, size: 0x8, addend: 0x0, symName: __ZN8crashpad13process_types5nlist13ReadArrayIntoEPNS_16ProcessReaderMacEymPS1_, symObjAddr: 0x1564, symBinAddr: 0x100042798, symSize: 0x4 }
  - { offset: 0x4DBEB1, size: 0x8, addend: 0x0, symName: __ZN8crashpad13process_types5nlist13ReadArrayIntoEPNS_16ProcessReaderMacEymPS1_, symObjAddr: 0x1564, symBinAddr: 0x100042798, symSize: 0x4 }
  - { offset: 0x4DBED9, size: 0x8, addend: 0x0, symName: __ZN8crashpad13process_types5nlist21ReadArrayIntoInternalINS0_8internal5nlistINS3_8Traits64EEEEEbPNS_16ProcessReaderMacEymPS1_, symObjAddr: 0x1568, symBinAddr: 0x10004279C, symSize: 0xD8 }
  - { offset: 0x4DC2CA, size: 0x8, addend: 0x0, symName: __ZN8crashpad13process_types27crashreporter_annotations_t22ExpectedSizeForVersionEPNS_16ProcessReaderMacEy, symObjAddr: 0x1640, symBinAddr: 0x100042874, symSize: 0x8 }
  - { offset: 0x4DC2FF, size: 0x8, addend: 0x0, symName: __ZN8crashpad13process_types20dyld_all_image_infos22ExpectedSizeForVersionEPNS_16ProcessReaderMacEj, symObjAddr: 0x1648, symBinAddr: 0x10004287C, symSize: 0x8 }
  - { offset: 0x4DC33E, size: 0x8, addend: 0x0, symName: __ZN8crashpad13process_types8internal12CrashpadInfoINS1_8Traits32EE11MinimumSizeEv, symObjAddr: 0x1650, symBinAddr: 0x100042884, symSize: 0x8 }
  - { offset: 0x4DC352, size: 0x8, addend: 0x0, symName: __ZN8crashpad13process_types8internal12CrashpadInfoINS1_8Traits64EE11MinimumSizeEv, symObjAddr: 0x1658, symBinAddr: 0x10004288C, symSize: 0x8 }
  - { offset: 0x4DC366, size: 0x8, addend: 0x0, symName: __ZN8crashpad13process_types12CrashpadInfo11MinimumSizeEPNS_16ProcessReaderMacE, symObjAddr: 0x1660, symBinAddr: 0x100042894, symSize: 0x8 }
  - { offset: 0x4E6566, size: 0x8, addend: 0x0, symName: __ZN8crashpad13process_types8internal20dyld_all_image_infosINS1_8Traits32EE22ExpectedSizeForVersionEj, symObjAddr: 0x0, symBinAddr: 0x10004289C, symSize: 0x54 }
  - { offset: 0x4E6586, size: 0x8, addend: 0x0, symName: __ZZN8crashpad13process_types8internal20dyld_all_image_infosINS1_8Traits32EE22ExpectedSizeForVersionEjE15kSizeForVersion, symObjAddr: 0xDC0, symBinAddr: 0x100078DB0, symSize: 0x0 }
  - { offset: 0x4E65F3, size: 0x8, addend: 0x0, symName: __ZN8crashpad13process_types8internal20dyld_all_image_infosINS1_8Traits64EE22ExpectedSizeForVersionEj, symObjAddr: 0x574, symBinAddr: 0x100042E10, symSize: 0x54 }
  - { offset: 0x4E6613, size: 0x8, addend: 0x0, symName: __ZZN8crashpad13process_types8internal20dyld_all_image_infosINS1_8Traits64EE22ExpectedSizeForVersionEjE15kSizeForVersion, symObjAddr: 0xE58, symBinAddr: 0x100078E48, symSize: 0x0 }
  - { offset: 0x4E6D46, size: 0x8, addend: 0x0, symName: __ZN8crashpad13process_types8internal20dyld_all_image_infosINS1_8Traits32EE8ReadIntoEPNS_16ProcessReaderMacEyPS4_, symObjAddr: 0x54, symBinAddr: 0x1000428F0, symSize: 0x1C4 }
  - { offset: 0x4E7208, size: 0x8, addend: 0x0, symName: __ZN8crashpad13process_types8internal27crashreporter_annotations_tINS1_8Traits32EE22ExpectedSizeForVersionEy, symObjAddr: 0x218, symBinAddr: 0x100042AB4, symSize: 0x1C }
  - { offset: 0x4E723A, size: 0x8, addend: 0x0, symName: __ZN8crashpad13process_types8internal27crashreporter_annotations_tINS1_8Traits32EE8ReadIntoEPNS_16ProcessReaderMacEyPS4_, symObjAddr: 0x234, symBinAddr: 0x100042AD0, symSize: 0x174 }
  - { offset: 0x4E76C7, size: 0x8, addend: 0x0, symName: __ZN8crashpad13process_types8internal12CrashpadInfoINS1_8Traits32EE8ReadIntoEPNS_16ProcessReaderMacEyPS4_, symObjAddr: 0x3A8, symBinAddr: 0x100042C44, symSize: 0x1CC }
  - { offset: 0x4E7B9A, size: 0x8, addend: 0x0, symName: __ZN8crashpad13process_types8internal20dyld_all_image_infosINS1_8Traits64EE8ReadIntoEPNS_16ProcessReaderMacEyPS4_, symObjAddr: 0x5C8, symBinAddr: 0x100042E64, symSize: 0xE4 }
  - { offset: 0x4E7CBE, size: 0x8, addend: 0x0, symName: __ZN8crashpad13process_types8internal27crashreporter_annotations_tINS1_8Traits64EE22ExpectedSizeForVersionEy, symObjAddr: 0x6AC, symBinAddr: 0x100042F48, symSize: 0x1C }
  - { offset: 0x4E7CF0, size: 0x8, addend: 0x0, symName: __ZN8crashpad13process_types8internal27crashreporter_annotations_tINS1_8Traits64EE8ReadIntoEPNS_16ProcessReaderMacEyPS4_, symObjAddr: 0x6C8, symBinAddr: 0x100042F64, symSize: 0xA0 }
  - { offset: 0x4E7DE1, size: 0x8, addend: 0x0, symName: __ZN8crashpad13process_types8internal12CrashpadInfoINS1_8Traits64EE8ReadIntoEPNS_16ProcessReaderMacEyPS4_, symObjAddr: 0x768, symBinAddr: 0x100043004, symSize: 0x1C8 }
  - { offset: 0x4F1499, size: 0x8, addend: 0x0, symName: __ZN8crashpad12_GLOBAL__N_119ReadIntSysctlByNameIiEET_PKcS2_, symObjAddr: 0xB84, symBinAddr: 0x1000439AC, symSize: 0xE8 }
  - { offset: 0x4F166B, size: 0x8, addend: 0x0, symName: __ZN8crashpad12_GLOBAL__N_119CastIntSysctlByNameIhEET_PKcS2_, symObjAddr: 0x498, symBinAddr: 0x100043664, symSize: 0xB0 }
  - { offset: 0x4F2286, size: 0x8, addend: 0x0, symName: __ZN8crashpad8internal17SystemSnapshotMacC2Ev, symObjAddr: 0x0, symBinAddr: 0x1000431CC, symSize: 0x28 }
  - { offset: 0x4F236A, size: 0x8, addend: 0x0, symName: __ZN8crashpad8internal17SystemSnapshotMacC1Ev, symObjAddr: 0x28, symBinAddr: 0x1000431F4, symSize: 0x28 }
  - { offset: 0x4F2398, size: 0x8, addend: 0x0, symName: __ZN8crashpad8internal17SystemSnapshotMacC1Ev, symObjAddr: 0x28, symBinAddr: 0x1000431F4, symSize: 0x28 }
  - { offset: 0x4F251F, size: 0x8, addend: 0x0, symName: __ZN8crashpad8internal17SystemSnapshotMacD2Ev, symObjAddr: 0x50, symBinAddr: 0x10004321C, symSize: 0x58 }
  - { offset: 0x4F27A6, size: 0x8, addend: 0x0, symName: __ZN8crashpad8internal17SystemSnapshotMacD1Ev, symObjAddr: 0xA8, symBinAddr: 0x100043274, symSize: 0x58 }
  - { offset: 0x4F2A45, size: 0x8, addend: 0x0, symName: __ZN8crashpad8internal17SystemSnapshotMacD0Ev, symObjAddr: 0x100, symBinAddr: 0x1000432CC, symSize: 0x58 }
  - { offset: 0x4F2E5C, size: 0x8, addend: 0x0, symName: __ZN8crashpad8internal17SystemSnapshotMac10InitializeEPNS_16ProcessReaderMacEPK7timeval, symObjAddr: 0x158, symBinAddr: 0x100043324, symSize: 0x264 }
  - { offset: 0x4F3911, size: 0x8, addend: 0x0, symName: __ZNK8crashpad8internal17SystemSnapshotMac18GetCPUArchitectureEv, symObjAddr: 0x3BC, symBinAddr: 0x100043588, symSize: 0x8 }
  - { offset: 0x4F3936, size: 0x8, addend: 0x0, symName: __ZNK8crashpad8internal17SystemSnapshotMac11CPURevisionEv, symObjAddr: 0x3C4, symBinAddr: 0x100043590, symSize: 0xC4 }
  - { offset: 0x4F3A4B, size: 0x8, addend: 0x0, symName: __ZNK8crashpad8internal17SystemSnapshotMac8CPUCountEv, symObjAddr: 0x488, symBinAddr: 0x100043654, symSize: 0x10 }
  - { offset: 0x4F3A83, size: 0x8, addend: 0x0, symName: __ZNK8crashpad8internal17SystemSnapshotMac9CPUVendorEv, symObjAddr: 0x548, symBinAddr: 0x100043714, symSize: 0x10 }
  - { offset: 0x4F3AC2, size: 0x8, addend: 0x0, symName: __ZNK8crashpad8internal17SystemSnapshotMac12CPUFrequencyEPyS2_, symObjAddr: 0x558, symBinAddr: 0x100043724, symSize: 0xC }
  - { offset: 0x4F3B01, size: 0x8, addend: 0x0, symName: __ZNK8crashpad8internal17SystemSnapshotMac15CPUX86SignatureEv, symObjAddr: 0x564, symBinAddr: 0x100043730, symSize: 0x8 }
  - { offset: 0x4F3B26, size: 0x8, addend: 0x0, symName: __ZNK8crashpad8internal17SystemSnapshotMac14CPUX86FeaturesEv, symObjAddr: 0x56C, symBinAddr: 0x100043738, symSize: 0x8 }
  - { offset: 0x4F3B4B, size: 0x8, addend: 0x0, symName: __ZNK8crashpad8internal17SystemSnapshotMac22CPUX86ExtendedFeaturesEv, symObjAddr: 0x574, symBinAddr: 0x100043740, symSize: 0x8 }
  - { offset: 0x4F3B70, size: 0x8, addend: 0x0, symName: __ZNK8crashpad8internal17SystemSnapshotMac19CPUX86Leaf7FeaturesEv, symObjAddr: 0x57C, symBinAddr: 0x100043748, symSize: 0x8 }
  - { offset: 0x4F3B95, size: 0x8, addend: 0x0, symName: __ZNK8crashpad8internal17SystemSnapshotMac17CPUX86SupportsDAZEv, symObjAddr: 0x584, symBinAddr: 0x100043750, symSize: 0x8 }
  - { offset: 0x4F3BBB, size: 0x8, addend: 0x0, symName: __ZNK8crashpad8internal17SystemSnapshotMac18GetOperatingSystemEv, symObjAddr: 0x58C, symBinAddr: 0x100043758, symSize: 0x8 }
  - { offset: 0x4F3BE1, size: 0x8, addend: 0x0, symName: __ZNK8crashpad8internal17SystemSnapshotMac8OSServerEv, symObjAddr: 0x594, symBinAddr: 0x100043760, symSize: 0x8 }
  - { offset: 0x4F3C2A, size: 0x8, addend: 0x0, symName: __ZNK8crashpad8internal17SystemSnapshotMac9OSVersionEPiS2_S2_PNSt3__112basic_stringIcNS3_11char_traitsIcEENS3_9allocatorIcEEEE, symObjAddr: 0x59C, symBinAddr: 0x100043768, symSize: 0x24 }
  - { offset: 0x4F3D17, size: 0x8, addend: 0x0, symName: __ZNK8crashpad8internal17SystemSnapshotMac13OSVersionFullEv, symObjAddr: 0x5C0, symBinAddr: 0x10004378C, symSize: 0x28 }
  - { offset: 0x4F3D60, size: 0x8, addend: 0x0, symName: __ZNK8crashpad8internal17SystemSnapshotMac13OSVersionFullEv, symObjAddr: 0x5C0, symBinAddr: 0x10004378C, symSize: 0x28 }
  - { offset: 0x4F3F31, size: 0x8, addend: 0x0, symName: __ZNK8crashpad8internal17SystemSnapshotMac18MachineDescriptionEv, symObjAddr: 0x5E8, symBinAddr: 0x1000437B4, symSize: 0x174 }
  - { offset: 0x4F486E, size: 0x8, addend: 0x0, symName: __ZNK8crashpad8internal17SystemSnapshotMac9NXEnabledEv, symObjAddr: 0x75C, symBinAddr: 0x100043928, symSize: 0x4C }
  - { offset: 0x4F492A, size: 0x8, addend: 0x0, symName: __ZNK8crashpad8internal17SystemSnapshotMac8TimeZoneEPNS_14SystemSnapshot24DaylightSavingTimeStatusEPiS5_PNSt3__112basic_stringIcNS6_11char_traitsIcEENS6_9allocatorIcEEEESD_, symObjAddr: 0x7A8, symBinAddr: 0x100043974, symSize: 0x8 }
  - { offset: 0x4F49D6, size: 0x8, addend: 0x0, symName: __ZNK8crashpad8internal17SystemSnapshotMac11AddressMaskEv, symObjAddr: 0x7B0, symBinAddr: 0x10004397C, symSize: 0x30 }
  - { offset: 0x4FFE8C, size: 0x8, addend: 0x0, symName: __ZN8crashpad8internal17ThreadSnapshotMacC2Ev, symObjAddr: 0x0, symBinAddr: 0x100043A94, symSize: 0x54 }
  - { offset: 0x4FFF12, size: 0x8, addend: 0x0, symName: __ZN8crashpad8internal17ThreadSnapshotMacC1Ev, symObjAddr: 0x54, symBinAddr: 0x100043AE8, symSize: 0x54 }
  - { offset: 0x50006E, size: 0x8, addend: 0x0, symName: __ZN8crashpad8internal17ThreadSnapshotMacD2Ev, symObjAddr: 0xA8, symBinAddr: 0x100043B3C, symSize: 0x38 }
  - { offset: 0x5000C3, size: 0x8, addend: 0x0, symName: __ZN8crashpad8internal17ThreadSnapshotMacD2Ev, symObjAddr: 0xA8, symBinAddr: 0x100043B3C, symSize: 0x38 }
  - { offset: 0x5001E1, size: 0x8, addend: 0x0, symName: __ZN8crashpad8internal17ThreadSnapshotMacD1Ev, symObjAddr: 0xE4, symBinAddr: 0x100043B74, symSize: 0x38 }
  - { offset: 0x50024D, size: 0x8, addend: 0x0, symName: __ZN8crashpad8internal17ThreadSnapshotMacD1Ev, symObjAddr: 0xE4, symBinAddr: 0x100043B74, symSize: 0x38 }
  - { offset: 0x50036C, size: 0x8, addend: 0x0, symName: __ZN8crashpad8internal17ThreadSnapshotMacD0Ev, symObjAddr: 0x11C, symBinAddr: 0x100043BAC, symSize: 0x38 }
  - { offset: 0x5003F9, size: 0x8, addend: 0x0, symName: __ZN8crashpad8internal17ThreadSnapshotMacD0Ev, symObjAddr: 0x11C, symBinAddr: 0x100043BAC, symSize: 0x38 }
  - { offset: 0x50054F, size: 0x8, addend: 0x0, symName: __ZN8crashpad8internal17ThreadSnapshotMac10InitializeEPNS_16ProcessReaderMacERKNS2_6ThreadE, symObjAddr: 0x154, symBinAddr: 0x100043BE4, symSize: 0xA4 }
  - { offset: 0x50062D, size: 0x8, addend: 0x0, symName: __ZNK8crashpad8internal17ThreadSnapshotMac7ContextEv, symObjAddr: 0x1F8, symBinAddr: 0x100043C88, symSize: 0x8 }
  - { offset: 0x500656, size: 0x8, addend: 0x0, symName: __ZNK8crashpad8internal17ThreadSnapshotMac5StackEv, symObjAddr: 0x200, symBinAddr: 0x100043C90, symSize: 0x8 }
  - { offset: 0x50067F, size: 0x8, addend: 0x0, symName: __ZNK8crashpad8internal17ThreadSnapshotMac8ThreadIDEv, symObjAddr: 0x208, symBinAddr: 0x100043C98, symSize: 0x8 }
  - { offset: 0x500722, size: 0x8, addend: 0x0, symName: __ZNK8crashpad8internal17ThreadSnapshotMac10ThreadNameEv, symObjAddr: 0x210, symBinAddr: 0x100043CA0, symSize: 0x30 }
  - { offset: 0x50077D, size: 0x8, addend: 0x0, symName: __ZNK8crashpad8internal17ThreadSnapshotMac10ThreadNameEv, symObjAddr: 0x210, symBinAddr: 0x100043CA0, symSize: 0x30 }
  - { offset: 0x50090C, size: 0x8, addend: 0x0, symName: __ZNK8crashpad8internal17ThreadSnapshotMac12SuspendCountEv, symObjAddr: 0x240, symBinAddr: 0x100043CD0, symSize: 0x8 }
  - { offset: 0x500935, size: 0x8, addend: 0x0, symName: __ZNK8crashpad8internal17ThreadSnapshotMac8PriorityEv, symObjAddr: 0x248, symBinAddr: 0x100043CD8, symSize: 0x8 }
  - { offset: 0x50095E, size: 0x8, addend: 0x0, symName: __ZNK8crashpad8internal17ThreadSnapshotMac25ThreadSpecificDataAddressEv, symObjAddr: 0x250, symBinAddr: 0x100043CE0, symSize: 0x8 }
  - { offset: 0x5009C0, size: 0x8, addend: 0x0, symName: __ZNK8crashpad8internal17ThreadSnapshotMac11ExtraMemoryEv, symObjAddr: 0x258, symBinAddr: 0x100043CE8, symSize: 0xC }
  - { offset: 0x5009E8, size: 0x8, addend: 0x0, symName: __ZNK8crashpad8internal17ThreadSnapshotMac11ExtraMemoryEv, symObjAddr: 0x258, symBinAddr: 0x100043CE8, symSize: 0xC }
  - { offset: 0x500A05, size: 0x8, addend: 0x0, symName: __ZNK8crashpad8internal17ThreadSnapshotMac11ExtraMemoryEv, symObjAddr: 0x258, symBinAddr: 0x100043CE8, symSize: 0xC }
  - { offset: 0x500A22, size: 0x8, addend: 0x0, symName: __ZNK8crashpad8internal21MemorySnapshotGeneric7AddressEv, symObjAddr: 0x268, symBinAddr: 0x100043CF4, symSize: 0x8 }
  - { offset: 0x500A49, size: 0x8, addend: 0x0, symName: __ZNK8crashpad8internal21MemorySnapshotGeneric4SizeEv, symObjAddr: 0x270, symBinAddr: 0x100043CFC, symSize: 0x8 }
  - { offset: 0x500BC2, size: 0x8, addend: 0x0, symName: __ZNK8crashpad8internal21MemorySnapshotGeneric4ReadEPNS_14MemorySnapshot8DelegateE, symObjAddr: 0x278, symBinAddr: 0x100043D04, symSize: 0xB8 }
  - { offset: 0x500EE3, size: 0x8, addend: 0x0, symName: __ZNK8crashpad8internal21MemorySnapshotGeneric22MergeWithOtherSnapshotEPKNS_14MemorySnapshotE, symObjAddr: 0x330, symBinAddr: 0x100043DBC, symSize: 0xD8 }
  - { offset: 0x503313, size: 0x8, addend: 0x0, symName: __ZN8crashpad11ToolSupport7VersionERKN4base8FilePathE, symObjAddr: 0x0, symBinAddr: 0x100043E94, symSize: 0x64 }
  - { offset: 0x50654B, size: 0x8, addend: 0x0, symName: __ZN8crashpad11ToolSupport7VersionERKN4base8FilePathE, symObjAddr: 0x0, symBinAddr: 0x100043E94, symSize: 0x64 }
  - { offset: 0x5067A8, size: 0x8, addend: 0x0, symName: __ZN8crashpad11ToolSupport9UsageTailERKN4base8FilePathE, symObjAddr: 0x64, symBinAddr: 0x100043EF8, symSize: 0x64 }
  - { offset: 0x506850, size: 0x8, addend: 0x0, symName: __ZN8crashpad11ToolSupport9UsageHintERKN4base8FilePathEPKc, symObjAddr: 0xC8, symBinAddr: 0x100043F5C, symSize: 0x78 }
  - { offset: 0x5069A0, size: 0x8, addend: 0x0, symName: __ZN8crashpad11ToolSupport7VersionERKNSt3__112basic_stringIcNS1_11char_traitsIcEENS1_9allocatorIcEEEE, symObjAddr: 0x140, symBinAddr: 0x100043FD4, symSize: 0x80 }
  - { offset: 0x506A8D, size: 0x8, addend: 0x0, symName: __ZN8crashpad11ToolSupport9UsageTailERKNSt3__112basic_stringIcNS1_11char_traitsIcEENS1_9allocatorIcEEEE, symObjAddr: 0x1C0, symBinAddr: 0x100044054, symSize: 0x80 }
  - { offset: 0x506B85, size: 0x8, addend: 0x0, symName: __ZN8crashpad11ToolSupport9UsageHintERKNSt3__112basic_stringIcNS1_11char_traitsIcEENS1_9allocatorIcEEEEPKc, symObjAddr: 0x240, symBinAddr: 0x1000440D4, symSize: 0x98 }
  - { offset: 0x506EE7, size: 0x8, addend: 0x0, symName: __ZN8crashpad11ToolSupport39CommandLineArgumentToFilePathStringTypeERKN4base16BasicStringPieceINSt3__112basic_stringIcNS3_11char_traitsIcEENS3_9allocatorIcEEEEEE, symObjAddr: 0x2D8, symBinAddr: 0x10004416C, symSize: 0xA0 }
  - { offset: 0x507153, size: 0x8, addend: 0x0, symName: __ZN8crashpad11ToolSupport29FilePathToCommandLineArgumentERKN4base8FilePathE, symObjAddr: 0x378, symBinAddr: 0x10004420C, symSize: 0x28 }
  - { offset: 0x5071EC, size: 0x8, addend: 0x0, symName: __ZN8crashpad11ToolSupport29FilePathToCommandLineArgumentERKN4base8FilePathE, symObjAddr: 0x378, symBinAddr: 0x10004420C, symSize: 0x28 }
  - { offset: 0x507255, size: 0x8, addend: 0x0, symName: __ZN8crashpad11ToolSupport29FilePathToCommandLineArgumentERKN4base8FilePathE, symObjAddr: 0x378, symBinAddr: 0x10004420C, symSize: 0x28 }
  - { offset: 0x50905B, size: 0x8, addend: 0x0, symName: __ZN8crashpad15CopyFileContentEPNS_19FileReaderInterfaceEPNS_19FileWriterInterfaceE, symObjAddr: 0x0, symBinAddr: 0x100044234, symSize: 0xB0 }
  - { offset: 0x50906E, size: 0x8, addend: 0x0, symName: __ZN8crashpad15CopyFileContentEPNS_19FileReaderInterfaceEPNS_19FileWriterInterfaceE, symObjAddr: 0x0, symBinAddr: 0x100044234, symSize: 0xB0 }
  - { offset: 0x50BC5C, size: 0x8, addend: 0x0, symName: __ZN7logging17MakeCheckOpStringIliEEPNSt3__112basic_stringIcNS1_11char_traitsIcEENS1_9allocatorIcEEEERKT_RKT0_PKc, symObjAddr: 0xCE8, symBinAddr: 0x100044BEC, symSize: 0x1F8 }
  - { offset: 0x50C102, size: 0x8, addend: 0x0, symName: __ZN8crashpad8internalL24kNativeWriteFunctionNameE, symObjAddr: 0x1BCC, symBinAddr: 0x100078F5C, symSize: 0x0 }
  - { offset: 0x50C11C, size: 0x8, addend: 0x0, symName: __ZN8crashpad8internalL23kNativeReadFunctionNameE, symObjAddr: 0x1BD2, symBinAddr: 0x100078F62, symSize: 0x0 }
  - { offset: 0x50C3E7, size: 0x8, addend: 0x0, symName: __ZN8crashpad15ReadFileExactlyEiPvm, symObjAddr: 0x174, symBinAddr: 0x100044458, symSize: 0xA8 }
  - { offset: 0x50C51B, size: 0x8, addend: 0x0, symName: __ZN8crashpad22LoggingReadFileExactlyEiPvm, symObjAddr: 0x21C, symBinAddr: 0x100044500, symSize: 0x34 }
  - { offset: 0x50C5CB, size: 0x8, addend: 0x0, symName: __ZN8crashpad9WriteFileEiPKvm, symObjAddr: 0x250, symBinAddr: 0x100044534, symSize: 0x68 }
  - { offset: 0x50C6FC, size: 0x8, addend: 0x0, symName: __ZN8crashpad16LoggingWriteFileEiPKvm, symObjAddr: 0x2B8, symBinAddr: 0x10004459C, symSize: 0xCC }
  - { offset: 0x50C8D8, size: 0x8, addend: 0x0, symName: __ZN8crashpad22CheckedReadFileExactlyEiPvm, symObjAddr: 0x384, symBinAddr: 0x100044668, symSize: 0xA4 }
  - { offset: 0x50CA63, size: 0x8, addend: 0x0, symName: __ZN8crashpad16CheckedWriteFileEiPKvm, symObjAddr: 0x428, symBinAddr: 0x10004470C, symSize: 0x8C }
  - { offset: 0x50CB61, size: 0x8, addend: 0x0, symName: __ZN8crashpad20CheckedReadFileAtEOFEi, symObjAddr: 0x4B4, symBinAddr: 0x100044798, symSize: 0x134 }
  - { offset: 0x50CD81, size: 0x8, addend: 0x0, symName: __ZN8crashpad16LoggingReadToEOFEiPNSt3__112basic_stringIcNS0_11char_traitsIcEENS0_9allocatorIcEEEE, symObjAddr: 0x5E8, symBinAddr: 0x1000448CC, symSize: 0x16C }
  - { offset: 0x50D1EB, size: 0x8, addend: 0x0, symName: __ZN8crashpad21LoggingReadEntireFileERKN4base8FilePathEPNSt3__112basic_stringIcNS4_11char_traitsIcEENS4_9allocatorIcEEEE, symObjAddr: 0x754, symBinAddr: 0x100044A38, symSize: 0x80 }
  - { offset: 0x50D35F, size: 0x8, addend: 0x0, symName: __ZN8crashpad16CheckedCloseFileEi, symObjAddr: 0x810, symBinAddr: 0x100044AB8, symSize: 0x8C }
  - { offset: 0x511F33, size: 0x8, addend: 0x0, symName: __ZN8crashpad8internal19ReadExactlyInternal11ReadExactlyEPvmb, symObjAddr: 0x0, symBinAddr: 0x1000442E4, symSize: 0x118 }
  - { offset: 0x512074, size: 0x8, addend: 0x0, symName: __ZN8crashpad8internal16WriteAllInternal8WriteAllEPKvm, symObjAddr: 0x118, symBinAddr: 0x1000443FC, symSize: 0x5C }
  - { offset: 0x5125A6, size: 0x8, addend: 0x0, symName: __ZN8crashpad12_GLOBAL__N_117FileIOReadExactly4ReadEPvmb, symObjAddr: 0x89C, symBinAddr: 0x100044B44, symSize: 0xA0 }
  - { offset: 0x51269D, size: 0x8, addend: 0x0, symName: __ZN8crashpad12_GLOBAL__N_114FileIOWriteAll5WriteEPKvm, symObjAddr: 0x93C, symBinAddr: 0x100044BE4, symSize: 0x8 }
  - { offset: 0x515562, size: 0x8, addend: 0x0, symName: __ZN8crashpad8internalL23kNativeReadFunctionNameE, symObjAddr: 0xC46, symBinAddr: 0x10007900F, symSize: 0x0 }
  - { offset: 0x51A1D5, size: 0x8, addend: 0x0, symName: __ZN8crashpad19FileReaderInterface11ReadExactlyEPvm, symObjAddr: 0x0, symBinAddr: 0x100044DE4, symSize: 0x30 }
  - { offset: 0x51A29F, size: 0x8, addend: 0x0, symName: __ZN8crashpad24WeakFileHandleFileReaderC2Ei, symObjAddr: 0x30, symBinAddr: 0x100044E14, symSize: 0x30 }
  - { offset: 0x51A2E6, size: 0x8, addend: 0x0, symName: __ZN8crashpad24WeakFileHandleFileReaderC2Ei, symObjAddr: 0x30, symBinAddr: 0x100044E14, symSize: 0x30 }
  - { offset: 0x51A30B, size: 0x8, addend: 0x0, symName: __ZN8crashpad24WeakFileHandleFileReaderC1Ei, symObjAddr: 0x60, symBinAddr: 0x100044E44, symSize: 0x14 }
  - { offset: 0x51A334, size: 0x8, addend: 0x0, symName: __ZN8crashpad24WeakFileHandleFileReaderD2Ev, symObjAddr: 0x74, symBinAddr: 0x100044E58, symSize: 0x4 }
  - { offset: 0x51A36B, size: 0x8, addend: 0x0, symName: __ZN8crashpad24WeakFileHandleFileReaderD1Ev, symObjAddr: 0x78, symBinAddr: 0x100044E5C, symSize: 0x4 }
  - { offset: 0x51A396, size: 0x8, addend: 0x0, symName: __ZN8crashpad24WeakFileHandleFileReaderD0Ev, symObjAddr: 0x7C, symBinAddr: 0x100044E60, symSize: 0x4 }
  - { offset: 0x51A470, size: 0x8, addend: 0x0, symName: __ZN8crashpad24WeakFileHandleFileReader4ReadEPvm, symObjAddr: 0x80, symBinAddr: 0x100044E64, symSize: 0xA4 }
  - { offset: 0x51A582, size: 0x8, addend: 0x0, symName: __ZN8crashpad24WeakFileHandleFileReader4SeekExi, symObjAddr: 0x124, symBinAddr: 0x100044F08, symSize: 0x8 }
  - { offset: 0x51A604, size: 0x8, addend: 0x0, symName: __ZTv0_n24_N8crashpad24WeakFileHandleFileReader4SeekExi, symObjAddr: 0x12C, symBinAddr: 0x100044F10, symSize: 0x14 }
  - { offset: 0x51A75F, size: 0x8, addend: 0x0, symName: __ZN8crashpad10FileReaderC2Ev, symObjAddr: 0x140, symBinAddr: 0x100044F24, symSize: 0x44 }
  - { offset: 0x51A799, size: 0x8, addend: 0x0, symName: __ZN8crashpad10FileReaderC2Ev, symObjAddr: 0x140, symBinAddr: 0x100044F24, symSize: 0x44 }
  - { offset: 0x51A865, size: 0x8, addend: 0x0, symName: __ZN8crashpad10FileReaderC1Ev, symObjAddr: 0x184, symBinAddr: 0x100044F68, symSize: 0x28 }
  - { offset: 0x51A981, size: 0x8, addend: 0x0, symName: __ZN8crashpad10FileReaderD2Ev, symObjAddr: 0x1AC, symBinAddr: 0x100044F90, symSize: 0x50 }
  - { offset: 0x51AA29, size: 0x8, addend: 0x0, symName: __ZN8crashpad10FileReaderD1Ev, symObjAddr: 0x1FC, symBinAddr: 0x100044FE0, symSize: 0x48 }
  - { offset: 0x51AAD0, size: 0x8, addend: 0x0, symName: __ZN8crashpad10FileReaderD0Ev, symObjAddr: 0x244, symBinAddr: 0x100045028, symSize: 0x40 }
  - { offset: 0x51ABDA, size: 0x8, addend: 0x0, symName: __ZN8crashpad10FileReader4OpenERKN4base8FilePathE, symObjAddr: 0x284, symBinAddr: 0x100045068, symSize: 0xE8 }
  - { offset: 0x51AD60, size: 0x8, addend: 0x0, symName: __ZN8crashpad10FileReader5CloseEv, symObjAddr: 0x36C, symBinAddr: 0x100045150, symSize: 0xCC }
  - { offset: 0x51AE91, size: 0x8, addend: 0x0, symName: __ZN8crashpad10FileReader4ReadEPvm, symObjAddr: 0x438, symBinAddr: 0x10004521C, symSize: 0x8 }
  - { offset: 0x51AEF0, size: 0x8, addend: 0x0, symName: __ZN8crashpad10FileReader4SeekExi, symObjAddr: 0x440, symBinAddr: 0x100045224, symSize: 0x8 }
  - { offset: 0x51AF26, size: 0x8, addend: 0x0, symName: __ZN8crashpad10FileReader4SeekExi, symObjAddr: 0x440, symBinAddr: 0x100045224, symSize: 0x8 }
  - { offset: 0x51AF9D, size: 0x8, addend: 0x0, symName: __ZTv0_n24_N8crashpad10FileReader4SeekExi, symObjAddr: 0x448, symBinAddr: 0x10004522C, symSize: 0x14 }
  - { offset: 0x51B02D, size: 0x8, addend: 0x0, symName: __ZN8crashpad19FileReaderInterfaceD1Ev, symObjAddr: 0x45C, symBinAddr: 0x10006186C, symSize: 0x4 }
  - { offset: 0x51B056, size: 0x8, addend: 0x0, symName: __ZN8crashpad12_GLOBAL__N_121FileReaderReadExactly4ReadEPvmb, symObjAddr: 0x464, symBinAddr: 0x100045240, symSize: 0x10 }
  - { offset: 0x521D1A, size: 0x8, addend: 0x0, symName: __ZN8crashpad19FileSeekerInterface7SeekGetEv, symObjAddr: 0x0, symBinAddr: 0x100045250, symSize: 0x14 }
  - { offset: 0x521DFD, size: 0x8, addend: 0x0, symName: __ZN8crashpad19FileSeekerInterface7SeekSetEx, symObjAddr: 0x14, symBinAddr: 0x100045264, symSize: 0xDC }
  - { offset: 0x5299EF, size: 0x8, addend: 0x0, symName: __ZN8crashpad24WeakFileHandleFileWriterC2Ei, symObjAddr: 0x0, symBinAddr: 0x100045340, symSize: 0x30 }
  - { offset: 0x529A36, size: 0x8, addend: 0x0, symName: __ZN8crashpad24WeakFileHandleFileWriterC2Ei, symObjAddr: 0x0, symBinAddr: 0x100045340, symSize: 0x30 }
  - { offset: 0x529A5B, size: 0x8, addend: 0x0, symName: __ZN8crashpad24WeakFileHandleFileWriterC1Ei, symObjAddr: 0x30, symBinAddr: 0x100045370, symSize: 0x14 }
  - { offset: 0x529A84, size: 0x8, addend: 0x0, symName: __ZN8crashpad24WeakFileHandleFileWriterD2Ev, symObjAddr: 0x44, symBinAddr: 0x100045384, symSize: 0x4 }
  - { offset: 0x529ABB, size: 0x8, addend: 0x0, symName: __ZN8crashpad24WeakFileHandleFileWriterD1Ev, symObjAddr: 0x48, symBinAddr: 0x100045388, symSize: 0x4 }
  - { offset: 0x529AE6, size: 0x8, addend: 0x0, symName: __ZN8crashpad24WeakFileHandleFileWriterD0Ev, symObjAddr: 0x4C, symBinAddr: 0x10004538C, symSize: 0x4 }
  - { offset: 0x529B11, size: 0x8, addend: 0x0, symName: __ZN8crashpad24WeakFileHandleFileWriter5WriteEPKvm, symObjAddr: 0x50, symBinAddr: 0x100045390, symSize: 0x8 }
  - { offset: 0x529CA2, size: 0x8, addend: 0x0, symName: __ZN8crashpad24WeakFileHandleFileWriter10WriteIoVecEPNSt3__16vectorINS_13WritableIoVecENS1_9allocatorIS3_EEEE, symObjAddr: 0x58, symBinAddr: 0x100045398, symSize: 0x2A8 }
  - { offset: 0x529FD4, size: 0x8, addend: 0x0, symName: __ZN8crashpad24WeakFileHandleFileWriter4SeekExi, symObjAddr: 0x300, symBinAddr: 0x100045640, symSize: 0x8 }
  - { offset: 0x52A056, size: 0x8, addend: 0x0, symName: __ZTv0_n24_N8crashpad24WeakFileHandleFileWriter4SeekExi, symObjAddr: 0x308, symBinAddr: 0x100045648, symSize: 0x14 }
  - { offset: 0x52A3CC, size: 0x8, addend: 0x0, symName: __ZN8crashpad10FileWriterC2Ev, symObjAddr: 0x31C, symBinAddr: 0x10004565C, symSize: 0x44 }
  - { offset: 0x52A406, size: 0x8, addend: 0x0, symName: __ZN8crashpad10FileWriterC2Ev, symObjAddr: 0x31C, symBinAddr: 0x10004565C, symSize: 0x44 }
  - { offset: 0x52A4D2, size: 0x8, addend: 0x0, symName: __ZN8crashpad10FileWriterC1Ev, symObjAddr: 0x360, symBinAddr: 0x1000456A0, symSize: 0x28 }
  - { offset: 0x52A5EE, size: 0x8, addend: 0x0, symName: __ZN8crashpad10FileWriterD2Ev, symObjAddr: 0x388, symBinAddr: 0x1000456C8, symSize: 0x50 }
  - { offset: 0x52A696, size: 0x8, addend: 0x0, symName: __ZN8crashpad10FileWriterD1Ev, symObjAddr: 0x3D8, symBinAddr: 0x100045718, symSize: 0x48 }
  - { offset: 0x52A73D, size: 0x8, addend: 0x0, symName: __ZN8crashpad10FileWriterD0Ev, symObjAddr: 0x420, symBinAddr: 0x100045760, symSize: 0x40 }
  - { offset: 0x52A847, size: 0x8, addend: 0x0, symName: __ZN8crashpad10FileWriter4OpenERKN4base8FilePathENS_13FileWriteModeENS_15FilePermissionsE, symObjAddr: 0x460, symBinAddr: 0x1000457A0, symSize: 0x100 }
  - { offset: 0x52A9F9, size: 0x8, addend: 0x0, symName: __ZN8crashpad10FileWriter5CloseEv, symObjAddr: 0x560, symBinAddr: 0x1000458A0, symSize: 0xCC }
  - { offset: 0x52AB58, size: 0x8, addend: 0x0, symName: __ZN8crashpad10FileWriter5WriteEPKvm, symObjAddr: 0x62C, symBinAddr: 0x10004596C, symSize: 0x8 }
  - { offset: 0x52AB9E, size: 0x8, addend: 0x0, symName: __ZN8crashpad10FileWriter5WriteEPKvm, symObjAddr: 0x62C, symBinAddr: 0x10004596C, symSize: 0x8 }
  - { offset: 0x52ABE7, size: 0x8, addend: 0x0, symName: __ZN8crashpad10FileWriter10WriteIoVecEPNSt3__16vectorINS_13WritableIoVecENS1_9allocatorIS3_EEEE, symObjAddr: 0x634, symBinAddr: 0x100045974, symSize: 0x8 }
  - { offset: 0x52AC32, size: 0x8, addend: 0x0, symName: __ZN8crashpad10FileWriter4SeekExi, symObjAddr: 0x63C, symBinAddr: 0x10004597C, symSize: 0x8 }
  - { offset: 0x52AC68, size: 0x8, addend: 0x0, symName: __ZN8crashpad10FileWriter4SeekExi, symObjAddr: 0x63C, symBinAddr: 0x10004597C, symSize: 0x8 }
  - { offset: 0x52ACDF, size: 0x8, addend: 0x0, symName: __ZTv0_n24_N8crashpad10FileWriter4SeekExi, symObjAddr: 0x644, symBinAddr: 0x100045984, symSize: 0x14 }
  - { offset: 0x52D07A, size: 0x8, addend: 0x0, symName: __ZN8crashpad22ScopedRemoveFileTraits4FreeERKN4base8FilePathE, symObjAddr: 0x0, symBinAddr: 0x100045998, symSize: 0x4 }
  - { offset: 0x52FCBB, size: 0x8, addend: 0x0, symName: __ZN8crashpad22ScopedRemoveFileTraits4FreeERKN4base8FilePathE, symObjAddr: 0x0, symBinAddr: 0x100045998, symSize: 0x4 }
  - { offset: 0x52FCE1, size: 0x8, addend: 0x0, symName: __ZN8crashpad22ScopedRemoveFileTraits4FreeERKN4base8FilePathE, symObjAddr: 0x0, symBinAddr: 0x100045998, symSize: 0x4 }
  - { offset: 0x531AAD, size: 0x8, addend: 0x0, symName: __ZN4base18UmaHistogramSparseERKNSt3__112basic_stringIcNS0_11char_traitsIcEENS0_9allocatorIcEEEEi, symObjAddr: 0x0, symBinAddr: 0x10004599C, symSize: 0x4 }
  - { offset: 0x53442D, size: 0x8, addend: 0x0, symName: __ZN4base18UmaHistogramSparseERKNSt3__112basic_stringIcNS0_11char_traitsIcEENS0_9allocatorIcEEEEi, symObjAddr: 0x0, symBinAddr: 0x10004599C, symSize: 0x4 }
  - { offset: 0x534532, size: 0x8, addend: 0x0, symName: __ZN8crashpad7Metrics18CrashReportPendingENS0_19PendingReportReasonE, symObjAddr: 0x4, symBinAddr: 0x1000459A0, symSize: 0x4 }
  - { offset: 0x534556, size: 0x8, addend: 0x0, symName: __ZN8crashpad7Metrics15CrashReportSizeEx, symObjAddr: 0x8, symBinAddr: 0x1000459A4, symSize: 0x4 }
  - { offset: 0x53457A, size: 0x8, addend: 0x0, symName: __ZN8crashpad7Metrics20CrashUploadAttemptedEb, symObjAddr: 0xC, symBinAddr: 0x1000459A8, symSize: 0x4 }
  - { offset: 0x5345A3, size: 0x8, addend: 0x0, symName: __ZN8crashpad7Metrics20CrashUploadErrorCodeEi, symObjAddr: 0x10, symBinAddr: 0x1000459AC, symSize: 0x4 }
  - { offset: 0x5345C7, size: 0x8, addend: 0x0, symName: __ZN8crashpad7Metrics18CrashUploadSkippedENS0_18CrashSkippedReasonE, symObjAddr: 0x14, symBinAddr: 0x1000459B0, symSize: 0x4 }
  - { offset: 0x5345EB, size: 0x8, addend: 0x0, symName: __ZN8crashpad7Metrics22ExceptionCaptureResultENS0_13CaptureResultE, symObjAddr: 0x18, symBinAddr: 0x1000459B4, symSize: 0x4 }
  - { offset: 0x53460F, size: 0x8, addend: 0x0, symName: __ZN8crashpad7Metrics13ExceptionCodeEj, symObjAddr: 0x1C, symBinAddr: 0x1000459B8, symSize: 0x4 }
  - { offset: 0x534633, size: 0x8, addend: 0x0, symName: __ZN8crashpad7Metrics20ExceptionEncounteredEv, symObjAddr: 0x20, symBinAddr: 0x1000459BC, symSize: 0x4 }
  - { offset: 0x534649, size: 0x8, addend: 0x0, symName: __ZN8crashpad7Metrics24HandlerLifetimeMilestoneENS0_17LifetimeMilestoneE, symObjAddr: 0x24, symBinAddr: 0x1000459C0, symSize: 0x4 }
  - { offset: 0x53466D, size: 0x8, addend: 0x0, symName: __ZN8crashpad7Metrics14HandlerCrashedEj, symObjAddr: 0x28, symBinAddr: 0x1000459C4, symSize: 0x4 }
  - { offset: 0x53645A, size: 0x8, addend: 0x0, symName: __ZN8crashpad12RandomStringEv, symObjAddr: 0x0, symBinAddr: 0x1000459C8, symSize: 0x200 }
  - { offset: 0x5390AE, size: 0x8, addend: 0x0, symName: __ZN8crashpad12RandomStringEv, symObjAddr: 0x0, symBinAddr: 0x1000459C8, symSize: 0x200 }
  - { offset: 0x53FC54, size: 0x8, addend: 0x0, symName: __ZN8crashpad18ScopedForbidReturnD2Ev, symObjAddr: 0x0, symBinAddr: 0x100045BC8, symSize: 0x80 }
  - { offset: 0x53FCEA, size: 0x8, addend: 0x0, symName: __ZN8crashpad18ScopedForbidReturnD1Ev, symObjAddr: 0x90, symBinAddr: 0x100045C48, symSize: 0x80 }
  - { offset: 0x54208E, size: 0x8, addend: 0x0, symName: __ZNK8crashpad4UUIDeqERKS0_, symObjAddr: 0x0, symBinAddr: 0x100045CC8, symSize: 0x18 }
  - { offset: 0x545662, size: 0x8, addend: 0x0, symName: __ZN8crashpad4UUID20InitializeFromStringERKN4base16BasicStringPieceINSt3__112basic_stringIcNS3_11char_traitsIcEENS3_9allocatorIcEEEEEE, symObjAddr: 0xB4, symBinAddr: 0x100045D7C, symSize: 0xA0 }
  - { offset: 0x545688, size: 0x8, addend: 0x0, symName: __ZZN8crashpad4UUID20InitializeFromStringERKN4base16BasicStringPieceINSt3__112basic_stringIcNS3_11char_traitsIcEENS3_9allocatorIcEEEEEEE11kScanFormat, symObjAddr: 0x270, symBinAddr: 0x100079124, symSize: 0x0 }
  - { offset: 0x5456D3, size: 0x8, addend: 0x0, symName: __ZN8crashpad4UUID20InitializeFromStringERKN4base16BasicStringPieceINSt3__112basic_stringIcNS3_11char_traitsIcEENS3_9allocatorIcEEEEEE, symObjAddr: 0xB4, symBinAddr: 0x100045D7C, symSize: 0xA0 }
  - { offset: 0x545775, size: 0x8, addend: 0x0, symName: __ZNK8crashpad4UUIDeqERKS0_, symObjAddr: 0x0, symBinAddr: 0x100045CC8, symSize: 0x18 }
  - { offset: 0x5457AB, size: 0x8, addend: 0x0, symName: __ZNK8crashpad4UUIDltERKS0_, symObjAddr: 0x18, symBinAddr: 0x100045CE0, symSize: 0x4C }
  - { offset: 0x5457E1, size: 0x8, addend: 0x0, symName: __ZN8crashpad4UUID16InitializeToZeroEv, symObjAddr: 0x64, symBinAddr: 0x100045D2C, symSize: 0x8 }
  - { offset: 0x545871, size: 0x8, addend: 0x0, symName: __ZN8crashpad4UUID19InitializeFromBytesEPKh, symObjAddr: 0x6C, symBinAddr: 0x100045D34, symSize: 0x48 }
  - { offset: 0x5458A5, size: 0x8, addend: 0x0, symName: __ZN8crashpad4UUID19InitializeFromBytesEPKh, symObjAddr: 0x6C, symBinAddr: 0x100045D34, symSize: 0x48 }
  - { offset: 0x5458C2, size: 0x8, addend: 0x0, symName: __ZN8crashpad4UUID19InitializeFromBytesEPKh, symObjAddr: 0x6C, symBinAddr: 0x100045D34, symSize: 0x48 }
  - { offset: 0x545AC1, size: 0x8, addend: 0x0, symName: __ZN8crashpad4UUID17InitializeWithNewEv, symObjAddr: 0x154, symBinAddr: 0x100045E1C, symSize: 0xA4 }
  - { offset: 0x545CA4, size: 0x8, addend: 0x0, symName: __ZNK8crashpad4UUID8ToStringEv, symObjAddr: 0x1F8, symBinAddr: 0x100045EC0, symSize: 0x68 }
  - { offset: 0x547A65, size: 0x8, addend: 0x0, symName: __ZN8crashpad29ZlibWindowBitsWithGzipWrapperEi, symObjAddr: 0x0, symBinAddr: 0x100045F28, symSize: 0x8 }
  - { offset: 0x547A8B, size: 0x8, addend: 0x0, symName: __ZN8crashpad29ZlibWindowBitsWithGzipWrapperEi, symObjAddr: 0x0, symBinAddr: 0x100045F28, symSize: 0x8 }
  - { offset: 0x547ABA, size: 0x8, addend: 0x0, symName: __ZN8crashpad15ZlibErrorStringEi, symObjAddr: 0x8, symBinAddr: 0x100045F30, symSize: 0x40 }
  - { offset: 0x54C2EF, size: 0x8, addend: 0x0, symName: __ZN8crashpad20StringHTTPBodyStreamC2ERKNSt3__112basic_stringIcNS1_11char_traitsIcEENS1_9allocatorIcEEEE, symObjAddr: 0x0, symBinAddr: 0x100045F70, symSize: 0x64 }
  - { offset: 0x5509FE, size: 0x8, addend: 0x0, symName: __ZN8crashpad20StringHTTPBodyStreamC2ERKNSt3__112basic_stringIcNS1_11char_traitsIcEENS1_9allocatorIcEEEE, symObjAddr: 0x0, symBinAddr: 0x100045F70, symSize: 0x64 }
  - { offset: 0x550C1C, size: 0x8, addend: 0x0, symName: __ZN8crashpad20StringHTTPBodyStreamC1ERKNSt3__112basic_stringIcNS1_11char_traitsIcEENS1_9allocatorIcEEEE, symObjAddr: 0x64, symBinAddr: 0x100045FD4, symSize: 0x64 }
  - { offset: 0x550DBB, size: 0x8, addend: 0x0, symName: __ZN8crashpad20StringHTTPBodyStreamD2Ev, symObjAddr: 0xC8, symBinAddr: 0x100046038, symSize: 0x44 }
  - { offset: 0x550F2C, size: 0x8, addend: 0x0, symName: __ZN8crashpad20StringHTTPBodyStreamD1Ev, symObjAddr: 0x10C, symBinAddr: 0x10004607C, symSize: 0x44 }
  - { offset: 0x5510B5, size: 0x8, addend: 0x0, symName: __ZN8crashpad20StringHTTPBodyStreamD0Ev, symObjAddr: 0x150, symBinAddr: 0x1000460C0, symSize: 0x44 }
  - { offset: 0x5512FC, size: 0x8, addend: 0x0, symName: __ZN8crashpad20StringHTTPBodyStream14GetBytesBufferEPhm, symObjAddr: 0x194, symBinAddr: 0x100046104, symSize: 0x98 }
  - { offset: 0x551439, size: 0x8, addend: 0x0, symName: __ZN8crashpad24FileReaderHTTPBodyStreamC2EPNS_19FileReaderInterfaceE, symObjAddr: 0x22C, symBinAddr: 0x10004619C, symSize: 0x14 }
  - { offset: 0x55148E, size: 0x8, addend: 0x0, symName: __ZN8crashpad24FileReaderHTTPBodyStreamC1EPNS_19FileReaderInterfaceE, symObjAddr: 0x240, symBinAddr: 0x1000461B0, symSize: 0x14 }
  - { offset: 0x5514C9, size: 0x8, addend: 0x0, symName: __ZN8crashpad24FileReaderHTTPBodyStreamC1EPNS_19FileReaderInterfaceE, symObjAddr: 0x240, symBinAddr: 0x1000461B0, symSize: 0x14 }
  - { offset: 0x5514EC, size: 0x8, addend: 0x0, symName: __ZN8crashpad24FileReaderHTTPBodyStreamD2Ev, symObjAddr: 0x254, symBinAddr: 0x1000461C4, symSize: 0x4 }
  - { offset: 0x551517, size: 0x8, addend: 0x0, symName: __ZN8crashpad24FileReaderHTTPBodyStreamD1Ev, symObjAddr: 0x258, symBinAddr: 0x1000461C8, symSize: 0x4 }
  - { offset: 0x551542, size: 0x8, addend: 0x0, symName: __ZN8crashpad24FileReaderHTTPBodyStreamD0Ev, symObjAddr: 0x25C, symBinAddr: 0x1000461CC, symSize: 0x4 }
  - { offset: 0x55156D, size: 0x8, addend: 0x0, symName: __ZN8crashpad24FileReaderHTTPBodyStream14GetBytesBufferEPhm, symObjAddr: 0x260, symBinAddr: 0x1000461D0, symSize: 0x54 }
  - { offset: 0x551936, size: 0x8, addend: 0x0, symName: __ZN8crashpad23CompositeHTTPBodyStreamC2ERKNSt3__16vectorIPNS_14HTTPBodyStreamENS1_9allocatorIS4_EEEE, symObjAddr: 0x2B4, symBinAddr: 0x100046224, symSize: 0xB4 }
  - { offset: 0x551E35, size: 0x8, addend: 0x0, symName: __ZN8crashpad23CompositeHTTPBodyStreamC1ERKNSt3__16vectorIPNS_14HTTPBodyStreamENS1_9allocatorIS4_EEEE, symObjAddr: 0x368, symBinAddr: 0x1000462D8, symSize: 0xB4 }
  - { offset: 0x55237E, size: 0x8, addend: 0x0, symName: __ZN8crashpad23CompositeHTTPBodyStreamD2Ev, symObjAddr: 0x41C, symBinAddr: 0x10004638C, symSize: 0x80 }
  - { offset: 0x5525B3, size: 0x8, addend: 0x0, symName: __ZN8crashpad23CompositeHTTPBodyStreamD1Ev, symObjAddr: 0x49C, symBinAddr: 0x10004640C, symSize: 0x80 }
  - { offset: 0x5527CA, size: 0x8, addend: 0x0, symName: __ZN8crashpad23CompositeHTTPBodyStreamD0Ev, symObjAddr: 0x51C, symBinAddr: 0x10004648C, symSize: 0x80 }
  - { offset: 0x552A20, size: 0x8, addend: 0x0, symName: __ZN8crashpad23CompositeHTTPBodyStream14GetBytesBufferEPhm, symObjAddr: 0x59C, symBinAddr: 0x10004650C, symSize: 0xB4 }
  - { offset: 0x55A0D1, size: 0x8, addend: 0x0, symName: __ZN8crashpad18GzipHTTPBodyStreamC2ENSt3__110unique_ptrINS_14HTTPBodyStreamENS1_14default_deleteIS3_EEEE, symObjAddr: 0x0, symBinAddr: 0x1000465C0, symSize: 0x94 }
  - { offset: 0x55A362, size: 0x8, addend: 0x0, symName: __ZN8crashpad18GzipHTTPBodyStreamC1ENSt3__110unique_ptrINS_14HTTPBodyStreamENS1_14default_deleteIS3_EEEE, symObjAddr: 0x94, symBinAddr: 0x100046654, symSize: 0x94 }
  - { offset: 0x55A683, size: 0x8, addend: 0x0, symName: __ZN8crashpad18GzipHTTPBodyStreamD2Ev, symObjAddr: 0x128, symBinAddr: 0x1000466E8, symSize: 0x54 }
  - { offset: 0x55A80E, size: 0x8, addend: 0x0, symName: __ZN8crashpad18GzipHTTPBodyStreamD1Ev, symObjAddr: 0x17C, symBinAddr: 0x10004673C, symSize: 0x54 }
  - { offset: 0x55A9B7, size: 0x8, addend: 0x0, symName: __ZN8crashpad18GzipHTTPBodyStreamD0Ev, symObjAddr: 0x1D0, symBinAddr: 0x100046790, symSize: 0x54 }
  - { offset: 0x55AD62, size: 0x8, addend: 0x0, symName: __ZN8crashpad18GzipHTTPBodyStream14GetBytesBufferEPhm, symObjAddr: 0x224, symBinAddr: 0x1000467E4, symSize: 0x3A8 }
  - { offset: 0x55B620, size: 0x8, addend: 0x0, symName: __ZN8crashpad18GzipHTTPBodyStream4DoneENS0_5StateE, symObjAddr: 0x5CC, symBinAddr: 0x100046B8C, symSize: 0x120 }
  - { offset: 0x55DC90, size: 0x8, addend: 0x0, symName: __ZN8crashpad12_GLOBAL__N_113kBoundaryCRLFE, symObjAddr: 0x2AC5, symBinAddr: 0x100079210, symSize: 0x0 }
  - { offset: 0x55DCAA, size: 0x8, addend: 0x0, symName: __ZN8crashpad12_GLOBAL__N_15kCRLFE, symObjAddr: 0x2ACA, symBinAddr: 0x100079215, symSize: 0x0 }
  - { offset: 0x55DD2A, size: 0x8, addend: 0x0, symName: __ZN8crashpad12_GLOBAL__N_115EncodeMIMEFieldERKNSt3__112basic_stringIcNS1_11char_traitsIcEENS1_9allocatorIcEEEE, symObjAddr: 0x7AC, symBinAddr: 0x100047458, symSize: 0x140 }
  - { offset: 0x56A128, size: 0x8, addend: 0x0, symName: __ZN8crashpad20HTTPMultipartBuilderC2Ev, symObjAddr: 0x0, symBinAddr: 0x100046CAC, symSize: 0xC8 }
  - { offset: 0x56A63C, size: 0x8, addend: 0x0, symName: __ZN8crashpad20HTTPMultipartBuilderC1Ev, symObjAddr: 0xC8, symBinAddr: 0x100046D74, symSize: 0xC8 }
  - { offset: 0x56AC29, size: 0x8, addend: 0x0, symName: __ZN8crashpad20HTTPMultipartBuilderD2Ev, symObjAddr: 0x190, symBinAddr: 0x100046E3C, symSize: 0x58 }
  - { offset: 0x56AE31, size: 0x8, addend: 0x0, symName: __ZNSt3__16__treeINS_12__value_typeINS_12basic_stringIcNS_11char_traitsIcEENS_9allocatorIcEEEEN8crashpad20HTTPMultipartBuilder14FileAttachmentEEENS_19__map_value_compareIS7_SB_NS_4lessIS7_EELb1EEENS5_ISB_EEE7destroyEPNS_11__tree_nodeISB_PvEE, symObjAddr: 0x18C4, symBinAddr: 0x1000480D4, symSize: 0x90 }
  - { offset: 0x56B5C8, size: 0x8, addend: 0x0, symName: __ZN8crashpad20HTTPMultipartBuilderD1Ev, symObjAddr: 0x1E8, symBinAddr: 0x100046E94, symSize: 0x58 }
  - { offset: 0x56B7F2, size: 0x8, addend: 0x0, symName: __ZN8crashpad20HTTPMultipartBuilder14SetGzipEnabledEb, symObjAddr: 0x240, symBinAddr: 0x100046EEC, symSize: 0x8 }
  - { offset: 0x56B849, size: 0x8, addend: 0x0, symName: __ZN8crashpad20HTTPMultipartBuilder11SetFormDataERKNSt3__112basic_stringIcNS1_11char_traitsIcEENS1_9allocatorIcEEEES9_, symObjAddr: 0x248, symBinAddr: 0x100046EF4, symSize: 0x64 }
  - { offset: 0x56B8EC, size: 0x8, addend: 0x0, symName: __ZN8crashpad20HTTPMultipartBuilder8EraseKeyERKNSt3__112basic_stringIcNS1_11char_traitsIcEENS1_9allocatorIcEEEE, symObjAddr: 0x2AC, symBinAddr: 0x100046F58, symSize: 0x2A0 }
  - { offset: 0x56C582, size: 0x8, addend: 0x0, symName: __ZNSt3__16__treeINS_12__value_typeINS_12basic_stringIcNS_11char_traitsIcEENS_9allocatorIcEEEES7_EENS_19__map_value_compareIS7_S8_NS_4lessIS7_EELb1EEENS5_IS8_EEE25__emplace_unique_key_argsIS7_JRKNS_21piecewise_construct_tENS_5tupleIJRKS7_EEENSJ_IJEEEEEENS_4pairINS_15__tree_iteratorIS8_PNS_11__tree_nodeIS8_PvEElEEbEERKT_DpOT0_, symObjAddr: 0x1954, symBinAddr: 0x100048164, symSize: 0x1B8 }
  - { offset: 0x56D21A, size: 0x8, addend: 0x0, symName: __ZNSt3__16__treeINS_12__value_typeINS_12basic_stringIcNS_11char_traitsIcEENS_9allocatorIcEEEEN8crashpad20HTTPMultipartBuilder14FileAttachmentEEENS_19__map_value_compareIS7_SB_NS_4lessIS7_EELb1EEENS5_ISB_EEE5eraseENS_21__tree_const_iteratorISB_PNS_11__tree_nodeISB_PvEElEE, symObjAddr: 0x2550, symBinAddr: 0x1000486E0, symSize: 0xD8 }
  - { offset: 0x56DA77, size: 0x8, addend: 0x0, symName: __ZN8crashpad20HTTPMultipartBuilder17SetFileAttachmentERKNSt3__112basic_stringIcNS1_11char_traitsIcEENS1_9allocatorIcEEEES9_PNS_19FileReaderInterfaceES9_, symObjAddr: 0x54C, symBinAddr: 0x1000471F8, symSize: 0x260 }
  - { offset: 0x56E0D3, size: 0x8, addend: 0x0, symName: __ZNSt3__16__treeINS_12__value_typeINS_12basic_stringIcNS_11char_traitsIcEENS_9allocatorIcEEEEN8crashpad20HTTPMultipartBuilder14FileAttachmentEEENS_19__map_value_compareIS7_SB_NS_4lessIS7_EELb1EEENS5_ISB_EEE25__emplace_unique_key_argsIS7_JRKNS_21piecewise_construct_tENS_5tupleIJRKS7_EEENSM_IJEEEEEENS_4pairINS_15__tree_iteratorISB_PNS_11__tree_nodeISB_PvEElEEbEERKT_DpOT0_, symObjAddr: 0x1DB8, symBinAddr: 0x10004831C, symSize: 0x1C4 }
  - { offset: 0x56F373, size: 0x8, addend: 0x0, symName: __ZN8crashpad20HTTPMultipartBuilder13GetBodyStreamEv, symObjAddr: 0x944, symBinAddr: 0x100047598, symSize: 0x9A4 }
  - { offset: 0x572A70, size: 0x8, addend: 0x0, symName: __ZNSt3__16__treeINS_12__value_typeINS_12basic_stringIcNS_11char_traitsIcEENS_9allocatorIcEEEES7_EENS_19__map_value_compareIS7_S8_NS_4lessIS7_EELb1EEENS5_IS8_EEE25__emplace_unique_key_argsIS7_JRKNS_21piecewise_construct_tENS_5tupleIJOS7_EEENSJ_IJEEEEEENS_4pairINS_15__tree_iteratorIS8_PNS_11__tree_nodeIS8_PvEElEEbEERKT_DpOT0_, symObjAddr: 0x2014, symBinAddr: 0x100048564, symSize: 0x17C }
  - { offset: 0x572AA0, size: 0x8, addend: 0x0, symName: __ZNK8crashpad20HTTPMultipartBuilder22PopulateContentHeadersEPNSt3__13mapINS1_12basic_stringIcNS1_11char_traitsIcEENS1_9allocatorIcEEEES8_NS1_4lessIS8_EENS6_INS1_4pairIKS8_S8_EEEEEE, symObjAddr: 0x12E8, symBinAddr: 0x100047F3C, symSize: 0x198 }
  - { offset: 0x573403, size: 0x8, addend: 0x0, symName: __ZNSt3__16__treeINS_12__value_typeINS_12basic_stringIcNS_11char_traitsIcEENS_9allocatorIcEEEES7_EENS_19__map_value_compareIS7_S8_NS_4lessIS7_EELb1EEENS5_IS8_EEE25__emplace_unique_key_argsIS7_JRKNS_21piecewise_construct_tENS_5tupleIJOS7_EEENSJ_IJEEEEEENS_4pairINS_15__tree_iteratorIS8_PNS_11__tree_nodeIS8_PvEElEEbEERKT_DpOT0_, symObjAddr: 0x2014, symBinAddr: 0x100048564, symSize: 0x17C }
  - { offset: 0x574E20, size: 0x8, addend: 0x0, symName: __ZNSt3__110unique_ptrINS_11__tree_nodeINS_12__value_typeINS_12basic_stringIcNS_11char_traitsIcEENS_9allocatorIcEEEEN8crashpad20HTTPMultipartBuilder14FileAttachmentEEEPvEENS_22__tree_node_destructorINS6_ISE_EEEEED1B8ne190102Ev, symObjAddr: 0x1F7C, symBinAddr: 0x1000484E0, symSize: 0x84 }
  - { offset: 0x577440, size: 0x8, addend: 0x0, symName: __ZN8crashpad13HTTPTransportC2Ev, symObjAddr: 0x0, symBinAddr: 0x1000487B8, symSize: 0xA0 }
  - { offset: 0x57CCDD, size: 0x8, addend: 0x0, symName: __ZN8crashpad13HTTPTransportC2Ev, symObjAddr: 0x0, symBinAddr: 0x1000487B8, symSize: 0xA0 }
  - { offset: 0x57D133, size: 0x8, addend: 0x0, symName: __ZN8crashpad13HTTPTransportC2Ev.cold.1, symObjAddr: 0x750, symBinAddr: 0x100061870, symSize: 0x48 }
  - { offset: 0x57D331, size: 0x8, addend: 0x0, symName: __ZN8crashpad13HTTPTransportD2Ev, symObjAddr: 0xA0, symBinAddr: 0x100048858, symSize: 0xA8 }
  - { offset: 0x57DA37, size: 0x8, addend: 0x0, symName: __ZN8crashpad13HTTPTransportD1Ev, symObjAddr: 0x148, symBinAddr: 0x100048900, symSize: 0x4 }
  - { offset: 0x57DA60, size: 0x8, addend: 0x0, symName: __ZN8crashpad13HTTPTransportD0Ev, symObjAddr: 0x14C, symBinAddr: 0x100048904, symSize: 0x4 }
  - { offset: 0x57DA89, size: 0x8, addend: 0x0, symName: __ZN8crashpad13HTTPTransport6SetURLERKNSt3__112basic_stringIcNS1_11char_traitsIcEENS1_9allocatorIcEEEE, symObjAddr: 0x150, symBinAddr: 0x100048908, symSize: 0x8 }
  - { offset: 0x57DABF, size: 0x8, addend: 0x0, symName: __ZN8crashpad13HTTPTransport12SetHTTPProxyERKNSt3__112basic_stringIcNS1_11char_traitsIcEENS1_9allocatorIcEEEE, symObjAddr: 0x158, symBinAddr: 0x100048910, symSize: 0x8 }
  - { offset: 0x57DAF5, size: 0x8, addend: 0x0, symName: __ZN8crashpad13HTTPTransport9SetMethodERKNSt3__112basic_stringIcNS1_11char_traitsIcEENS1_9allocatorIcEEEE, symObjAddr: 0x160, symBinAddr: 0x100048918, symSize: 0x8 }
  - { offset: 0x57DB50, size: 0x8, addend: 0x0, symName: __ZN8crashpad13HTTPTransport9SetHeaderERKNSt3__112basic_stringIcNS1_11char_traitsIcEENS1_9allocatorIcEEEES9_, symObjAddr: 0x168, symBinAddr: 0x100048920, symSize: 0x4C }
  - { offset: 0x57E0C7, size: 0x8, addend: 0x0, symName: __ZN8crashpad13HTTPTransport13SetBodyStreamENSt3__110unique_ptrINS_14HTTPBodyStreamENS1_14default_deleteIS3_EEEE, symObjAddr: 0x1B4, symBinAddr: 0x10004896C, symSize: 0x28 }
  - { offset: 0x57E1AF, size: 0x8, addend: 0x0, symName: __ZN8crashpad13HTTPTransport10SetTimeoutEd, symObjAddr: 0x1DC, symBinAddr: 0x100048994, symSize: 0x8 }
  - { offset: 0x57E1E4, size: 0x8, addend: 0x0, symName: __ZN8crashpad13HTTPTransport24SetRootCACertificatePathERKN4base8FilePathE, symObjAddr: 0x1E4, symBinAddr: 0x10004899C, symSize: 0x8 }
  - { offset: 0x580D17, size: 0x8, addend: 0x0, symName: __ZN8crashpad8CrackURLERKNSt3__112basic_stringIcNS0_11char_traitsIcEENS0_9allocatorIcEEEEPS6_S9_S9_S9_, symObjAddr: 0x178, symBinAddr: 0x100048B1C, symSize: 0x6AC }
  - { offset: 0x580D41, size: 0x8, addend: 0x0, symName: __ZZN8crashpad8CrackURLERKNSt3__112basic_stringIcNS0_11char_traitsIcEENS0_9allocatorIcEEEEPS6_S9_S9_S9_E5kHttp, symObjAddr: 0xEB4, symBinAddr: 0x100079233, symSize: 0x0 }
  - { offset: 0x580D57, size: 0x8, addend: 0x0, symName: __ZZN8crashpad8CrackURLERKNSt3__112basic_stringIcNS0_11char_traitsIcEENS0_9allocatorIcEEEEPS6_S9_S9_S9_E6kHttps, symObjAddr: 0xEBC, symBinAddr: 0x10007923B, symSize: 0x0 }
  - { offset: 0x580D6D, size: 0x8, addend: 0x0, symName: __ZZN8crashpad8CrackURLERKNSt3__112basic_stringIcNS0_11char_traitsIcEENS0_9allocatorIcEEEEPS6_S9_S9_S9_E6kSocks, symObjAddr: 0xEC5, symBinAddr: 0x100079244, symSize: 0x0 }
  - { offset: 0x58298C, size: 0x8, addend: 0x0, symName: __ZN8crashpad9URLEncodeERKNSt3__112basic_stringIcNS0_11char_traitsIcEENS0_9allocatorIcEEEE, symObjAddr: 0x0, symBinAddr: 0x1000489A4, symSize: 0x178 }
  - { offset: 0x58A3B7, size: 0x8, addend: 0x0, symName: __ZN8crashpad8internal26CheckedAddressRangeGenericIyyEC2Ev, symObjAddr: 0x0, symBinAddr: 0x1000491C8, symSize: 0x10 }
  - { offset: 0x58D1F1, size: 0x8, addend: 0x0, symName: __ZN8crashpad8internal26CheckedAddressRangeGenericIyyEC2Ev, symObjAddr: 0x0, symBinAddr: 0x1000491C8, symSize: 0x10 }
  - { offset: 0x58D215, size: 0x8, addend: 0x0, symName: __ZN8crashpad8internal26CheckedAddressRangeGenericIyyEC2Ev, symObjAddr: 0x0, symBinAddr: 0x1000491C8, symSize: 0x10 }
  - { offset: 0x58D240, size: 0x8, addend: 0x0, symName: __ZN8crashpad8internal26CheckedAddressRangeGenericIyyEC2Ev, symObjAddr: 0x0, symBinAddr: 0x1000491C8, symSize: 0x10 }
  - { offset: 0x58D26B, size: 0x8, addend: 0x0, symName: __ZN8crashpad8internal26CheckedAddressRangeGenericIyyEC2Ev, symObjAddr: 0x0, symBinAddr: 0x1000491C8, symSize: 0x10 }
  - { offset: 0x58D2B5, size: 0x8, addend: 0x0, symName: __ZN8crashpad8internal26CheckedAddressRangeGenericIyyEC1Ev, symObjAddr: 0x10, symBinAddr: 0x1000491D8, symSize: 0x10 }
  - { offset: 0x58D2E1, size: 0x8, addend: 0x0, symName: __ZN8crashpad8internal26CheckedAddressRangeGenericIyyEC1Ev, symObjAddr: 0x10, symBinAddr: 0x1000491D8, symSize: 0x10 }
  - { offset: 0x58D2FE, size: 0x8, addend: 0x0, symName: __ZN8crashpad8internal26CheckedAddressRangeGenericIyyEC1Ev, symObjAddr: 0x10, symBinAddr: 0x1000491D8, symSize: 0x10 }
  - { offset: 0x58D329, size: 0x8, addend: 0x0, symName: __ZN8crashpad8internal26CheckedAddressRangeGenericIyyEC1Ev, symObjAddr: 0x10, symBinAddr: 0x1000491D8, symSize: 0x10 }
  - { offset: 0x58D354, size: 0x8, addend: 0x0, symName: __ZN8crashpad8internal26CheckedAddressRangeGenericIyyEC1Ev, symObjAddr: 0x10, symBinAddr: 0x1000491D8, symSize: 0x10 }
  - { offset: 0x58D3EA, size: 0x8, addend: 0x0, symName: __ZN8crashpad8internal26CheckedAddressRangeGenericIyyEC2Ebyy, symObjAddr: 0x20, symBinAddr: 0x1000491E8, symSize: 0x34 }
  - { offset: 0x58D48A, size: 0x8, addend: 0x0, symName: __ZN8crashpad8internal26CheckedAddressRangeGenericIyyE8SetRangeEbyy, symObjAddr: 0x54, symBinAddr: 0x10004921C, symSize: 0x34 }
  - { offset: 0x58D54A, size: 0x8, addend: 0x0, symName: __ZN8crashpad8internal26CheckedAddressRangeGenericIyyEC1Ebyy, symObjAddr: 0x88, symBinAddr: 0x100049250, symSize: 0x34 }
  - { offset: 0x58D66C, size: 0x8, addend: 0x0, symName: __ZNK8crashpad8internal26CheckedAddressRangeGenericIyyE4BaseEv, symObjAddr: 0xBC, symBinAddr: 0x100049284, symSize: 0x1C }
  - { offset: 0x58D6F7, size: 0x8, addend: 0x0, symName: __ZNK8crashpad8internal26CheckedAddressRangeGenericIyyE4SizeEv, symObjAddr: 0xD8, symBinAddr: 0x1000492A0, symSize: 0x1C }
  - { offset: 0x58D788, size: 0x8, addend: 0x0, symName: __ZNK8crashpad8internal26CheckedAddressRangeGenericIyyE3EndEv, symObjAddr: 0xF4, symBinAddr: 0x1000492BC, symSize: 0x24 }
  - { offset: 0x58DA11, size: 0x8, addend: 0x0, symName: __ZNK8crashpad8internal26CheckedAddressRangeGenericIyyE7IsValidEv, symObjAddr: 0x118, symBinAddr: 0x1000492E0, symSize: 0x40 }
  - { offset: 0x58DBAD, size: 0x8, addend: 0x0, symName: __ZNK8crashpad8internal26CheckedAddressRangeGenericIyyE7Is64BitEv, symObjAddr: 0x158, symBinAddr: 0x100049320, symSize: 0x8 }
  - { offset: 0x58DC16, size: 0x8, addend: 0x0, symName: __ZNK8crashpad8internal26CheckedAddressRangeGenericIyyE13ContainsValueEy, symObjAddr: 0x160, symBinAddr: 0x100049328, symSize: 0x5C }
  - { offset: 0x58DD4E, size: 0x8, addend: 0x0, symName: __ZNK8crashpad8internal26CheckedAddressRangeGenericIyyE13ContainsRangeERKS2_, symObjAddr: 0x1BC, symBinAddr: 0x100049384, symSize: 0x74 }
  - { offset: 0x58DED4, size: 0x8, addend: 0x0, symName: __ZNK8crashpad8internal26CheckedAddressRangeGenericIyyE8AsStringEv, symObjAddr: 0x230, symBinAddr: 0x1000493F8, symSize: 0x54 }
  - { offset: 0x58DF00, size: 0x8, addend: 0x0, symName: __ZNK8crashpad8internal26CheckedAddressRangeGenericIyyE8AsStringEv, symObjAddr: 0x230, symBinAddr: 0x1000493F8, symSize: 0x54 }
  - { offset: 0x594730, size: 0x8, addend: 0x0, symName: __ZNK8crashpad13ProcessMemory4ReadEyyPv, symObjAddr: 0x0, symBinAddr: 0x10004944C, symSize: 0x10C }
  - { offset: 0x59493F, size: 0x8, addend: 0x0, symName: __ZNK8crashpad13ProcessMemory19ReadCStringInternalEybyPNSt3__112basic_stringIcNS1_11char_traitsIcEENS1_9allocatorIcEEEE, symObjAddr: 0x10C, symBinAddr: 0x100049558, symSize: 0x20C }
  - { offset: 0x596ED0, size: 0x8, addend: 0x0, symName: __ZN8crashpad15AlignedAllocateEmm, symObjAddr: 0x0, symBinAddr: 0x100049764, symSize: 0x4C }
  - { offset: 0x596EF2, size: 0x8, addend: 0x0, symName: __ZN8crashpad15AlignedAllocateEmm, symObjAddr: 0x0, symBinAddr: 0x100049764, symSize: 0x4C }
  - { offset: 0x596F6D, size: 0x8, addend: 0x0, symName: __ZN8crashpad11AlignedFreeEPv, symObjAddr: 0x4C, symBinAddr: 0x1000497B0, symSize: 0x4 }
  - { offset: 0x596F78, size: 0x8, addend: 0x0, symName: __ZN8crashpad11AlignedFreeEPv, symObjAddr: 0x4C, symBinAddr: 0x1000497B0, symSize: 0x4 }
  - { offset: 0x596FA2, size: 0x8, addend: 0x0, symName: __ZN8crashpad11AlignedFreeEPv, symObjAddr: 0x4C, symBinAddr: 0x1000497B0, symSize: 0x4 }
  - { offset: 0x599970, size: 0x8, addend: 0x0, symName: __ZN8crashpad14StringToNumberERKNSt3__112basic_stringIcNS0_11char_traitsIcEENS0_9allocatorIcEEEEPi, symObjAddr: 0x0, symBinAddr: 0x1000497B4, symSize: 0x108 }
  - { offset: 0x59CA99, size: 0x8, addend: 0x0, symName: __ZN8crashpad14StringToNumberERKNSt3__112basic_stringIcNS0_11char_traitsIcEENS0_9allocatorIcEEEEPi, symObjAddr: 0x0, symBinAddr: 0x1000497B4, symSize: 0x108 }
  - { offset: 0x59CCB5, size: 0x8, addend: 0x0, symName: __ZN8crashpad14StringToNumberERKNSt3__112basic_stringIcNS0_11char_traitsIcEENS0_9allocatorIcEEEEPj, symObjAddr: 0x108, symBinAddr: 0x1000498BC, symSize: 0x120 }
  - { offset: 0x59CED3, size: 0x8, addend: 0x0, symName: __ZN8crashpad14StringToNumberERKNSt3__112basic_stringIcNS0_11char_traitsIcEENS0_9allocatorIcEEEEPl, symObjAddr: 0x228, symBinAddr: 0x1000499DC, symSize: 0x100 }
  - { offset: 0x59D0F1, size: 0x8, addend: 0x0, symName: __ZN8crashpad14StringToNumberERKNSt3__112basic_stringIcNS0_11char_traitsIcEENS0_9allocatorIcEEEEPm, symObjAddr: 0x328, symBinAddr: 0x100049ADC, symSize: 0x128 }
  - { offset: 0x59D315, size: 0x8, addend: 0x0, symName: __ZN8crashpad14StringToNumberERKNSt3__112basic_stringIcNS0_11char_traitsIcEENS0_9allocatorIcEEEEPx, symObjAddr: 0x450, symBinAddr: 0x100049C04, symSize: 0x100 }
  - { offset: 0x59D533, size: 0x8, addend: 0x0, symName: __ZN8crashpad14StringToNumberERKNSt3__112basic_stringIcNS0_11char_traitsIcEENS0_9allocatorIcEEEEPy, symObjAddr: 0x550, symBinAddr: 0x100049D04, symSize: 0x128 }
  - { offset: 0x59F620, size: 0x8, addend: 0x0, symName: __ZN8crashpad7c16lcpyEPDsPKDsm, symObjAddr: 0x0, symBinAddr: 0x100049E2C, symSize: 0x98 }
  - { offset: 0x5A0287, size: 0x8, addend: 0x0, symName: __ZN8crashpad7c16lcpyEPDsPKDsm, symObjAddr: 0x0, symBinAddr: 0x100049E2C, symSize: 0x98 }
  - { offset: 0x5A21C3, size: 0x8, addend: 0x0, symName: __ZN8crashpad16SplitStringFirstERKNSt3__112basic_stringIcNS0_11char_traitsIcEENS0_9allocatorIcEEEEcPS6_S9_, symObjAddr: 0x0, symBinAddr: 0x100049EC4, symSize: 0x7C }
  - { offset: 0x5A62BF, size: 0x8, addend: 0x0, symName: __ZN8crashpad16SplitStringFirstERKNSt3__112basic_stringIcNS0_11char_traitsIcEENS0_9allocatorIcEEEEcPS6_S9_, symObjAddr: 0x0, symBinAddr: 0x100049EC4, symSize: 0x7C }
  - { offset: 0x5A632E, size: 0x8, addend: 0x0, symName: __ZN8crashpad11SplitStringERKNSt3__112basic_stringIcNS0_11char_traitsIcEENS0_9allocatorIcEEEEc, symObjAddr: 0x7C, symBinAddr: 0x100049F40, symSize: 0x32C }
  - { offset: 0x5AA37F, size: 0x8, addend: 0x0, symName: __ZN8crashpad6ThreadC2Ev, symObjAddr: 0x0, symBinAddr: 0x10004A26C, symSize: 0x10 }
  - { offset: 0x5AA4C1, size: 0x8, addend: 0x0, symName: __ZN8crashpad6ThreadC2Ev, symObjAddr: 0x0, symBinAddr: 0x10004A26C, symSize: 0x10 }
  - { offset: 0x5AA4EC, size: 0x8, addend: 0x0, symName: __ZN8crashpad6ThreadD2Ev, symObjAddr: 0x10, symBinAddr: 0x10004A27C, symSize: 0x10 }
  - { offset: 0x5AA517, size: 0x8, addend: 0x0, symName: __ZN8crashpad6ThreadD1Ev, symObjAddr: 0x20, symBinAddr: 0x10004A28C, symSize: 0x4 }
  - { offset: 0x5AA540, size: 0x8, addend: 0x0, symName: __ZN8crashpad6ThreadD0Ev, symObjAddr: 0x24, symBinAddr: 0x10004A290, symSize: 0x4 }
  - { offset: 0x5ACED8, size: 0x8, addend: 0x0, symName: __ZN8crashpad12WorkerThreadC2EdPNS0_8DelegateE, symObjAddr: 0x0, symBinAddr: 0x10004A294, symSize: 0x10 }
  - { offset: 0x5ADCDD, size: 0x8, addend: 0x0, symName: __ZN8crashpad12WorkerThreadC2EdPNS0_8DelegateE, symObjAddr: 0x0, symBinAddr: 0x10004A294, symSize: 0x10 }
  - { offset: 0x5ADD41, size: 0x8, addend: 0x0, symName: __ZN8crashpad12WorkerThreadC1EdPNS0_8DelegateE, symObjAddr: 0x10, symBinAddr: 0x10004A2A4, symSize: 0x10 }
  - { offset: 0x5ADD8A, size: 0x8, addend: 0x0, symName: __ZN8crashpad12WorkerThreadC1EdPNS0_8DelegateE, symObjAddr: 0x10, symBinAddr: 0x10004A2A4, symSize: 0x10 }
  - { offset: 0x5ADE79, size: 0x8, addend: 0x0, symName: __ZN8crashpad12WorkerThreadD2Ev, symObjAddr: 0x20, symBinAddr: 0x10004A2B4, symSize: 0x40 }
  - { offset: 0x5ADF90, size: 0x8, addend: 0x0, symName: __ZN8crashpad12WorkerThreadD1Ev, symObjAddr: 0x60, symBinAddr: 0x10004A2F4, symSize: 0x40 }
  - { offset: 0x5AE130, size: 0x8, addend: 0x0, symName: __ZN8crashpad12WorkerThread5StartEd, symObjAddr: 0xA0, symBinAddr: 0x10004A334, symSize: 0xC0 }
  - { offset: 0x5AE26F, size: 0x8, addend: 0x0, symName: __ZN8crashpad12WorkerThread4StopEv, symObjAddr: 0x160, symBinAddr: 0x10004A3F4, symSize: 0x68 }
  - { offset: 0x5AE3E0, size: 0x8, addend: 0x0, symName: __ZN8crashpad12WorkerThread9DoWorkNowEv, symObjAddr: 0x1C8, symBinAddr: 0x10004A45C, symSize: 0x18 }
  - { offset: 0x5AE4C8, size: 0x8, addend: 0x0, symName: __ZN8crashpad8internal16WorkerThreadImplD1Ev, symObjAddr: 0x1E0, symBinAddr: 0x10004A474, symSize: 0x28 }
  - { offset: 0x5AE50B, size: 0x8, addend: 0x0, symName: __ZN8crashpad8internal16WorkerThreadImplD0Ev, symObjAddr: 0x208, symBinAddr: 0x10004A49C, symSize: 0x2C }
  - { offset: 0x5AE5B8, size: 0x8, addend: 0x0, symName: __ZN8crashpad8internal16WorkerThreadImpl10ThreadMainEv, symObjAddr: 0x234, symBinAddr: 0x10004A4C8, symSize: 0x84 }
  - { offset: 0x5B55F3, size: 0x8, addend: 0x0, symName: __ZN8crashpad15DirectoryReaderC2Ev, symObjAddr: 0x0, symBinAddr: 0x10004A54C, symSize: 0x8 }
  - { offset: 0x5B5617, size: 0x8, addend: 0x0, symName: __ZN8crashpad15DirectoryReaderC2Ev, symObjAddr: 0x0, symBinAddr: 0x10004A54C, symSize: 0x8 }
  - { offset: 0x5B5634, size: 0x8, addend: 0x0, symName: __ZN8crashpad15DirectoryReaderC2Ev, symObjAddr: 0x0, symBinAddr: 0x10004A54C, symSize: 0x8 }
  - { offset: 0x5B5651, size: 0x8, addend: 0x0, symName: __ZN8crashpad15DirectoryReaderC2Ev, symObjAddr: 0x0, symBinAddr: 0x10004A54C, symSize: 0x8 }
  - { offset: 0x5B566E, size: 0x8, addend: 0x0, symName: __ZN8crashpad15DirectoryReaderC2Ev, symObjAddr: 0x0, symBinAddr: 0x10004A54C, symSize: 0x8 }
  - { offset: 0x5B56AD, size: 0x8, addend: 0x0, symName: __ZN8crashpad15DirectoryReaderC1Ev, symObjAddr: 0x8, symBinAddr: 0x10004A554, symSize: 0x8 }
  - { offset: 0x5B56DB, size: 0x8, addend: 0x0, symName: __ZN8crashpad15DirectoryReaderC1Ev, symObjAddr: 0x8, symBinAddr: 0x10004A554, symSize: 0x8 }
  - { offset: 0x5B56F8, size: 0x8, addend: 0x0, symName: __ZN8crashpad15DirectoryReaderC1Ev, symObjAddr: 0x8, symBinAddr: 0x10004A554, symSize: 0x8 }
  - { offset: 0x5B5715, size: 0x8, addend: 0x0, symName: __ZN8crashpad15DirectoryReaderC1Ev, symObjAddr: 0x8, symBinAddr: 0x10004A554, symSize: 0x8 }
  - { offset: 0x5B5732, size: 0x8, addend: 0x0, symName: __ZN8crashpad15DirectoryReaderC1Ev, symObjAddr: 0x8, symBinAddr: 0x10004A554, symSize: 0x8 }
  - { offset: 0x5B574F, size: 0x8, addend: 0x0, symName: __ZN8crashpad15DirectoryReaderC1Ev, symObjAddr: 0x8, symBinAddr: 0x10004A554, symSize: 0x8 }
  - { offset: 0x5B57B8, size: 0x8, addend: 0x0, symName: __ZN8crashpad15DirectoryReaderD2Ev, symObjAddr: 0x10, symBinAddr: 0x10004A55C, symSize: 0x34 }
  - { offset: 0x5B5845, size: 0x8, addend: 0x0, symName: __ZN8crashpad15DirectoryReaderD1Ev, symObjAddr: 0x44, symBinAddr: 0x10004A590, symSize: 0x34 }
  - { offset: 0x5B5A0F, size: 0x8, addend: 0x0, symName: __ZN8crashpad15DirectoryReader4OpenERKN4base8FilePathE, symObjAddr: 0x78, symBinAddr: 0x10004A5C4, symSize: 0x100 }
  - { offset: 0x5B5EF2, size: 0x8, addend: 0x0, symName: __ZN8crashpad15DirectoryReader8NextFileEPN4base8FilePathE, symObjAddr: 0x178, symBinAddr: 0x10004A6C4, symSize: 0x220 }
  - { offset: 0x5B65B2, size: 0x8, addend: 0x0, symName: __ZN8crashpad15DirectoryReader11DirectoryFDEv, symObjAddr: 0x398, symBinAddr: 0x10004A8E4, symSize: 0xAC }
  - { offset: 0x5B8B1B, size: 0x8, addend: 0x0, symName: __ZN8crashpad8internal15NativeWriteFileEiPKvm, symObjAddr: 0x0, symBinAddr: 0x10004A990, symSize: 0x68 }
  - { offset: 0x5B8C34, size: 0x8, addend: 0x0, symName: __ZN8crashpad8ReadFileEiPvm, symObjAddr: 0x68, symBinAddr: 0x10004A9F8, symSize: 0x68 }
  - { offset: 0x5B8D4C, size: 0x8, addend: 0x0, symName: __ZN8crashpad15OpenFileForReadERKN4base8FilePathE, symObjAddr: 0xD0, symBinAddr: 0x10004AA60, symSize: 0x54 }
  - { offset: 0x5B8E2F, size: 0x8, addend: 0x0, symName: __ZN8crashpad16OpenFileForWriteERKN4base8FilePathENS_13FileWriteModeENS_15FilePermissionsE, symObjAddr: 0x124, symBinAddr: 0x10004AAB4, symSize: 0x94 }
  - { offset: 0x5B8F54, size: 0x8, addend: 0x0, symName: __ZN8crashpad23OpenFileForReadAndWriteERKN4base8FilePathENS_13FileWriteModeENS_15FilePermissionsE, symObjAddr: 0x1B8, symBinAddr: 0x10004AB48, symSize: 0x94 }
  - { offset: 0x5B90B1, size: 0x8, addend: 0x0, symName: __ZN8crashpad22LoggingOpenFileForReadERKN4base8FilePathE, symObjAddr: 0x24C, symBinAddr: 0x10004ABDC, symSize: 0xFC }
  - { offset: 0x5B9301, size: 0x8, addend: 0x0, symName: __ZN8crashpad23LoggingOpenFileForWriteERKN4base8FilePathENS_13FileWriteModeENS_15FilePermissionsE, symObjAddr: 0x348, symBinAddr: 0x10004ACD8, symSize: 0x11C }
  - { offset: 0x5B95B5, size: 0x8, addend: 0x0, symName: __ZN8crashpad30LoggingOpenFileForReadAndWriteERKN4base8FilePathENS_13FileWriteModeENS_15FilePermissionsE, symObjAddr: 0x464, symBinAddr: 0x10004ADF4, symSize: 0x11C }
  - { offset: 0x5B9836, size: 0x8, addend: 0x0, symName: __ZN8crashpad15LoggingLockFileEiNS_11FileLockingENS_19FileLockingBlockingE, symObjAddr: 0x580, symBinAddr: 0x10004AF10, symSize: 0xF8 }
  - { offset: 0x5B996A, size: 0x8, addend: 0x0, symName: __ZN8crashpad17LoggingUnlockFileEi, symObjAddr: 0x678, symBinAddr: 0x10004B008, symSize: 0x9C }
  - { offset: 0x5B9A37, size: 0x8, addend: 0x0, symName: __ZN8crashpad15LoggingSeekFileEixi, symObjAddr: 0x714, symBinAddr: 0x10004B0A4, symSize: 0xA8 }
  - { offset: 0x5B9B2D, size: 0x8, addend: 0x0, symName: __ZN8crashpad19LoggingTruncateFileEi, symObjAddr: 0x7BC, symBinAddr: 0x10004B14C, symSize: 0xC4 }
  - { offset: 0x5B9C16, size: 0x8, addend: 0x0, symName: __ZN8crashpad16LoggingCloseFileEi, symObjAddr: 0x880, symBinAddr: 0x10004B210, symSize: 0xB4 }
  - { offset: 0x5B9D0A, size: 0x8, addend: 0x0, symName: __ZN8crashpad23LoggingFileSizeByHandleEi, symObjAddr: 0x934, symBinAddr: 0x10004B2C4, symSize: 0xA0 }
  - { offset: 0x5B9DDF, size: 0x8, addend: 0x0, symName: __ZN8crashpad15StdioFileHandleENS_11StdioStreamE, symObjAddr: 0x9D4, symBinAddr: 0x10004B364, symSize: 0xC }
  - { offset: 0x5C57E3, size: 0x8, addend: 0x0, symName: __ZN8crashpad20FileModificationTimeERKN4base8FilePathEP8timespec, symObjAddr: 0x0, symBinAddr: 0x10004B370, symSize: 0xDC }
  - { offset: 0x5C59C7, size: 0x8, addend: 0x0, symName: __ZN8crashpad22LoggingCreateDirectoryERKN4base8FilePathENS_15FilePermissionsEb, symObjAddr: 0xDC, symBinAddr: 0x10004B44C, symSize: 0x18C }
  - { offset: 0x5C5CAD, size: 0x8, addend: 0x0, symName: __ZN8crashpad11IsDirectoryERKN4base8FilePathEb, symObjAddr: 0x268, symBinAddr: 0x10004B5D8, symSize: 0x1BC }
  - { offset: 0x5C5FA7, size: 0x8, addend: 0x0, symName: __ZN8crashpad19MoveFileOrDirectoryERKN4base8FilePathES3_, symObjAddr: 0x424, symBinAddr: 0x10004B794, symSize: 0x130 }
  - { offset: 0x5C63B5, size: 0x8, addend: 0x0, symName: __ZN8crashpad13IsRegularFileERKN4base8FilePathE, symObjAddr: 0x554, symBinAddr: 0x10004B8C4, symSize: 0x110 }
  - { offset: 0x5C6597, size: 0x8, addend: 0x0, symName: __ZN8crashpad17LoggingRemoveFileERKN4base8FilePathE, symObjAddr: 0x664, symBinAddr: 0x10004B9D4, symSize: 0xC8 }
  - { offset: 0x5C6753, size: 0x8, addend: 0x0, symName: __ZN8crashpad22LoggingRemoveDirectoryERKN4base8FilePathE, symObjAddr: 0x72C, symBinAddr: 0x10004BA9C, symSize: 0xC8 }
  - { offset: 0x5C690F, size: 0x8, addend: 0x0, symName: __ZN8crashpad11GetFileSizeERKN4base8FilePathE, symObjAddr: 0x7F4, symBinAddr: 0x10004BB64, symSize: 0xF4 }
  - { offset: 0x5C6B76, size: 0x8, addend: 0x0, symName: __ZN8crashpad16GetDirectorySizeERKN4base8FilePathE, symObjAddr: 0x8E8, symBinAddr: 0x10004BC58, symSize: 0x134 }
  - { offset: 0x5C96D7, size: 0x8, addend: 0x0, symName: __ZN8crashpad16SleepNanosecondsEy, symObjAddr: 0x0, symBinAddr: 0x10004BD8C, symSize: 0x68 }
  - { offset: 0x5C9709, size: 0x8, addend: 0x0, symName: __ZN8crashpad16SleepNanosecondsEy, symObjAddr: 0x0, symBinAddr: 0x10004BD8C, symSize: 0x68 }
  - { offset: 0x5D0AAE, size: 0x8, addend: 0x0, symName: __ZN8crashpad19CloseStdinAndStdoutEv, symObjAddr: 0x0, symBinAddr: 0x10004BDF4, symSize: 0x24 }
  - { offset: 0x5D0AFB, size: 0x8, addend: 0x0, symName: __ZN8crashpad12_GLOBAL__N_116CloseStdioStreamEii, symObjAddr: 0x24, symBinAddr: 0x10004BE18, symSize: 0x204 }
  - { offset: 0x5D7E6D, size: 0x8, addend: 0x0, symName: __ZN8crashpad8internal20ScopedDIRCloseTraits4FreeEP3DIR, symObjAddr: 0x0, symBinAddr: 0x10004C01C, symSize: 0xA0 }
  - { offset: 0x5DA403, size: 0x8, addend: 0x0, symName: __ZN8crashpad12_GLOBAL__N_113kCrashSignalsE, symObjAddr: 0xCA4, symBinAddr: 0x1000792A4, symSize: 0x0 }
  - { offset: 0x5DA41D, size: 0x8, addend: 0x0, symName: __ZN8crashpad12_GLOBAL__N_117kTerminateSignalsE, symObjAddr: 0xCC8, symBinAddr: 0x1000792C8, symSize: 0x0 }
  - { offset: 0x5DA42B, size: 0x8, addend: 0x0, symName: __ZN8crashpad12_GLOBAL__N_115InstallHandlersERKNSt3__16vectorIiNS1_9allocatorIiEEEEPFviP9__siginfoPvEiPNS_7Signals10OldActionsEPKNS1_3setIiNS1_4lessIiEES4_EE, symObjAddr: 0x18C, symBinAddr: 0x10004C248, symSize: 0x180 }
  - { offset: 0x5E210F, size: 0x8, addend: 0x0, symName: __ZN8crashpad7Signals10OldActions15ActionForSignalEi, symObjAddr: 0x0, symBinAddr: 0x10004C0BC, symSize: 0xC }
  - { offset: 0x5E21EF, size: 0x8, addend: 0x0, symName: __ZN8crashpad7Signals14InstallHandlerEiPFviP9__siginfoPvEiP9sigaction, symObjAddr: 0xC, symBinAddr: 0x10004C0C8, symSize: 0xB8 }
  - { offset: 0x5E2311, size: 0x8, addend: 0x0, symName: __ZN8crashpad7Signals21InstallDefaultHandlerEi, symObjAddr: 0xC4, symBinAddr: 0x10004C180, symSize: 0x30 }
  - { offset: 0x5E2671, size: 0x8, addend: 0x0, symName: __ZN8crashpad7Signals20InstallCrashHandlersEPFviP9__siginfoPvEiPNS0_10OldActionsEPKNSt3__13setIiNS8_4lessIiEENS8_9allocatorIiEEEE, symObjAddr: 0xF4, symBinAddr: 0x10004C1B0, symSize: 0x98 }
  - { offset: 0x5E2CB7, size: 0x8, addend: 0x0, symName: __ZN8crashpad7Signals24InstallTerminateHandlersEPFviP9__siginfoPvEiPNS0_10OldActionsE, symObjAddr: 0x30C, symBinAddr: 0x10004C3C8, symSize: 0x334 }
  - { offset: 0x5E34CD, size: 0x8, addend: 0x0, symName: __ZN8crashpad7Signals29WillSignalReraiseAutonomouslyEPK9__siginfo, symObjAddr: 0x640, symBinAddr: 0x10004C6FC, symSize: 0x44 }
  - { offset: 0x5E352D, size: 0x8, addend: 0x0, symName: __ZN8crashpad7Signals38RestoreHandlerAndReraiseSignalOnReturnEPK9__siginfoPK9sigaction, symObjAddr: 0x684, symBinAddr: 0x10004C740, symSize: 0xBC }
  - { offset: 0x5E3623, size: 0x8, addend: 0x0, symName: __ZN8crashpad7Signals13IsCrashSignalEi, symObjAddr: 0x740, symBinAddr: 0x10004C7FC, symSize: 0x18 }
  - { offset: 0x5E3656, size: 0x8, addend: 0x0, symName: __ZN8crashpad7Signals13IsCrashSignalEi, symObjAddr: 0x740, symBinAddr: 0x10004C7FC, symSize: 0x18 }
  - { offset: 0x5E3682, size: 0x8, addend: 0x0, symName: __ZN8crashpad7Signals13IsCrashSignalEi, symObjAddr: 0x740, symBinAddr: 0x10004C7FC, symSize: 0x18 }
  - { offset: 0x5E36A3, size: 0x8, addend: 0x0, symName: __ZN8crashpad7Signals13IsCrashSignalEi, symObjAddr: 0x740, symBinAddr: 0x10004C7FC, symSize: 0x18 }
  - { offset: 0x5E36BB, size: 0x8, addend: 0x0, symName: __ZN8crashpad7Signals17IsTerminateSignalEi, symObjAddr: 0x758, symBinAddr: 0x10004C814, symSize: 0x1C }
  - { offset: 0x5E36E7, size: 0x8, addend: 0x0, symName: __ZN8crashpad7Signals17IsTerminateSignalEi, symObjAddr: 0x758, symBinAddr: 0x10004C814, symSize: 0x1C }
  - { offset: 0x5E3708, size: 0x8, addend: 0x0, symName: __ZN8crashpad7Signals17IsTerminateSignalEi, symObjAddr: 0x758, symBinAddr: 0x10004C814, symSize: 0x1C }
  - { offset: 0x5EA426, size: 0x8, addend: 0x0, symName: __ZN8crashpad6Thread5StartEv, symObjAddr: 0x0, symBinAddr: 0x10004C830, symSize: 0xCC }
  - { offset: 0x5EA5BC, size: 0x8, addend: 0x0, symName: __ZN8crashpad6Thread16ThreadEntryThunkEPv, symObjAddr: 0xCC, symBinAddr: 0x10004C8FC, symSize: 0x20 }
  - { offset: 0x5EA607, size: 0x8, addend: 0x0, symName: __ZN8crashpad6Thread4JoinEv, symObjAddr: 0xEC, symBinAddr: 0x10004C91C, symSize: 0xD0 }
  - { offset: 0x5EA766, size: 0x8, addend: 0x0, symName: __ZN8crashpad6Thread21GetThreadIdForTestingEv, symObjAddr: 0x1BC, symBinAddr: 0x10004C9EC, symSize: 0xC4 }
  - { offset: 0x5F4060, size: 0x8, addend: 0x0, symName: __ZN8crashpad15SpawnSubprocessERKNSt3__16vectorINS0_12basic_stringIcNS0_11char_traitsIcEENS0_9allocatorIcEEEENS5_IS7_EEEEPSA_ibPFvvE, symObjAddr: 0x0, symBinAddr: 0x10004CAB0, symSize: 0x9B8 }
  - { offset: 0x5F66EF, size: 0x8, addend: 0x0, symName: __ZN8crashpad12_GLOBAL__N_114PosixSpawnAttrC1Ev, symObjAddr: 0x9B8, symBinAddr: 0x10004D468, symSize: 0xC0 }
  - { offset: 0x5F6842, size: 0x8, addend: 0x0, symName: __ZN8crashpad12_GLOBAL__N_114PosixSpawnAttr8SetFlagsEs, symObjAddr: 0xA78, symBinAddr: 0x10004D528, symSize: 0xB4 }
  - { offset: 0x5F69C0, size: 0x8, addend: 0x0, symName: __ZN8crashpad12_GLOBAL__N_121PosixSpawnFileActionsC1Ev, symObjAddr: 0xB2C, symBinAddr: 0x10004D5DC, symSize: 0xC0 }
  - { offset: 0x5F6B13, size: 0x8, addend: 0x0, symName: __ZN8crashpad12_GLOBAL__N_121PosixSpawnFileActions26AddInheritedFileDescriptorEi, symObjAddr: 0xBEC, symBinAddr: 0x10004D69C, symSize: 0xB0 }
  - { offset: 0x5F6C83, size: 0x8, addend: 0x0, symName: __ZN8crashpad12_GLOBAL__N_121PosixSpawnFileActionsD1Ev, symObjAddr: 0xC9C, symBinAddr: 0x10004D74C, symSize: 0xB0 }
  - { offset: 0x5F6DD7, size: 0x8, addend: 0x0, symName: __ZN8crashpad12_GLOBAL__N_114PosixSpawnAttrD1Ev, symObjAddr: 0xD4C, symBinAddr: 0x10004D7FC, symSize: 0xB0 }
  - { offset: 0x5FDABE, size: 0x8, addend: 0x0, symName: __ZN8crashpad9ReadXattrERKN4base8FilePathERKNS0_16BasicStringPieceINSt3__112basic_stringIcNS5_11char_traitsIcEENS5_9allocatorIcEEEEEEPSB_, symObjAddr: 0x0, symBinAddr: 0x10004D8AC, symSize: 0x24C }
  - { offset: 0x5FE087, size: 0x8, addend: 0x0, symName: __ZN8crashpad10WriteXattrERKN4base8FilePathERKNS0_16BasicStringPieceINSt3__112basic_stringIcNS5_11char_traitsIcEENS5_9allocatorIcEEEEEERKSB_, symObjAddr: 0x24C, symBinAddr: 0x10004DAF8, symSize: 0x118 }
  - { offset: 0x5FE3A3, size: 0x8, addend: 0x0, symName: __ZN8crashpad13ReadXattrBoolERKN4base8FilePathERKNS0_16BasicStringPieceINSt3__112basic_stringIcNS5_11char_traitsIcEENS5_9allocatorIcEEEEEEPb, symObjAddr: 0x364, symBinAddr: 0x10004DC10, symSize: 0x194 }
  - { offset: 0x5FEA1E, size: 0x8, addend: 0x0, symName: __ZN8crashpad14WriteXattrBoolERKN4base8FilePathERKNS0_16BasicStringPieceINSt3__112basic_stringIcNS5_11char_traitsIcEENS5_9allocatorIcEEEEEEb, symObjAddr: 0x4F8, symBinAddr: 0x10004DDA4, symSize: 0x8C }
  - { offset: 0x5FEE01, size: 0x8, addend: 0x0, symName: __ZN8crashpad12ReadXattrIntERKN4base8FilePathERKNS0_16BasicStringPieceINSt3__112basic_stringIcNS5_11char_traitsIcEENS5_9allocatorIcEEEEEEPi, symObjAddr: 0x584, symBinAddr: 0x10004DE30, symSize: 0x178 }
  - { offset: 0x5FF41C, size: 0x8, addend: 0x0, symName: __ZN8crashpad13WriteXattrIntERKN4base8FilePathERKNS0_16BasicStringPieceINSt3__112basic_stringIcNS5_11char_traitsIcEENS5_9allocatorIcEEEEEEi, symObjAddr: 0x6FC, symBinAddr: 0x10004DFA8, symSize: 0x94 }
  - { offset: 0x5FF71A, size: 0x8, addend: 0x0, symName: __ZN8crashpad14ReadXattrTimeTERKN4base8FilePathERKNS0_16BasicStringPieceINSt3__112basic_stringIcNS5_11char_traitsIcEENS5_9allocatorIcEEEEEEPl, symObjAddr: 0x790, symBinAddr: 0x10004E03C, symSize: 0x180 }
  - { offset: 0x5FFD4B, size: 0x8, addend: 0x0, symName: __ZN8crashpad15WriteXattrTimeTERKN4base8FilePathERKNS0_16BasicStringPieceINSt3__112basic_stringIcNS5_11char_traitsIcEENS5_9allocatorIcEEEEEEl, symObjAddr: 0x910, symBinAddr: 0x10004E1BC, symSize: 0x94 }
  - { offset: 0x600049, size: 0x8, addend: 0x0, symName: __ZN8crashpad11RemoveXattrERKN4base8FilePathERKNS0_16BasicStringPieceINSt3__112basic_stringIcNS5_11char_traitsIcEENS5_9allocatorIcEEEEEE, symObjAddr: 0x9A4, symBinAddr: 0x10004E250, symSize: 0x114 }
  - { offset: 0x60C517, size: 0x8, addend: 0x0, symName: __ZN8crashpad26CompositeMachMessageServerC2Ev, symObjAddr: 0x0, symBinAddr: 0x10004E364, symSize: 0x28 }
  - { offset: 0x60C5F6, size: 0x8, addend: 0x0, symName: __ZN8crashpad26CompositeMachMessageServerC1Ev, symObjAddr: 0x28, symBinAddr: 0x10004E38C, symSize: 0x28 }
  - { offset: 0x60C624, size: 0x8, addend: 0x0, symName: __ZN8crashpad26CompositeMachMessageServerC1Ev, symObjAddr: 0x28, symBinAddr: 0x10004E38C, symSize: 0x28 }
  - { offset: 0x60C763, size: 0x8, addend: 0x0, symName: __ZN8crashpad26CompositeMachMessageServerD2Ev, symObjAddr: 0x50, symBinAddr: 0x10004E3B4, symSize: 0x38 }
  - { offset: 0x60C8CC, size: 0x8, addend: 0x0, symName: __ZN8crashpad26CompositeMachMessageServerD1Ev, symObjAddr: 0x88, symBinAddr: 0x10004E3EC, symSize: 0x38 }
  - { offset: 0x60CEEB, size: 0x8, addend: 0x0, symName: __ZN8crashpad26CompositeMachMessageServer10AddHandlerEPNS_17MachMessageServer9InterfaceE, symObjAddr: 0xC0, symBinAddr: 0x10004E424, symSize: 0x250 }
  - { offset: 0x60D876, size: 0x8, addend: 0x0, symName: __ZN8crashpad26CompositeMachMessageServer25MachMessageServerFunctionEPK17mach_msg_header_tPS1_Pb, symObjAddr: 0x310, symBinAddr: 0x10004E674, symSize: 0x8C }
  - { offset: 0x60DEA4, size: 0x8, addend: 0x0, symName: __ZN8crashpad26CompositeMachMessageServer27MachMessageServerRequestIDsEv, symObjAddr: 0x39C, symBinAddr: 0x10004E700, symSize: 0x13C }
  - { offset: 0x60E46C, size: 0x8, addend: 0x0, symName: __ZN8crashpad26CompositeMachMessageServer28MachMessageServerRequestSizeEv, symObjAddr: 0x4D8, symBinAddr: 0x10004E83C, symSize: 0x8 }
  - { offset: 0x60E495, size: 0x8, addend: 0x0, symName: __ZN8crashpad26CompositeMachMessageServer26MachMessageServerReplySizeEv, symObjAddr: 0x4E0, symBinAddr: 0x10004E844, symSize: 0x8 }
  - { offset: 0x6108E7, size: 0x8, addend: 0x0, symName: __ZN8crashpad23UniversalExceptionRaiseEijjjiPKxjPiPKjjPjS5_, symObjAddr: 0x0, symBinAddr: 0x10004E84C, symSize: 0x2FC }
  - { offset: 0x612F14, size: 0x8, addend: 0x0, symName: __ZN8crashpad23UniversalExceptionRaiseEijjjiPKxjPiPKjjPjS5_, symObjAddr: 0x0, symBinAddr: 0x10004E84C, symSize: 0x2FC }
  - { offset: 0x615847, size: 0x8, addend: 0x0, symName: __ZN8crashpad22UniversalMachExcServerC2EPNS0_9InterfaceE, symObjAddr: 0x0, symBinAddr: 0x10004EB48, symSize: 0xFC }
  - { offset: 0x616506, size: 0x8, addend: 0x0, symName: __ZN8crashpad30ExcServerSuccessfulReturnValueEiib, symObjAddr: 0x198, symBinAddr: 0x10004ECE0, symSize: 0x38 }
  - { offset: 0x61657C, size: 0x8, addend: 0x0, symName: __ZN8crashpad18ExcServerCopyStateEiPKjjPjS2_, symObjAddr: 0x1D0, symBinAddr: 0x10004ED18, symSize: 0x64 }
  - { offset: 0x61B69A, size: 0x8, addend: 0x0, symName: __ZN8crashpad12_GLOBAL__N_19ExcServerINS0_9ExcTraitsEE25MachMessageServerFunctionEPK17mach_msg_header_tPS4_Pb, symObjAddr: 0x4EC, symBinAddr: 0x10004F034, symSize: 0x1EC }
  - { offset: 0x61BCBA, size: 0x8, addend: 0x0, symName: __ZN8crashpad12_GLOBAL__N_19ExcServerINS0_13MachExcTraitsEE25MachMessageServerFunctionEPK17mach_msg_header_tPS4_Pb, symObjAddr: 0xF0C, symBinAddr: 0x10004F834, symSize: 0x1EC }
  - { offset: 0x61C771, size: 0x8, addend: 0x0, symName: __ZN8crashpad22UniversalMachExcServerC2EPNS0_9InterfaceE, symObjAddr: 0x0, symBinAddr: 0x10004EB48, symSize: 0xFC }
  - { offset: 0x61C96D, size: 0x8, addend: 0x0, symName: __ZN8crashpad22UniversalMachExcServerC1EPNS0_9InterfaceE, symObjAddr: 0xFC, symBinAddr: 0x10004EC44, symSize: 0x4 }
  - { offset: 0x61C9AA, size: 0x8, addend: 0x0, symName: __ZN8crashpad22UniversalMachExcServerC1EPNS0_9InterfaceE, symObjAddr: 0xFC, symBinAddr: 0x10004EC44, symSize: 0x4 }
  - { offset: 0x61CA82, size: 0x8, addend: 0x0, symName: __ZN8crashpad22UniversalMachExcServerD2Ev, symObjAddr: 0x100, symBinAddr: 0x10004EC48, symSize: 0x3C }
  - { offset: 0x61CBA3, size: 0x8, addend: 0x0, symName: __ZN8crashpad22UniversalMachExcServerD1Ev, symObjAddr: 0x13C, symBinAddr: 0x10004EC84, symSize: 0x3C }
  - { offset: 0x61CCE9, size: 0x8, addend: 0x0, symName: __ZN8crashpad22UniversalMachExcServer25MachMessageServerFunctionEPK17mach_msg_header_tPS1_Pb, symObjAddr: 0x178, symBinAddr: 0x10004ECC0, symSize: 0x8 }
  - { offset: 0x61CD43, size: 0x8, addend: 0x0, symName: __ZN8crashpad22UniversalMachExcServer25MachMessageServerFunctionEPK17mach_msg_header_tPS1_Pb, symObjAddr: 0x178, symBinAddr: 0x10004ECC0, symSize: 0x8 }
  - { offset: 0x61CD61, size: 0x8, addend: 0x0, symName: __ZN8crashpad22UniversalMachExcServer27MachMessageServerRequestIDsEv, symObjAddr: 0x180, symBinAddr: 0x10004ECC8, symSize: 0x8 }
  - { offset: 0x61CD8E, size: 0x8, addend: 0x0, symName: __ZN8crashpad22UniversalMachExcServer27MachMessageServerRequestIDsEv, symObjAddr: 0x180, symBinAddr: 0x10004ECC8, symSize: 0x8 }
  - { offset: 0x61CDAC, size: 0x8, addend: 0x0, symName: __ZN8crashpad22UniversalMachExcServer28MachMessageServerRequestSizeEv, symObjAddr: 0x188, symBinAddr: 0x10004ECD0, symSize: 0x8 }
  - { offset: 0x61CDD9, size: 0x8, addend: 0x0, symName: __ZN8crashpad22UniversalMachExcServer28MachMessageServerRequestSizeEv, symObjAddr: 0x188, symBinAddr: 0x10004ECD0, symSize: 0x8 }
  - { offset: 0x61CDF7, size: 0x8, addend: 0x0, symName: __ZN8crashpad22UniversalMachExcServer26MachMessageServerReplySizeEv, symObjAddr: 0x190, symBinAddr: 0x10004ECD8, symSize: 0x8 }
  - { offset: 0x61CE24, size: 0x8, addend: 0x0, symName: __ZN8crashpad22UniversalMachExcServer26MachMessageServerReplySizeEv, symObjAddr: 0x190, symBinAddr: 0x10004ECD8, symSize: 0x8 }
  - { offset: 0x61D2E6, size: 0x8, addend: 0x0, symName: __ZN8crashpad8internal26UniversalMachExcServerImpl14CatchExceptionEijjjiPKijPiPKjjPjS7_PK18mach_msg_trailer_tPb, symObjAddr: 0x234, symBinAddr: 0x10004ED7C, symSize: 0x1F8 }
  - { offset: 0x61DC16, size: 0x8, addend: 0x0, symName: __ZN8crashpad8internal26UniversalMachExcServerImpl14CatchExceptionEijjjiPKxjPiPKjjPjS7_PK18mach_msg_trailer_tPb, symObjAddr: 0x42C, symBinAddr: 0x10004EF74, symSize: 0x48 }
  - { offset: 0x61DCE9, size: 0x8, addend: 0x0, symName: __ZThn40_N8crashpad8internal26UniversalMachExcServerImpl14CatchExceptionEijjjiPKijPiPKjjPjS7_PK18mach_msg_trailer_tPb, symObjAddr: 0x474, symBinAddr: 0x10004EFBC, symSize: 0x30 }
  - { offset: 0x61DE0C, size: 0x8, addend: 0x0, symName: __ZThn48_N8crashpad8internal26UniversalMachExcServerImpl14CatchExceptionEijjjiPKxjPiPKjjPjS7_PK18mach_msg_trailer_tPb, symObjAddr: 0x4A4, symBinAddr: 0x10004EFEC, symSize: 0x48 }
  - { offset: 0x61DFEA, size: 0x8, addend: 0x0, symName: __ZN8crashpad12_GLOBAL__N_19ExcServerINS0_9ExcTraitsEE27MachMessageServerRequestIDsEv, symObjAddr: 0x6D8, symBinAddr: 0x10004F220, symSize: 0x70 }
  - { offset: 0x61E06E, size: 0x8, addend: 0x0, symName: __ZNSt3__13setIiNS_4lessIiEENS_9allocatorIiEEEC2B8ne190102IPKiEET_S9_RKS2_, symObjAddr: 0xA48, symBinAddr: 0x10004F590, symSize: 0xF4 }
  - { offset: 0x61E47C, size: 0x8, addend: 0x0, symName: __ZN8crashpad12_GLOBAL__N_19ExcServerINS0_9ExcTraitsEE28MachMessageServerRequestSizeEv, symObjAddr: 0x748, symBinAddr: 0x10004F290, symSize: 0x8 }
  - { offset: 0x61E49F, size: 0x8, addend: 0x0, symName: __ZN8crashpad12_GLOBAL__N_19ExcServerINS0_9ExcTraitsEE26MachMessageServerReplySizeEv, symObjAddr: 0x750, symBinAddr: 0x10004F298, symSize: 0x8 }
  - { offset: 0x61E4C2, size: 0x8, addend: 0x0, symName: __ZN8crashpad12_GLOBAL__N_119SimplifiedExcServerINS0_9ExcTraitsEE19CatchExceptionRaiseEjjjiPKijPK18mach_msg_trailer_tPb, symObjAddr: 0x758, symBinAddr: 0x10004F2A0, symSize: 0x74 }
  - { offset: 0x61E57D, size: 0x8, addend: 0x0, symName: __ZN8crashpad12_GLOBAL__N_119SimplifiedExcServerINS0_9ExcTraitsEE24CatchExceptionRaiseStateEjiPKijPiPKjjPjS9_PK18mach_msg_trailer_t, symObjAddr: 0x7CC, symBinAddr: 0x10004F314, symSize: 0x84 }
  - { offset: 0x61E63C, size: 0x8, addend: 0x0, symName: __ZN8crashpad12_GLOBAL__N_119SimplifiedExcServerINS0_9ExcTraitsEE32CatchExceptionRaiseStateIdentityEjjjiPKijPiPKjjPjS9_PK18mach_msg_trailer_tPb, symObjAddr: 0x850, symBinAddr: 0x10004F398, symSize: 0x80 }
  - { offset: 0x61E7A8, size: 0x8, addend: 0x0, symName: __ZThn16_N8crashpad12_GLOBAL__N_119SimplifiedExcServerINS0_9ExcTraitsEE19CatchExceptionRaiseEjjjiPKijPK18mach_msg_trailer_tPb, symObjAddr: 0x8D0, symBinAddr: 0x10004F418, symSize: 0x74 }
  - { offset: 0x61E913, size: 0x8, addend: 0x0, symName: __ZThn16_N8crashpad12_GLOBAL__N_119SimplifiedExcServerINS0_9ExcTraitsEE24CatchExceptionRaiseStateEjiPKijPiPKjjPjS9_PK18mach_msg_trailer_t, symObjAddr: 0x944, symBinAddr: 0x10004F48C, symSize: 0x84 }
  - { offset: 0x61EA9E, size: 0x8, addend: 0x0, symName: __ZThn16_N8crashpad12_GLOBAL__N_119SimplifiedExcServerINS0_9ExcTraitsEE32CatchExceptionRaiseStateIdentityEjjjiPKijPiPKjjPjS9_PK18mach_msg_trailer_tPb, symObjAddr: 0x9C8, symBinAddr: 0x10004F510, symSize: 0x80 }
  - { offset: 0x61EF59, size: 0x8, addend: 0x0, symName: __ZNSt3__16__treeIiNS_4lessIiEENS_9allocatorIiEEE12__find_equalIiEERPNS_16__tree_node_baseIPvEENS_21__tree_const_iteratorIiPNS_11__tree_nodeIiS8_EElEERPNS_15__tree_end_nodeISA_EESB_RKT_, symObjAddr: 0xB3C, symBinAddr: 0x10004F684, symSize: 0x1B0 }
  - { offset: 0x61EFC1, size: 0x8, addend: 0x0, symName: __ZNSt3__16__treeIiNS_4lessIiEENS_9allocatorIiEEE12__find_equalIiEERPNS_16__tree_node_baseIPvEENS_21__tree_const_iteratorIiPNS_11__tree_nodeIiS8_EElEERPNS_15__tree_end_nodeISA_EESB_RKT_, symObjAddr: 0xB3C, symBinAddr: 0x10004F684, symSize: 0x1B0 }
  - { offset: 0x61EFDF, size: 0x8, addend: 0x0, symName: __ZNSt3__16__treeIiNS_4lessIiEENS_9allocatorIiEEE12__find_equalIiEERPNS_16__tree_node_baseIPvEENS_21__tree_const_iteratorIiPNS_11__tree_nodeIiS8_EElEERPNS_15__tree_end_nodeISA_EESB_RKT_, symObjAddr: 0xB3C, symBinAddr: 0x10004F684, symSize: 0x1B0 }
  - { offset: 0x61F5A2, size: 0x8, addend: 0x0, symName: __ZN8crashpad12_GLOBAL__N_19ExcServerINS0_13MachExcTraitsEE27MachMessageServerRequestIDsEv, symObjAddr: 0x10F8, symBinAddr: 0x10004FA20, symSize: 0x70 }
  - { offset: 0x61F626, size: 0x8, addend: 0x0, symName: __ZN8crashpad12_GLOBAL__N_19ExcServerINS0_13MachExcTraitsEE28MachMessageServerRequestSizeEv, symObjAddr: 0x1168, symBinAddr: 0x10004FA90, symSize: 0x8 }
  - { offset: 0x61F649, size: 0x8, addend: 0x0, symName: __ZN8crashpad12_GLOBAL__N_19ExcServerINS0_13MachExcTraitsEE26MachMessageServerReplySizeEv, symObjAddr: 0x1170, symBinAddr: 0x10004FA98, symSize: 0x8 }
  - { offset: 0x61F66C, size: 0x8, addend: 0x0, symName: __ZN8crashpad12_GLOBAL__N_119SimplifiedExcServerINS0_13MachExcTraitsEE19CatchExceptionRaiseEjjjiPKxjPK18mach_msg_trailer_tPb, symObjAddr: 0x1178, symBinAddr: 0x10004FAA0, symSize: 0x74 }
  - { offset: 0x61F722, size: 0x8, addend: 0x0, symName: __ZN8crashpad12_GLOBAL__N_119SimplifiedExcServerINS0_13MachExcTraitsEE24CatchExceptionRaiseStateEjiPKxjPiPKjjPjS9_PK18mach_msg_trailer_t, symObjAddr: 0x11EC, symBinAddr: 0x10004FB14, symSize: 0x88 }
  - { offset: 0x61F7DC, size: 0x8, addend: 0x0, symName: __ZN8crashpad12_GLOBAL__N_119SimplifiedExcServerINS0_13MachExcTraitsEE32CatchExceptionRaiseStateIdentityEjjjiPKxjPiPKjjPjS9_PK18mach_msg_trailer_tPb, symObjAddr: 0x1274, symBinAddr: 0x10004FB9C, symSize: 0x80 }
  - { offset: 0x61F943, size: 0x8, addend: 0x0, symName: __ZThn16_N8crashpad12_GLOBAL__N_119SimplifiedExcServerINS0_13MachExcTraitsEE19CatchExceptionRaiseEjjjiPKxjPK18mach_msg_trailer_tPb, symObjAddr: 0x12F4, symBinAddr: 0x10004FC1C, symSize: 0x74 }
  - { offset: 0x61FAA9, size: 0x8, addend: 0x0, symName: __ZThn16_N8crashpad12_GLOBAL__N_119SimplifiedExcServerINS0_13MachExcTraitsEE24CatchExceptionRaiseStateEjiPKxjPiPKjjPjS9_PK18mach_msg_trailer_t, symObjAddr: 0x1368, symBinAddr: 0x10004FC90, symSize: 0x88 }
  - { offset: 0x61FC2F, size: 0x8, addend: 0x0, symName: __ZThn16_N8crashpad12_GLOBAL__N_119SimplifiedExcServerINS0_13MachExcTraitsEE32CatchExceptionRaiseStateIdentityEjjjiPKxjPiPKjjPjS9_PK18mach_msg_trailer_tPb, symObjAddr: 0x13F0, symBinAddr: 0x10004FD18, symSize: 0x80 }
  - { offset: 0x621B3E, size: 0x8, addend: 0x0, symName: __ZN8crashpad25ExceptionBehaviorHasStateEi, symObjAddr: 0x0, symBinAddr: 0x10004FD98, symSize: 0x10 }
  - { offset: 0x621B51, size: 0x8, addend: 0x0, symName: __ZN8crashpad25ExceptionBehaviorHasStateEi, symObjAddr: 0x0, symBinAddr: 0x10004FD98, symSize: 0x10 }
  - { offset: 0x621B90, size: 0x8, addend: 0x0, symName: __ZN8crashpad22ExceptionBehaviorBasicEi, symObjAddr: 0x10, symBinAddr: 0x10004FDA8, symSize: 0x8 }
  - { offset: 0x621BBF, size: 0x8, addend: 0x0, symName: __ZN8crashpad28ExceptionBehaviorHasIdentityEi, symObjAddr: 0x18, symBinAddr: 0x10004FDB0, symSize: 0x14 }
  - { offset: 0x621BFE, size: 0x8, addend: 0x0, symName: __ZN8crashpad38ExceptionBehaviorHasMachExceptionCodesEi, symObjAddr: 0x2C, symBinAddr: 0x10004FDC4, symSize: 0x8 }
  - { offset: 0x627F49, size: 0x8, addend: 0x0, symName: __ZN8crashpad14ExceptionPorts22ExceptionHandlerVectorC2Ev, symObjAddr: 0x0, symBinAddr: 0x10004FDCC, symSize: 0xC }
  - { offset: 0x627F6D, size: 0x8, addend: 0x0, symName: __ZN8crashpad14ExceptionPorts22ExceptionHandlerVectorC2Ev, symObjAddr: 0x0, symBinAddr: 0x10004FDCC, symSize: 0xC }
  - { offset: 0x627F8A, size: 0x8, addend: 0x0, symName: __ZN8crashpad14ExceptionPorts22ExceptionHandlerVectorC2Ev, symObjAddr: 0x0, symBinAddr: 0x10004FDCC, symSize: 0xC }
  - { offset: 0x627FC3, size: 0x8, addend: 0x0, symName: __ZN8crashpad14ExceptionPorts22ExceptionHandlerVectorC1Ev, symObjAddr: 0xC, symBinAddr: 0x10004FDD8, symSize: 0xC }
  - { offset: 0x627FF1, size: 0x8, addend: 0x0, symName: __ZN8crashpad14ExceptionPorts22ExceptionHandlerVectorC1Ev, symObjAddr: 0xC, symBinAddr: 0x10004FDD8, symSize: 0xC }
  - { offset: 0x62800E, size: 0x8, addend: 0x0, symName: __ZN8crashpad14ExceptionPorts22ExceptionHandlerVectorC1Ev, symObjAddr: 0xC, symBinAddr: 0x10004FDD8, symSize: 0xC }
  - { offset: 0x62802B, size: 0x8, addend: 0x0, symName: __ZN8crashpad14ExceptionPorts22ExceptionHandlerVectorC1Ev, symObjAddr: 0xC, symBinAddr: 0x10004FDD8, symSize: 0xC }
  - { offset: 0x628143, size: 0x8, addend: 0x0, symName: __ZN8crashpad14ExceptionPorts22ExceptionHandlerVectorD2Ev, symObjAddr: 0x18, symBinAddr: 0x10004FDE4, symSize: 0x38 }
  - { offset: 0x6282CB, size: 0x8, addend: 0x0, symName: __ZN8crashpad14ExceptionPorts22ExceptionHandlerVector10DeallocateEv, symObjAddr: 0x50, symBinAddr: 0x10004FE1C, symSize: 0xD8 }
  - { offset: 0x62843D, size: 0x8, addend: 0x0, symName: __ZN8crashpad14ExceptionPorts22ExceptionHandlerVectorD1Ev, symObjAddr: 0x138, symBinAddr: 0x10004FEF4, symSize: 0x38 }
  - { offset: 0x628625, size: 0x8, addend: 0x0, symName: __ZN8crashpad14ExceptionPorts22ExceptionHandlerVector5clearEv, symObjAddr: 0x170, symBinAddr: 0x10004FF2C, symSize: 0x28 }
  - { offset: 0x6286E1, size: 0x8, addend: 0x0, symName: __ZN8crashpad14ExceptionPortsC2ENS0_10TargetTypeEj, symObjAddr: 0x198, symBinAddr: 0x10004FF54, symSize: 0x120 }
  - { offset: 0x628781, size: 0x8, addend: 0x0, symName: __ZN8crashpad14ExceptionPortsC1ENS0_10TargetTypeEj, symObjAddr: 0x2B8, symBinAddr: 0x100050074, symSize: 0x120 }
  - { offset: 0x6288AE, size: 0x8, addend: 0x0, symName: __ZN8crashpad14ExceptionPortsD2Ev, symObjAddr: 0x3D8, symBinAddr: 0x100050194, symSize: 0x9C }
  - { offset: 0x62896B, size: 0x8, addend: 0x0, symName: __ZN8crashpad14ExceptionPortsD1Ev, symObjAddr: 0x474, symBinAddr: 0x100050230, symSize: 0x9C }
  - { offset: 0x628D53, size: 0x8, addend: 0x0, symName: __ZNK8crashpad14ExceptionPorts17GetExceptionPortsEjPNS0_22ExceptionHandlerVectorE, symObjAddr: 0x510, symBinAddr: 0x1000502CC, symSize: 0x258 }
  - { offset: 0x62948D, size: 0x8, addend: 0x0, symName: __ZNK8crashpad14ExceptionPorts14TargetTypeNameEv, symObjAddr: 0x768, symBinAddr: 0x100050524, symSize: 0x8 }
  - { offset: 0x6294B0, size: 0x8, addend: 0x0, symName: __ZNK8crashpad14ExceptionPorts16SetExceptionPortEjjii, symObjAddr: 0x770, symBinAddr: 0x10005052C, symSize: 0xB8 }
  - { offset: 0x62964D, size: 0x8, addend: 0x0, symName: __ZNK8crashpad14ExceptionPorts18SwapExceptionPortsEjjiiPNS0_22ExceptionHandlerVectorE, symObjAddr: 0x828, symBinAddr: 0x1000505E4, symSize: 0x25C }
  - { offset: 0x630A23, size: 0x8, addend: 0x0, symName: __ZN8crashpad14MachThreadSelfEv, symObjAddr: 0x0, symBinAddr: 0x100050840, symSize: 0x14 }
  - { offset: 0x630A5E, size: 0x8, addend: 0x0, symName: __ZN8crashpad11NewMachPortEj, symObjAddr: 0x14, symBinAddr: 0x100050854, symSize: 0x9C }
  - { offset: 0x630B1B, size: 0x8, addend: 0x0, symName: __ZN8crashpad10ExcMaskAllEv, symObjAddr: 0xB0, symBinAddr: 0x1000508F0, symSize: 0x8 }
  - { offset: 0x630B64, size: 0x8, addend: 0x0, symName: __ZN8crashpad12ExcMaskValidEv, symObjAddr: 0xB8, symBinAddr: 0x1000508F8, symSize: 0x8 }
  - { offset: 0x63308C, size: 0x8, addend: 0x0, symName: __ZN8crashpad30MachMessageDeadlineFromTimeoutEj, symObjAddr: 0x0, symBinAddr: 0x100050900, symSize: 0x48 }
  - { offset: 0x6330D8, size: 0x8, addend: 0x0, symName: __ZN8crashpad23MachMessageWithDeadlineEP17mach_msg_header_tijjyjb, symObjAddr: 0x48, symBinAddr: 0x100050948, symSize: 0x548 }
  - { offset: 0x6334FE, size: 0x8, addend: 0x0, symName: __ZN8crashpad26PrepareMIGReplyFromRequestEPK17mach_msg_header_tPS0_, symObjAddr: 0x590, symBinAddr: 0x100050E90, symSize: 0x3C }
  - { offset: 0x633533, size: 0x8, addend: 0x0, symName: __ZN8crashpad16SetMIGReplyErrorEP17mach_msg_header_ti, symObjAddr: 0x5CC, symBinAddr: 0x100050ECC, symSize: 0x8 }
  - { offset: 0x633568, size: 0x8, addend: 0x0, symName: __ZN8crashpad28MachMessageTrailerFromHeaderEPK17mach_msg_header_t, symObjAddr: 0x5D4, symBinAddr: 0x100050ED4, symSize: 0x14 }
  - { offset: 0x6335B3, size: 0x8, addend: 0x0, symName: __ZN8crashpad30MachMessageDestroyReceivedPortEjj, symObjAddr: 0x5E8, symBinAddr: 0x100050EE8, symSize: 0x1B0 }
  - { offset: 0x633742, size: 0x8, addend: 0x0, symName: __ZN8crashpad30AuditPIDFromMachMessageTrailerEPK18mach_msg_trailer_t, symObjAddr: 0x798, symBinAddr: 0x100051098, symSize: 0x120 }
  - { offset: 0x63EE33, size: 0x8, addend: 0x0, symName: __ZN8crashpad17MachMessageServer3RunEPNS0_9InterfaceEjiNS0_10PersistentENS0_12ReceiveLargeEj, symObjAddr: 0x0, symBinAddr: 0x1000511B8, symSize: 0x528 }
  - { offset: 0x63F579, size: 0x8, addend: 0x0, symName: __ZN8crashpad12_GLOBAL__N_117MachMessageBufferD1Ev, symObjAddr: 0x528, symBinAddr: 0x1000516E0, symSize: 0x44 }
  - { offset: 0x641909, size: 0x8, addend: 0x0, symName: __ZN8crashpad17ExceptionToStringEij, symObjAddr: 0x0, symBinAddr: 0x100051724, symSize: 0x13C }
  - { offset: 0x641947, size: 0x8, addend: 0x0, symName: __ZN8crashpad21StringToExceptionMaskERKN4base16BasicStringPieceINSt3__112basic_stringIcNS2_11char_traitsIcEENS2_9allocatorIcEEEEEEjPj, symObjAddr: 0x1240, symBinAddr: 0x100052964, symSize: 0x728 }
  - { offset: 0x641973, size: 0x8, addend: 0x0, symName: __ZZN8crashpad21StringToExceptionMaskERKN4base16BasicStringPieceINSt3__112basic_stringIcNS2_11char_traitsIcEENS2_9allocatorIcEEEEEEjPjE11kExcMaskAll, symObjAddr: 0x2D36, symBinAddr: 0x100079607, symSize: 0x0 }
  - { offset: 0x642675, size: 0x8, addend: 0x0, symName: __ZN8crashpad17ExceptionToStringEij, symObjAddr: 0x0, symBinAddr: 0x100051724, symSize: 0x13C }
  - { offset: 0x6429FB, size: 0x8, addend: 0x0, symName: __ZN8crashpad17StringToExceptionERKN4base16BasicStringPieceINSt3__112basic_stringIcNS2_11char_traitsIcEENS2_9allocatorIcEEEEEEjPi, symObjAddr: 0x13C, symBinAddr: 0x100051860, symSize: 0x604 }
  - { offset: 0x642A0D, size: 0x8, addend: 0x0, symName: __ZN8crashpad17StringToExceptionERKN4base16BasicStringPieceINSt3__112basic_stringIcNS2_11char_traitsIcEENS2_9allocatorIcEEEEEEjPi, symObjAddr: 0x13C, symBinAddr: 0x100051860, symSize: 0x604 }
  - { offset: 0x64346B, size: 0x8, addend: 0x0, symName: __ZN8crashpad21ExceptionMaskToStringEjj, symObjAddr: 0x740, symBinAddr: 0x100051E64, symSize: 0xB00 }
  - { offset: 0x643DD2, size: 0x8, addend: 0x0, symName: __ZN8crashpad25ExceptionBehaviorToStringEij, symObjAddr: 0x1968, symBinAddr: 0x10005308C, symSize: 0x138 }
  - { offset: 0x64427B, size: 0x8, addend: 0x0, symName: __ZN8crashpad25StringToExceptionBehaviorERKN4base16BasicStringPieceINSt3__112basic_stringIcNS2_11char_traitsIcEENS2_9allocatorIcEEEEEEjPi, symObjAddr: 0x1AA0, symBinAddr: 0x1000531C4, symSize: 0x3F4 }
  - { offset: 0x644D0C, size: 0x8, addend: 0x0, symName: __ZN8crashpad25ThreadStateFlavorToStringEij, symObjAddr: 0x1E94, symBinAddr: 0x1000535B8, symSize: 0x160 }
  - { offset: 0x645085, size: 0x8, addend: 0x0, symName: __ZN12_GLOBAL__N_128ThreadStateFlavorFullToShortERKN4base16BasicStringPieceINSt3__112basic_stringIcNS2_11char_traitsIcEENS2_9allocatorIcEEEEEE, symObjAddr: 0x1FF4, symBinAddr: 0x100053718, symSize: 0x2E0 }
  - { offset: 0x645097, size: 0x8, addend: 0x0, symName: __ZN8crashpad25StringToThreadStateFlavorERKN4base16BasicStringPieceINSt3__112basic_stringIcNS2_11char_traitsIcEENS2_9allocatorIcEEEEEEjPi, symObjAddr: 0x22D4, symBinAddr: 0x1000539F8, symSize: 0x4E8 }
  - { offset: 0x645E0C, size: 0x8, addend: 0x0, symName: __ZN12_GLOBAL__N_115kExceptionNamesE, symObjAddr: 0x29B0, symBinAddr: 0x1000835A0, symSize: 0x0 }
  - { offset: 0x645E26, size: 0x8, addend: 0x0, symName: __ZN12_GLOBAL__N_110kExcPrefixE, symObjAddr: 0x2D27, symBinAddr: 0x1000795F8, symSize: 0x0 }
  - { offset: 0x645E40, size: 0x8, addend: 0x0, symName: __ZN12_GLOBAL__N_114kExcMaskPrefixE, symObjAddr: 0x2D2C, symBinAddr: 0x1000795FD, symSize: 0x0 }
  - { offset: 0x645E5A, size: 0x8, addend: 0x0, symName: __ZN12_GLOBAL__N_114kBehaviorNamesE, symObjAddr: 0x2A20, symBinAddr: 0x100083610, symSize: 0x0 }
  - { offset: 0x645E74, size: 0x8, addend: 0x0, symName: __ZN12_GLOBAL__N_115kBehaviorPrefixE, symObjAddr: 0x2D3A, symBinAddr: 0x10007960B, symSize: 0x0 }
  - { offset: 0x645E8E, size: 0x8, addend: 0x0, symName: __ZN12_GLOBAL__N_124kMachExceptionCodesShortE, symObjAddr: 0x2D45, symBinAddr: 0x100079616, symSize: 0x0 }
  - { offset: 0x645EA8, size: 0x8, addend: 0x0, symName: __ZN12_GLOBAL__N_123kMachExceptionCodesFullE, symObjAddr: 0x2D4A, symBinAddr: 0x10007961B, symSize: 0x0 }
  - { offset: 0x645EC2, size: 0x8, addend: 0x0, symName: __ZN12_GLOBAL__N_112kFlavorNamesE, symObjAddr: 0x2A40, symBinAddr: 0x100083630, symSize: 0x0 }
  - { offset: 0x645EDC, size: 0x8, addend: 0x0, symName: __ZN12_GLOBAL__N_119kGenericFlavorNamesE, symObjAddr: 0x2AD0, symBinAddr: 0x1000836C0, symSize: 0x0 }
  - { offset: 0x645F08, size: 0x8, addend: 0x0, symName: __ZN12_GLOBAL__N_128ThreadStateFlavorFullToShortERKN4base16BasicStringPieceINSt3__112basic_stringIcNS2_11char_traitsIcEENS2_9allocatorIcEEEEEE, symObjAddr: 0x1FF4, symBinAddr: 0x100053718, symSize: 0x2E0 }
  - { offset: 0x645F32, size: 0x8, addend: 0x0, symName: __ZZN12_GLOBAL__N_128ThreadStateFlavorFullToShortERKN4base16BasicStringPieceINSt3__112basic_stringIcNS2_11char_traitsIcEENS2_9allocatorIcEEEEEEE12kThreadState, symObjAddr: 0x2D5F, symBinAddr: 0x100079630, symSize: 0x0 }
  - { offset: 0x645F48, size: 0x8, addend: 0x0, symName: __ZZN12_GLOBAL__N_128ThreadStateFlavorFullToShortERKN4base16BasicStringPieceINSt3__112basic_stringIcNS2_11char_traitsIcEENS2_9allocatorIcEEEEEEE11kArchPrefix, symObjAddr: 0x2D6D, symBinAddr: 0x10007963E, symSize: 0x0 }
  - { offset: 0x645F5E, size: 0x8, addend: 0x0, symName: __ZZN12_GLOBAL__N_128ThreadStateFlavorFullToShortERKN4base16BasicStringPieceINSt3__112basic_stringIcNS2_11char_traitsIcEENS2_9allocatorIcEEEEEEE14kStateSuffixes, symObjAddr: 0x2AF0, symBinAddr: 0x1000836E0, symSize: 0x0 }
  - { offset: 0x64C2D3, size: 0x8, addend: 0x0, symName: __ZN8crashpad25ClockMonotonicNanosecondsEv, symObjAddr: 0x0, symBinAddr: 0x100053EE0, symSize: 0x8 }
  - { offset: 0x64C327, size: 0x8, addend: 0x0, symName: __ZN8crashpad25ClockMonotonicNanosecondsEv, symObjAddr: 0x0, symBinAddr: 0x100053EE0, symSize: 0x8 }
  - { offset: 0x651322, size: 0x8, addend: 0x0, symName: __ZN8crashpad5Paths10ExecutableEPN4base8FilePathE, symObjAddr: 0x0, symBinAddr: 0x100053EE8, symSize: 0x1E4 }
  - { offset: 0x65A6C2, size: 0x8, addend: 0x0, symName: __ZN8crashpad12_GLOBAL__N_119AppendEscapedFormatEP8NSStringS2_S2_, symObjAddr: 0x10C0, symBinAddr: 0x10005518C, symSize: 0xF8 }
  - { offset: 0x65AEB2, size: 0x8, addend: 0x0, symName: '-[CrashpadHTTPBodyStreamTransport initWithBodyStream:]', symObjAddr: 0x0, symBinAddr: 0x1000540CC, symSize: 0x5C }
  - { offset: 0x65AEF9, size: 0x8, addend: 0x0, symName: '-[CrashpadHTTPBodyStreamTransport hasBytesAvailable]', symObjAddr: 0x5C, symBinAddr: 0x100054128, symSize: 0x1C }
  - { offset: 0x65AF30, size: 0x8, addend: 0x0, symName: '-[CrashpadHTTPBodyStreamTransport read:maxLength:]', symObjAddr: 0x78, symBinAddr: 0x100054144, symSize: 0x68 }
  - { offset: 0x65AFB2, size: 0x8, addend: 0x0, symName: '-[CrashpadHTTPBodyStreamTransport getBuffer:length:]', symObjAddr: 0xE0, symBinAddr: 0x1000541AC, symSize: 0x8 }
  - { offset: 0x65AFFB, size: 0x8, addend: 0x0, symName: '-[CrashpadHTTPBodyStreamTransport scheduleInRunLoop:forMode:]', symObjAddr: 0xE8, symBinAddr: 0x1000541B4, symSize: 0x4 }
  - { offset: 0x65B040, size: 0x8, addend: 0x0, symName: '-[CrashpadHTTPBodyStreamTransport removeFromRunLoop:forMode:]', symObjAddr: 0xEC, symBinAddr: 0x1000541B8, symSize: 0x4 }
  - { offset: 0x65B085, size: 0x8, addend: 0x0, symName: '-[CrashpadHTTPBodyStreamTransport open]', symObjAddr: 0xF0, symBinAddr: 0x1000541BC, symSize: 0x14 }
  - { offset: 0x65B0B6, size: 0x8, addend: 0x0, symName: '-[CrashpadHTTPBodyStreamTransport close]', symObjAddr: 0x104, symBinAddr: 0x1000541D0, symSize: 0x14 }
  - { offset: 0x65B0E7, size: 0x8, addend: 0x0, symName: '-[CrashpadHTTPBodyStreamTransport streamStatus]', symObjAddr: 0x118, symBinAddr: 0x1000541E4, symSize: 0x10 }
  - { offset: 0x65B11E, size: 0x8, addend: 0x0, symName: '-[CrashpadHTTPBodyStreamTransport delegate]', symObjAddr: 0x128, symBinAddr: 0x1000541F4, symSize: 0x10 }
  - { offset: 0x65B155, size: 0x8, addend: 0x0, symName: '-[CrashpadHTTPBodyStreamTransport setDelegate:]', symObjAddr: 0x138, symBinAddr: 0x100054204, symSize: 0x14 }
  - { offset: 0x65B198, size: 0x8, addend: 0x0, symName: '-[CrashpadHTTPBodyStreamTransport propertyForKey:]', symObjAddr: 0x14C, symBinAddr: 0x100054218, symSize: 0x8 }
  - { offset: 0x65B1D6, size: 0x8, addend: 0x0, symName: '-[CrashpadHTTPBodyStreamTransport setProperty:forKey:]', symObjAddr: 0x154, symBinAddr: 0x100054220, symSize: 0x8 }
  - { offset: 0x65B21F, size: 0x8, addend: 0x0, symName: '-[CrashpadHTTPBodyStreamTransport .cxx_destruct]', symObjAddr: 0x15C, symBinAddr: 0x100054228, symSize: 0x14 }
  - { offset: 0x65B882, size: 0x8, addend: 0x0, symName: __ZN8crashpad13HTTPTransport6CreateEv, symObjAddr: 0x170, symBinAddr: 0x10005423C, symSize: 0x50 }
  - { offset: 0x65B999, size: 0x8, addend: 0x0, symName: __ZN8crashpad12_GLOBAL__N_116HTTPTransportMacD1Ev, symObjAddr: 0x1C0, symBinAddr: 0x10005428C, symSize: 0x4 }
  - { offset: 0x65B9BD, size: 0x8, addend: 0x0, symName: __ZN8crashpad12_GLOBAL__N_116HTTPTransportMacD1Ev, symObjAddr: 0x1C0, symBinAddr: 0x10005428C, symSize: 0x4 }
  - { offset: 0x65B9F3, size: 0x8, addend: 0x0, symName: __ZN8crashpad12_GLOBAL__N_116HTTPTransportMacD0Ev, symObjAddr: 0x1C4, symBinAddr: 0x100054290, symSize: 0x14 }
  - { offset: 0x65CB49, size: 0x8, addend: 0x0, symName: __ZN8crashpad12_GLOBAL__N_116HTTPTransportMac20ExecuteSynchronouslyEPNSt3__112basic_stringIcNS2_11char_traitsIcEENS2_9allocatorIcEEEE, symObjAddr: 0x1D8, symBinAddr: 0x1000542A4, symSize: 0xEE8 }
  - { offset: 0x65EED2, size: 0x8, addend: 0x0, symName: ____ZN8crashpad12_GLOBAL__N_116HTTPTransportMac19ExecuteProxyRequestEP19NSMutableURLRequestRKNSt3__112basic_stringIcNS4_11char_traitsIcEENS4_9allocatorIcEEEEPSA__block_invoke, symObjAddr: 0x155C, symBinAddr: 0x100055284, symSize: 0x3AC }
  - { offset: 0x65F581, size: 0x8, addend: 0x0, symName: ___copy_helper_block_e8_32s40r, symObjAddr: 0x1908, symBinAddr: 0x100055630, symSize: 0x34 }
  - { offset: 0x65F5AA, size: 0x8, addend: 0x0, symName: ___destroy_helper_block_e8_32s40r, symObjAddr: 0x193C, symBinAddr: 0x100055664, symSize: 0x2C }
  - { offset: 0x666414, size: 0x8, addend: 0x0, symName: __ZN8crashpad9SemaphoreC2Ei, symObjAddr: 0x0, symBinAddr: 0x100055690, symSize: 0xCC }
  - { offset: 0x66653A, size: 0x8, addend: 0x0, symName: __ZN8crashpad9SemaphoreC1Ei, symObjAddr: 0xCC, symBinAddr: 0x10005575C, symSize: 0x4 }
  - { offset: 0x666574, size: 0x8, addend: 0x0, symName: __ZN8crashpad9SemaphoreC1Ei, symObjAddr: 0xCC, symBinAddr: 0x10005575C, symSize: 0x4 }
  - { offset: 0x66658E, size: 0x8, addend: 0x0, symName: __ZN8crashpad9SemaphoreD2Ev, symObjAddr: 0xD0, symBinAddr: 0x100055760, symSize: 0x28 }
  - { offset: 0x6665FE, size: 0x8, addend: 0x0, symName: __ZN8crashpad9SemaphoreD1Ev, symObjAddr: 0xF8, symBinAddr: 0x100055788, symSize: 0x28 }
  - { offset: 0x666668, size: 0x8, addend: 0x0, symName: __ZN8crashpad9Semaphore4WaitEv, symObjAddr: 0x120, symBinAddr: 0x1000557B0, symSize: 0x78 }
  - { offset: 0x66672A, size: 0x8, addend: 0x0, symName: __ZN8crashpad9Semaphore9TimedWaitEd, symObjAddr: 0x198, symBinAddr: 0x100055828, symSize: 0xE8 }
  - { offset: 0x66684A, size: 0x8, addend: 0x0, symName: __ZN8crashpad9Semaphore6SignalEv, symObjAddr: 0x280, symBinAddr: 0x100055910, symSize: 0x8 }
  - { offset: 0x669640, size: 0x8, addend: 0x0, symName: __ZN8crashpad18MacOSVersionNumberEv, symObjAddr: 0x0, symBinAddr: 0x100055918, symSize: 0x84 }
  - { offset: 0x66966A, size: 0x8, addend: 0x0, symName: __MergedGlobals, symObjAddr: 0x281B0, symBinAddr: 0x100088B80, symSize: 0x0 }
  - { offset: 0x6696B5, size: 0x8, addend: 0x0, symName: __ZN8crashpad22MacOSVersionComponentsEPiS0_S0_PNSt3__112basic_stringIcNS1_11char_traitsIcEENS1_9allocatorIcEEEES8_, symObjAddr: 0x158, symBinAddr: 0x100055A70, symSize: 0x634 }
  - { offset: 0x66AF90, size: 0x8, addend: 0x0, symName: __ZN8crashpad16MacModelAndBoardEPNSt3__112basic_stringIcNS0_11char_traitsIcEENS0_9allocatorIcEEEES7_, symObjAddr: 0xABC, symBinAddr: 0x1000563D4, symSize: 0x164 }
  - { offset: 0x67091E, size: 0x8, addend: 0x0, symName: '__ZZN8crashpad18MacOSVersionNumberEvENK3$_0clEv', symObjAddr: 0x84, symBinAddr: 0x10005599C, symSize: 0xD4 }
  - { offset: 0x670D8A, size: 0x8, addend: 0x0, symName: __ZN12_GLOBAL__N_122StringToVersionNumbersERKNSt3__112basic_stringIcNS0_11char_traitsIcEENS0_9allocatorIcEEEEPiS9_S9_, symObjAddr: 0x78C, symBinAddr: 0x1000560A4, symSize: 0x300 }
  - { offset: 0x6713B4, size: 0x8, addend: 0x0, symName: __ZN12_GLOBAL__N_135IORegistryEntryDataPropertyAsStringEjPK10__CFString, symObjAddr: 0xC20, symBinAddr: 0x100056538, symSize: 0x13C }
  - { offset: 0x671C3A, size: 0x8, addend: 0x0, symName: __ZN4base5apple13ScopedTypeRefIPK14__CFDictionaryNS0_8internal21ScopedCFTypeRefTraitsIS4_EEED1Ev, symObjAddr: 0xA8C, symBinAddr: 0x1000563A4, symSize: 0x30 }
  - { offset: 0x671F61, size: 0x8, addend: 0x0, symName: __ZN4base5apple13ScopedTypeRefIjNS_3mac8internal20ScopedIOObjectTraitsIjEEED1Ev, symObjAddr: 0xD5C, symBinAddr: 0x100056674, symSize: 0x30 }
  - { offset: 0x6792D7, size: 0x8, addend: 0x0, symName: __ZN8crashpad22ReadStringSysctlByNameEPKcb, symObjAddr: 0x0, symBinAddr: 0x1000566A4, symSize: 0x26C }
  - { offset: 0x67BEC1, size: 0x8, addend: 0x0, symName: __ZN12_GLOBAL__N_122BootstrapCheckInTraits5kNameE, symObjAddr: 0x994, symBinAddr: 0x100079684, symSize: 0x0 }
  - { offset: 0x67BFE4, size: 0x8, addend: 0x0, symName: __ZN12_GLOBAL__N_121BootstrapLookUpTraits5kNameE, symObjAddr: 0x9A7, symBinAddr: 0x100079697, symSize: 0x0 }
  - { offset: 0x680ACF, size: 0x8, addend: 0x0, symName: __ZN8crashpad16BootstrapCheckInERKNSt3__112basic_stringIcNS0_11char_traitsIcEENS0_9allocatorIcEEEE, symObjAddr: 0x0, symBinAddr: 0x100056910, symSize: 0x1C8 }
  - { offset: 0x680FAF, size: 0x8, addend: 0x0, symName: __ZN8crashpad15BootstrapLookUpERKNSt3__112basic_stringIcNS0_11char_traitsIcEENS0_9allocatorIcEEEE, symObjAddr: 0x1C8, symBinAddr: 0x100056AD8, symSize: 0x290 }
  - { offset: 0x6815EA, size: 0x8, addend: 0x0, symName: __ZN8crashpad26SystemCrashReporterHandlerEv, symObjAddr: 0x48C, symBinAddr: 0x100056D68, symSize: 0x88 }
  - { offset: 0x688D2C, size: 0x8, addend: 0x0, symName: __ZN8crashpad18ChildPortHandshakeC2Ev, symObjAddr: 0x0, symBinAddr: 0x100056DF0, symSize: 0x31C }
  - { offset: 0x6893F6, size: 0x8, addend: 0x0, symName: __ZN8crashpad18ChildPortHandshakeC1Ev, symObjAddr: 0x358, symBinAddr: 0x10005710C, symSize: 0x4 }
  - { offset: 0x689424, size: 0x8, addend: 0x0, symName: __ZN8crashpad18ChildPortHandshakeC1Ev, symObjAddr: 0x358, symBinAddr: 0x10005710C, symSize: 0x4 }
  - { offset: 0x689451, size: 0x8, addend: 0x0, symName: __ZN8crashpad18ChildPortHandshakeD2Ev, symObjAddr: 0x35C, symBinAddr: 0x100057110, symSize: 0x58 }
  - { offset: 0x689536, size: 0x8, addend: 0x0, symName: __ZN8crashpad18ChildPortHandshakeD1Ev, symObjAddr: 0x3B4, symBinAddr: 0x100057168, symSize: 0x58 }
  - { offset: 0x6896E9, size: 0x8, addend: 0x0, symName: __ZN8crashpad18ChildPortHandshake12ClientReadFDEv, symObjAddr: 0x40C, symBinAddr: 0x1000571C0, symSize: 0x14 }
  - { offset: 0x689714, size: 0x8, addend: 0x0, symName: __ZN8crashpad18ChildPortHandshake12ClientReadFDEv, symObjAddr: 0x40C, symBinAddr: 0x1000571C0, symSize: 0x14 }
  - { offset: 0x68973A, size: 0x8, addend: 0x0, symName: __ZN8crashpad18ChildPortHandshake12ClientReadFDEv, symObjAddr: 0x40C, symBinAddr: 0x1000571C0, symSize: 0x14 }
  - { offset: 0x68975F, size: 0x8, addend: 0x0, symName: __ZN8crashpad18ChildPortHandshake12ClientReadFDEv, symObjAddr: 0x40C, symBinAddr: 0x1000571C0, symSize: 0x14 }
  - { offset: 0x6897C2, size: 0x8, addend: 0x0, symName: __ZN8crashpad18ChildPortHandshake13ServerWriteFDEv, symObjAddr: 0x420, symBinAddr: 0x1000571D4, symSize: 0x14 }
  - { offset: 0x6897ED, size: 0x8, addend: 0x0, symName: __ZN8crashpad18ChildPortHandshake13ServerWriteFDEv, symObjAddr: 0x420, symBinAddr: 0x1000571D4, symSize: 0x14 }
  - { offset: 0x689815, size: 0x8, addend: 0x0, symName: __ZN8crashpad18ChildPortHandshake13ServerWriteFDEv, symObjAddr: 0x420, symBinAddr: 0x1000571D4, symSize: 0x14 }
  - { offset: 0x68983C, size: 0x8, addend: 0x0, symName: __ZN8crashpad18ChildPortHandshake13ServerWriteFDEv, symObjAddr: 0x420, symBinAddr: 0x1000571D4, symSize: 0x14 }
  - { offset: 0x6898A1, size: 0x8, addend: 0x0, symName: __ZN8crashpad18ChildPortHandshake9RunServerENS0_13PortRightTypeE, symObjAddr: 0x434, symBinAddr: 0x1000571E8, symSize: 0x8C }
  - { offset: 0x689A31, size: 0x8, addend: 0x0, symName: __ZN8crashpad18ChildPortHandshake14RunServerForFDEN4base13ScopedGenericIiNS1_8internal19ScopedFDCloseTraitsEEENS0_13PortRightTypeE, symObjAddr: 0x4C0, symBinAddr: 0x100057274, symSize: 0xA38 }
  - { offset: 0x68B592, size: 0x8, addend: 0x0, symName: __ZN8crashpad18ChildPortHandshake9RunClientEjj, symObjAddr: 0xEF8, symBinAddr: 0x100057CAC, symSize: 0x9C }
  - { offset: 0x68B753, size: 0x8, addend: 0x0, symName: __ZN8crashpad18ChildPortHandshake14RunClientForFDEN4base13ScopedGenericIiNS1_8internal19ScopedFDCloseTraitsEEEjj, symObjAddr: 0xF94, symBinAddr: 0x100057D48, symSize: 0x110 }
  - { offset: 0x68BDD5, size: 0x8, addend: 0x0, symName: __ZN8crashpad18ChildPortHandshake29RunClientInternal_SendCheckInERKNSt3__112basic_stringIcNS1_11char_traitsIcEENS1_9allocatorIcEEEEyjj, symObjAddr: 0x1150, symBinAddr: 0x100057F04, symSize: 0x118 }
  - { offset: 0x68BF94, size: 0x8, addend: 0x0, symName: __ZN8crashpad18ChildPortHandshake26RunClientInternal_ReadPipeEiPyPNSt3__112basic_stringIcNS2_11char_traitsIcEENS2_9allocatorIcEEEE, symObjAddr: 0x10A4, symBinAddr: 0x100057E58, symSize: 0xAC }
  - { offset: 0x68C1DC, size: 0x8, addend: 0x0, symName: __ZN8crashpad12_GLOBAL__N_124ChildPortHandshakeServer22HandleChildPortCheckInEjyjjPK18mach_msg_trailer_tPb, symObjAddr: 0x129C, symBinAddr: 0x10005801C, symSize: 0x148 }
  - { offset: 0x68E54E, size: 0x8, addend: 0x0, symName: __ZN8crashpad15ChildPortServerC2EPNS0_9InterfaceE, symObjAddr: 0x0, symBinAddr: 0x100058164, symSize: 0x10 }
  - { offset: 0x68FDFF, size: 0x8, addend: 0x0, symName: __ZN8crashpad15ChildPortServer27MachMessageServerRequestIDsEv, symObjAddr: 0xE0, symBinAddr: 0x100058244, symSize: 0x30 }
  - { offset: 0x68FE25, size: 0x8, addend: 0x0, symName: __ZZN8crashpad15ChildPortServer27MachMessageServerRequestIDsEvE11request_ids, symObjAddr: 0x628, symBinAddr: 0x100079704, symSize: 0x0 }
  - { offset: 0x68FEAA, size: 0x8, addend: 0x0, symName: __ZN8crashpad15ChildPortServer25MachMessageServerFunctionEPK17mach_msg_header_tPS1_Pb, symObjAddr: 0x20, symBinAddr: 0x100058184, symSize: 0xC0 }
  - { offset: 0x6900A4, size: 0x8, addend: 0x0, symName: __ZN8crashpad15ChildPortServerC2EPNS0_9InterfaceE, symObjAddr: 0x0, symBinAddr: 0x100058164, symSize: 0x10 }
  - { offset: 0x6900F9, size: 0x8, addend: 0x0, symName: __ZN8crashpad15ChildPortServerC1EPNS0_9InterfaceE, symObjAddr: 0x10, symBinAddr: 0x100058174, symSize: 0x10 }
  - { offset: 0x690134, size: 0x8, addend: 0x0, symName: __ZN8crashpad15ChildPortServerC1EPNS0_9InterfaceE, symObjAddr: 0x10, symBinAddr: 0x100058174, symSize: 0x10 }
  - { offset: 0x690446, size: 0x8, addend: 0x0, symName: __ZN8crashpad15ChildPortServer28MachMessageServerRequestSizeEv, symObjAddr: 0x110, symBinAddr: 0x100058274, symSize: 0x8 }
  - { offset: 0x69046B, size: 0x8, addend: 0x0, symName: __ZN8crashpad15ChildPortServer26MachMessageServerReplySizeEv, symObjAddr: 0x118, symBinAddr: 0x10005827C, symSize: 0x8 }
  - { offset: 0x692AC9, size: 0x8, addend: 0x0, symName: __ZN8crashpad32ExcCrashRecoverOriginalExceptionExPxPi, symObjAddr: 0x0, symBinAddr: 0x100058284, symSize: 0x20 }
  - { offset: 0x692AF8, size: 0x8, addend: 0x0, symName: __ZN8crashpad29ExcCrashCouldContainExceptionEi, symObjAddr: 0x20, symBinAddr: 0x1000582A4, symSize: 0x1C }
  - { offset: 0x692BDB, size: 0x8, addend: 0x0, symName: __ZN8crashpad23ExceptionCodeForMetricsEix, symObjAddr: 0x3C, symBinAddr: 0x1000582C0, symSize: 0x2A8 }
  - { offset: 0x692EAC, size: 0x8, addend: 0x0, symName: __ZN8crashpad27IsExceptionNonfatalResourceEixi, symObjAddr: 0x2E4, symBinAddr: 0x100058568, symSize: 0x1CC }
  - { offset: 0x699E22, size: 0x8, addend: 0x0, symName: __ZN8crashpad12NotifyServer16DefaultInterface23DoMachNotifyPortDeletedEjjPK18mach_msg_trailer_t, symObjAddr: 0x0, symBinAddr: 0x100058734, symSize: 0x8 }
  - { offset: 0x69B6CC, size: 0x8, addend: 0x0, symName: __ZN8crashpad12NotifyServer27MachMessageServerRequestIDsEv, symObjAddr: 0x1EC, symBinAddr: 0x100058920, symSize: 0x30 }
  - { offset: 0x69B6F2, size: 0x8, addend: 0x0, symName: __ZZN8crashpad12NotifyServer27MachMessageServerRequestIDsEvE11request_ids, symObjAddr: 0x790, symBinAddr: 0x100079728, symSize: 0x0 }
  - { offset: 0x69B777, size: 0x8, addend: 0x0, symName: __ZN8crashpad12NotifyServer25MachMessageServerFunctionEPK17mach_msg_header_tPS1_Pb, symObjAddr: 0x50, symBinAddr: 0x100058784, symSize: 0x19C }
  - { offset: 0x69BE2A, size: 0x8, addend: 0x0, symName: __ZN8crashpad12NotifyServer16DefaultInterface23DoMachNotifyPortDeletedEjjPK18mach_msg_trailer_t, symObjAddr: 0x0, symBinAddr: 0x100058734, symSize: 0x8 }
  - { offset: 0x69BE70, size: 0x8, addend: 0x0, symName: __ZN8crashpad12NotifyServer16DefaultInterface25DoMachNotifyPortDestroyedEjjPK18mach_msg_trailer_tPb, symObjAddr: 0x8, symBinAddr: 0x10005873C, symSize: 0x10 }
  - { offset: 0x69BEC3, size: 0x8, addend: 0x0, symName: __ZN8crashpad12NotifyServer16DefaultInterface21DoMachNotifyNoSendersEjjPK18mach_msg_trailer_t, symObjAddr: 0x18, symBinAddr: 0x10005874C, symSize: 0x8 }
  - { offset: 0x69BF09, size: 0x8, addend: 0x0, symName: __ZN8crashpad12NotifyServer16DefaultInterface20DoMachNotifySendOnceEjPK18mach_msg_trailer_t, symObjAddr: 0x20, symBinAddr: 0x100058754, symSize: 0x8 }
  - { offset: 0x69BF44, size: 0x8, addend: 0x0, symName: __ZN8crashpad12NotifyServer16DefaultInterface20DoMachNotifyDeadNameEjjPK18mach_msg_trailer_t, symObjAddr: 0x28, symBinAddr: 0x10005875C, symSize: 0x8 }
  - { offset: 0x69BF8A, size: 0x8, addend: 0x0, symName: __ZN8crashpad12NotifyServerC2EPNS0_9InterfaceE, symObjAddr: 0x30, symBinAddr: 0x100058764, symSize: 0x10 }
  - { offset: 0x69BFDF, size: 0x8, addend: 0x0, symName: __ZN8crashpad12NotifyServerC1EPNS0_9InterfaceE, symObjAddr: 0x40, symBinAddr: 0x100058774, symSize: 0x10 }
  - { offset: 0x69C01A, size: 0x8, addend: 0x0, symName: __ZN8crashpad12NotifyServerC1EPNS0_9InterfaceE, symObjAddr: 0x40, symBinAddr: 0x100058774, symSize: 0x10 }
  - { offset: 0x69C3B1, size: 0x8, addend: 0x0, symName: __ZN8crashpad12NotifyServer28MachMessageServerRequestSizeEv, symObjAddr: 0x21C, symBinAddr: 0x100058950, symSize: 0x8 }
  - { offset: 0x69C3D6, size: 0x8, addend: 0x0, symName: __ZN8crashpad12NotifyServer26MachMessageServerReplySizeEv, symObjAddr: 0x224, symBinAddr: 0x100058958, symSize: 0x8 }
  - { offset: 0x6A3411, size: 0x8, addend: 0x0, symName: __ZN8crashpad17ScopedTaskSuspendC2Ej, symObjAddr: 0x0, symBinAddr: 0x100058960, symSize: 0x9C }
  - { offset: 0x6A350C, size: 0x8, addend: 0x0, symName: __ZN8crashpad17ScopedTaskSuspendC1Ej, symObjAddr: 0x9C, symBinAddr: 0x1000589FC, symSize: 0x9C }
  - { offset: 0x6A35E2, size: 0x8, addend: 0x0, symName: __ZN8crashpad17ScopedTaskSuspendD2Ev, symObjAddr: 0x138, symBinAddr: 0x100058A98, symSize: 0x88 }
  - { offset: 0x6A36B0, size: 0x8, addend: 0x0, symName: __ZN8crashpad17ScopedTaskSuspendD1Ev, symObjAddr: 0x1D0, symBinAddr: 0x100058B20, symSize: 0x88 }
  - { offset: 0x6AD767, size: 0x8, addend: 0x0, symName: __ZN8crashpad11ProcessInfoC2Ev, symObjAddr: 0x0, symBinAddr: 0x100058BA8, symSize: 0x28 }
  - { offset: 0x6AD7AB, size: 0x8, addend: 0x0, symName: __ZN8crashpad11ProcessInfoC1Ev, symObjAddr: 0x28, symBinAddr: 0x100058BD0, symSize: 0x28 }
  - { offset: 0x6AD7F6, size: 0x8, addend: 0x0, symName: __ZN8crashpad11ProcessInfoD2Ev, symObjAddr: 0x50, symBinAddr: 0x100058BF8, symSize: 0x4 }
  - { offset: 0x6AD821, size: 0x8, addend: 0x0, symName: __ZN8crashpad11ProcessInfoD1Ev, symObjAddr: 0x54, symBinAddr: 0x100058BFC, symSize: 0x4 }
  - { offset: 0x6AD8E5, size: 0x8, addend: 0x0, symName: __ZN8crashpad11ProcessInfo17InitializeWithPidEi, symObjAddr: 0x58, symBinAddr: 0x100058C00, symSize: 0x198 }
  - { offset: 0x6ADAA7, size: 0x8, addend: 0x0, symName: __ZN8crashpad11ProcessInfo18InitializeWithTaskEj, symObjAddr: 0x1F0, symBinAddr: 0x100058D98, symSize: 0xB0 }
  - { offset: 0x6ADB9A, size: 0x8, addend: 0x0, symName: __ZNK8crashpad11ProcessInfo9ProcessIDEv, symObjAddr: 0x2A0, symBinAddr: 0x100058E48, symSize: 0x8 }
  - { offset: 0x6ADBBD, size: 0x8, addend: 0x0, symName: __ZNK8crashpad11ProcessInfo15ParentProcessIDEv, symObjAddr: 0x2A8, symBinAddr: 0x100058E50, symSize: 0x8 }
  - { offset: 0x6ADBE6, size: 0x8, addend: 0x0, symName: __ZNK8crashpad11ProcessInfo10RealUserIDEv, symObjAddr: 0x2B0, symBinAddr: 0x100058E58, symSize: 0x8 }
  - { offset: 0x6ADC0F, size: 0x8, addend: 0x0, symName: __ZNK8crashpad11ProcessInfo15EffectiveUserIDEv, symObjAddr: 0x2B8, symBinAddr: 0x100058E60, symSize: 0x8 }
  - { offset: 0x6ADC38, size: 0x8, addend: 0x0, symName: __ZNK8crashpad11ProcessInfo11SavedUserIDEv, symObjAddr: 0x2C0, symBinAddr: 0x100058E68, symSize: 0x8 }
  - { offset: 0x6ADC61, size: 0x8, addend: 0x0, symName: __ZNK8crashpad11ProcessInfo11RealGroupIDEv, symObjAddr: 0x2C8, symBinAddr: 0x100058E70, symSize: 0x8 }
  - { offset: 0x6ADC84, size: 0x8, addend: 0x0, symName: __ZNK8crashpad11ProcessInfo16EffectiveGroupIDEv, symObjAddr: 0x2D0, symBinAddr: 0x100058E78, symSize: 0x8 }
  - { offset: 0x6ADCA7, size: 0x8, addend: 0x0, symName: __ZNK8crashpad11ProcessInfo12SavedGroupIDEv, symObjAddr: 0x2D8, symBinAddr: 0x100058E80, symSize: 0x8 }
  - { offset: 0x6ADD19, size: 0x8, addend: 0x0, symName: __ZNK8crashpad11ProcessInfo19SupplementaryGroupsEv, symObjAddr: 0x2E0, symBinAddr: 0x100058E88, symSize: 0x30 }
  - { offset: 0x6ADDA0, size: 0x8, addend: 0x0, symName: __ZNSt3__13setIjNS_4lessIjEENS_9allocatorIjEEEC2B8ne190102IPKjEET_S9_RKS2_, symObjAddr: 0x1208, symBinAddr: 0x100059974, symSize: 0xF4 }
  - { offset: 0x6AE57F, size: 0x8, addend: 0x0, symName: __ZNK8crashpad11ProcessInfo9AllGroupsEv, symObjAddr: 0x310, symBinAddr: 0x100058EB8, symSize: 0x24C }
  - { offset: 0x6AEF2C, size: 0x8, addend: 0x0, symName: __ZNK8crashpad11ProcessInfo19DidChangePrivilegesEv, symObjAddr: 0x55C, symBinAddr: 0x100059104, symSize: 0xC }
  - { offset: 0x6AEF55, size: 0x8, addend: 0x0, symName: __ZNK8crashpad11ProcessInfo7Is64BitEv, symObjAddr: 0x568, symBinAddr: 0x100059110, symSize: 0xC }
  - { offset: 0x6AEF7E, size: 0x8, addend: 0x0, symName: __ZNK8crashpad11ProcessInfo9StartTimeEP7timeval, symObjAddr: 0x574, symBinAddr: 0x10005911C, symSize: 0x10 }
  - { offset: 0x6AF979, size: 0x8, addend: 0x0, symName: __ZNK8crashpad11ProcessInfo9ArgumentsEPNSt3__16vectorINS1_12basic_stringIcNS1_11char_traitsIcEENS1_9allocatorIcEEEENS6_IS8_EEEE, symObjAddr: 0x584, symBinAddr: 0x10005912C, symSize: 0x848 }
  - { offset: 0x6B1A50, size: 0x8, addend: 0x0, symName: __ZNSt3__16__treeIjNS_4lessIjEENS_9allocatorIjEEE12__find_equalIjEERPNS_16__tree_node_baseIPvEENS_21__tree_const_iteratorIjPNS_11__tree_nodeIjS8_EElEERPNS_15__tree_end_nodeISA_EESB_RKT_, symObjAddr: 0x12FC, symBinAddr: 0x100059A68, symSize: 0x1B0 }
  - { offset: 0x6B1AB8, size: 0x8, addend: 0x0, symName: __ZNSt3__16__treeIjNS_4lessIjEENS_9allocatorIjEEE12__find_equalIjEERPNS_16__tree_node_baseIPvEENS_21__tree_const_iteratorIjPNS_11__tree_nodeIjS8_EElEERPNS_15__tree_end_nodeISA_EESB_RKT_, symObjAddr: 0x12FC, symBinAddr: 0x100059A68, symSize: 0x1B0 }
  - { offset: 0x6B1AD6, size: 0x8, addend: 0x0, symName: __ZNSt3__16__treeIjNS_4lessIjEENS_9allocatorIjEEE12__find_equalIjEERPNS_16__tree_node_baseIPvEENS_21__tree_const_iteratorIjPNS_11__tree_nodeIjS8_EElEERPNS_15__tree_end_nodeISA_EESB_RKT_, symObjAddr: 0x12FC, symBinAddr: 0x100059A68, symSize: 0x1B0 }
  - { offset: 0x6B8A93, size: 0x8, addend: 0x0, symName: __ZN8crashpad16ProcessMemoryMac12MappedMemoryD2Ev, symObjAddr: 0x0, symBinAddr: 0x100059C18, symSize: 0x44 }
  - { offset: 0x6B8B2B, size: 0x8, addend: 0x0, symName: __ZN8crashpad16ProcessMemoryMac12MappedMemoryD1Ev, symObjAddr: 0x44, symBinAddr: 0x100059C5C, symSize: 0x44 }
  - { offset: 0x6B8C3D, size: 0x8, addend: 0x0, symName: __ZNK8crashpad16ProcessMemoryMac12MappedMemory11ReadCStringEmPNSt3__112basic_stringIcNS2_11char_traitsIcEENS2_9allocatorIcEEEE, symObjAddr: 0x88, symBinAddr: 0x100059CA0, symSize: 0x130 }
  - { offset: 0x6B8DFF, size: 0x8, addend: 0x0, symName: __ZN8crashpad16ProcessMemoryMac12MappedMemoryC2Emmmm, symObjAddr: 0x1B8, symBinAddr: 0x100059DD0, symSize: 0x10 }
  - { offset: 0x6B8E43, size: 0x8, addend: 0x0, symName: __ZN8crashpad16ProcessMemoryMac12MappedMemoryC2Emmmm, symObjAddr: 0x1B8, symBinAddr: 0x100059DD0, symSize: 0x10 }
  - { offset: 0x6B8E70, size: 0x8, addend: 0x0, symName: __ZN8crashpad16ProcessMemoryMac12MappedMemoryC2Emmmm, symObjAddr: 0x1B8, symBinAddr: 0x100059DD0, symSize: 0x10 }
  - { offset: 0x6B8F0B, size: 0x8, addend: 0x0, symName: __ZN8crashpad16ProcessMemoryMac12MappedMemoryC1Emmmm, symObjAddr: 0x1C8, symBinAddr: 0x100059DE0, symSize: 0x10 }
  - { offset: 0x6B8F4F, size: 0x8, addend: 0x0, symName: __ZN8crashpad16ProcessMemoryMac12MappedMemoryC1Emmmm, symObjAddr: 0x1C8, symBinAddr: 0x100059DE0, symSize: 0x10 }
  - { offset: 0x6B8F8C, size: 0x8, addend: 0x0, symName: __ZN8crashpad16ProcessMemoryMac12MappedMemoryC1Emmmm, symObjAddr: 0x1C8, symBinAddr: 0x100059DE0, symSize: 0x10 }
  - { offset: 0x6B8FB9, size: 0x8, addend: 0x0, symName: __ZN8crashpad16ProcessMemoryMac12MappedMemoryC1Emmmm, symObjAddr: 0x1C8, symBinAddr: 0x100059DE0, symSize: 0x10 }
  - { offset: 0x6B8FE6, size: 0x8, addend: 0x0, symName: __ZN8crashpad16ProcessMemoryMacC2Ev, symObjAddr: 0x1D8, symBinAddr: 0x100059DF0, symSize: 0x14 }
  - { offset: 0x6B9028, size: 0x8, addend: 0x0, symName: __ZN8crashpad16ProcessMemoryMacC1Ev, symObjAddr: 0x1EC, symBinAddr: 0x100059E04, symSize: 0x14 }
  - { offset: 0x6B9056, size: 0x8, addend: 0x0, symName: __ZN8crashpad16ProcessMemoryMacC1Ev, symObjAddr: 0x1EC, symBinAddr: 0x100059E04, symSize: 0x14 }
  - { offset: 0x6B9071, size: 0x8, addend: 0x0, symName: __ZN8crashpad16ProcessMemoryMac10InitializeEj, symObjAddr: 0x200, symBinAddr: 0x100059E18, symSize: 0xC }
  - { offset: 0x6B930D, size: 0x8, addend: 0x0, symName: __ZNK8crashpad16ProcessMemoryMac10ReadMappedEym, symObjAddr: 0x20C, symBinAddr: 0x100059E24, symSize: 0x244 }
  - { offset: 0x6B9DE2, size: 0x8, addend: 0x0, symName: __ZNK8crashpad16ProcessMemoryMac8ReadUpToEymPv, symObjAddr: 0x450, symBinAddr: 0x10005A068, symSize: 0xEC }
  - { offset: 0x6BC333, size: 0x8, addend: 0x0, symName: _child_port_check_in, symObjAddr: 0x0, symBinAddr: 0x10005A154, symSize: 0x84 }
  - { offset: 0x6BC378, size: 0x8, addend: 0x0, symName: _child_port_check_in, symObjAddr: 0x0, symBinAddr: 0x10005A154, symSize: 0x84 }
  - { offset: 0x6BC76E, size: 0x8, addend: 0x0, symName: ___MIG_check__Request__child_port_check_in_t, symObjAddr: 0x0, symBinAddr: 0x10005A1D8, symSize: 0x3C }
  - { offset: 0x6BC788, size: 0x8, addend: 0x0, symName: _handle_child_port_subsystem, symObjAddr: 0x188, symBinAddr: 0x1000838F8, symSize: 0x0 }
  - { offset: 0x6BCAE2, size: 0x8, addend: 0x0, symName: __Xchild_port_check_in, symObjAddr: 0x58, symBinAddr: 0x10005A230, symSize: 0x74 }
  - { offset: 0x6BCBA5, size: 0x8, addend: 0x0, symName: __Xchild_port_check_in, symObjAddr: 0x58, symBinAddr: 0x10005A230, symSize: 0x74 }
  - { offset: 0x6BCBC3, size: 0x8, addend: 0x0, symName: _child_port_server, symObjAddr: 0xCC, symBinAddr: 0x10005A2A4, symSize: 0xB8 }
  - { offset: 0x6BCD5D, size: 0x8, addend: 0x0, symName: ___MIG_check__Request__child_port_check_in_t, symObjAddr: 0x0, symBinAddr: 0x10005A1D8, symSize: 0x3C }
  - { offset: 0x6BCD7C, size: 0x8, addend: 0x0, symName: _child_port_server_routine, symObjAddr: 0x3C, symBinAddr: 0x10005A214, symSize: 0x1C }
  - { offset: 0x6BCE25, size: 0x8, addend: 0x0, symName: _child_port_server, symObjAddr: 0xCC, symBinAddr: 0x10005A2A4, symSize: 0xB8 }
  - { offset: 0x6BCF09, size: 0x8, addend: 0x0, symName: _exception_raise, symObjAddr: 0x0, symBinAddr: 0x10005A35C, symSize: 0x1E0 }
  - { offset: 0x6BD0F3, size: 0x8, addend: 0x0, symName: _exception_raise_state, symObjAddr: 0x1E0, symBinAddr: 0x10005A53C, symSize: 0x270 }
  - { offset: 0x6BD4CA, size: 0x8, addend: 0x0, symName: _exception_raise_state_identity, symObjAddr: 0x450, symBinAddr: 0x10005A7AC, symSize: 0x274 }
  - { offset: 0x6BD95A, size: 0x8, addend: 0x0, symName: _exception_raise, symObjAddr: 0x0, symBinAddr: 0x10005A35C, symSize: 0x1E0 }
  - { offset: 0x6BDDD8, size: 0x8, addend: 0x0, symName: ___MIG_check__Request__exception_raise_t, symObjAddr: 0x0, symBinAddr: 0x10005AA20, symSize: 0x80 }
  - { offset: 0x6BDDF3, size: 0x8, addend: 0x0, symName: _catch_exc_subsystem, symObjAddr: 0x4E0, symBinAddr: 0x100083940, symSize: 0x0 }
  - { offset: 0x6BE0CC, size: 0x8, addend: 0x0, symName: ___MIG_check__Request__exception_raise_state_t, symObjAddr: 0x80, symBinAddr: 0x10005AAA0, symSize: 0x88 }
  - { offset: 0x6BE257, size: 0x8, addend: 0x0, symName: ___MIG_check__Request__exception_raise_state_identity_t, symObjAddr: 0x108, symBinAddr: 0x10005AB28, symSize: 0xC4 }
  - { offset: 0x6BE3E3, size: 0x8, addend: 0x0, symName: __Xexception_raise, symObjAddr: 0x200, symBinAddr: 0x10005AC20, symSize: 0xB4 }
  - { offset: 0x6BE62D, size: 0x8, addend: 0x0, symName: __Xexception_raise_state, symObjAddr: 0x2B4, symBinAddr: 0x10005ACD4, symSize: 0xA8 }
  - { offset: 0x6BE757, size: 0x8, addend: 0x0, symName: __Xexception_raise_state, symObjAddr: 0x2B4, symBinAddr: 0x10005ACD4, symSize: 0xA8 }
  - { offset: 0x6BE78A, size: 0x8, addend: 0x0, symName: __Xexception_raise_state_identity, symObjAddr: 0x35C, symBinAddr: 0x10005AD7C, symSize: 0xF8 }
  - { offset: 0x6BE80C, size: 0x8, addend: 0x0, symName: __Xexception_raise_state_identity, symObjAddr: 0x35C, symBinAddr: 0x10005AD7C, symSize: 0xF8 }
  - { offset: 0x6BEA08, size: 0x8, addend: 0x0, symName: ___MIG_check__Request__exception_raise_t, symObjAddr: 0x0, symBinAddr: 0x10005AA20, symSize: 0x80 }
  - { offset: 0x6BEA31, size: 0x8, addend: 0x0, symName: _exc_server_routine, symObjAddr: 0x1CC, symBinAddr: 0x10005ABEC, symSize: 0x34 }
  - { offset: 0x6BEB55, size: 0x8, addend: 0x0, symName: _exc_server, symObjAddr: 0x454, symBinAddr: 0x10005AE74, symSize: 0x88 }
  - { offset: 0x6BEBE1, size: 0x8, addend: 0x0, symName: _mach_exception_raise, symObjAddr: 0x0, symBinAddr: 0x10005AEFC, symSize: 0x1C8 }
  - { offset: 0x6BEDCB, size: 0x8, addend: 0x0, symName: _mach_exception_raise_state, symObjAddr: 0x1C8, symBinAddr: 0x10005B0C4, symSize: 0x26C }
  - { offset: 0x6BF1B5, size: 0x8, addend: 0x0, symName: _mach_exception_raise_state_identity, symObjAddr: 0x434, symBinAddr: 0x10005B330, symSize: 0x2CC }
  - { offset: 0x6BF645, size: 0x8, addend: 0x0, symName: _mach_exception_raise, symObjAddr: 0x0, symBinAddr: 0x10005AEFC, symSize: 0x1C8 }
  - { offset: 0x6BFABC, size: 0x8, addend: 0x0, symName: ___MIG_check__Request__mach_exception_raise_t, symObjAddr: 0x0, symBinAddr: 0x10005B5FC, symSize: 0x80 }
  - { offset: 0x6BFAD7, size: 0x8, addend: 0x0, symName: _catch_mach_exc_subsystem, symObjAddr: 0x4E0, symBinAddr: 0x1000839D8, symSize: 0x0 }
  - { offset: 0x6BFDB1, size: 0x8, addend: 0x0, symName: ___MIG_check__Request__mach_exception_raise_state_t, symObjAddr: 0x80, symBinAddr: 0x10005B67C, symSize: 0x88 }
  - { offset: 0x6BFF4F, size: 0x8, addend: 0x0, symName: ___MIG_check__Request__mach_exception_raise_state_identity_t, symObjAddr: 0x108, symBinAddr: 0x10005B704, symSize: 0xC4 }
  - { offset: 0x6C00DB, size: 0x8, addend: 0x0, symName: __Xmach_exception_raise, symObjAddr: 0x200, symBinAddr: 0x10005B7FC, symSize: 0xB4 }
  - { offset: 0x6C0325, size: 0x8, addend: 0x0, symName: __Xmach_exception_raise_state, symObjAddr: 0x2B4, symBinAddr: 0x10005B8B0, symSize: 0xA8 }
  - { offset: 0x6C044F, size: 0x8, addend: 0x0, symName: __Xmach_exception_raise_state, symObjAddr: 0x2B4, symBinAddr: 0x10005B8B0, symSize: 0xA8 }
  - { offset: 0x6C0482, size: 0x8, addend: 0x0, symName: __Xmach_exception_raise_state_identity, symObjAddr: 0x35C, symBinAddr: 0x10005B958, symSize: 0xF8 }
  - { offset: 0x6C0504, size: 0x8, addend: 0x0, symName: __Xmach_exception_raise_state_identity, symObjAddr: 0x35C, symBinAddr: 0x10005B958, symSize: 0xF8 }
  - { offset: 0x6C0700, size: 0x8, addend: 0x0, symName: ___MIG_check__Request__mach_exception_raise_t, symObjAddr: 0x0, symBinAddr: 0x10005B5FC, symSize: 0x80 }
  - { offset: 0x6C0729, size: 0x8, addend: 0x0, symName: _mach_exc_server_routine, symObjAddr: 0x1CC, symBinAddr: 0x10005B7C8, symSize: 0x34 }
  - { offset: 0x6C084D, size: 0x8, addend: 0x0, symName: _mach_exc_server, symObjAddr: 0x454, symBinAddr: 0x10005BA50, symSize: 0x88 }
  - { offset: 0x6C08D9, size: 0x8, addend: 0x0, symName: ___MIG_check__Request__mach_notify_port_deleted_t, symObjAddr: 0x0, symBinAddr: 0x10005BAD8, symSize: 0x20 }
  - { offset: 0x6C08F4, size: 0x8, addend: 0x0, symName: _do_notify_subsystem, symObjAddr: 0x308, symBinAddr: 0x100083AE8, symSize: 0x0 }
  - { offset: 0x6C0C4F, size: 0x8, addend: 0x0, symName: __Xmach_notify_port_deleted, symObjAddr: 0xF4, symBinAddr: 0x10005BBCC, symSize: 0x44 }
  - { offset: 0x6C0D16, size: 0x8, addend: 0x0, symName: __Xmach_notify_port_deleted, symObjAddr: 0xF4, symBinAddr: 0x10005BBCC, symSize: 0x44 }
  - { offset: 0x6C0D34, size: 0x8, addend: 0x0, symName: __Xmach_notify_port_destroyed, symObjAddr: 0x138, symBinAddr: 0x10005BC10, symSize: 0x7C }
  - { offset: 0x6C0E11, size: 0x8, addend: 0x0, symName: __Xmach_notify_port_destroyed, symObjAddr: 0x138, symBinAddr: 0x10005BC10, symSize: 0x7C }
  - { offset: 0x6C0EDA, size: 0x8, addend: 0x0, symName: __Xmach_notify_port_destroyed, symObjAddr: 0x138, symBinAddr: 0x10005BC10, symSize: 0x7C }
  - { offset: 0x6C0EF8, size: 0x8, addend: 0x0, symName: __Xmach_notify_no_senders, symObjAddr: 0x1B4, symBinAddr: 0x10005BC8C, symSize: 0x44 }
  - { offset: 0x6C1019, size: 0x8, addend: 0x0, symName: __Xmach_notify_no_senders, symObjAddr: 0x1B4, symBinAddr: 0x10005BC8C, symSize: 0x44 }
  - { offset: 0x6C10EE, size: 0x8, addend: 0x0, symName: __Xmach_notify_no_senders, symObjAddr: 0x1B4, symBinAddr: 0x10005BC8C, symSize: 0x44 }
  - { offset: 0x6C110D, size: 0x8, addend: 0x0, symName: __Xmach_notify_send_once, symObjAddr: 0x1F8, symBinAddr: 0x10005BCD0, symSize: 0x44 }
  - { offset: 0x6C11AB, size: 0x8, addend: 0x0, symName: __Xmach_notify_send_once, symObjAddr: 0x1F8, symBinAddr: 0x10005BCD0, symSize: 0x44 }
  - { offset: 0x6C1264, size: 0x8, addend: 0x0, symName: __Xmach_notify_send_once, symObjAddr: 0x1F8, symBinAddr: 0x10005BCD0, symSize: 0x44 }
  - { offset: 0x6C1283, size: 0x8, addend: 0x0, symName: __Xmach_notify_dead_name, symObjAddr: 0x23C, symBinAddr: 0x10005BD14, symSize: 0x44 }
  - { offset: 0x6C12FB, size: 0x8, addend: 0x0, symName: __Xmach_notify_dead_name, symObjAddr: 0x23C, symBinAddr: 0x10005BD14, symSize: 0x44 }
  - { offset: 0x6C13D0, size: 0x8, addend: 0x0, symName: __Xmach_notify_dead_name, symObjAddr: 0x23C, symBinAddr: 0x10005BD14, symSize: 0x44 }
  - { offset: 0x6C13EF, size: 0x8, addend: 0x0, symName: _notify_server, symObjAddr: 0x280, symBinAddr: 0x10005BD58, symSize: 0x88 }
  - { offset: 0x6C147D, size: 0x8, addend: 0x0, symName: ___MIG_check__Request__mach_notify_port_deleted_t, symObjAddr: 0x0, symBinAddr: 0x10005BAD8, symSize: 0x20 }
  - { offset: 0x6C149C, size: 0x8, addend: 0x0, symName: ___MIG_check__Request__mach_notify_port_destroyed_t, symObjAddr: 0x20, symBinAddr: 0x10005BAF8, symSize: 0x40 }
  - { offset: 0x6C14BB, size: 0x8, addend: 0x0, symName: ___MIG_check__Request__mach_notify_no_senders_t, symObjAddr: 0x60, symBinAddr: 0x10005BB38, symSize: 0x20 }
  - { offset: 0x6C14DA, size: 0x8, addend: 0x0, symName: ___MIG_check__Request__mach_notify_send_once_t, symObjAddr: 0x80, symBinAddr: 0x10005BB58, symSize: 0x20 }
  - { offset: 0x6C14F9, size: 0x8, addend: 0x0, symName: ___MIG_check__Request__mach_notify_dead_name_t, symObjAddr: 0xA0, symBinAddr: 0x10005BB78, symSize: 0x20 }
  - { offset: 0x6C1518, size: 0x8, addend: 0x0, symName: _notify_server_routine, symObjAddr: 0xC0, symBinAddr: 0x10005BB98, symSize: 0x34 }
  - { offset: 0x6C1604, size: 0x8, addend: 0x0, symName: _notify_server, symObjAddr: 0x280, symBinAddr: 0x10005BD58, symSize: 0x88 }
  - { offset: 0x6C16AD, size: 0x8, addend: 0x0, symName: __ZN4base8FilePath11kSeparatorsE, symObjAddr: 0x16B4, symBinAddr: 0x100079820, symSize: 0x0 }
  - { offset: 0x6C18DA, size: 0x8, addend: 0x0, symName: __ZN4base8FilePath17kCurrentDirectoryE, symObjAddr: 0x16B6, symBinAddr: 0x100079822, symSize: 0x0 }
  - { offset: 0x6C18F2, size: 0x8, addend: 0x0, symName: __ZN4base8FilePath16kParentDirectoryE, symObjAddr: 0x16B8, symBinAddr: 0x100079824, symSize: 0x0 }
  - { offset: 0x6C1906, size: 0x8, addend: 0x0, symName: __ZN4base8FilePath19kExtensionSeparatorE, symObjAddr: 0x16BB, symBinAddr: 0x100079827, symSize: 0x0 }
  - { offset: 0x6C6108, size: 0x8, addend: 0x0, symName: __ZN4base8FilePathC2Ev, symObjAddr: 0x0, symBinAddr: 0x10005BDE0, symSize: 0xC }
  - { offset: 0x6C612C, size: 0x8, addend: 0x0, symName: __ZN4base8FilePathC2Ev, symObjAddr: 0x0, symBinAddr: 0x10005BDE0, symSize: 0xC }
  - { offset: 0x6C6149, size: 0x8, addend: 0x0, symName: __ZN4base8FilePathC2Ev, symObjAddr: 0x0, symBinAddr: 0x10005BDE0, symSize: 0xC }
  - { offset: 0x6C6167, size: 0x8, addend: 0x0, symName: __ZN4base8FilePathC2Ev, symObjAddr: 0x0, symBinAddr: 0x10005BDE0, symSize: 0xC }
  - { offset: 0x6C6185, size: 0x8, addend: 0x0, symName: __ZN4base8FilePathC2Ev, symObjAddr: 0x0, symBinAddr: 0x10005BDE0, symSize: 0xC }
  - { offset: 0x6C61A2, size: 0x8, addend: 0x0, symName: __ZN4base8FilePathC2Ev, symObjAddr: 0x0, symBinAddr: 0x10005BDE0, symSize: 0xC }
  - { offset: 0x6C61E2, size: 0x8, addend: 0x0, symName: __ZN4base8FilePathC1Ev, symObjAddr: 0xC, symBinAddr: 0x10005BDEC, symSize: 0xC }
  - { offset: 0x6C6210, size: 0x8, addend: 0x0, symName: __ZN4base8FilePathC1Ev, symObjAddr: 0xC, symBinAddr: 0x10005BDEC, symSize: 0xC }
  - { offset: 0x6C622D, size: 0x8, addend: 0x0, symName: __ZN4base8FilePathC1Ev, symObjAddr: 0xC, symBinAddr: 0x10005BDEC, symSize: 0xC }
  - { offset: 0x6C624A, size: 0x8, addend: 0x0, symName: __ZN4base8FilePathC1Ev, symObjAddr: 0xC, symBinAddr: 0x10005BDEC, symSize: 0xC }
  - { offset: 0x6C6268, size: 0x8, addend: 0x0, symName: __ZN4base8FilePathC1Ev, symObjAddr: 0xC, symBinAddr: 0x10005BDEC, symSize: 0xC }
  - { offset: 0x6C6286, size: 0x8, addend: 0x0, symName: __ZN4base8FilePathC1Ev, symObjAddr: 0xC, symBinAddr: 0x10005BDEC, symSize: 0xC }
  - { offset: 0x6C62A3, size: 0x8, addend: 0x0, symName: __ZN4base8FilePathC1Ev, symObjAddr: 0xC, symBinAddr: 0x10005BDEC, symSize: 0xC }
  - { offset: 0x6C6342, size: 0x8, addend: 0x0, symName: __ZN4base8FilePathC2ERKS0_, symObjAddr: 0x18, symBinAddr: 0x10005BDF8, symSize: 0x48 }
  - { offset: 0x6C63B1, size: 0x8, addend: 0x0, symName: __ZN4base8FilePathC2ERKS0_, symObjAddr: 0x18, symBinAddr: 0x10005BDF8, symSize: 0x48 }
  - { offset: 0x6C6557, size: 0x8, addend: 0x0, symName: __ZN4base8FilePathC1ERKS0_, symObjAddr: 0x60, symBinAddr: 0x10005BE40, symSize: 0x48 }
  - { offset: 0x6C65E5, size: 0x8, addend: 0x0, symName: __ZN4base8FilePathC1ERKS0_, symObjAddr: 0x60, symBinAddr: 0x10005BE40, symSize: 0x48 }
  - { offset: 0x6C66E0, size: 0x8, addend: 0x0, symName: __ZN4base8FilePathC2ERKNSt3__112basic_stringIcNS1_11char_traitsIcEENS1_9allocatorIcEEEE, symObjAddr: 0xA8, symBinAddr: 0x10005BE88, symSize: 0xA8 }
  - { offset: 0x6C6904, size: 0x8, addend: 0x0, symName: __ZN4base8FilePathC1ERKNSt3__112basic_stringIcNS1_11char_traitsIcEENS1_9allocatorIcEEEE, symObjAddr: 0x150, symBinAddr: 0x10005BF30, symSize: 0xA8 }
  - { offset: 0x6C6B14, size: 0x8, addend: 0x0, symName: __ZN4base8FilePathD2Ev, symObjAddr: 0x1F8, symBinAddr: 0x10005BFD8, symSize: 0x38 }
  - { offset: 0x6C6B69, size: 0x8, addend: 0x0, symName: __ZN4base8FilePathD2Ev, symObjAddr: 0x1F8, symBinAddr: 0x10005BFD8, symSize: 0x38 }
  - { offset: 0x6C6C81, size: 0x8, addend: 0x0, symName: __ZN4base8FilePathD1Ev, symObjAddr: 0x230, symBinAddr: 0x10005C010, symSize: 0x38 }
  - { offset: 0x6C6CED, size: 0x8, addend: 0x0, symName: __ZN4base8FilePathD1Ev, symObjAddr: 0x230, symBinAddr: 0x10005C010, symSize: 0x38 }
  - { offset: 0x6C6DEA, size: 0x8, addend: 0x0, symName: __ZN4base8FilePathaSERKS0_, symObjAddr: 0x268, symBinAddr: 0x10005C048, symSize: 0x24 }
  - { offset: 0x6C6E8E, size: 0x8, addend: 0x0, symName: __ZNK4base8FilePatheqERKS0_, symObjAddr: 0x28C, symBinAddr: 0x10005C06C, symSize: 0x6C }
  - { offset: 0x6C6ECA, size: 0x8, addend: 0x0, symName: __ZNK4base8FilePatheqERKS0_, symObjAddr: 0x28C, symBinAddr: 0x10005C06C, symSize: 0x6C }
  - { offset: 0x6C6EFD, size: 0x8, addend: 0x0, symName: __ZNK4base8FilePatheqERKS0_, symObjAddr: 0x28C, symBinAddr: 0x10005C06C, symSize: 0x6C }
  - { offset: 0x6C6F1B, size: 0x8, addend: 0x0, symName: __ZNK4base8FilePatheqERKS0_, symObjAddr: 0x28C, symBinAddr: 0x10005C06C, symSize: 0x6C }
  - { offset: 0x6C704C, size: 0x8, addend: 0x0, symName: __ZNK4base8FilePathneERKS0_, symObjAddr: 0x2F8, symBinAddr: 0x10005C0D8, symSize: 0x6C }
  - { offset: 0x6C7088, size: 0x8, addend: 0x0, symName: __ZNK4base8FilePathneERKS0_, symObjAddr: 0x2F8, symBinAddr: 0x10005C0D8, symSize: 0x6C }
  - { offset: 0x6C70B1, size: 0x8, addend: 0x0, symName: __ZNK4base8FilePathneERKS0_, symObjAddr: 0x2F8, symBinAddr: 0x10005C0D8, symSize: 0x6C }
  - { offset: 0x6C70E5, size: 0x8, addend: 0x0, symName: __ZNK4base8FilePathneERKS0_, symObjAddr: 0x2F8, symBinAddr: 0x10005C0D8, symSize: 0x6C }
  - { offset: 0x6C7103, size: 0x8, addend: 0x0, symName: __ZNK4base8FilePathneERKS0_, symObjAddr: 0x2F8, symBinAddr: 0x10005C0D8, symSize: 0x6C }
  - { offset: 0x6C7219, size: 0x8, addend: 0x0, symName: __ZN4base8FilePath11IsSeparatorEc, symObjAddr: 0x364, symBinAddr: 0x10005C144, symSize: 0xC }
  - { offset: 0x6C7237, size: 0x8, addend: 0x0, symName: __ZN4base8FilePath11IsSeparatorEc, symObjAddr: 0x364, symBinAddr: 0x10005C144, symSize: 0xC }
  - { offset: 0x6C739F, size: 0x8, addend: 0x0, symName: __ZNK4base8FilePath7DirNameEv, symObjAddr: 0x370, symBinAddr: 0x10005C150, symSize: 0x260 }
  - { offset: 0x6C7861, size: 0x8, addend: 0x0, symName: __ZN4base8FilePath31StripTrailingSeparatorsInternalEv, symObjAddr: 0x5D0, symBinAddr: 0x10005C3B0, symSize: 0xDC }
  - { offset: 0x6C79FF, size: 0x8, addend: 0x0, symName: __ZNK4base8FilePath8BaseNameEv, symObjAddr: 0x6AC, symBinAddr: 0x10005C48C, symSize: 0x190 }
  - { offset: 0x6C7FF3, size: 0x8, addend: 0x0, symName: __ZNK4base8FilePath14FinalExtensionEv, symObjAddr: 0x83C, symBinAddr: 0x10005C61C, symSize: 0x238 }
  - { offset: 0x6C8BD9, size: 0x8, addend: 0x0, symName: __ZNK4base8FilePath20RemoveFinalExtensionEv, symObjAddr: 0xA74, symBinAddr: 0x10005C854, symSize: 0x220 }
  - { offset: 0x6C9861, size: 0x8, addend: 0x0, symName: __ZNK4base8FilePath6AppendERKNSt3__112basic_stringIcNS1_11char_traitsIcEENS1_9allocatorIcEEEE, symObjAddr: 0xC94, symBinAddr: 0x10005CA74, symSize: 0x374 }
  - { offset: 0x6CA459, size: 0x8, addend: 0x0, symName: __ZNK4base8FilePath6AppendERKS0_, symObjAddr: 0x1008, symBinAddr: 0x10005CDE8, symSize: 0x4 }
  - { offset: 0x6CA492, size: 0x8, addend: 0x0, symName: __ZNK4base8FilePath6AppendERKS0_, symObjAddr: 0x1008, symBinAddr: 0x10005CDE8, symSize: 0x4 }
  - { offset: 0x6CA505, size: 0x8, addend: 0x0, symName: __ZNK4base8FilePath10IsAbsoluteEv, symObjAddr: 0x100C, symBinAddr: 0x10005CDEC, symSize: 0x40 }
  - { offset: 0x6CA579, size: 0x8, addend: 0x0, symName: __ZNK4base8FilePath10IsAbsoluteEv, symObjAddr: 0x100C, symBinAddr: 0x10005CDEC, symSize: 0x40 }
  - { offset: 0x6CA60B, size: 0x8, addend: 0x0, symName: __ZlsRNSt3__113basic_ostreamIcNS_11char_traitsIcEEEERKN4base8FilePathE, symObjAddr: 0x104C, symBinAddr: 0x10005CE2C, symSize: 0x1C }
  - { offset: 0x6CA64E, size: 0x8, addend: 0x0, symName: __ZlsRNSt3__113basic_ostreamIcNS_11char_traitsIcEEEERKN4base8FilePathE, symObjAddr: 0x104C, symBinAddr: 0x10005CE2C, symSize: 0x1C }
  - { offset: 0x6CA676, size: 0x8, addend: 0x0, symName: __ZlsRNSt3__113basic_ostreamIcNS_11char_traitsIcEEEERKN4base8FilePathE, symObjAddr: 0x104C, symBinAddr: 0x10005CE2C, symSize: 0x1C }
  - { offset: 0x6CA696, size: 0x8, addend: 0x0, symName: __ZlsRNSt3__113basic_ostreamIcNS_11char_traitsIcEEEERKN4base8FilePathE, symObjAddr: 0x104C, symBinAddr: 0x10005CE2C, symSize: 0x1C }
  - { offset: 0x6CA6B6, size: 0x8, addend: 0x0, symName: __ZlsRNSt3__113basic_ostreamIcNS_11char_traitsIcEEEERKN4base8FilePathE, symObjAddr: 0x104C, symBinAddr: 0x10005CE2C, symSize: 0x1C }
  - { offset: 0x6D12CB, size: 0x8, addend: 0x0, symName: __ZN4base8internal19ScopedFDCloseTraits4FreeEi, symObjAddr: 0x0, symBinAddr: 0x10005CE48, symSize: 0xAC }
  - { offset: 0x6D159F, size: 0x8, addend: 0x0, symName: __ZNK4base8internal16ScopedFILECloserclEP7__sFILE, symObjAddr: 0xAC, symBinAddr: 0x10005CEF4, symSize: 0x9C }
  - { offset: 0x6D3938, size: 0x8, addend: 0x0, symName: __ZN7logging12_GLOBAL__N_121g_logging_destinationE, symObjAddr: 0x1E20, symBinAddr: 0x100088B68, symSize: 0x0 }
  - { offset: 0x6D3952, size: 0x8, addend: 0x0, symName: __ZN7logging12_GLOBAL__N_121g_log_message_handlerE, symObjAddr: 0x38B28, symBinAddr: 0x100088B90, symSize: 0x0 }
  - { offset: 0x6D396C, size: 0x8, addend: 0x0, symName: __ZN7logging12_GLOBAL__N_118log_severity_namesE, symObjAddr: 0x1E48, symBinAddr: 0x100083C90, symSize: 0x0 }
  - { offset: 0x6D3986, size: 0x8, addend: 0x0, symName: __ZN7logging11InitLoggingERKNS_15LoggingSettingsE, symObjAddr: 0x0, symBinAddr: 0x10005CF90, symSize: 0x14 }
  - { offset: 0x6D39B5, size: 0x8, addend: 0x0, symName: __ZN7logging20SetLogMessageHandlerEPFbiPKcimRKNSt3__112basic_stringIcNS2_11char_traitsIcEENS2_9allocatorIcEEEEE, symObjAddr: 0x14, symBinAddr: 0x10005CFA4, symSize: 0xC }
  - { offset: 0x6D39DD, size: 0x8, addend: 0x0, symName: __ZN7logging20GetLogMessageHandlerEv, symObjAddr: 0x20, symBinAddr: 0x10005CFB0, symSize: 0xC }
  - { offset: 0x6DA172, size: 0x8, addend: 0x0, symName: __ZStlsRNSt3__113basic_ostreamIcNS_11char_traitsIcEEEERKNS_12basic_stringIDsNS1_IDsEENS_9allocatorIDsEEEE, symObjAddr: 0xFDC, symBinAddr: 0x10005DED0, symSize: 0xB8 }
  - { offset: 0x6DA876, size: 0x8, addend: 0x0, symName: __ZN7logging10LogMessage5FlushEv, symObjAddr: 0x8F8, symBinAddr: 0x10005D7FC, symSize: 0x3CC }
  - { offset: 0x6DB6ED, size: 0x8, addend: 0x0, symName: __ZN7logging10LogMessageC2EPKcS2_ii, symObjAddr: 0x2C, symBinAddr: 0x10005CFBC, symSize: 0x128 }
  - { offset: 0x6DB86F, size: 0x8, addend: 0x0, symName: __ZN7logging10LogMessage4InitEPKc, symObjAddr: 0x154, symBinAddr: 0x10005D0E4, symSize: 0x4E8 }
  - { offset: 0x6DD862, size: 0x8, addend: 0x0, symName: __ZN7logging10LogMessageC1EPKcS2_ii, symObjAddr: 0x6C8, symBinAddr: 0x10005D5CC, symSize: 0x4 }
  - { offset: 0x6DD8C3, size: 0x8, addend: 0x0, symName: __ZN7logging10LogMessageC1EPKcS2_ii, symObjAddr: 0x6C8, symBinAddr: 0x10005D5CC, symSize: 0x4 }
  - { offset: 0x6DD8F2, size: 0x8, addend: 0x0, symName: __ZN7logging10LogMessageC2EPKcS2_iPNSt3__112basic_stringIcNS3_11char_traitsIcEENS3_9allocatorIcEEEE, symObjAddr: 0x6CC, symBinAddr: 0x10005D5D0, symSize: 0x184 }
  - { offset: 0x6DDCAA, size: 0x8, addend: 0x0, symName: __ZN7logging10LogMessageC1EPKcS2_iPNSt3__112basic_stringIcNS3_11char_traitsIcEENS3_9allocatorIcEEEE, symObjAddr: 0x850, symBinAddr: 0x10005D754, symSize: 0x4 }
  - { offset: 0x6DDD0B, size: 0x8, addend: 0x0, symName: __ZN7logging10LogMessageC1EPKcS2_iPNSt3__112basic_stringIcNS3_11char_traitsIcEENS3_9allocatorIcEEEE, symObjAddr: 0x850, symBinAddr: 0x10005D754, symSize: 0x4 }
  - { offset: 0x6DDD4F, size: 0x8, addend: 0x0, symName: __ZN7logging10LogMessageD2Ev, symObjAddr: 0x854, symBinAddr: 0x10005D758, symSize: 0xA4 }
  - { offset: 0x6DE833, size: 0x8, addend: 0x0, symName: __ZN7logging10LogMessageD1Ev, symObjAddr: 0xCD4, symBinAddr: 0x10005DBC8, symSize: 0xA4 }
  - { offset: 0x6DEA5C, size: 0x8, addend: 0x0, symName: __ZN7logging10LogMessageD0Ev, symObjAddr: 0xD78, symBinAddr: 0x10005DC6C, symSize: 0xA4 }
  - { offset: 0x6DECA1, size: 0x8, addend: 0x0, symName: __ZN7logging15ErrnoLogMessageC2EPKcS2_iii, symObjAddr: 0xE1C, symBinAddr: 0x10005DD10, symSize: 0x30 }
  - { offset: 0x6DED89, size: 0x8, addend: 0x0, symName: __ZN7logging15ErrnoLogMessageC1EPKcS2_iii, symObjAddr: 0xE4C, symBinAddr: 0x10005DD40, symSize: 0x30 }
  - { offset: 0x6DEE8B, size: 0x8, addend: 0x0, symName: __ZN7logging15ErrnoLogMessageD2Ev, symObjAddr: 0xE7C, symBinAddr: 0x10005DD70, symSize: 0x148 }
  - { offset: 0x6DF345, size: 0x8, addend: 0x0, symName: __ZN7logging15ErrnoLogMessageD1Ev, symObjAddr: 0xFC4, symBinAddr: 0x10005DEB8, symSize: 0x4 }
  - { offset: 0x6DF368, size: 0x8, addend: 0x0, symName: __ZN7logging15ErrnoLogMessageD1Ev, symObjAddr: 0xFC4, symBinAddr: 0x10005DEB8, symSize: 0x4 }
  - { offset: 0x6DF398, size: 0x8, addend: 0x0, symName: __ZN7logging15ErrnoLogMessageD0Ev, symObjAddr: 0xFC8, symBinAddr: 0x10005DEBC, symSize: 0x14 }
  - { offset: 0x6E1920, size: 0x8, addend: 0x0, symName: __ZN12_GLOBAL__N_120GetUrandomFDInternalEv, symObjAddr: 0x30C, symBinAddr: 0x10005E284, symSize: 0xF8 }
  - { offset: 0x6E64C5, size: 0x8, addend: 0x0, symName: __ZN4base10RandUint64Ev, symObjAddr: 0x0, symBinAddr: 0x10005DF88, symSize: 0x28 }
  - { offset: 0x6E64FE, size: 0x8, addend: 0x0, symName: __ZN4base9RandBytesENS_4spanIhLm18446744073709551615EPhEE, symObjAddr: 0x28, symBinAddr: 0x10005DFB0, symSize: 0x104 }
  - { offset: 0x6E667F, size: 0x8, addend: 0x0, symName: __ZN4base7RandIntEii, symObjAddr: 0x12C, symBinAddr: 0x10005E0B4, symSize: 0x6C }
  - { offset: 0x6E6746, size: 0x8, addend: 0x0, symName: __ZN4base13RandGeneratorEy, symObjAddr: 0x198, symBinAddr: 0x10005E120, symSize: 0x54 }
  - { offset: 0x6E67B3, size: 0x8, addend: 0x0, symName: __ZN4base10RandDoubleEv, symObjAddr: 0x1EC, symBinAddr: 0x10005E174, symSize: 0x34 }
  - { offset: 0x6E689B, size: 0x8, addend: 0x0, symName: __ZN4base17RandBytesAsStringEm, symObjAddr: 0x220, symBinAddr: 0x10005E1A8, symSize: 0xDC }
  - { offset: 0x6E95E5, size: 0x8, addend: 0x0, symName: __ZN4base6StrCatENS_4spanIKNS_16BasicStringPieceINSt3__112basic_stringIcNS2_11char_traitsIcEENS2_9allocatorIcEEEEEELm18446744073709551615EPSA_EE, symObjAddr: 0x0, symBinAddr: 0x10005E37C, symSize: 0x68 }
  - { offset: 0x6EC243, size: 0x8, addend: 0x0, symName: __ZN4base8internal10StrAppendTIcNS_16BasicStringPieceINSt3__112basic_stringIcNS3_11char_traitsIcEENS3_9allocatorIcEEEEEEEEvRNS4_IT_NS5_ISB_EENS7_ISB_EEEENS_4spanIKT0_Lm18446744073709551615EPSI_EE, symObjAddr: 0x68, symBinAddr: 0x10005E3E4, symSize: 0x244 }
  - { offset: 0x6ECCF0, size: 0x8, addend: 0x0, symName: __ZN4base6StrCatENS_4spanIKNS_16BasicStringPieceINSt3__112basic_stringIcNS2_11char_traitsIcEENS2_9allocatorIcEEEEEELm18446744073709551615EPSA_EE, symObjAddr: 0x0, symBinAddr: 0x10005E37C, symSize: 0x68 }
  - { offset: 0x6EF149, size: 0x8, addend: 0x0, symName: __ZN4base11StringToIntERKNS_16BasicStringPieceINSt3__112basic_stringIcNS1_11char_traitsIcEENS1_9allocatorIcEEEEEEPi, symObjAddr: 0x0, symBinAddr: 0x10005E628, symSize: 0x298 }
  - { offset: 0x6F3622, size: 0x8, addend: 0x0, symName: __ZN4base11StringToIntERKNS_16BasicStringPieceINSt3__112basic_stringIcNS1_11char_traitsIcEENS1_9allocatorIcEEEEEEPi, symObjAddr: 0x0, symBinAddr: 0x10005E628, symSize: 0x298 }
  - { offset: 0x6F38DA, size: 0x8, addend: 0x0, symName: __ZN4base12StringToUintERKNS_16BasicStringPieceINSt3__112basic_stringIcNS1_11char_traitsIcEENS1_9allocatorIcEEEEEEPj, symObjAddr: 0x298, symBinAddr: 0x10005E8C0, symSize: 0x284 }
  - { offset: 0x6F3B92, size: 0x8, addend: 0x0, symName: __ZN4base13StringToInt64ERKNS_16BasicStringPieceINSt3__112basic_stringIcNS1_11char_traitsIcEENS1_9allocatorIcEEEEEEPx, symObjAddr: 0x51C, symBinAddr: 0x10005EB44, symSize: 0x298 }
  - { offset: 0x6F3E4A, size: 0x8, addend: 0x0, symName: __ZN4base14StringToUint64ERKNS_16BasicStringPieceINSt3__112basic_stringIcNS1_11char_traitsIcEENS1_9allocatorIcEEEEEEPy, symObjAddr: 0x7B4, symBinAddr: 0x10005EDDC, symSize: 0x284 }
  - { offset: 0x6F4102, size: 0x8, addend: 0x0, symName: __ZN4base13StringToSizeTERKNS_16BasicStringPieceINSt3__112basic_stringIcNS1_11char_traitsIcEENS1_9allocatorIcEEEEEEPm, symObjAddr: 0xA38, symBinAddr: 0x10005F060, symSize: 0x284 }
  - { offset: 0x6F43BA, size: 0x8, addend: 0x0, symName: __ZN4base14HexStringToIntERKNS_16BasicStringPieceINSt3__112basic_stringIcNS1_11char_traitsIcEENS1_9allocatorIcEEEEEEPi, symObjAddr: 0xCBC, symBinAddr: 0x10005F2E4, symSize: 0x358 }
  - { offset: 0x6F465A, size: 0x8, addend: 0x0, symName: __ZN4base16HexStringToBytesERKNSt3__112basic_stringIcNS0_11char_traitsIcEENS0_9allocatorIcEEEEPNS0_6vectorIhNS4_IhEEEE, symObjAddr: 0x1014, symBinAddr: 0x10005F63C, symSize: 0x1B0 }
  - { offset: 0x6F7741, size: 0x8, addend: 0x0, symName: __ZN4base12StringPrintfEPKcz, symObjAddr: 0x0, symBinAddr: 0x10005F7EC, symSize: 0x60 }
  - { offset: 0x6FB3E8, size: 0x8, addend: 0x0, symName: __ZN4base12StringPrintfEPKcz, symObjAddr: 0x0, symBinAddr: 0x10005F7EC, symSize: 0x60 }
  - { offset: 0x6FB60E, size: 0x8, addend: 0x0, symName: __ZN4base13StringAppendVEPNSt3__112basic_stringIcNS0_11char_traitsIcEENS0_9allocatorIcEEEEPKcPc, symObjAddr: 0x60, symBinAddr: 0x10005F84C, symSize: 0x1C4 }
  - { offset: 0x6FDEA8, size: 0x8, addend: 0x0, symName: __ZN4base11UTF8ToUTF16EPKcmPNSt3__112basic_stringIDsNS2_11char_traitsIDsEENS2_9allocatorIDsEEEE, symObjAddr: 0x0, symBinAddr: 0x10005FA10, symSize: 0x9C }
  - { offset: 0x702897, size: 0x8, addend: 0x0, symName: __ZN4base11UTF8ToUTF16EPKcmPNSt3__112basic_stringIDsNS2_11char_traitsIDsEENS2_9allocatorIDsEEEE, symObjAddr: 0x0, symBinAddr: 0x10005FA10, symSize: 0x9C }
  - { offset: 0x702CF1, size: 0x8, addend: 0x0, symName: __ZN4base11UTF8ToUTF16ERKNS_16BasicStringPieceINSt3__112basic_stringIcNS1_11char_traitsIcEENS1_9allocatorIcEEEEEE, symObjAddr: 0x9C, symBinAddr: 0x10005FAAC, symSize: 0xB4 }
  - { offset: 0x702FFF, size: 0x8, addend: 0x0, symName: __ZN4base11UTF16ToUTF8EPKDsmPNSt3__112basic_stringIcNS2_11char_traitsIcEENS2_9allocatorIcEEEE, symObjAddr: 0x150, symBinAddr: 0x10005FB60, symSize: 0x9C }
  - { offset: 0x703459, size: 0x8, addend: 0x0, symName: __ZN4base11UTF16ToUTF8ERKNS_16BasicStringPieceINSt3__112basic_stringIDsNS1_11char_traitsIDsEENS1_9allocatorIDsEEEEEE, symObjAddr: 0x1EC, symBinAddr: 0x10005FBFC, symSize: 0xB4 }
  - { offset: 0x705959, size: 0x8, addend: 0x0, symName: __ZN4base20PrepareForUTF8OutputIwEEvPKT_mPNSt3__112basic_stringIcNS4_11char_traitsIcEENS4_9allocatorIcEEEE, symObjAddr: 0x0, symBinAddr: 0x10005FCB0, symSize: 0x40 }
  - { offset: 0x70A4A6, size: 0x8, addend: 0x0, symName: __ZN4base20PrepareForUTF8OutputIwEEvPKT_mPNSt3__112basic_stringIcNS4_11char_traitsIcEENS4_9allocatorIcEEEE, symObjAddr: 0x0, symBinAddr: 0x10005FCB0, symSize: 0x40 }
  - { offset: 0x70A508, size: 0x8, addend: 0x0, symName: __ZN4base20PrepareForUTF8OutputIwEEvPKT_mPNSt3__112basic_stringIcNS4_11char_traitsIcEENS4_9allocatorIcEEEE, symObjAddr: 0x0, symBinAddr: 0x10005FCB0, symSize: 0x40 }
  - { offset: 0x70A526, size: 0x8, addend: 0x0, symName: __ZN4base20PrepareForUTF8OutputIwEEvPKT_mPNSt3__112basic_stringIcNS4_11char_traitsIcEENS4_9allocatorIcEEEE, symObjAddr: 0x0, symBinAddr: 0x10005FCB0, symSize: 0x40 }
  - { offset: 0x70A5F6, size: 0x8, addend: 0x0, symName: __ZN4base20PrepareForUTF8OutputIDsEEvPKT_mPNSt3__112basic_stringIcNS4_11char_traitsIcEENS4_9allocatorIcEEEE, symObjAddr: 0x40, symBinAddr: 0x10005FCF0, symSize: 0x40 }
  - { offset: 0x70A658, size: 0x8, addend: 0x0, symName: __ZN4base20PrepareForUTF8OutputIDsEEvPKT_mPNSt3__112basic_stringIcNS4_11char_traitsIcEENS4_9allocatorIcEEEE, symObjAddr: 0x40, symBinAddr: 0x10005FCF0, symSize: 0x40 }
  - { offset: 0x70A676, size: 0x8, addend: 0x0, symName: __ZN4base20PrepareForUTF8OutputIDsEEvPKT_mPNSt3__112basic_stringIcNS4_11char_traitsIcEENS4_9allocatorIcEEEE, symObjAddr: 0x40, symBinAddr: 0x10005FCF0, symSize: 0x40 }
  - { offset: 0x70A746, size: 0x8, addend: 0x0, symName: __ZN4base25PrepareForUTF16Or32OutputINSt3__112basic_stringIDsNS1_11char_traitsIDsEENS1_9allocatorIDsEEEEEEvPKcmPT_, symObjAddr: 0x80, symBinAddr: 0x10005FD30, symSize: 0x11C }
  - { offset: 0x70AA84, size: 0x8, addend: 0x0, symName: __ZN4base20ReadUnicodeCharacterEPKciPiPj, symObjAddr: 0x19C, symBinAddr: 0x10005FE4C, symSize: 0x148 }
  - { offset: 0x70AAB5, size: 0x8, addend: 0x0, symName: __ZN4base20ReadUnicodeCharacterEPKciPiPj, symObjAddr: 0x19C, symBinAddr: 0x10005FE4C, symSize: 0x148 }
  - { offset: 0x70AB52, size: 0x8, addend: 0x0, symName: __ZN4base20ReadUnicodeCharacterEPKDsiPiPj, symObjAddr: 0x2E4, symBinAddr: 0x10005FF94, symSize: 0x90 }
  - { offset: 0x70ABC8, size: 0x8, addend: 0x0, symName: __ZN4base21WriteUnicodeCharacterEjPNSt3__112basic_stringIcNS0_11char_traitsIcEENS0_9allocatorIcEEEE, symObjAddr: 0x374, symBinAddr: 0x100060024, symSize: 0x194 }
  - { offset: 0x70AF0D, size: 0x8, addend: 0x0, symName: __ZN4base21WriteUnicodeCharacterEjPNSt3__112basic_stringIDsNS0_11char_traitsIDsEENS0_9allocatorIDsEEEE, symObjAddr: 0x508, symBinAddr: 0x1000601B8, symSize: 0xF4 }
  - { offset: 0x70B45E, size: 0x8, addend: 0x0, symName: __ZNSt3__112basic_stringIDsNS_11char_traitsIDsEENS_9allocatorIDsEEE18__shrink_or_extendEm, symObjAddr: 0x9AC, symBinAddr: 0x1000603FC, symSize: 0x15C }
  - { offset: 0x70BAFF, size: 0x8, addend: 0x0, symName: __ZNSt3__112basic_stringIDsNS_11char_traitsIDsEENS_9allocatorIDsEEE9push_backEDs, symObjAddr: 0x5FC, symBinAddr: 0x1000602AC, symSize: 0x150 }
  - { offset: 0x70C2D0, size: 0x8, addend: 0x0, symName: __ZNSt3__112basic_stringIDsNS_11char_traitsIDsEENS_9allocatorIDsEEE18__shrink_or_extendEm, symObjAddr: 0x9AC, symBinAddr: 0x1000603FC, symSize: 0x15C }
  - { offset: 0x70E351, size: 0x8, addend: 0x0, symName: __ZN4base5apple6CFCastIPK9__CFArrayEET_RKPKv, symObjAddr: 0x0, symBinAddr: 0x100060558, symSize: 0x3C }
  - { offset: 0x70E4F4, size: 0x8, addend: 0x0, symName: __ZN4base5apple6CFCastIPK9__CFArrayEET_RKPKv, symObjAddr: 0x0, symBinAddr: 0x100060558, symSize: 0x3C }
  - { offset: 0x70E555, size: 0x8, addend: 0x0, symName: __ZN4base5apple12CFCastStrictIPK9__CFArrayEET_RKPKv, symObjAddr: 0x3C, symBinAddr: 0x100060594, symSize: 0x3C }
  - { offset: 0x70E5D7, size: 0x8, addend: 0x0, symName: __ZN4base5apple6CFCastIPK7__CFBagEET_RKPKv, symObjAddr: 0x78, symBinAddr: 0x1000605D0, symSize: 0x3C }
  - { offset: 0x70E638, size: 0x8, addend: 0x0, symName: __ZN4base5apple12CFCastStrictIPK7__CFBagEET_RKPKv, symObjAddr: 0xB4, symBinAddr: 0x10006060C, symSize: 0x3C }
  - { offset: 0x70E6BA, size: 0x8, addend: 0x0, symName: __ZN4base5apple6CFCastIPK11__CFBooleanEET_RKPKv, symObjAddr: 0xF0, symBinAddr: 0x100060648, symSize: 0x3C }
  - { offset: 0x70E71B, size: 0x8, addend: 0x0, symName: __ZN4base5apple12CFCastStrictIPK11__CFBooleanEET_RKPKv, symObjAddr: 0x12C, symBinAddr: 0x100060684, symSize: 0x3C }
  - { offset: 0x70E79D, size: 0x8, addend: 0x0, symName: __ZN4base5apple6CFCastIPK8__CFDataEET_RKPKv, symObjAddr: 0x168, symBinAddr: 0x1000606C0, symSize: 0x3C }
  - { offset: 0x70E7FE, size: 0x8, addend: 0x0, symName: __ZN4base5apple12CFCastStrictIPK8__CFDataEET_RKPKv, symObjAddr: 0x1A4, symBinAddr: 0x1000606FC, symSize: 0x3C }
  - { offset: 0x70E880, size: 0x8, addend: 0x0, symName: __ZN4base5apple6CFCastIPK8__CFDateEET_RKPKv, symObjAddr: 0x1E0, symBinAddr: 0x100060738, symSize: 0x3C }
  - { offset: 0x70E8E1, size: 0x8, addend: 0x0, symName: __ZN4base5apple12CFCastStrictIPK8__CFDateEET_RKPKv, symObjAddr: 0x21C, symBinAddr: 0x100060774, symSize: 0x3C }
  - { offset: 0x70E963, size: 0x8, addend: 0x0, symName: __ZN4base5apple6CFCastIPK14__CFDictionaryEET_RKPKv, symObjAddr: 0x258, symBinAddr: 0x1000607B0, symSize: 0x3C }
  - { offset: 0x70E9C4, size: 0x8, addend: 0x0, symName: __ZN4base5apple12CFCastStrictIPK14__CFDictionaryEET_RKPKv, symObjAddr: 0x294, symBinAddr: 0x1000607EC, symSize: 0x3C }
  - { offset: 0x70EA46, size: 0x8, addend: 0x0, symName: __ZN4base5apple6CFCastIPK8__CFNullEET_RKPKv, symObjAddr: 0x2D0, symBinAddr: 0x100060828, symSize: 0x3C }
  - { offset: 0x70EAA7, size: 0x8, addend: 0x0, symName: __ZN4base5apple12CFCastStrictIPK8__CFNullEET_RKPKv, symObjAddr: 0x30C, symBinAddr: 0x100060864, symSize: 0x3C }
  - { offset: 0x70EB29, size: 0x8, addend: 0x0, symName: __ZN4base5apple6CFCastIPK10__CFNumberEET_RKPKv, symObjAddr: 0x348, symBinAddr: 0x1000608A0, symSize: 0x3C }
  - { offset: 0x70EB8A, size: 0x8, addend: 0x0, symName: __ZN4base5apple12CFCastStrictIPK10__CFNumberEET_RKPKv, symObjAddr: 0x384, symBinAddr: 0x1000608DC, symSize: 0x3C }
  - { offset: 0x70EC0C, size: 0x8, addend: 0x0, symName: __ZN4base5apple6CFCastIPK7__CFSetEET_RKPKv, symObjAddr: 0x3C0, symBinAddr: 0x100060918, symSize: 0x3C }
  - { offset: 0x70EC6D, size: 0x8, addend: 0x0, symName: __ZN4base5apple12CFCastStrictIPK7__CFSetEET_RKPKv, symObjAddr: 0x3FC, symBinAddr: 0x100060954, symSize: 0x3C }
  - { offset: 0x70ECEF, size: 0x8, addend: 0x0, symName: __ZN4base5apple6CFCastIPK10__CFStringEET_RKPKv, symObjAddr: 0x438, symBinAddr: 0x100060990, symSize: 0x3C }
  - { offset: 0x70ED50, size: 0x8, addend: 0x0, symName: __ZN4base5apple12CFCastStrictIPK10__CFStringEET_RKPKv, symObjAddr: 0x474, symBinAddr: 0x1000609CC, symSize: 0x3C }
  - { offset: 0x70EDD2, size: 0x8, addend: 0x0, symName: __ZN4base5apple6CFCastIPK7__CFURLEET_RKPKv, symObjAddr: 0x4B0, symBinAddr: 0x100060A08, symSize: 0x3C }
  - { offset: 0x70EE33, size: 0x8, addend: 0x0, symName: __ZN4base5apple12CFCastStrictIPK7__CFURLEET_RKPKv, symObjAddr: 0x4EC, symBinAddr: 0x100060A44, symSize: 0x3C }
  - { offset: 0x70EEB5, size: 0x8, addend: 0x0, symName: __ZN4base5apple6CFCastIPK8__CFUUIDEET_RKPKv, symObjAddr: 0x528, symBinAddr: 0x100060A80, symSize: 0x3C }
  - { offset: 0x70EF16, size: 0x8, addend: 0x0, symName: __ZN4base5apple12CFCastStrictIPK8__CFUUIDEET_RKPKv, symObjAddr: 0x564, symBinAddr: 0x100060ABC, symSize: 0x3C }
  - { offset: 0x70EF98, size: 0x8, addend: 0x0, symName: __ZN4base5apple6CFCastIP7CGColorEET_RKPKv, symObjAddr: 0x5A0, symBinAddr: 0x100060AF8, symSize: 0x3C }
  - { offset: 0x70EFF9, size: 0x8, addend: 0x0, symName: __ZN4base5apple12CFCastStrictIP7CGColorEET_RKPKv, symObjAddr: 0x5DC, symBinAddr: 0x100060B34, symSize: 0x3C }
  - { offset: 0x70F07B, size: 0x8, addend: 0x0, symName: __ZN4base5apple6CFCastIPK8__CTFontEET_RKPKv, symObjAddr: 0x618, symBinAddr: 0x100060B70, symSize: 0x3C }
  - { offset: 0x70F0DC, size: 0x8, addend: 0x0, symName: __ZN4base5apple12CFCastStrictIPK8__CTFontEET_RKPKv, symObjAddr: 0x654, symBinAddr: 0x100060BAC, symSize: 0x3C }
  - { offset: 0x70F15E, size: 0x8, addend: 0x0, symName: __ZN4base5apple6CFCastIPK7__CTRunEET_RKPKv, symObjAddr: 0x690, symBinAddr: 0x100060BE8, symSize: 0x3C }
  - { offset: 0x70F1BF, size: 0x8, addend: 0x0, symName: __ZN4base5apple12CFCastStrictIPK7__CTRunEET_RKPKv, symObjAddr: 0x6CC, symBinAddr: 0x100060C24, symSize: 0x3C }
  - { offset: 0x70F241, size: 0x8, addend: 0x0, symName: __ZN4base5apple6CFCastIP8__SecACLEET_RKPKv, symObjAddr: 0x708, symBinAddr: 0x100060C60, symSize: 0x3C }
  - { offset: 0x70F2A2, size: 0x8, addend: 0x0, symName: __ZN4base5apple12CFCastStrictIP8__SecACLEET_RKPKv, symObjAddr: 0x744, symBinAddr: 0x100060C9C, symSize: 0x3C }
  - { offset: 0x70F324, size: 0x8, addend: 0x0, symName: __ZN4base5apple6CFCastIP23__SecTrustedApplicationEET_RKPKv, symObjAddr: 0x780, symBinAddr: 0x100060CD8, symSize: 0x3C }
  - { offset: 0x70F385, size: 0x8, addend: 0x0, symName: __ZN4base5apple12CFCastStrictIP23__SecTrustedApplicationEET_RKPKv, symObjAddr: 0x7BC, symBinAddr: 0x100060D14, symSize: 0x3C }
  - { offset: 0x7169EB, size: 0x8, addend: 0x0, symName: __ZN7logging14MachLogMessageC2EPKcS2_iii, symObjAddr: 0x0, symBinAddr: 0x100060D50, symSize: 0x30 }
  - { offset: 0x716A96, size: 0x8, addend: 0x0, symName: __ZN7logging14MachLogMessageC1EPKcS2_iii, symObjAddr: 0x30, symBinAddr: 0x100060D80, symSize: 0x30 }
  - { offset: 0x716C8B, size: 0x8, addend: 0x0, symName: __ZN7logging14MachLogMessageD2Ev, symObjAddr: 0x60, symBinAddr: 0x100060DB0, symSize: 0xD8 }
  - { offset: 0x716FDA, size: 0x8, addend: 0x0, symName: __ZN7logging14MachLogMessageD1Ev, symObjAddr: 0x148, symBinAddr: 0x100060E88, symSize: 0x4 }
  - { offset: 0x716FFD, size: 0x8, addend: 0x0, symName: __ZN7logging14MachLogMessageD1Ev, symObjAddr: 0x148, symBinAddr: 0x100060E88, symSize: 0x4 }
  - { offset: 0x71702C, size: 0x8, addend: 0x0, symName: __ZN7logging14MachLogMessageD0Ev, symObjAddr: 0x14C, symBinAddr: 0x100060E8C, symSize: 0x14 }
  - { offset: 0x7170A1, size: 0x8, addend: 0x0, symName: __ZN7logging19BootstrapLogMessageC2EPKcS2_iii, symObjAddr: 0x160, symBinAddr: 0x100060EA0, symSize: 0x30 }
  - { offset: 0x71714C, size: 0x8, addend: 0x0, symName: __ZN7logging19BootstrapLogMessageC1EPKcS2_iii, symObjAddr: 0x190, symBinAddr: 0x100060ED0, symSize: 0x30 }
  - { offset: 0x717215, size: 0x8, addend: 0x0, symName: __ZN7logging19BootstrapLogMessageD2Ev, symObjAddr: 0x1C0, symBinAddr: 0x100060F00, symSize: 0x11C }
  - { offset: 0x7175C4, size: 0x8, addend: 0x0, symName: __ZN7logging19BootstrapLogMessageD1Ev, symObjAddr: 0x2DC, symBinAddr: 0x10006101C, symSize: 0x4 }
  - { offset: 0x7175E7, size: 0x8, addend: 0x0, symName: __ZN7logging19BootstrapLogMessageD1Ev, symObjAddr: 0x2DC, symBinAddr: 0x10006101C, symSize: 0x4 }
  - { offset: 0x717616, size: 0x8, addend: 0x0, symName: __ZN7logging19BootstrapLogMessageD0Ev, symObjAddr: 0x2E0, symBinAddr: 0x100061020, symSize: 0x14 }
  - { offset: 0x71E2A8, size: 0x8, addend: 0x0, symName: __ZN4base5apple8internal15SendRightTraits4FreeEj, symObjAddr: 0x0, symBinAddr: 0x100061034, symSize: 0x90 }
  - { offset: 0x71E35B, size: 0x8, addend: 0x0, symName: __ZN4base5apple8internal18ReceiveRightTraits4FreeEj, symObjAddr: 0x90, symBinAddr: 0x1000610C4, symSize: 0x98 }
  - { offset: 0x71E41D, size: 0x8, addend: 0x0, symName: __ZN4base5apple8internal13PortSetTraits4FreeEj, symObjAddr: 0x128, symBinAddr: 0x10006115C, symSize: 0x98 }
  - { offset: 0x7207CC, size: 0x8, addend: 0x0, symName: __ZN4base5apple12ScopedMachVM5resetEmm, symObjAddr: 0x0, symBinAddr: 0x1000611F4, symSize: 0x84 }
  - { offset: 0x7207E1, size: 0x8, addend: 0x0, symName: __ZN4base5apple12ScopedMachVM5resetEmm, symObjAddr: 0x0, symBinAddr: 0x1000611F4, symSize: 0x84 }
  - { offset: 0x72321D, size: 0x8, addend: 0x0, symName: __ZN4base5apple23ScopedNSAutoreleasePoolC2Ev, symObjAddr: 0x0, symBinAddr: 0x100061278, symSize: 0x28 }
  - { offset: 0x72327A, size: 0x8, addend: 0x0, symName: __ZN4base5apple23ScopedNSAutoreleasePoolC1Ev, symObjAddr: 0x28, symBinAddr: 0x1000612A0, symSize: 0x28 }
  - { offset: 0x7232D3, size: 0x8, addend: 0x0, symName: __ZN4base5apple23ScopedNSAutoreleasePoolD2Ev, symObjAddr: 0x50, symBinAddr: 0x1000612C8, symSize: 0x2C }
  - { offset: 0x72332D, size: 0x8, addend: 0x0, symName: __ZN4base5apple23ScopedNSAutoreleasePoolD1Ev, symObjAddr: 0x8C, symBinAddr: 0x1000612F4, symSize: 0x2C }
  - { offset: 0x723380, size: 0x8, addend: 0x0, symName: __ZN4base5apple23ScopedNSAutoreleasePool7RecycleEv, symObjAddr: 0xB8, symBinAddr: 0x100061320, symSize: 0x2C }
  - { offset: 0x725D54, size: 0x8, addend: 0x0, symName: __ZN4base20SysCFStringRefToUTF8EPK10__CFString, symObjAddr: 0x0, symBinAddr: 0x10006134C, symSize: 0x19C }
  - { offset: 0x725E2D, size: 0x8, addend: 0x0, symName: __ZN4base20SysCFStringRefToUTF8EPK10__CFString, symObjAddr: 0x0, symBinAddr: 0x10006134C, symSize: 0x19C }
  - { offset: 0x7265AE, size: 0x8, addend: 0x0, symName: __ZN4base17SysNSStringToUTF8EP8NSString, symObjAddr: 0x19C, symBinAddr: 0x1000614E8, symSize: 0x14 }
  - { offset: 0x726680, size: 0x8, addend: 0x0, symName: __ZN4base20SysUTF8ToCFStringRefERKNSt3__112basic_stringIcNS0_11char_traitsIcEENS0_9allocatorIcEEEE, symObjAddr: 0x1B0, symBinAddr: 0x1000614FC, symSize: 0x48 }
  - { offset: 0x7267ED, size: 0x8, addend: 0x0, symName: __ZN4base17SysUTF8ToNSStringERKNSt3__112basic_stringIcNS0_11char_traitsIcEENS0_9allocatorIcEEEE, symObjAddr: 0x1F8, symBinAddr: 0x100061544, symSize: 0x58 }
  - { offset: 0x72B94F, size: 0x8, addend: 0x0, symName: _close, symObjAddr: 0x0, symBinAddr: 0x10006159C, symSize: 0x4 }
  - { offset: 0x72B95D, size: 0x8, addend: 0x0, symName: _close, symObjAddr: 0x0, symBinAddr: 0x10006159C, symSize: 0x4 }
  - { offset: 0x72B98B, size: 0x8, addend: 0x0, symName: _close, symObjAddr: 0x0, symBinAddr: 0x10006159C, symSize: 0x4 }
  - { offset: 0x72B9DB, size: 0x8, addend: 0x0, symName: __ZN4base10ReadFromFDEiPcm, symObjAddr: 0x0, symBinAddr: 0x1000615A0, symSize: 0x84 }
  - { offset: 0x72B9EE, size: 0x8, addend: 0x0, symName: __ZN4base10ReadFromFDEiPcm, symObjAddr: 0x0, symBinAddr: 0x1000615A0, symSize: 0x84 }
  - { offset: 0x72BB33, size: 0x8, addend: 0x0, symName: __ZN4base15safe_strerror_rEiPcm, symObjAddr: 0x0, symBinAddr: 0x100061624, symSize: 0x64 }
  - { offset: 0x72E6C9, size: 0x8, addend: 0x0, symName: __ZN4base15safe_strerror_rEiPcm, symObjAddr: 0x0, symBinAddr: 0x100061624, symSize: 0x64 }
  - { offset: 0x72E78E, size: 0x8, addend: 0x0, symName: __ZN4base13safe_strerrorEi, symObjAddr: 0x64, symBinAddr: 0x100061688, symSize: 0x10C }
  - { offset: 0x730B6D, size: 0x8, addend: 0x0, symName: __ZN4base8internal8LockImplC2Ev, symObjAddr: 0x0, symBinAddr: 0x100061794, symSize: 0x28 }
  - { offset: 0x730C3D, size: 0x8, addend: 0x0, symName: __ZN4base8internal8LockImplC1Ev, symObjAddr: 0x28, symBinAddr: 0x1000617BC, symSize: 0x28 }
  - { offset: 0x730CA3, size: 0x8, addend: 0x0, symName: __ZN4base8internal8LockImplD2Ev, symObjAddr: 0x50, symBinAddr: 0x1000617E4, symSize: 0x28 }
  - { offset: 0x730D26, size: 0x8, addend: 0x0, symName: __ZN4base8internal8LockImplD1Ev, symObjAddr: 0x88, symBinAddr: 0x10006180C, symSize: 0x28 }
  - { offset: 0x730D81, size: 0x8, addend: 0x0, symName: __ZN4base8internal8LockImpl3TryEv, symObjAddr: 0xB0, symBinAddr: 0x100061834, symSize: 0x1C }
  - { offset: 0x730DE2, size: 0x8, addend: 0x0, symName: __ZN4base8internal8LockImpl4LockEv, symObjAddr: 0xCC, symBinAddr: 0x100061850, symSize: 0x4 }
  - { offset: 0x730E16, size: 0x8, addend: 0x0, symName: __ZN4base8internal8LockImpl4LockEv, symObjAddr: 0xCC, symBinAddr: 0x100061850, symSize: 0x4 }
  - { offset: 0x730E3B, size: 0x8, addend: 0x0, symName: __ZN4base8internal8LockImpl6UnlockEv, symObjAddr: 0xD0, symBinAddr: 0x100061854, symSize: 0x4 }
  - { offset: 0x730E70, size: 0x8, addend: 0x0, symName: __ZN4base8internal8LockImpl6UnlockEv, symObjAddr: 0xD0, symBinAddr: 0x100061854, symSize: 0x4 }
...
