---
triple:          'x86_64-apple-darwin'
binary-path:     'libsentrysdk.macos.debug.framework/libsentrysdk.macos.debug'
relocations:
  - { offset: 0x3A6C4, size: 0x8, addend: 0x0, symName: __ZNSt3__116__throw_bad_castB8nn190102Ev, symObjAddr: 0x7BE0, symBinAddr: 0x8130, symSize: 0x10 }
  - { offset: 0x3C249, size: 0x8, addend: 0x0, symName: __ZSt28__throw_bad_array_new_lengthB8nn190102v, symObjAddr: 0x21B0, symBinAddr: 0x2990, symSize: 0x10 }
  - { offset: 0x3E8F2, size: 0x8, addend: 0x0, symName: __ZN6sentry4util5printIJA200_cA10_ciA2_cEEEvNS_5LevelERKN5godot7VariantEDpRKT_, symObjAddr: 0x4340, symBinAddr: 0x4A20, symSize: 0x1B0 }
  - { offset: 0x3EDC6, size: 0x8, addend: 0x0, symName: __ZN6sentry4util5printIJA15_cPKcA3_cA10_cS4_A2_cS6_iS7_S2_S4_S7_A16_cS4_EEEvNS_5LevelERKN5godot7VariantEDpRKT_, symObjAddr: 0x47D0, symBinAddr: 0x4EB0, symSize: 0x200 }
  - { offset: 0x3F2F2, size: 0x8, addend: 0x0, symName: __ZN6sentry4util5printIJPKcEEEvNS_5LevelERKN5godot7VariantEDpRKT_, symObjAddr: 0x6480, symBinAddr: 0x69F0, symSize: 0x280 }
  - { offset: 0x3F653, size: 0x8, addend: 0x0, symName: __ZN6sentry4util5printIJN5godot6StringEEEEvNS_5LevelERKNS2_7VariantEDpRKT_, symObjAddr: 0x6230, symBinAddr: 0x67A0, symSize: 0x250 }
  - { offset: 0x3F988, size: 0x8, addend: 0x0, symName: __ZN6sentry4util5printIJiEEEvNS_5LevelERKN5godot7VariantEDpRKT_, symObjAddr: 0x6700, symBinAddr: 0x6C70, symSize: 0x250 }
  - { offset: 0x3FD06, size: 0x8, addend: 0x0, symName: __ZN6sentry4util5printIJEEEvNS_5LevelERKN5godot7VariantEDpRKT_, symObjAddr: 0x6950, symBinAddr: 0x6EC0, symSize: 0x1F0 }
  - { offset: 0x4024E, size: 0x8, addend: 0x0, symName: __ZN12LegacyLogger17_process_log_fileEv, symObjAddr: 0x0, symBinAddr: 0xBC0, symSize: 0x5F0 }
  - { offset: 0x40274, size: 0x8, addend: 0x0, symName: __ZZN12LegacyLogger17_process_log_fileEvE11first_print, symObjAddr: 0x144C49, symBinAddr: 0x1DD158, symSize: 0x0 }
  - { offset: 0x414E5, size: 0x8, addend: 0x0, symName: __ZN12_GLOBAL__N_111error_typesE, symObjAddr: 0x8E40, symBinAddr: 0x1DC8E0, symSize: 0x0 }
  - { offset: 0x414FF, size: 0x8, addend: 0x0, symName: __ZN12_GLOBAL__N_118error_type_as_enumE, symObjAddr: 0x9730, symBinAddr: 0x1AC8F0, symSize: 0x0 }
  - { offset: 0x41537, size: 0x8, addend: 0x0, symName: __ZN5godot6Object22_gde_binding_callbacksE, symObjAddr: 0x9A70, symBinAddr: 0x1D7048, symSize: 0x0 }
  - { offset: 0x4154B, size: 0x8, addend: 0x0, symName: __ZN5godot16ClassDBSingleton22_gde_binding_callbacksE, symObjAddr: 0x9A88, symBinAddr: 0x1D7060, symSize: 0x0 }
  - { offset: 0x4155F, size: 0x8, addend: 0x0, symName: __ZN5godot10RefCounted22_gde_binding_callbacksE, symObjAddr: 0x9AA0, symBinAddr: 0x1D7078, symSize: 0x0 }
  - { offset: 0x41573, size: 0x8, addend: 0x0, symName: __ZN5godot6Logger22_gde_binding_callbacksE, symObjAddr: 0x9AF8, symBinAddr: 0x1D70D0, symSize: 0x0 }
  - { offset: 0x41587, size: 0x8, addend: 0x0, symName: __ZN5godot13DisplayServer22_gde_binding_callbacksE, symObjAddr: 0x9B10, symBinAddr: 0x1D70E8, symSize: 0x0 }
  - { offset: 0x4159B, size: 0x8, addend: 0x0, symName: __ZN5godot4Node22_gde_binding_callbacksE, symObjAddr: 0x9B28, symBinAddr: 0x1D7100, symSize: 0x0 }
  - { offset: 0x415AF, size: 0x8, addend: 0x0, symName: __ZN5godot5Timer22_gde_binding_callbacksE, symObjAddr: 0x9B40, symBinAddr: 0x1D7118, symSize: 0x0 }
  - { offset: 0x415C3, size: 0x8, addend: 0x0, symName: __ZN5godot10ConfigFile22_gde_binding_callbacksE, symObjAddr: 0x9B58, symBinAddr: 0x1D7130, symSize: 0x0 }
  - { offset: 0x415D7, size: 0x8, addend: 0x0, symName: __ZN5godot15ScriptBacktrace22_gde_binding_callbacksE, symObjAddr: 0x9BB0, symBinAddr: 0x1D7188, symSize: 0x0 }
  - { offset: 0x415EB, size: 0x8, addend: 0x0, symName: __ZN5godot2OS22_gde_binding_callbacksE, symObjAddr: 0x9C08, symBinAddr: 0x1D71E0, symSize: 0x0 }
  - { offset: 0x415FF, size: 0x8, addend: 0x0, symName: __ZN5godot15ProjectSettings22_gde_binding_callbacksE, symObjAddr: 0x9C20, symBinAddr: 0x1D71F8, symSize: 0x0 }
  - { offset: 0x41613, size: 0x8, addend: 0x0, symName: __ZN5godot14ResourceLoader22_gde_binding_callbacksE, symObjAddr: 0x9C38, symBinAddr: 0x1D7210, symSize: 0x0 }
  - { offset: 0x41627, size: 0x8, addend: 0x0, symName: __ZN5godot8Resource22_gde_binding_callbacksE, symObjAddr: 0x9C50, symBinAddr: 0x1D7228, symSize: 0x0 }
  - { offset: 0x4163B, size: 0x8, addend: 0x0, symName: __ZN5godot6Script22_gde_binding_callbacksE, symObjAddr: 0x9C68, symBinAddr: 0x1D7240, symSize: 0x0 }
  - { offset: 0x42C77, size: 0x8, addend: 0x0, symName: ___cxx_global_var_init, symObjAddr: 0x8A40, symBinAddr: 0x8350, symSize: 0x40 }
  - { offset: 0x42CFE, size: 0x8, addend: 0x0, symName: ___cxx_global_var_init.1, symObjAddr: 0x8A80, symBinAddr: 0x8390, symSize: 0x40 }
  - { offset: 0x42D85, size: 0x8, addend: 0x0, symName: ___cxx_global_var_init.2, symObjAddr: 0x8AC0, symBinAddr: 0x83D0, symSize: 0x40 }
  - { offset: 0x42E0C, size: 0x8, addend: 0x0, symName: ___cxx_global_var_init.3, symObjAddr: 0x8B00, symBinAddr: 0x8410, symSize: 0x40 }
  - { offset: 0x42E93, size: 0x8, addend: 0x0, symName: ___cxx_global_var_init.4, symObjAddr: 0x8B40, symBinAddr: 0x8450, symSize: 0x40 }
  - { offset: 0x42F1A, size: 0x8, addend: 0x0, symName: ___cxx_global_var_init.5, symObjAddr: 0x8B80, symBinAddr: 0x8490, symSize: 0x40 }
  - { offset: 0x42FA1, size: 0x8, addend: 0x0, symName: ___cxx_global_var_init.6, symObjAddr: 0x8BC0, symBinAddr: 0x84D0, symSize: 0x40 }
  - { offset: 0x43028, size: 0x8, addend: 0x0, symName: ___cxx_global_var_init.7, symObjAddr: 0x8C00, symBinAddr: 0x8510, symSize: 0x40 }
  - { offset: 0x430AF, size: 0x8, addend: 0x0, symName: ___cxx_global_var_init.8, symObjAddr: 0x8C40, symBinAddr: 0x8550, symSize: 0x40 }
  - { offset: 0x43136, size: 0x8, addend: 0x0, symName: ___cxx_global_var_init.9, symObjAddr: 0x8C80, symBinAddr: 0x8590, symSize: 0x40 }
  - { offset: 0x431BD, size: 0x8, addend: 0x0, symName: ___cxx_global_var_init.10, symObjAddr: 0x8CC0, symBinAddr: 0x85D0, symSize: 0x40 }
  - { offset: 0x43244, size: 0x8, addend: 0x0, symName: ___cxx_global_var_init.11, symObjAddr: 0x8D00, symBinAddr: 0x8610, symSize: 0x40 }
  - { offset: 0x432CB, size: 0x8, addend: 0x0, symName: ___cxx_global_var_init.12, symObjAddr: 0x8D40, symBinAddr: 0x8650, symSize: 0x40 }
  - { offset: 0x43352, size: 0x8, addend: 0x0, symName: ___cxx_global_var_init.13, symObjAddr: 0x8D80, symBinAddr: 0x8690, symSize: 0x3A }
  - { offset: 0x43DC4, size: 0x8, addend: 0x0, symName: __ZNSt3__112__hash_tableINS_17__hash_value_typeINS_4pairINS_12basic_stringIcNS_11char_traitsIcEENS_9allocatorIcEEEEiEENS_6chrono10time_pointINSA_12steady_clockENSA_8durationIxNS_5ratioILl1ELl1000000000EEEEEEEEENS_22__unordered_map_hasherIS9_SI_N12LegacyLogger14SourceLineHashENS_8equal_toIS9_EELb1EEENS_21__unordered_map_equalIS9_SI_SN_SL_Lb1EEENS6_ISI_EEE4findIS9_EENS_15__hash_iteratorIPNS_11__hash_nodeISI_PvEEEERKT_, symObjAddr: 0x33E0, symBinAddr: 0x3B90, symSize: 0x200 }
  - { offset: 0x44158, size: 0x8, addend: 0x0, symName: __ZN12LegacyLogger10_log_errorEPKcS1_iS1_N6sentry14GodotErrorTypeE, symObjAddr: 0x9F0, symBinAddr: 0x11B0, symSize: 0xA30 }
  - { offset: 0x4535A, size: 0x8, addend: 0x0, symName: __ZNSt3__112__hash_tableINS_17__hash_value_typeINS_4pairINS_12basic_stringIcNS_11char_traitsIcEENS_9allocatorIcEEEEiEENS_6chrono10time_pointINSA_12steady_clockENSA_8durationIxNS_5ratioILl1ELl1000000000EEEEEEEEENS_22__unordered_map_hasherIS9_SI_N12LegacyLogger14SourceLineHashENS_8equal_toIS9_EELb1EEENS_21__unordered_map_equalIS9_SI_SN_SL_Lb1EEENS6_ISI_EEE25__emplace_unique_key_argsIS9_JRKNS_21piecewise_construct_tENS_5tupleIJRKS9_EEENSX_IJEEEEEENS2_INS_15__hash_iteratorIPNS_11__hash_nodeISI_PvEEEEbEERKT_DpOT0_, symObjAddr: 0x3AE0, symBinAddr: 0x4240, symSize: 0x500 }
  - { offset: 0x479B8, size: 0x8, addend: 0x0, symName: __ZNK12LegacyLogger19_get_script_contextERKN5godot6StringEiRS1_RNS0_17PackedStringArrayES6_, symObjAddr: 0x13F0, symBinAddr: 0x1BE0, symSize: 0x360 }
  - { offset: 0x47F19, size: 0x8, addend: 0x0, symName: __ZN5godot7CowDataIN11SentryEvent10StackFrameEE6resizeILb0EEENS_5ErrorEx, symObjAddr: 0x5150, symBinAddr: 0x5830, symSize: 0x340 }
  - { offset: 0x486BF, size: 0x8, addend: 0x0, symName: __ZN5godot7CowDataIN11SentryEvent10StackFrameEE14_copy_on_writeEv, symObjAddr: 0x5530, symBinAddr: 0x5BE0, symSize: 0x40 }
  - { offset: 0x4895E, size: 0x8, addend: 0x0, symName: __ZN11SentryEvent10StackFrameD2Ev, symObjAddr: 0x21C0, symBinAddr: 0x2A70, symSize: 0xB0 }
  - { offset: 0x48B30, size: 0x8, addend: 0x0, symName: __ZNSt3__15dequeINS_6chrono10time_pointINS1_12steady_clockENS1_8durationIxNS_5ratioILl1ELl1000000000EEEEEEENS_9allocatorIS8_EEE19__add_back_capacityEv, symObjAddr: 0x56A0, symBinAddr: 0x5C20, symSize: 0x520 }
  - { offset: 0x4A177, size: 0x8, addend: 0x0, symName: __ZN12LegacyLogger10_log_errorEPKcS1_iS1_N6sentry14GodotErrorTypeE.cold.1, symObjAddr: 0x7DC0, symBinAddr: 0x1161B0, symSize: 0x60 }
  - { offset: 0x4A44C, size: 0x8, addend: 0x0, symName: __ZN5godot6Object7cast_toINS_6ScriptEEEPT_PS0_, symObjAddr: 0x6140, symBinAddr: 0x66C0, symSize: 0xE0 }
  - { offset: 0x4A4EA, size: 0x8, addend: 0x0, symName: __ZN11SentryEvent10StackFrameC1ERKS0_, symObjAddr: 0x1750, symBinAddr: 0x1F40, symSize: 0x90 }
  - { offset: 0x4A8A6, size: 0x8, addend: 0x0, symName: __ZN12LegacyLogger22_trim_error_timepointsEv, symObjAddr: 0x1800, symBinAddr: 0x1FD0, symSize: 0x100 }
  - { offset: 0x4AF9A, size: 0x8, addend: 0x0, symName: __ZN12LegacyLogger13_notificationEi, symObjAddr: 0x1900, symBinAddr: 0x20D0, symSize: 0x230 }
  - { offset: 0x4B2B1, size: 0x8, addend: 0x0, symName: __ZN12LegacyLogger6_setupEv, symObjAddr: 0x1B30, symBinAddr: 0x2300, symSize: 0x380 }
  - { offset: 0x4B84C, size: 0x8, addend: 0x0, symName: __ZN12LegacyLogger6_setupEv.cold.5, symObjAddr: 0x7F50, symBinAddr: 0x116340, symSize: 0x30 }
  - { offset: 0x4B864, size: 0x8, addend: 0x0, symName: __ZN12LegacyLogger6_setupEv.cold.4, symObjAddr: 0x7F20, symBinAddr: 0x116310, symSize: 0x30 }
  - { offset: 0x4B87C, size: 0x8, addend: 0x0, symName: __ZN12LegacyLogger6_setupEv.cold.1, symObjAddr: 0x7E20, symBinAddr: 0x116210, symSize: 0x40 }
  - { offset: 0x4B894, size: 0x8, addend: 0x0, symName: __ZN12LegacyLogger6_setupEv.cold.3, symObjAddr: 0x7EE0, symBinAddr: 0x1162D0, symSize: 0x40 }
  - { offset: 0x4B8AC, size: 0x8, addend: 0x0, symName: __ZN12LegacyLogger6_setupEv.cold.2, symObjAddr: 0x7E60, symBinAddr: 0x116250, symSize: 0x80 }
  - { offset: 0x4BC9D, size: 0x8, addend: 0x0, symName: __ZN12LegacyLoggerC2Ev, symObjAddr: 0x1EB0, symBinAddr: 0x2680, symSize: 0x2C0 }
  - { offset: 0x4C1C9, size: 0x8, addend: 0x0, symName: __ZNSt3__113basic_filebufIcNS_11char_traitsIcEEEC2Ev, symObjAddr: 0x6CF0, symBinAddr: 0x72D0, symSize: 0xF0 }
  - { offset: 0x4C2C8, size: 0x8, addend: 0x0, symName: __ZN12LegacyLoggerC1Ev, symObjAddr: 0x2160, symBinAddr: 0x2940, symSize: 0x10 }
  - { offset: 0x4C30B, size: 0x8, addend: 0x0, symName: __ZNK12LegacyLogger19_is_extension_classEv, symObjAddr: 0x2170, symBinAddr: 0x2950, symSize: 0x10 }
  - { offset: 0x4C330, size: 0x8, addend: 0x0, symName: __ZN12LegacyLoggerD1Ev, symObjAddr: 0x2180, symBinAddr: 0x2960, symSize: 0x10 }
  - { offset: 0x4C368, size: 0x8, addend: 0x0, symName: __ZN12LegacyLoggerD2Ev, symObjAddr: 0x7BF0, symBinAddr: 0x8140, symSize: 0x140 }
  - { offset: 0x4CA56, size: 0x8, addend: 0x0, symName: __ZN12LegacyLoggerD0Ev, symObjAddr: 0x2190, symBinAddr: 0x2970, symSize: 0x20 }
  - { offset: 0x4CBBD, size: 0x8, addend: 0x0, symName: __ZNK5godot7Wrapped19_is_extension_classEv, symObjAddr: 0x2270, symBinAddr: 0x2B20, symSize: 0x10 }
  - { offset: 0x4CCBB, size: 0x8, addend: 0x0, symName: __ZN5godot6ObjectD1Ev, symObjAddr: 0x2280, symBinAddr: 0x2B30, symSize: 0x70 }
  - { offset: 0x4CE42, size: 0x8, addend: 0x0, symName: __ZN5godot4ListINS_12PropertyInfoENS_16DefaultAllocatorEE5_Data5eraseEPNS3_7ElementE, symObjAddr: 0x2420, symBinAddr: 0x2CD0, symSize: 0x90 }
  - { offset: 0x4CF49, size: 0x8, addend: 0x0, symName: __ZN5godot6ObjectD1Ev.cold.1, symObjAddr: 0x7F80, symBinAddr: 0x116370, symSize: 0x30 }
  - { offset: 0x4CFD4, size: 0x8, addend: 0x0, symName: __ZN5godot6ObjectD0Ev, symObjAddr: 0x22F0, symBinAddr: 0x2BA0, symSize: 0x60 }
  - { offset: 0x4D101, size: 0x8, addend: 0x0, symName: __ZN5godot6ObjectD0Ev.cold.1, symObjAddr: 0x7FB0, symBinAddr: 0x1163A0, symSize: 0x30 }
  - { offset: 0x4D188, size: 0x8, addend: 0x0, symName: __ZN5godot7WrappedD1Ev, symObjAddr: 0x2350, symBinAddr: 0x2C00, symSize: 0x70 }
  - { offset: 0x4D2F7, size: 0x8, addend: 0x0, symName: __ZN5godot7WrappedD1Ev.cold.1, symObjAddr: 0x7FE0, symBinAddr: 0x1163D0, symSize: 0x30 }
  - { offset: 0x4D36C, size: 0x8, addend: 0x0, symName: __ZN5godot7WrappedD0Ev, symObjAddr: 0x23C0, symBinAddr: 0x2C70, symSize: 0x60 }
  - { offset: 0x4D481, size: 0x8, addend: 0x0, symName: __ZN5godot7WrappedD0Ev.cold.1, symObjAddr: 0x8010, symBinAddr: 0x116400, symSize: 0x30 }
  - { offset: 0x4D562, size: 0x8, addend: 0x0, symName: __ZN5godot4ListINS_12PropertyInfoENS_16DefaultAllocatorEE5_Data5eraseEPNS3_7ElementE.cold.2, symObjAddr: 0x8070, symBinAddr: 0x116460, symSize: 0x30 }
  - { offset: 0x4D57A, size: 0x8, addend: 0x0, symName: __ZN5godot4ListINS_12PropertyInfoENS_16DefaultAllocatorEE5_Data5eraseEPNS3_7ElementE.cold.1, symObjAddr: 0x8040, symBinAddr: 0x116430, symSize: 0x30 }
  - { offset: 0x4D5CA, size: 0x8, addend: 0x0, symName: __ZN5godot5TimerD1Ev, symObjAddr: 0x24D0, symBinAddr: 0x2D60, symSize: 0x70 }
  - { offset: 0x4D781, size: 0x8, addend: 0x0, symName: __ZN5godot5TimerD1Ev.cold.1, symObjAddr: 0x80A0, symBinAddr: 0x116490, symSize: 0x30 }
  - { offset: 0x4D83A, size: 0x8, addend: 0x0, symName: __ZN5godot5TimerD0Ev, symObjAddr: 0x2540, symBinAddr: 0x2DD0, symSize: 0x60 }
  - { offset: 0x4D999, size: 0x8, addend: 0x0, symName: __ZN5godot5TimerD0Ev.cold.1, symObjAddr: 0x80D0, symBinAddr: 0x1164C0, symSize: 0x30 }
  - { offset: 0x4DA53, size: 0x8, addend: 0x0, symName: __ZN5godot8internal23EngineClassRegistrationINS_6ObjectEE8callbackEv, symObjAddr: 0x25A0, symBinAddr: 0x2E30, symSize: 0x30 }
  - { offset: 0x4DA9F, size: 0x8, addend: 0x0, symName: __ZN5godot8internal23EngineClassRegistrationINS_6ObjectEE8callbackEv.cold.1, symObjAddr: 0x8100, symBinAddr: 0x1164F0, symSize: 0x60 }
  - { offset: 0x4DB17, size: 0x8, addend: 0x0, symName: __ZN5godot6Object28_gde_binding_create_callbackEPvS1_, symObjAddr: 0x25E0, symBinAddr: 0x2E60, symSize: 0x40 }
  - { offset: 0x4DB98, size: 0x8, addend: 0x0, symName: __ZN5godot6Object26_gde_binding_free_callbackEPvS1_S1_, symObjAddr: 0x2620, symBinAddr: 0x2EA0, symSize: 0x30 }
  - { offset: 0x4DBF2, size: 0x8, addend: 0x0, symName: __ZN5godot6Object31_gde_binding_reference_callbackEPvS1_h, symObjAddr: 0x2650, symBinAddr: 0x2ED0, symSize: 0x10 }
  - { offset: 0x4DC38, size: 0x8, addend: 0x0, symName: __ZN5godot8internal23EngineClassRegistrationINS_16ClassDBSingletonEE8callbackEv, symObjAddr: 0x2660, symBinAddr: 0x2EE0, symSize: 0x30 }
  - { offset: 0x4DC84, size: 0x8, addend: 0x0, symName: __ZN5godot8internal23EngineClassRegistrationINS_16ClassDBSingletonEE8callbackEv.cold.1, symObjAddr: 0x8160, symBinAddr: 0x116550, symSize: 0x60 }
  - { offset: 0x4DCFC, size: 0x8, addend: 0x0, symName: __ZN5godot16ClassDBSingleton28_gde_binding_create_callbackEPvS1_, symObjAddr: 0x26A0, symBinAddr: 0x2F10, symSize: 0x50 }
  - { offset: 0x4DDA3, size: 0x8, addend: 0x0, symName: __ZN5godot16ClassDBSingleton26_gde_binding_free_callbackEPvS1_S1_, symObjAddr: 0x26F0, symBinAddr: 0x2F60, symSize: 0x30 }
  - { offset: 0x4DDFD, size: 0x8, addend: 0x0, symName: __ZN5godot16ClassDBSingleton31_gde_binding_reference_callbackEPvS1_h, symObjAddr: 0x2720, symBinAddr: 0x2F90, symSize: 0x10 }
  - { offset: 0x4DE43, size: 0x8, addend: 0x0, symName: __ZN5godot8internal23EngineClassRegistrationINS_10RefCountedEE8callbackEv, symObjAddr: 0x2730, symBinAddr: 0x2FA0, symSize: 0x30 }
  - { offset: 0x4DE8F, size: 0x8, addend: 0x0, symName: __ZN5godot8internal23EngineClassRegistrationINS_10RefCountedEE8callbackEv.cold.1, symObjAddr: 0x81C0, symBinAddr: 0x1165B0, symSize: 0x60 }
  - { offset: 0x4DF07, size: 0x8, addend: 0x0, symName: __ZN5godot10RefCounted28_gde_binding_create_callbackEPvS1_, symObjAddr: 0x2770, symBinAddr: 0x2FD0, symSize: 0x40 }
  - { offset: 0x4DFAE, size: 0x8, addend: 0x0, symName: __ZN5godot10RefCounted26_gde_binding_free_callbackEPvS1_S1_, symObjAddr: 0x27B0, symBinAddr: 0x3010, symSize: 0x30 }
  - { offset: 0x4E008, size: 0x8, addend: 0x0, symName: __ZN5godot10RefCounted31_gde_binding_reference_callbackEPvS1_h, symObjAddr: 0x27E0, symBinAddr: 0x3040, symSize: 0x10 }
  - { offset: 0x4E063, size: 0x8, addend: 0x0, symName: __ZN5godot10RefCountedD1Ev, symObjAddr: 0x27F0, symBinAddr: 0x3050, symSize: 0x70 }
  - { offset: 0x4E202, size: 0x8, addend: 0x0, symName: __ZN5godot10RefCountedD1Ev.cold.1, symObjAddr: 0x8220, symBinAddr: 0x116610, symSize: 0x30 }
  - { offset: 0x4E2A5, size: 0x8, addend: 0x0, symName: __ZN5godot10RefCountedD0Ev, symObjAddr: 0x2860, symBinAddr: 0x30C0, symSize: 0x60 }
  - { offset: 0x4E3EC, size: 0x8, addend: 0x0, symName: __ZN5godot10RefCountedD0Ev.cold.1, symObjAddr: 0x8250, symBinAddr: 0x116640, symSize: 0x30 }
  - { offset: 0x4E490, size: 0x8, addend: 0x0, symName: __ZN5godot8internal23EngineClassRegistrationINS_6LoggerEE8callbackEv, symObjAddr: 0x28C0, symBinAddr: 0x3120, symSize: 0x30 }
  - { offset: 0x4E4DC, size: 0x8, addend: 0x0, symName: __ZN5godot8internal23EngineClassRegistrationINS_6LoggerEE8callbackEv.cold.1, symObjAddr: 0x8280, symBinAddr: 0x116670, symSize: 0x60 }
  - { offset: 0x4E554, size: 0x8, addend: 0x0, symName: __ZN5godot6Logger28_gde_binding_create_callbackEPvS1_, symObjAddr: 0x2900, symBinAddr: 0x3150, symSize: 0x50 }
  - { offset: 0x4E621, size: 0x8, addend: 0x0, symName: __ZN5godot6Logger26_gde_binding_free_callbackEPvS1_S1_, symObjAddr: 0x2950, symBinAddr: 0x31A0, symSize: 0x30 }
  - { offset: 0x4E67B, size: 0x8, addend: 0x0, symName: __ZN5godot6Logger31_gde_binding_reference_callbackEPvS1_h, symObjAddr: 0x2980, symBinAddr: 0x31D0, symSize: 0x10 }
  - { offset: 0x4E6C1, size: 0x8, addend: 0x0, symName: __ZN5godot8internal23EngineClassRegistrationINS_13DisplayServerEE8callbackEv, symObjAddr: 0x2990, symBinAddr: 0x31E0, symSize: 0x30 }
  - { offset: 0x4E70D, size: 0x8, addend: 0x0, symName: __ZN5godot8internal23EngineClassRegistrationINS_13DisplayServerEE8callbackEv.cold.1, symObjAddr: 0x82E0, symBinAddr: 0x1166D0, symSize: 0x60 }
  - { offset: 0x4E785, size: 0x8, addend: 0x0, symName: __ZN5godot13DisplayServer28_gde_binding_create_callbackEPvS1_, symObjAddr: 0x29D0, symBinAddr: 0x3210, symSize: 0x50 }
  - { offset: 0x4E82C, size: 0x8, addend: 0x0, symName: __ZN5godot13DisplayServer26_gde_binding_free_callbackEPvS1_S1_, symObjAddr: 0x2A20, symBinAddr: 0x3260, symSize: 0x30 }
  - { offset: 0x4E886, size: 0x8, addend: 0x0, symName: __ZN5godot13DisplayServer31_gde_binding_reference_callbackEPvS1_h, symObjAddr: 0x2A50, symBinAddr: 0x3290, symSize: 0x10 }
  - { offset: 0x4E8CC, size: 0x8, addend: 0x0, symName: __ZN5godot8internal23EngineClassRegistrationINS_4NodeEE8callbackEv, symObjAddr: 0x2A60, symBinAddr: 0x32A0, symSize: 0x30 }
  - { offset: 0x4E918, size: 0x8, addend: 0x0, symName: __ZN5godot8internal23EngineClassRegistrationINS_4NodeEE8callbackEv.cold.1, symObjAddr: 0x8340, symBinAddr: 0x116730, symSize: 0x60 }
  - { offset: 0x4E990, size: 0x8, addend: 0x0, symName: __ZN5godot4Node28_gde_binding_create_callbackEPvS1_, symObjAddr: 0x2AA0, symBinAddr: 0x32D0, symSize: 0x50 }
  - { offset: 0x4EA37, size: 0x8, addend: 0x0, symName: __ZN5godot4Node26_gde_binding_free_callbackEPvS1_S1_, symObjAddr: 0x2AF0, symBinAddr: 0x3320, symSize: 0x30 }
  - { offset: 0x4EA91, size: 0x8, addend: 0x0, symName: __ZN5godot4Node31_gde_binding_reference_callbackEPvS1_h, symObjAddr: 0x2B20, symBinAddr: 0x3350, symSize: 0x10 }
  - { offset: 0x4EAD7, size: 0x8, addend: 0x0, symName: __ZN5godot8internal23EngineClassRegistrationINS_5TimerEE8callbackEv, symObjAddr: 0x2B30, symBinAddr: 0x3360, symSize: 0x30 }
  - { offset: 0x4EB23, size: 0x8, addend: 0x0, symName: __ZN5godot8internal23EngineClassRegistrationINS_5TimerEE8callbackEv.cold.1, symObjAddr: 0x83A0, symBinAddr: 0x116790, symSize: 0x60 }
  - { offset: 0x4EB9B, size: 0x8, addend: 0x0, symName: __ZN5godot5Timer28_gde_binding_create_callbackEPvS1_, symObjAddr: 0x2B70, symBinAddr: 0x3390, symSize: 0x40 }
  - { offset: 0x4EC68, size: 0x8, addend: 0x0, symName: __ZN5godot5Timer26_gde_binding_free_callbackEPvS1_S1_, symObjAddr: 0x2BB0, symBinAddr: 0x33D0, symSize: 0x30 }
  - { offset: 0x4ECC2, size: 0x8, addend: 0x0, symName: __ZN5godot5Timer31_gde_binding_reference_callbackEPvS1_h, symObjAddr: 0x2BE0, symBinAddr: 0x3400, symSize: 0x10 }
  - { offset: 0x4ED08, size: 0x8, addend: 0x0, symName: __ZN5godot8internal23EngineClassRegistrationINS_10ConfigFileEE8callbackEv, symObjAddr: 0x2BF0, symBinAddr: 0x3410, symSize: 0x30 }
  - { offset: 0x4ED54, size: 0x8, addend: 0x0, symName: __ZN5godot8internal23EngineClassRegistrationINS_10ConfigFileEE8callbackEv.cold.1, symObjAddr: 0x8400, symBinAddr: 0x1167F0, symSize: 0x60 }
  - { offset: 0x4EDCC, size: 0x8, addend: 0x0, symName: __ZN5godot10ConfigFile28_gde_binding_create_callbackEPvS1_, symObjAddr: 0x2C30, symBinAddr: 0x3440, symSize: 0x40 }
  - { offset: 0x4EE99, size: 0x8, addend: 0x0, symName: __ZN5godot10ConfigFile26_gde_binding_free_callbackEPvS1_S1_, symObjAddr: 0x2C70, symBinAddr: 0x3480, symSize: 0x30 }
  - { offset: 0x4EEF3, size: 0x8, addend: 0x0, symName: __ZN5godot10ConfigFile31_gde_binding_reference_callbackEPvS1_h, symObjAddr: 0x2CA0, symBinAddr: 0x34B0, symSize: 0x10 }
  - { offset: 0x4EF4E, size: 0x8, addend: 0x0, symName: __ZN5godot10ConfigFileD1Ev, symObjAddr: 0x2CB0, symBinAddr: 0x34C0, symSize: 0x70 }
  - { offset: 0x4F105, size: 0x8, addend: 0x0, symName: __ZN5godot10ConfigFileD1Ev.cold.1, symObjAddr: 0x8460, symBinAddr: 0x116850, symSize: 0x30 }
  - { offset: 0x4F1BE, size: 0x8, addend: 0x0, symName: __ZN5godot10ConfigFileD0Ev, symObjAddr: 0x2D20, symBinAddr: 0x3530, symSize: 0x60 }
  - { offset: 0x4F31D, size: 0x8, addend: 0x0, symName: __ZN5godot10ConfigFileD0Ev.cold.1, symObjAddr: 0x8490, symBinAddr: 0x116880, symSize: 0x30 }
  - { offset: 0x4F3D7, size: 0x8, addend: 0x0, symName: __ZN5godot8internal23EngineClassRegistrationINS_15ScriptBacktraceEE8callbackEv, symObjAddr: 0x2D80, symBinAddr: 0x3590, symSize: 0x30 }
  - { offset: 0x4F423, size: 0x8, addend: 0x0, symName: __ZN5godot8internal23EngineClassRegistrationINS_15ScriptBacktraceEE8callbackEv.cold.1, symObjAddr: 0x84C0, symBinAddr: 0x1168B0, symSize: 0x60 }
  - { offset: 0x4F49B, size: 0x8, addend: 0x0, symName: __ZN5godot15ScriptBacktrace28_gde_binding_create_callbackEPvS1_, symObjAddr: 0x2DC0, symBinAddr: 0x35C0, symSize: 0x40 }
  - { offset: 0x4F568, size: 0x8, addend: 0x0, symName: __ZN5godot15ScriptBacktrace26_gde_binding_free_callbackEPvS1_S1_, symObjAddr: 0x2E00, symBinAddr: 0x3600, symSize: 0x30 }
  - { offset: 0x4F5C2, size: 0x8, addend: 0x0, symName: __ZN5godot15ScriptBacktrace31_gde_binding_reference_callbackEPvS1_h, symObjAddr: 0x2E30, symBinAddr: 0x3630, symSize: 0x10 }
  - { offset: 0x4F61D, size: 0x8, addend: 0x0, symName: __ZN5godot15ScriptBacktraceD1Ev, symObjAddr: 0x2E40, symBinAddr: 0x3640, symSize: 0x70 }
  - { offset: 0x4F7D4, size: 0x8, addend: 0x0, symName: __ZN5godot15ScriptBacktraceD1Ev.cold.1, symObjAddr: 0x8520, symBinAddr: 0x116910, symSize: 0x30 }
  - { offset: 0x4F88D, size: 0x8, addend: 0x0, symName: __ZN5godot15ScriptBacktraceD0Ev, symObjAddr: 0x2EB0, symBinAddr: 0x36B0, symSize: 0x60 }
  - { offset: 0x4F9EC, size: 0x8, addend: 0x0, symName: __ZN5godot15ScriptBacktraceD0Ev.cold.1, symObjAddr: 0x8550, symBinAddr: 0x116940, symSize: 0x30 }
  - { offset: 0x4FAA6, size: 0x8, addend: 0x0, symName: __ZN5godot8internal23EngineClassRegistrationINS_2OSEE8callbackEv, symObjAddr: 0x2F10, symBinAddr: 0x3710, symSize: 0x30 }
  - { offset: 0x4FAF2, size: 0x8, addend: 0x0, symName: __ZN5godot8internal23EngineClassRegistrationINS_2OSEE8callbackEv.cold.1, symObjAddr: 0x8580, symBinAddr: 0x116970, symSize: 0x60 }
  - { offset: 0x4FB6A, size: 0x8, addend: 0x0, symName: __ZN5godot2OS28_gde_binding_create_callbackEPvS1_, symObjAddr: 0x2F50, symBinAddr: 0x3740, symSize: 0x50 }
  - { offset: 0x4FC11, size: 0x8, addend: 0x0, symName: __ZN5godot2OS26_gde_binding_free_callbackEPvS1_S1_, symObjAddr: 0x2FA0, symBinAddr: 0x3790, symSize: 0x30 }
  - { offset: 0x4FC6B, size: 0x8, addend: 0x0, symName: __ZN5godot2OS31_gde_binding_reference_callbackEPvS1_h, symObjAddr: 0x2FD0, symBinAddr: 0x37C0, symSize: 0x10 }
  - { offset: 0x4FCB1, size: 0x8, addend: 0x0, symName: __ZN5godot8internal23EngineClassRegistrationINS_15ProjectSettingsEE8callbackEv, symObjAddr: 0x2FE0, symBinAddr: 0x37D0, symSize: 0x30 }
  - { offset: 0x4FCFD, size: 0x8, addend: 0x0, symName: __ZN5godot8internal23EngineClassRegistrationINS_15ProjectSettingsEE8callbackEv.cold.1, symObjAddr: 0x85E0, symBinAddr: 0x1169D0, symSize: 0x60 }
  - { offset: 0x4FD75, size: 0x8, addend: 0x0, symName: __ZN5godot15ProjectSettings28_gde_binding_create_callbackEPvS1_, symObjAddr: 0x3020, symBinAddr: 0x3800, symSize: 0x50 }
  - { offset: 0x4FE1C, size: 0x8, addend: 0x0, symName: __ZN5godot15ProjectSettings26_gde_binding_free_callbackEPvS1_S1_, symObjAddr: 0x3070, symBinAddr: 0x3850, symSize: 0x30 }
  - { offset: 0x4FE76, size: 0x8, addend: 0x0, symName: __ZN5godot15ProjectSettings31_gde_binding_reference_callbackEPvS1_h, symObjAddr: 0x30A0, symBinAddr: 0x3880, symSize: 0x10 }
  - { offset: 0x4FEBC, size: 0x8, addend: 0x0, symName: __ZN5godot8internal23EngineClassRegistrationINS_14ResourceLoaderEE8callbackEv, symObjAddr: 0x30B0, symBinAddr: 0x3890, symSize: 0x30 }
  - { offset: 0x4FF08, size: 0x8, addend: 0x0, symName: __ZN5godot8internal23EngineClassRegistrationINS_14ResourceLoaderEE8callbackEv.cold.1, symObjAddr: 0x8640, symBinAddr: 0x116A30, symSize: 0x60 }
  - { offset: 0x4FF80, size: 0x8, addend: 0x0, symName: __ZN5godot14ResourceLoader28_gde_binding_create_callbackEPvS1_, symObjAddr: 0x30F0, symBinAddr: 0x38C0, symSize: 0x50 }
  - { offset: 0x50027, size: 0x8, addend: 0x0, symName: __ZN5godot14ResourceLoader26_gde_binding_free_callbackEPvS1_S1_, symObjAddr: 0x3140, symBinAddr: 0x3910, symSize: 0x30 }
  - { offset: 0x50081, size: 0x8, addend: 0x0, symName: __ZN5godot14ResourceLoader31_gde_binding_reference_callbackEPvS1_h, symObjAddr: 0x3170, symBinAddr: 0x3940, symSize: 0x10 }
  - { offset: 0x500C7, size: 0x8, addend: 0x0, symName: __ZN5godot8internal23EngineClassRegistrationINS_8ResourceEE8callbackEv, symObjAddr: 0x3180, symBinAddr: 0x3950, symSize: 0x30 }
  - { offset: 0x50113, size: 0x8, addend: 0x0, symName: __ZN5godot8internal23EngineClassRegistrationINS_8ResourceEE8callbackEv.cold.1, symObjAddr: 0x86A0, symBinAddr: 0x116A90, symSize: 0x60 }
  - { offset: 0x5018B, size: 0x8, addend: 0x0, symName: __ZN5godot8Resource28_gde_binding_create_callbackEPvS1_, symObjAddr: 0x31C0, symBinAddr: 0x3980, symSize: 0x50 }
  - { offset: 0x50258, size: 0x8, addend: 0x0, symName: __ZN5godot8Resource26_gde_binding_free_callbackEPvS1_S1_, symObjAddr: 0x3210, symBinAddr: 0x39D0, symSize: 0x30 }
  - { offset: 0x502B2, size: 0x8, addend: 0x0, symName: __ZN5godot8Resource31_gde_binding_reference_callbackEPvS1_h, symObjAddr: 0x3240, symBinAddr: 0x3A00, symSize: 0x10 }
  - { offset: 0x502F8, size: 0x8, addend: 0x0, symName: __ZN5godot8internal23EngineClassRegistrationINS_6ScriptEE8callbackEv, symObjAddr: 0x3250, symBinAddr: 0x3A10, symSize: 0x30 }
  - { offset: 0x50344, size: 0x8, addend: 0x0, symName: __ZN5godot8internal23EngineClassRegistrationINS_6ScriptEE8callbackEv.cold.1, symObjAddr: 0x8700, symBinAddr: 0x116AF0, symSize: 0x60 }
  - { offset: 0x503BC, size: 0x8, addend: 0x0, symName: __ZN5godot6Script28_gde_binding_create_callbackEPvS1_, symObjAddr: 0x3290, symBinAddr: 0x3A40, symSize: 0x40 }
  - { offset: 0x504AF, size: 0x8, addend: 0x0, symName: __ZN5godot6Script26_gde_binding_free_callbackEPvS1_S1_, symObjAddr: 0x32D0, symBinAddr: 0x3A80, symSize: 0x30 }
  - { offset: 0x50509, size: 0x8, addend: 0x0, symName: __ZN5godot6Script31_gde_binding_reference_callbackEPvS1_h, symObjAddr: 0x3300, symBinAddr: 0x3AB0, symSize: 0x10 }
  - { offset: 0x50580, size: 0x8, addend: 0x0, symName: __ZN5godot6ScriptD1Ev, symObjAddr: 0x3310, symBinAddr: 0x3AC0, symSize: 0x70 }
  - { offset: 0x5074F, size: 0x8, addend: 0x0, symName: __ZN5godot6ScriptD1Ev.cold.1, symObjAddr: 0x8760, symBinAddr: 0x116B50, symSize: 0x30 }
  - { offset: 0x5081E, size: 0x8, addend: 0x0, symName: __ZN5godot6ScriptD0Ev, symObjAddr: 0x3380, symBinAddr: 0x3B30, symSize: 0x60 }
  - { offset: 0x50995, size: 0x8, addend: 0x0, symName: __ZN5godot6ScriptD0Ev.cold.1, symObjAddr: 0x8790, symBinAddr: 0x116B80, symSize: 0x30 }
  - { offset: 0x50BC8, size: 0x8, addend: 0x0, symName: __ZNKSt3__121__murmur2_or_cityhashImLm64EEclB8nn190102EPKvm, symObjAddr: 0x3630, symBinAddr: 0x3D90, symSize: 0x4B0 }
  - { offset: 0x51EBC, size: 0x8, addend: 0x0, symName: __ZNSt3__112basic_stringIcNS_11char_traitsIcEENS_9allocatorIcEEE25__init_copy_ctor_externalEPKcm, symObjAddr: 0x4090, symBinAddr: 0x4740, symSize: 0x80 }
  - { offset: 0x52145, size: 0x8, addend: 0x0, symName: __ZNSt3__112__hash_tableINS_17__hash_value_typeINS_4pairINS_12basic_stringIcNS_11char_traitsIcEENS_9allocatorIcEEEEiEENS_6chrono10time_pointINSA_12steady_clockENSA_8durationIxNS_5ratioILl1ELl1000000000EEEEEEEEENS_22__unordered_map_hasherIS9_SI_N12LegacyLogger14SourceLineHashENS_8equal_toIS9_EELb1EEENS_21__unordered_map_equalIS9_SI_SN_SL_Lb1EEENS6_ISI_EEE11__do_rehashILb1EEEvm, symObjAddr: 0x4110, symBinAddr: 0x47C0, symSize: 0x260 }
  - { offset: 0x5273E, size: 0x8, addend: 0x0, symName: __ZN5godot16UtilityFunctions8printerrIJNS_7VariantEA200_cA10_ciA2_cEEEvRKS2_DpRKT_, symObjAddr: 0x4660, symBinAddr: 0x4D40, symSize: 0x170 }
  - { offset: 0x528EB, size: 0x8, addend: 0x0, symName: __ZN5godot16UtilityFunctions5printIJNS_7VariantEA200_cA10_ciA2_cEEEvRKS2_DpRKT_, symObjAddr: 0x44F0, symBinAddr: 0x4BD0, symSize: 0x170 }
  - { offset: 0x52B19, size: 0x8, addend: 0x0, symName: __ZN5godot16UtilityFunctions8printerrIJNS_7VariantEA15_cPKcA3_cA10_cS5_A2_cS7_iS8_S3_S5_S8_A16_cS5_EEEvRKS2_DpRKT_, symObjAddr: 0x4D30, symBinAddr: 0x5410, symSize: 0x360 }
  - { offset: 0x52F1A, size: 0x8, addend: 0x0, symName: __ZN5godot16UtilityFunctions5printIJNS_7VariantEA15_cPKcA3_cA10_cS5_A2_cS7_iS8_S3_S5_S8_A16_cS5_EEEvRKS2_DpRKT_, symObjAddr: 0x49D0, symBinAddr: 0x50B0, symSize: 0x360 }
  - { offset: 0x53375, size: 0x8, addend: 0x0, symName: __ZNSt3__15arrayIN5godot7VariantELm16EED2Ev, symObjAddr: 0x5090, symBinAddr: 0x5770, symSize: 0xC0 }
  - { offset: 0x5352E, size: 0x8, addend: 0x0, symName: __ZN5godot7CowDataIN11SentryEvent10StackFrameEE6resizeILb0EEENS_5ErrorEx.cold.4, symObjAddr: 0x8850, symBinAddr: 0x116C40, symSize: 0x30 }
  - { offset: 0x53546, size: 0x8, addend: 0x0, symName: __ZN5godot7CowDataIN11SentryEvent10StackFrameEE6resizeILb0EEENS_5ErrorEx.cold.5, symObjAddr: 0x8880, symBinAddr: 0x116C70, symSize: 0x30 }
  - { offset: 0x5355E, size: 0x8, addend: 0x0, symName: __ZN5godot7CowDataIN11SentryEvent10StackFrameEE6resizeILb0EEENS_5ErrorEx.cold.2, symObjAddr: 0x87F0, symBinAddr: 0x116BE0, symSize: 0x30 }
  - { offset: 0x5358D, size: 0x8, addend: 0x0, symName: __ZN5godot7CowDataIN11SentryEvent10StackFrameEE6resizeILb0EEENS_5ErrorEx.cold.1, symObjAddr: 0x87C0, symBinAddr: 0x116BB0, symSize: 0x30 }
  - { offset: 0x535BC, size: 0x8, addend: 0x0, symName: __ZN5godot7CowDataIN11SentryEvent10StackFrameEE6resizeILb0EEENS_5ErrorEx.cold.3, symObjAddr: 0x8820, symBinAddr: 0x116C10, symSize: 0x30 }
  - { offset: 0x535D4, size: 0x8, addend: 0x0, symName: __ZN5godot7CowDataIN11SentryEvent10StackFrameEE6_unrefEv, symObjAddr: 0x54C0, symBinAddr: 0x5B70, symSize: 0x70 }
  - { offset: 0x53711, size: 0x8, addend: 0x0, symName: __ZN5godot7CowDataIN11SentryEvent10StackFrameEE14_copy_on_writeEv.cold.1, symObjAddr: 0x88B0, symBinAddr: 0x116CA0, symSize: 0x100 }
  - { offset: 0x53E9A, size: 0x8, addend: 0x0, symName: __ZNSt3__114__split_bufferIPNS_6chrono10time_pointINS1_12steady_clockENS1_8durationIxNS_5ratioILl1ELl1000000000EEEEEEENS_9allocatorIS9_EEE9push_backEOS9_, symObjAddr: 0x5D90, symBinAddr: 0x6140, symSize: 0x1E0 }
  - { offset: 0x54385, size: 0x8, addend: 0x0, symName: __ZNSt3__114__split_bufferIPNS_6chrono10time_pointINS1_12steady_clockENS1_8durationIxNS_5ratioILl1ELl1000000000EEEEEEENS_9allocatorIS9_EEE10push_frontEOS9_, symObjAddr: 0x5F70, symBinAddr: 0x6320, symSize: 0x1D0 }
  - { offset: 0x5488D, size: 0x8, addend: 0x0, symName: __ZN5godot6Object7cast_toINS_6ScriptEEEPT_PS0_.cold.1, symObjAddr: 0x89B0, symBinAddr: 0x116DA0, symSize: 0x60 }
  - { offset: 0x54C67, size: 0x8, addend: 0x0, symName: __ZNK5godot27CallableCustomMethodPointerI12LegacyLoggerJEE10get_objectEv, symObjAddr: 0x6B40, symBinAddr: 0x70B0, symSize: 0x10 }
  - { offset: 0x54C8E, size: 0x8, addend: 0x0, symName: __ZNK5godot27CallableCustomMethodPointerI12LegacyLoggerJEE18get_argument_countERb, symObjAddr: 0x6B50, symBinAddr: 0x70C0, symSize: 0x10 }
  - { offset: 0x54CC1, size: 0x8, addend: 0x0, symName: __ZNK5godot27CallableCustomMethodPointerI12LegacyLoggerJEE4callEPPKNS_7VariantEiRS3_R20GDExtensionCallError, symObjAddr: 0x6B60, symBinAddr: 0x70D0, symSize: 0x40 }
  - { offset: 0x54D83, size: 0x8, addend: 0x0, symName: __ZN5godot27CallableCustomMethodPointerI12LegacyLoggerJEED1Ev, symObjAddr: 0x6B90, symBinAddr: 0x7110, symSize: 0x10 }
  - { offset: 0x54DAE, size: 0x8, addend: 0x0, symName: __ZN5godot27CallableCustomMethodPointerI12LegacyLoggerJEED0Ev, symObjAddr: 0x6BA0, symBinAddr: 0x7120, symSize: 0x10 }
  - { offset: 0x54E3C, size: 0x8, addend: 0x0, symName: __ZNSt3__114basic_ifstreamIcNS_11char_traitsIcEEED1Ev, symObjAddr: 0x6BB0, symBinAddr: 0x7130, symSize: 0x60 }
  - { offset: 0x54F42, size: 0x8, addend: 0x0, symName: __ZNSt3__113basic_filebufIcNS_11char_traitsIcEEE4syncEv, symObjAddr: 0x7380, symBinAddr: 0x7880, symSize: 0x2D0 }
  - { offset: 0x5522A, size: 0x8, addend: 0x0, symName: __ZNSt3__114basic_ifstreamIcNS_11char_traitsIcEEED0Ev, symObjAddr: 0x6C80, symBinAddr: 0x7190, symSize: 0x60 }
  - { offset: 0x55264, size: 0x8, addend: 0x0, symName: __ZTv0_n24_NSt3__114basic_ifstreamIcNS_11char_traitsIcEEED1Ev, symObjAddr: 0x6CA0, symBinAddr: 0x71F0, symSize: 0x70 }
  - { offset: 0x552A5, size: 0x8, addend: 0x0, symName: __ZTv0_n24_NSt3__114basic_ifstreamIcNS_11char_traitsIcEEED0Ev, symObjAddr: 0x6CC0, symBinAddr: 0x7260, symSize: 0x70 }
  - { offset: 0x55327, size: 0x8, addend: 0x0, symName: __ZNSt3__113basic_filebufIcNS_11char_traitsIcEEED1Ev, symObjAddr: 0x6DE0, symBinAddr: 0x73C0, symSize: 0x10 }
  - { offset: 0x553F9, size: 0x8, addend: 0x0, symName: __ZNSt3__113basic_filebufIcNS_11char_traitsIcEEED0Ev, symObjAddr: 0x6E60, symBinAddr: 0x73D0, symSize: 0x20 }
  - { offset: 0x55529, size: 0x8, addend: 0x0, symName: __ZNSt3__113basic_filebufIcNS_11char_traitsIcEEE5imbueERKNS_6localeE, symObjAddr: 0x6EF0, symBinAddr: 0x73F0, symSize: 0x100 }
  - { offset: 0x55635, size: 0x8, addend: 0x0, symName: __ZNSt3__113basic_filebufIcNS_11char_traitsIcEEE6setbufEPcl, symObjAddr: 0x6FF0, symBinAddr: 0x74F0, symSize: 0x150 }
  - { offset: 0x55706, size: 0x8, addend: 0x0, symName: __ZNSt3__113basic_filebufIcNS_11char_traitsIcEEE7seekoffExNS_8ios_base7seekdirEj, symObjAddr: 0x7140, symBinAddr: 0x7640, symSize: 0x140 }
  - { offset: 0x558CF, size: 0x8, addend: 0x0, symName: __ZNSt3__113basic_filebufIcNS_11char_traitsIcEEE7seekposENS_4fposI11__mbstate_tEEj, symObjAddr: 0x7280, symBinAddr: 0x7780, symSize: 0x100 }
  - { offset: 0x55B49, size: 0x8, addend: 0x0, symName: __ZNSt3__113basic_filebufIcNS_11char_traitsIcEEE9underflowEv, symObjAddr: 0x7660, symBinAddr: 0x7B50, symSize: 0x2E0 }
  - { offset: 0x55F42, size: 0x8, addend: 0x0, symName: __ZNSt3__113basic_filebufIcNS_11char_traitsIcEEE9pbackfailEi, symObjAddr: 0x7950, symBinAddr: 0x7E30, symSize: 0x50 }
  - { offset: 0x5610A, size: 0x8, addend: 0x0, symName: __ZNSt3__113basic_filebufIcNS_11char_traitsIcEEE8overflowEi, symObjAddr: 0x79A0, symBinAddr: 0x7E80, symSize: 0x230 }
  - { offset: 0x5661F, size: 0x8, addend: 0x0, symName: __ZNSt3__15dequeINS_6chrono10time_pointINS1_12steady_clockENS1_8durationIxNS_5ratioILl1ELl1000000000EEEEEEENS_9allocatorIS8_EEED2B8nn190102Ev, symObjAddr: 0x7CF0, symBinAddr: 0x8280, symSize: 0xD0 }
  - { offset: 0x56A65, size: 0x8, addend: 0x0, symName: __ZN12LegacyLoggerD2Ev.cold.1, symObjAddr: 0x8A10, symBinAddr: 0x116E00, symSize: 0x2A }
  - { offset: 0x5FDF5, size: 0x8, addend: 0x0, symName: __ZN5godot25call_with_ptr_args_helperI12SentryLoggerJRKNS_6StringES4_iS4_S4_biRKNS_10TypedArrayINS_15ScriptBacktraceEEEEJLm0ELm1ELm2ELm3ELm4ELm5ELm6ELm7EEEEvPT_MSA_FvDpT0_EPKPKvNS_13IndexSequenceIJXspT1_EEEE, symObjAddr: 0x8850, symBinAddr: 0x11500, symSize: 0x1A0 }
  - { offset: 0x7D638, size: 0x8, addend: 0x0, symName: __ZNSt3__127__tree_balance_after_insertB8nn190102IPNS_16__tree_node_baseIPvEEEEvT_S5_, symObjAddr: 0x3930, symBinAddr: 0xB390, symSize: 0x180 }
  - { offset: 0x7EECF, size: 0x8, addend: 0x0, symName: __ZN5godot6Engine22_gde_binding_callbacksE, symObjAddr: 0xBA10, symBinAddr: 0x1D7490, symSize: 0x0 }
  - { offset: 0x7EEE3, size: 0x8, addend: 0x0, symName: __ZN5godot8MainLoop22_gde_binding_callbacksE, symObjAddr: 0xBA28, symBinAddr: 0x1D74A8, symSize: 0x0 }
  - { offset: 0x7EEF7, size: 0x8, addend: 0x0, symName: __ZN5godot9SceneTree22_gde_binding_callbacksE, symObjAddr: 0xBA40, symBinAddr: 0x1D74C0, symSize: 0x0 }
  - { offset: 0x7EF0B, size: 0x8, addend: 0x0, symName: __ZN5godot8Viewport22_gde_binding_callbacksE, symObjAddr: 0xBAB8, symBinAddr: 0x1D7538, symSize: 0x0 }
  - { offset: 0x7EF1F, size: 0x8, addend: 0x0, symName: __ZN5godot6Window22_gde_binding_callbacksE, symObjAddr: 0xBB78, symBinAddr: 0x1D75F8, symSize: 0x0 }
  - { offset: 0x7EF33, size: 0x8, addend: 0x0, symName: __ZN18SentryLoggerLimits22_gde_binding_callbacksE, symObjAddr: 0xBB90, symBinAddr: 0x1D7610, symSize: 0x0 }
  - { offset: 0x7F352, size: 0x8, addend: 0x0, symName: __ZN13SentryOptions22_gde_binding_callbacksE, symObjAddr: 0xBBE8, symBinAddr: 0x1D7668, symSize: 0x0 }
  - { offset: 0x7F37F, size: 0x8, addend: 0x0, symName: __ZN13RuntimeConfig22_gde_binding_callbacksE, symObjAddr: 0xBC00, symBinAddr: 0x1D7680, symSize: 0x0 }
  - { offset: 0x7F398, size: 0x8, addend: 0x0, symName: __ZN19SentryConfiguration22_gde_binding_callbacksE, symObjAddr: 0xBC18, symBinAddr: 0x1D7698, symSize: 0x0 }
  - { offset: 0x7FB32, size: 0x8, addend: 0x0, symName: __ZN10SentryUser22_gde_binding_callbacksE, symObjAddr: 0xBCD8, symBinAddr: 0x1D7758, symSize: 0x0 }
  - { offset: 0x7FF5E, size: 0x8, addend: 0x0, symName: __ZN9SentrySDK22_gde_binding_callbacksE, symObjAddr: 0xBD30, symBinAddr: 0x1D77B0, symSize: 0x0 }
  - { offset: 0x80D8E, size: 0x8, addend: 0x0, symName: __ZN11SentryEvent22_gde_binding_callbacksE, symObjAddr: 0xBD48, symBinAddr: 0x1D77C8, symSize: 0x0 }
  - { offset: 0x81308, size: 0x8, addend: 0x0, symName: __ZN13DisabledEvent22_gde_binding_callbacksE, symObjAddr: 0xBD60, symBinAddr: 0x1D77E0, symSize: 0x0 }
  - { offset: 0x818CA, size: 0x8, addend: 0x0, symName: __ZN12SentryLogger22_gde_binding_callbacksE, symObjAddr: 0xBE70, symBinAddr: 0x1D78F0, symSize: 0x0 }
  - { offset: 0x818DE, size: 0x8, addend: 0x0, symName: __ZN11NativeEvent22_gde_binding_callbacksE, symObjAddr: 0xBE88, symBinAddr: 0x1D7908, symSize: 0x0 }
  - { offset: 0x83E1B, size: 0x8, addend: 0x0, symName: ___cxx_global_var_init, symObjAddr: 0xAFE0, symBinAddr: 0x11FE0, symSize: 0x40 }
  - { offset: 0x83EA2, size: 0x8, addend: 0x0, symName: ___cxx_global_var_init.1, symObjAddr: 0xB020, symBinAddr: 0x12020, symSize: 0x40 }
  - { offset: 0x83F29, size: 0x8, addend: 0x0, symName: ___cxx_global_var_init.2, symObjAddr: 0xB060, symBinAddr: 0x12060, symSize: 0x40 }
  - { offset: 0x83FB0, size: 0x8, addend: 0x0, symName: ___cxx_global_var_init.3, symObjAddr: 0xB0A0, symBinAddr: 0x120A0, symSize: 0x40 }
  - { offset: 0x84037, size: 0x8, addend: 0x0, symName: ___cxx_global_var_init.4, symObjAddr: 0xB0E0, symBinAddr: 0x120E0, symSize: 0x40 }
  - { offset: 0x840BE, size: 0x8, addend: 0x0, symName: ___cxx_global_var_init.5, symObjAddr: 0xB120, symBinAddr: 0x12120, symSize: 0x40 }
  - { offset: 0x84145, size: 0x8, addend: 0x0, symName: ___cxx_global_var_init.6, symObjAddr: 0xB160, symBinAddr: 0x12160, symSize: 0x40 }
  - { offset: 0x841CC, size: 0x8, addend: 0x0, symName: ___cxx_global_var_init.7, symObjAddr: 0xB1A0, symBinAddr: 0x121A0, symSize: 0x40 }
  - { offset: 0x84253, size: 0x8, addend: 0x0, symName: ___cxx_global_var_init.8, symObjAddr: 0xB1E0, symBinAddr: 0x121E0, symSize: 0x40 }
  - { offset: 0x842DA, size: 0x8, addend: 0x0, symName: ___cxx_global_var_init.9, symObjAddr: 0xB220, symBinAddr: 0x12220, symSize: 0x40 }
  - { offset: 0x84361, size: 0x8, addend: 0x0, symName: ___cxx_global_var_init.10, symObjAddr: 0xB260, symBinAddr: 0x12260, symSize: 0x40 }
  - { offset: 0x843E8, size: 0x8, addend: 0x0, symName: ___cxx_global_var_init.11, symObjAddr: 0xB2A0, symBinAddr: 0x122A0, symSize: 0x40 }
  - { offset: 0x8446F, size: 0x8, addend: 0x0, symName: ___cxx_global_var_init.12, symObjAddr: 0xB2E0, symBinAddr: 0x122E0, symSize: 0x3A }
  - { offset: 0x845D5, size: 0x8, addend: 0x0, symName: __Z17initialize_moduleN5godot25ModuleInitializationLevelE, symObjAddr: 0x0, symBinAddr: 0x86D0, symSize: 0x170 }
  - { offset: 0x848EE, size: 0x8, addend: 0x0, symName: __ZN5godot7ClassDB15_register_classI18SentryLoggerLimitsLb0EEEvbbb, symObjAddr: 0x1290, symBinAddr: 0x8E10, symSize: 0x540 }
  - { offset: 0x850E0, size: 0x8, addend: 0x0, symName: __ZN5godot7ClassDB15_register_classI13SentryOptionsLb0EEEvbbb, symObjAddr: 0x4A20, symBinAddr: 0xC4A0, symSize: 0x540 }
  - { offset: 0x858D2, size: 0x8, addend: 0x0, symName: __ZN5godot7ClassDB15_register_classI13RuntimeConfigLb0EEEvbbb, symObjAddr: 0x50F0, symBinAddr: 0xCDA0, symSize: 0x530 }
  - { offset: 0x860C4, size: 0x8, addend: 0x0, symName: __ZN5godot7ClassDB15_register_classI19SentryConfigurationLb0EEEvbbb, symObjAddr: 0x57C0, symBinAddr: 0xD690, symSize: 0x540 }
  - { offset: 0x868B6, size: 0x8, addend: 0x0, symName: __ZN5godot7ClassDB15_register_classI10SentryUserLb0EEEvbbb, symObjAddr: 0x6120, symBinAddr: 0xE280, symSize: 0x540 }
  - { offset: 0x870A8, size: 0x8, addend: 0x0, symName: __ZN5godot7ClassDB15_register_classI9SentrySDKLb0EEEvbbb, symObjAddr: 0x6960, symBinAddr: 0xED60, symSize: 0x540 }
  - { offset: 0x8789A, size: 0x8, addend: 0x0, symName: __ZN5godot7ClassDB15_register_classI11SentryEventLb1EEEvbbb, symObjAddr: 0x7030, symBinAddr: 0xF660, symSize: 0x540 }
  - { offset: 0x8808C, size: 0x8, addend: 0x0, symName: __ZN5godot7ClassDB15_register_classI13DisabledEventLb0EEEvbbb, symObjAddr: 0x76A0, symBinAddr: 0xFE60, symSize: 0x540 }
  - { offset: 0x88894, size: 0x8, addend: 0x0, symName: __ZN5godot7ClassDB15_register_classI12SentryLoggerLb0EEEvbbb, symObjAddr: 0x8090, symBinAddr: 0x10B10, symSize: 0x540 }
  - { offset: 0x89094, size: 0x8, addend: 0x0, symName: __ZN5godot7ClassDB15_register_classI11NativeEventLb0EEEvbbb, symObjAddr: 0x8A70, symBinAddr: 0x11720, symSize: 0x540 }
  - { offset: 0x898A1, size: 0x8, addend: 0x0, symName: __Z17initialize_moduleN5godot25ModuleInitializationLevelE.cold.1, symObjAddr: 0x9100, symBinAddr: 0x116E30, symSize: 0x60 }
  - { offset: 0x89911, size: 0x8, addend: 0x0, symName: __Z19uninitialize_moduleN5godot25ModuleInitializationLevelE, symObjAddr: 0x160, symBinAddr: 0x8840, symSize: 0x30 }
  - { offset: 0x8997D, size: 0x8, addend: 0x0, symName: _gdextension_init, symObjAddr: 0x190, symBinAddr: 0x8870, symSize: 0x60 }
  - { offset: 0x899DE, size: 0x8, addend: 0x0, symName: __ZN5godot8internal23EngineClassRegistrationINS_6ObjectEE8callbackEv.cold.1, symObjAddr: 0x9160, symBinAddr: 0x116E90, symSize: 0x60 }
  - { offset: 0x89BA6, size: 0x8, addend: 0x0, symName: __ZN5godot6ObjectD1Ev.cold.1, symObjAddr: 0x91C0, symBinAddr: 0x116EF0, symSize: 0x30 }
  - { offset: 0x89C31, size: 0x8, addend: 0x0, symName: __ZN5godot6ObjectD0Ev.cold.1, symObjAddr: 0x91F0, symBinAddr: 0x116F20, symSize: 0x30 }
  - { offset: 0x89CB8, size: 0x8, addend: 0x0, symName: __ZN5godot7WrappedD1Ev.cold.1, symObjAddr: 0x9220, symBinAddr: 0x116F50, symSize: 0x30 }
  - { offset: 0x89D2D, size: 0x8, addend: 0x0, symName: __ZN5godot7WrappedD0Ev.cold.1, symObjAddr: 0x9250, symBinAddr: 0x116F80, symSize: 0x30 }
  - { offset: 0x89E0E, size: 0x8, addend: 0x0, symName: __ZN5godot4ListINS_12PropertyInfoENS_16DefaultAllocatorEE5_Data5eraseEPNS3_7ElementE.cold.2, symObjAddr: 0x92B0, symBinAddr: 0x116FE0, symSize: 0x30 }
  - { offset: 0x89E26, size: 0x8, addend: 0x0, symName: __ZN5godot4ListINS_12PropertyInfoENS_16DefaultAllocatorEE5_Data5eraseEPNS3_7ElementE.cold.1, symObjAddr: 0x9280, symBinAddr: 0x116FB0, symSize: 0x30 }
  - { offset: 0x89E45, size: 0x8, addend: 0x0, symName: __ZN5godot8internal23EngineClassRegistrationINS_16ClassDBSingletonEE8callbackEv.cold.1, symObjAddr: 0x92E0, symBinAddr: 0x117010, symSize: 0x60 }
  - { offset: 0x89E7A, size: 0x8, addend: 0x0, symName: __ZN5godot8internal23EngineClassRegistrationINS_10RefCountedEE8callbackEv.cold.1, symObjAddr: 0x9340, symBinAddr: 0x117070, symSize: 0x60 }
  - { offset: 0x89EC4, size: 0x8, addend: 0x0, symName: __ZN5godot10RefCountedD1Ev.cold.1, symObjAddr: 0x93A0, symBinAddr: 0x1170D0, symSize: 0x30 }
  - { offset: 0x89F67, size: 0x8, addend: 0x0, symName: __ZN5godot10RefCountedD0Ev.cold.1, symObjAddr: 0x93D0, symBinAddr: 0x117100, symSize: 0x30 }
  - { offset: 0x8A00B, size: 0x8, addend: 0x0, symName: __ZN5godot8internal23EngineClassRegistrationINS_10ConfigFileEE8callbackEv.cold.1, symObjAddr: 0x9400, symBinAddr: 0x117130, symSize: 0x60 }
  - { offset: 0x8A055, size: 0x8, addend: 0x0, symName: __ZN5godot10ConfigFileD1Ev.cold.1, symObjAddr: 0x9460, symBinAddr: 0x117190, symSize: 0x30 }
  - { offset: 0x8A10E, size: 0x8, addend: 0x0, symName: __ZN5godot10ConfigFileD0Ev.cold.1, symObjAddr: 0x9490, symBinAddr: 0x1171C0, symSize: 0x30 }
  - { offset: 0x8A1C8, size: 0x8, addend: 0x0, symName: __ZN5godot8internal23EngineClassRegistrationINS_6LoggerEE8callbackEv.cold.1, symObjAddr: 0x94C0, symBinAddr: 0x1171F0, symSize: 0x60 }
  - { offset: 0x8A1FD, size: 0x8, addend: 0x0, symName: __ZN5godot8internal23EngineClassRegistrationINS_13DisplayServerEE8callbackEv.cold.1, symObjAddr: 0x9520, symBinAddr: 0x117250, symSize: 0x60 }
  - { offset: 0x8A232, size: 0x8, addend: 0x0, symName: __ZN5godot8internal23EngineClassRegistrationINS_4NodeEE8callbackEv.cold.1, symObjAddr: 0x9580, symBinAddr: 0x1172B0, symSize: 0x60 }
  - { offset: 0x8A28C, size: 0x8, addend: 0x0, symName: __ZN5godot8internal23EngineClassRegistrationINS_15ScriptBacktraceEE8callbackEv.cold.1, symObjAddr: 0x95E0, symBinAddr: 0x117310, symSize: 0x60 }
  - { offset: 0x8A2D6, size: 0x8, addend: 0x0, symName: __ZN5godot15ScriptBacktraceD1Ev.cold.1, symObjAddr: 0x9640, symBinAddr: 0x117370, symSize: 0x30 }
  - { offset: 0x8A38F, size: 0x8, addend: 0x0, symName: __ZN5godot15ScriptBacktraceD0Ev.cold.1, symObjAddr: 0x9670, symBinAddr: 0x1173A0, symSize: 0x30 }
  - { offset: 0x8A449, size: 0x8, addend: 0x0, symName: __ZN5godot8internal23EngineClassRegistrationINS_6EngineEE8callbackEv, symObjAddr: 0xD00, symBinAddr: 0x88D0, symSize: 0x30 }
  - { offset: 0x8A495, size: 0x8, addend: 0x0, symName: __ZN5godot8internal23EngineClassRegistrationINS_6EngineEE8callbackEv.cold.1, symObjAddr: 0x96A0, symBinAddr: 0x1173D0, symSize: 0x60 }
  - { offset: 0x8A50D, size: 0x8, addend: 0x0, symName: __ZN5godot6Engine28_gde_binding_create_callbackEPvS1_, symObjAddr: 0xD40, symBinAddr: 0x8900, symSize: 0x50 }
  - { offset: 0x8A5B4, size: 0x8, addend: 0x0, symName: __ZN5godot6Engine26_gde_binding_free_callbackEPvS1_S1_, symObjAddr: 0xD90, symBinAddr: 0x8950, symSize: 0x30 }
  - { offset: 0x8A60E, size: 0x8, addend: 0x0, symName: __ZN5godot6Engine31_gde_binding_reference_callbackEPvS1_h, symObjAddr: 0xDC0, symBinAddr: 0x8980, symSize: 0x10 }
  - { offset: 0x8A654, size: 0x8, addend: 0x0, symName: __ZN5godot8internal23EngineClassRegistrationINS_8MainLoopEE8callbackEv, symObjAddr: 0xDD0, symBinAddr: 0x8990, symSize: 0x30 }
  - { offset: 0x8A6A0, size: 0x8, addend: 0x0, symName: __ZN5godot8internal23EngineClassRegistrationINS_8MainLoopEE8callbackEv.cold.1, symObjAddr: 0x9700, symBinAddr: 0x117430, symSize: 0x60 }
  - { offset: 0x8A71D, size: 0x8, addend: 0x0, symName: __ZN5godot8MainLoop28_gde_binding_create_callbackEPvS1_, symObjAddr: 0xE10, symBinAddr: 0x89C0, symSize: 0x50 }
  - { offset: 0x8A7C4, size: 0x8, addend: 0x0, symName: __ZN5godot8MainLoop26_gde_binding_free_callbackEPvS1_S1_, symObjAddr: 0xE60, symBinAddr: 0x8A10, symSize: 0x30 }
  - { offset: 0x8A81E, size: 0x8, addend: 0x0, symName: __ZN5godot8MainLoop31_gde_binding_reference_callbackEPvS1_h, symObjAddr: 0xE90, symBinAddr: 0x8A40, symSize: 0x10 }
  - { offset: 0x8A864, size: 0x8, addend: 0x0, symName: __ZN5godot8internal23EngineClassRegistrationINS_9SceneTreeEE8callbackEv, symObjAddr: 0xEA0, symBinAddr: 0x8A50, symSize: 0x30 }
  - { offset: 0x8A8B0, size: 0x8, addend: 0x0, symName: __ZN5godot8internal23EngineClassRegistrationINS_9SceneTreeEE8callbackEv.cold.1, symObjAddr: 0x9760, symBinAddr: 0x117490, symSize: 0x60 }
  - { offset: 0x8A928, size: 0x8, addend: 0x0, symName: __ZN5godot9SceneTree28_gde_binding_create_callbackEPvS1_, symObjAddr: 0xEE0, symBinAddr: 0x8A80, symSize: 0x40 }
  - { offset: 0x8A9F5, size: 0x8, addend: 0x0, symName: __ZN5godot9SceneTree26_gde_binding_free_callbackEPvS1_S1_, symObjAddr: 0xF20, symBinAddr: 0x8AC0, symSize: 0x30 }
  - { offset: 0x8AA4F, size: 0x8, addend: 0x0, symName: __ZN5godot9SceneTree31_gde_binding_reference_callbackEPvS1_h, symObjAddr: 0xF50, symBinAddr: 0x8AF0, symSize: 0x10 }
  - { offset: 0x8AAC6, size: 0x8, addend: 0x0, symName: __ZN5godot9SceneTreeD1Ev, symObjAddr: 0xF60, symBinAddr: 0x8B00, symSize: 0x70 }
  - { offset: 0x8AC7D, size: 0x8, addend: 0x0, symName: __ZN5godot9SceneTreeD1Ev.cold.1, symObjAddr: 0x97C0, symBinAddr: 0x1174F0, symSize: 0x30 }
  - { offset: 0x8AD36, size: 0x8, addend: 0x0, symName: __ZN5godot9SceneTreeD0Ev, symObjAddr: 0xFD0, symBinAddr: 0x8B70, symSize: 0x60 }
  - { offset: 0x8AE95, size: 0x8, addend: 0x0, symName: __ZN5godot9SceneTreeD0Ev.cold.1, symObjAddr: 0x97F0, symBinAddr: 0x117520, symSize: 0x30 }
  - { offset: 0x8AF4F, size: 0x8, addend: 0x0, symName: __ZN5godot8internal23EngineClassRegistrationINS_8ViewportEE8callbackEv, symObjAddr: 0x1030, symBinAddr: 0x8BD0, symSize: 0x30 }
  - { offset: 0x8AF9B, size: 0x8, addend: 0x0, symName: __ZN5godot8internal23EngineClassRegistrationINS_8ViewportEE8callbackEv.cold.1, symObjAddr: 0x9820, symBinAddr: 0x117550, symSize: 0x60 }
  - { offset: 0x8B013, size: 0x8, addend: 0x0, symName: __ZN5godot8Viewport28_gde_binding_create_callbackEPvS1_, symObjAddr: 0x1070, symBinAddr: 0x8C00, symSize: 0x40 }
  - { offset: 0x8B0E0, size: 0x8, addend: 0x0, symName: __ZN5godot8Viewport26_gde_binding_free_callbackEPvS1_S1_, symObjAddr: 0x10B0, symBinAddr: 0x8C40, symSize: 0x30 }
  - { offset: 0x8B13A, size: 0x8, addend: 0x0, symName: __ZN5godot8Viewport31_gde_binding_reference_callbackEPvS1_h, symObjAddr: 0x10E0, symBinAddr: 0x8C70, symSize: 0x10 }
  - { offset: 0x8B1B1, size: 0x8, addend: 0x0, symName: __ZN5godot8ViewportD1Ev, symObjAddr: 0x10F0, symBinAddr: 0x8C80, symSize: 0x70 }
  - { offset: 0x8B368, size: 0x8, addend: 0x0, symName: __ZN5godot8ViewportD1Ev.cold.1, symObjAddr: 0x9880, symBinAddr: 0x1175B0, symSize: 0x30 }
  - { offset: 0x8B421, size: 0x8, addend: 0x0, symName: __ZN5godot8ViewportD0Ev, symObjAddr: 0x1160, symBinAddr: 0x8CF0, symSize: 0x60 }
  - { offset: 0x8B580, size: 0x8, addend: 0x0, symName: __ZN5godot8ViewportD0Ev.cold.1, symObjAddr: 0x98B0, symBinAddr: 0x1175E0, symSize: 0x30 }
  - { offset: 0x8B63A, size: 0x8, addend: 0x0, symName: __ZN5godot8internal23EngineClassRegistrationINS_6WindowEE8callbackEv, symObjAddr: 0x11C0, symBinAddr: 0x8D50, symSize: 0x30 }
  - { offset: 0x8B686, size: 0x8, addend: 0x0, symName: __ZN5godot8internal23EngineClassRegistrationINS_6WindowEE8callbackEv.cold.1, symObjAddr: 0x98E0, symBinAddr: 0x117610, symSize: 0x60 }
  - { offset: 0x8B703, size: 0x8, addend: 0x0, symName: __ZN5godot6Window28_gde_binding_create_callbackEPvS1_, symObjAddr: 0x1200, symBinAddr: 0x8D80, symSize: 0x50 }
  - { offset: 0x8B7F6, size: 0x8, addend: 0x0, symName: __ZN5godot6Window26_gde_binding_free_callbackEPvS1_S1_, symObjAddr: 0x1250, symBinAddr: 0x8DD0, symSize: 0x30 }
  - { offset: 0x8B850, size: 0x8, addend: 0x0, symName: __ZN5godot6Window31_gde_binding_reference_callbackEPvS1_h, symObjAddr: 0x1280, symBinAddr: 0x8E00, symSize: 0x10 }
  - { offset: 0x8BF5B, size: 0x8, addend: 0x0, symName: __ZNSt3__112__hash_tableINS_17__hash_value_typeIN5godot10StringNameEPK35GDExtensionInstanceBindingCallbacksEENS_22__unordered_map_hasherIS3_S7_NS_4hashIS3_EENS_8equal_toIS3_EELb1EEENS_21__unordered_map_equalIS3_S7_SC_SA_Lb1EEENS_9allocatorIS7_EEE25__emplace_unique_key_argsIS3_JRKNS_21piecewise_construct_tENS_5tupleIJRKS3_EEENSN_IJEEEEEENS_4pairINS_15__hash_iteratorIPNS_11__hash_nodeIS7_PvEEEEbEERKT_DpOT0_, symObjAddr: 0x1AA0, symBinAddr: 0x98A0, symSize: 0x470 }
  - { offset: 0x8C7F4, size: 0x8, addend: 0x0, symName: __ZNSt3__112__hash_tableINS_17__hash_value_typeIN5godot10StringNameENS2_7ClassDB9ClassInfoEEENS_22__unordered_map_hasherIS3_S6_NS_4hashIS3_EENS_8equal_toIS3_EELb1EEENS_21__unordered_map_equalIS3_S6_SB_S9_Lb1EEENS_9allocatorIS6_EEE25__emplace_unique_key_argsIS3_JRKNS_21piecewise_construct_tENS_5tupleIJRKS3_EEENSM_IJEEEEEENS_4pairINS_15__hash_iteratorIPNS_11__hash_nodeIS6_PvEEEEbEERKT_DpOT0_, symObjAddr: 0x2370, symBinAddr: 0x9F70, symSize: 0x540 }
  - { offset: 0x8D57F, size: 0x8, addend: 0x0, symName: __ZN5godot7ClassDB9ClassInfoaSERKS1_, symObjAddr: 0x1650, symBinAddr: 0x9350, symSize: 0xC0 }
  - { offset: 0x8D991, size: 0x8, addend: 0x0, symName: __ZNSt3__16vectorIN5godot10StringNameENS_9allocatorIS2_EEE21__push_back_slow_pathIRKS2_EEPS2_OT_, symObjAddr: 0x4530, symBinAddr: 0xBFC0, symSize: 0x150 }
  - { offset: 0x8DE8D, size: 0x8, addend: 0x0, symName: __ZN5godot7ClassDB9ClassInfoD2Ev, symObjAddr: 0x4940, symBinAddr: 0xC3C0, symSize: 0xE0 }
  - { offset: 0x8E827, size: 0x8, addend: 0x0, symName: __ZN5godot7ClassDB15_register_classI18SentryLoggerLimitsLb0EEEvbbb.cold.1, symObjAddr: 0x9940, symBinAddr: 0x117670, symSize: 0x60 }
  - { offset: 0x8E855, size: 0x8, addend: 0x0, symName: __ZN5godot7ClassDB15_register_classI18SentryLoggerLimitsLb0EEEvbbb.cold.2, symObjAddr: 0x99A0, symBinAddr: 0x1176D0, symSize: 0x60 }
  - { offset: 0x8E883, size: 0x8, addend: 0x0, symName: __ZN5godot7ClassDB15_register_classI18SentryLoggerLimitsLb0EEEvbbb.cold.3, symObjAddr: 0x9A00, symBinAddr: 0x117730, symSize: 0x60 }
  - { offset: 0x8E8C7, size: 0x8, addend: 0x0, symName: __ZN5godot7ClassDB15_register_classI18SentryLoggerLimitsLb0EEEvbbb.cold.4, symObjAddr: 0x9A60, symBinAddr: 0x117790, symSize: 0x60 }
  - { offset: 0x8EA6B, size: 0x8, addend: 0x0, symName: __ZNSt3__112__hash_tableINS_17__hash_value_typeIN5godot10StringNameEPNS2_10MethodBindEEENS_22__unordered_map_hasherIS3_S6_NS_4hashIS3_EENS_8equal_toIS3_EELb1EEENS_21__unordered_map_equalIS3_S6_SB_S9_Lb1EEENS_9allocatorIS6_EEE14__assign_multiINS_21__hash_const_iteratorIPNS_11__hash_nodeIS6_PvEEEEEEvT_SP_, symObjAddr: 0x2B70, symBinAddr: 0xA710, symSize: 0x180 }
  - { offset: 0x8F1A7, size: 0x8, addend: 0x0, symName: __ZNSt3__16__treeIN5godot10StringNameENS_4lessIS2_EENS_9allocatorIS2_EEE14__assign_multiINS_21__tree_const_iteratorIS2_PNS_11__tree_nodeIS2_PvEElEEEEvT_SF_, symObjAddr: 0x35A0, symBinAddr: 0xB0B0, symSize: 0x2E0 }
  - { offset: 0x8F8B9, size: 0x8, addend: 0x0, symName: __ZNSt3__112__hash_tableINS_17__hash_value_typeIN5godot10StringNameENS2_7ClassDB9ClassInfo13VirtualMethodEEENS_22__unordered_map_hasherIS3_S7_NS_4hashIS3_EENS_8equal_toIS3_EELb1EEENS_21__unordered_map_equalIS3_S7_SC_SA_Lb1EEENS_9allocatorIS7_EEE14__assign_multiINS_21__hash_const_iteratorIPNS_11__hash_nodeIS7_PvEEEEEEvT_SQ_, symObjAddr: 0x3AF0, symBinAddr: 0xB610, symSize: 0x190 }
  - { offset: 0x8FFF7, size: 0x8, addend: 0x0, symName: __ZN18SentryLoggerLimits8set_bindEPvPKvS2_, symObjAddr: 0x1710, symBinAddr: 0x9410, symSize: 0x10 }
  - { offset: 0x90036, size: 0x8, addend: 0x0, symName: __ZN18SentryLoggerLimits8get_bindEPvPKvS0_, symObjAddr: 0x1720, symBinAddr: 0x9420, symSize: 0x10 }
  - { offset: 0x90090, size: 0x8, addend: 0x0, symName: __ZN18SentryLoggerLimits22get_property_list_bindEPvPj, symObjAddr: 0x1730, symBinAddr: 0x9430, symSize: 0x40 }
  - { offset: 0x90116, size: 0x8, addend: 0x0, symName: __ZN18SentryLoggerLimits22get_property_list_bindEPvPj.cold.1, symObjAddr: 0x9AC0, symBinAddr: 0x1177F0, symSize: 0x40 }
  - { offset: 0x9012E, size: 0x8, addend: 0x0, symName: __ZN18SentryLoggerLimits23free_property_list_bindEPvPK23GDExtensionPropertyInfoj, symObjAddr: 0x1770, symBinAddr: 0x9470, symSize: 0x60 }
  - { offset: 0x90253, size: 0x8, addend: 0x0, symName: __ZN18SentryLoggerLimits24property_can_revert_bindEPvPKv, symObjAddr: 0x17D0, symBinAddr: 0x94D0, symSize: 0x10 }
  - { offset: 0x90284, size: 0x8, addend: 0x0, symName: __ZN18SentryLoggerLimits24property_get_revert_bindEPvPKvS0_, symObjAddr: 0x17E0, symBinAddr: 0x94E0, symSize: 0x10 }
  - { offset: 0x902E4, size: 0x8, addend: 0x0, symName: __ZN18SentryLoggerLimits22validate_property_bindEPvP23GDExtensionPropertyInfo, symObjAddr: 0x17F0, symBinAddr: 0x94F0, symSize: 0xE0 }
  - { offset: 0x90495, size: 0x8, addend: 0x0, symName: __ZN18SentryLoggerLimits17notification_bindEPvih, symObjAddr: 0x18C0, symBinAddr: 0x95D0, symSize: 0x10 }
  - { offset: 0x904D4, size: 0x8, addend: 0x0, symName: __ZN18SentryLoggerLimits14to_string_bindEPvPhS0_, symObjAddr: 0x18D0, symBinAddr: 0x95E0, symSize: 0x70 }
  - { offset: 0x9054E, size: 0x8, addend: 0x0, symName: __ZNK5godot6Object10_to_stringEv, symObjAddr: 0x4770, symBinAddr: 0xC1F0, symSize: 0xF0 }
  - { offset: 0x90668, size: 0x8, addend: 0x0, symName: __ZN5godot7ClassDB21_create_instance_funcI18SentryLoggerLimitsEEPvS3_h, symObjAddr: 0x1940, symBinAddr: 0x9650, symSize: 0xF0 }
  - { offset: 0x907A6, size: 0x8, addend: 0x0, symName: __ZN5godot7ClassDB21_create_instance_funcI18SentryLoggerLimitsEEPvS3_h.cold.1, symObjAddr: 0x9B00, symBinAddr: 0x117830, symSize: 0x60 }
  - { offset: 0x90800, size: 0x8, addend: 0x0, symName: __ZN18SentryLoggerLimits4freeEPvS0_, symObjAddr: 0x1A30, symBinAddr: 0x9740, symSize: 0x30 }
  - { offset: 0x9085C, size: 0x8, addend: 0x0, symName: __ZN5godot7ClassDB23_recreate_instance_funcI18SentryLoggerLimitsEEPvS3_S3_, symObjAddr: 0x1A60, symBinAddr: 0x9770, symSize: 0x100 }
  - { offset: 0x90896, size: 0x8, addend: 0x0, symName: __ZN18SentryLoggerLimits28_gde_binding_create_callbackEPvS0_, symObjAddr: 0x1A70, symBinAddr: 0x9870, symSize: 0x10 }
  - { offset: 0x908BF, size: 0x8, addend: 0x0, symName: __ZN18SentryLoggerLimits26_gde_binding_free_callbackEPvS0_S0_, symObjAddr: 0x1A80, symBinAddr: 0x9880, symSize: 0x10 }
  - { offset: 0x908F2, size: 0x8, addend: 0x0, symName: __ZN18SentryLoggerLimits31_gde_binding_reference_callbackEPvS0_h, symObjAddr: 0x1A90, symBinAddr: 0x9890, symSize: 0x10 }
  - { offset: 0x90E03, size: 0x8, addend: 0x0, symName: __ZNSt3__112__hash_tableINS_17__hash_value_typeIN5godot10StringNameEPK35GDExtensionInstanceBindingCallbacksEENS_22__unordered_map_hasherIS3_S7_NS_4hashIS3_EENS_8equal_toIS3_EELb1EEENS_21__unordered_map_equalIS3_S7_SC_SA_Lb1EEENS_9allocatorIS7_EEE11__do_rehashILb1EEEvm, symObjAddr: 0x1FA0, symBinAddr: 0x9D10, symSize: 0x260 }
  - { offset: 0x91853, size: 0x8, addend: 0x0, symName: __ZNSt3__112__hash_tableINS_17__hash_value_typeIN5godot10StringNameENS2_7ClassDB9ClassInfoEEENS_22__unordered_map_hasherIS3_S6_NS_4hashIS3_EENS_8equal_toIS3_EELb1EEENS_21__unordered_map_equalIS3_S6_SB_S9_Lb1EEENS_9allocatorIS6_EEE11__do_rehashILb1EEEvm, symObjAddr: 0x2940, symBinAddr: 0xA4B0, symSize: 0x260 }
  - { offset: 0x922C1, size: 0x8, addend: 0x0, symName: __ZNSt3__112__hash_tableINS_17__hash_value_typeIN5godot10StringNameEPNS2_10MethodBindEEENS_22__unordered_map_hasherIS3_S6_NS_4hashIS3_EENS_8equal_toIS3_EELb1EEENS_21__unordered_map_equalIS3_S6_SB_S9_Lb1EEENS_9allocatorIS6_EEE19__node_insert_multiEPNS_11__hash_nodeIS6_PvEE, symObjAddr: 0x2CF0, symBinAddr: 0xA890, symSize: 0x1A0 }
  - { offset: 0x92571, size: 0x8, addend: 0x0, symName: __ZNSt3__112__hash_tableINS_17__hash_value_typeIN5godot10StringNameEPNS2_10MethodBindEEENS_22__unordered_map_hasherIS3_S6_NS_4hashIS3_EENS_8equal_toIS3_EELb1EEENS_21__unordered_map_equalIS3_S6_SB_S9_Lb1EEENS_9allocatorIS6_EEE27__node_insert_multi_prepareEmRS6_, symObjAddr: 0x2E90, symBinAddr: 0xAA30, symSize: 0x3A0 }
  - { offset: 0x9293B, size: 0x8, addend: 0x0, symName: __ZNSt3__112__hash_tableINS_17__hash_value_typeIN5godot10StringNameEPNS2_10MethodBindEEENS_22__unordered_map_hasherIS3_S6_NS_4hashIS3_EENS_8equal_toIS3_EELb1EEENS_21__unordered_map_equalIS3_S6_SB_S9_Lb1EEENS_9allocatorIS6_EEE11__do_rehashILb0EEEvm, symObjAddr: 0x3280, symBinAddr: 0xADD0, symSize: 0x2E0 }
  - { offset: 0x93341, size: 0x8, addend: 0x0, symName: __ZNSt3__16__treeIN5godot10StringNameENS_4lessIS2_EENS_9allocatorIS2_EEE7destroyEPNS_11__tree_nodeIS2_PvEE, symObjAddr: 0x3AB0, symBinAddr: 0xB510, symSize: 0x40 }
  - { offset: 0x93A2B, size: 0x8, addend: 0x0, symName: __ZNSt3__112__hash_tableINS_17__hash_value_typeIN5godot10StringNameENS2_7ClassDB9ClassInfo13VirtualMethodEEENS_22__unordered_map_hasherIS3_S7_NS_4hashIS3_EENS_8equal_toIS3_EELb1EEENS_21__unordered_map_equalIS3_S7_SC_SA_Lb1EEENS_9allocatorIS7_EEE19__node_insert_multiEPNS_11__hash_nodeIS7_PvEE, symObjAddr: 0x3C80, symBinAddr: 0xB7A0, symSize: 0x1A0 }
  - { offset: 0x93CDB, size: 0x8, addend: 0x0, symName: __ZNSt3__112__hash_tableINS_17__hash_value_typeIN5godot10StringNameENS2_7ClassDB9ClassInfo13VirtualMethodEEENS_22__unordered_map_hasherIS3_S7_NS_4hashIS3_EENS_8equal_toIS3_EELb1EEENS_21__unordered_map_equalIS3_S7_SC_SA_Lb1EEENS_9allocatorIS7_EEE27__node_insert_multi_prepareEmRS7_, symObjAddr: 0x3E20, symBinAddr: 0xB940, symSize: 0x3A0 }
  - { offset: 0x940A5, size: 0x8, addend: 0x0, symName: __ZNSt3__112__hash_tableINS_17__hash_value_typeIN5godot10StringNameENS2_7ClassDB9ClassInfo13VirtualMethodEEENS_22__unordered_map_hasherIS3_S7_NS_4hashIS3_EENS_8equal_toIS3_EELb1EEENS_21__unordered_map_equalIS3_S7_SC_SA_Lb1EEENS_9allocatorIS7_EEE11__do_rehashILb0EEEvm, symObjAddr: 0x4210, symBinAddr: 0xBCE0, symSize: 0x2E0 }
  - { offset: 0x94ABE, size: 0x8, addend: 0x0, symName: __ZNK18SentryLoggerLimits19_is_extension_classEv, symObjAddr: 0x4860, symBinAddr: 0xC2E0, symSize: 0x10 }
  - { offset: 0x94AFF, size: 0x8, addend: 0x0, symName: __ZN18SentryLoggerLimitsD1Ev, symObjAddr: 0x4870, symBinAddr: 0xC2F0, symSize: 0x70 }
  - { offset: 0x94CB6, size: 0x8, addend: 0x0, symName: __ZN18SentryLoggerLimitsD1Ev.cold.1, symObjAddr: 0x9B60, symBinAddr: 0x1178F0, symSize: 0x30 }
  - { offset: 0x94D6F, size: 0x8, addend: 0x0, symName: __ZN18SentryLoggerLimitsD0Ev, symObjAddr: 0x48E0, symBinAddr: 0xC360, symSize: 0x60 }
  - { offset: 0x94ECE, size: 0x8, addend: 0x0, symName: __ZN18SentryLoggerLimitsD0Ev.cold.1, symObjAddr: 0x9B90, symBinAddr: 0x117920, symSize: 0x30 }
  - { offset: 0x9518E, size: 0x8, addend: 0x0, symName: __ZN5godot7ClassDB15_register_classI13SentryOptionsLb0EEEvbbb.cold.1, symObjAddr: 0x9BC0, symBinAddr: 0x117950, symSize: 0x60 }
  - { offset: 0x951BC, size: 0x8, addend: 0x0, symName: __ZN5godot7ClassDB15_register_classI13SentryOptionsLb0EEEvbbb.cold.2, symObjAddr: 0x9C20, symBinAddr: 0x1179B0, symSize: 0x60 }
  - { offset: 0x951EA, size: 0x8, addend: 0x0, symName: __ZN5godot7ClassDB15_register_classI13SentryOptionsLb0EEEvbbb.cold.3, symObjAddr: 0x9C80, symBinAddr: 0x117A10, symSize: 0x60 }
  - { offset: 0x9522E, size: 0x8, addend: 0x0, symName: __ZN5godot7ClassDB15_register_classI13SentryOptionsLb0EEEvbbb.cold.4, symObjAddr: 0x9CE0, symBinAddr: 0x117A70, symSize: 0x60 }
  - { offset: 0x9525D, size: 0x8, addend: 0x0, symName: __ZN13SentryOptions8set_bindEPvPKvS2_, symObjAddr: 0x4DE0, symBinAddr: 0xC9E0, symSize: 0x10 }
  - { offset: 0x9529C, size: 0x8, addend: 0x0, symName: __ZN13SentryOptions8get_bindEPvPKvS0_, symObjAddr: 0x4DF0, symBinAddr: 0xC9F0, symSize: 0x10 }
  - { offset: 0x952DB, size: 0x8, addend: 0x0, symName: __ZN13SentryOptions22get_property_list_bindEPvPj, symObjAddr: 0x4E00, symBinAddr: 0xCA00, symSize: 0x40 }
  - { offset: 0x95361, size: 0x8, addend: 0x0, symName: __ZN13SentryOptions22get_property_list_bindEPvPj.cold.1, symObjAddr: 0x9D40, symBinAddr: 0x117AD0, symSize: 0x40 }
  - { offset: 0x95379, size: 0x8, addend: 0x0, symName: __ZN13SentryOptions23free_property_list_bindEPvPK23GDExtensionPropertyInfoj, symObjAddr: 0x4E40, symBinAddr: 0xCA40, symSize: 0x60 }
  - { offset: 0x9549E, size: 0x8, addend: 0x0, symName: __ZN13SentryOptions24property_can_revert_bindEPvPKv, symObjAddr: 0x4EA0, symBinAddr: 0xCAA0, symSize: 0x10 }
  - { offset: 0x954CF, size: 0x8, addend: 0x0, symName: __ZN13SentryOptions24property_get_revert_bindEPvPKvS0_, symObjAddr: 0x4EB0, symBinAddr: 0xCAB0, symSize: 0x10 }
  - { offset: 0x9550E, size: 0x8, addend: 0x0, symName: __ZN13SentryOptions22validate_property_bindEPvP23GDExtensionPropertyInfo, symObjAddr: 0x4EC0, symBinAddr: 0xCAC0, symSize: 0xE0 }
  - { offset: 0x955FF, size: 0x8, addend: 0x0, symName: __ZN13SentryOptions17notification_bindEPvih, symObjAddr: 0x4F90, symBinAddr: 0xCBA0, symSize: 0x10 }
  - { offset: 0x9563E, size: 0x8, addend: 0x0, symName: __ZN13SentryOptions14to_string_bindEPvPhS0_, symObjAddr: 0x4FA0, symBinAddr: 0xCBB0, symSize: 0x70 }
  - { offset: 0x956DC, size: 0x8, addend: 0x0, symName: __ZN5godot7ClassDB21_create_instance_funcI13SentryOptionsEEPvS3_h, symObjAddr: 0x5010, symBinAddr: 0xCC20, symSize: 0x80 }
  - { offset: 0x95770, size: 0x8, addend: 0x0, symName: __ZN5godot7ClassDB21_create_instance_funcI13SentryOptionsEEPvS3_h.cold.1, symObjAddr: 0x9D80, symBinAddr: 0x117B10, symSize: 0x60 }
  - { offset: 0x957CA, size: 0x8, addend: 0x0, symName: __ZN13SentryOptions4freeEPvS0_, symObjAddr: 0x5080, symBinAddr: 0xCCA0, symSize: 0x30 }
  - { offset: 0x95826, size: 0x8, addend: 0x0, symName: __ZN5godot7ClassDB23_recreate_instance_funcI13SentryOptionsEEPvS3_S3_, symObjAddr: 0x50B0, symBinAddr: 0xCCD0, symSize: 0xA0 }
  - { offset: 0x95860, size: 0x8, addend: 0x0, symName: __ZN13SentryOptions28_gde_binding_create_callbackEPvS0_, symObjAddr: 0x50C0, symBinAddr: 0xCD70, symSize: 0x10 }
  - { offset: 0x95889, size: 0x8, addend: 0x0, symName: __ZN13SentryOptions26_gde_binding_free_callbackEPvS0_S0_, symObjAddr: 0x50D0, symBinAddr: 0xCD80, symSize: 0x10 }
  - { offset: 0x958BC, size: 0x8, addend: 0x0, symName: __ZN13SentryOptions31_gde_binding_reference_callbackEPvS0_h, symObjAddr: 0x50E0, symBinAddr: 0xCD90, symSize: 0x10 }
  - { offset: 0x95904, size: 0x8, addend: 0x0, symName: __ZN5godot7ClassDB15_register_classI13RuntimeConfigLb0EEEvbbb.cold.1, symObjAddr: 0x9DE0, symBinAddr: 0x117BD0, symSize: 0x60 }
  - { offset: 0x95932, size: 0x8, addend: 0x0, symName: __ZN5godot7ClassDB15_register_classI13RuntimeConfigLb0EEEvbbb.cold.2, symObjAddr: 0x9E40, symBinAddr: 0x117C30, symSize: 0x60 }
  - { offset: 0x95960, size: 0x8, addend: 0x0, symName: __ZN5godot7ClassDB15_register_classI13RuntimeConfigLb0EEEvbbb.cold.3, symObjAddr: 0x9EA0, symBinAddr: 0x117C90, symSize: 0x60 }
  - { offset: 0x959A4, size: 0x8, addend: 0x0, symName: __ZN5godot7ClassDB15_register_classI13RuntimeConfigLb0EEEvbbb.cold.4, symObjAddr: 0x9F00, symBinAddr: 0x117CF0, symSize: 0x60 }
  - { offset: 0x959D3, size: 0x8, addend: 0x0, symName: __ZN13RuntimeConfig8set_bindEPvPKvS2_, symObjAddr: 0x54B0, symBinAddr: 0xD2D0, symSize: 0x10 }
  - { offset: 0x95A12, size: 0x8, addend: 0x0, symName: __ZN13RuntimeConfig8get_bindEPvPKvS0_, symObjAddr: 0x54C0, symBinAddr: 0xD2E0, symSize: 0x10 }
  - { offset: 0x95A51, size: 0x8, addend: 0x0, symName: __ZN13RuntimeConfig22get_property_list_bindEPvPj, symObjAddr: 0x54D0, symBinAddr: 0xD2F0, symSize: 0x40 }
  - { offset: 0x95AD7, size: 0x8, addend: 0x0, symName: __ZN13RuntimeConfig22get_property_list_bindEPvPj.cold.1, symObjAddr: 0x9F60, symBinAddr: 0x117D50, symSize: 0x40 }
  - { offset: 0x95AEF, size: 0x8, addend: 0x0, symName: __ZN13RuntimeConfig23free_property_list_bindEPvPK23GDExtensionPropertyInfoj, symObjAddr: 0x5510, symBinAddr: 0xD330, symSize: 0x60 }
  - { offset: 0x95C14, size: 0x8, addend: 0x0, symName: __ZN13RuntimeConfig24property_can_revert_bindEPvPKv, symObjAddr: 0x5570, symBinAddr: 0xD390, symSize: 0x10 }
  - { offset: 0x95C45, size: 0x8, addend: 0x0, symName: __ZN13RuntimeConfig24property_get_revert_bindEPvPKvS0_, symObjAddr: 0x5580, symBinAddr: 0xD3A0, symSize: 0x10 }
  - { offset: 0x95C84, size: 0x8, addend: 0x0, symName: __ZN13RuntimeConfig22validate_property_bindEPvP23GDExtensionPropertyInfo, symObjAddr: 0x5590, symBinAddr: 0xD3B0, symSize: 0xE0 }
  - { offset: 0x95D75, size: 0x8, addend: 0x0, symName: __ZN13RuntimeConfig17notification_bindEPvih, symObjAddr: 0x5660, symBinAddr: 0xD490, symSize: 0x10 }
  - { offset: 0x95DB4, size: 0x8, addend: 0x0, symName: __ZN13RuntimeConfig14to_string_bindEPvPhS0_, symObjAddr: 0x5670, symBinAddr: 0xD4A0, symSize: 0x70 }
  - { offset: 0x95E52, size: 0x8, addend: 0x0, symName: __ZN5godot7ClassDB21_create_instance_funcI13RuntimeConfigEEPvS3_h, symObjAddr: 0x56E0, symBinAddr: 0xD510, symSize: 0x80 }
  - { offset: 0x95EE6, size: 0x8, addend: 0x0, symName: __ZN5godot7ClassDB21_create_instance_funcI13RuntimeConfigEEPvS3_h.cold.1, symObjAddr: 0x9FA0, symBinAddr: 0x117D90, symSize: 0x60 }
  - { offset: 0x95F40, size: 0x8, addend: 0x0, symName: __ZN13RuntimeConfig4freeEPvS0_, symObjAddr: 0x5750, symBinAddr: 0xD590, symSize: 0x30 }
  - { offset: 0x95F9C, size: 0x8, addend: 0x0, symName: __ZN5godot7ClassDB23_recreate_instance_funcI13RuntimeConfigEEPvS3_S3_, symObjAddr: 0x5780, symBinAddr: 0xD5C0, symSize: 0xA0 }
  - { offset: 0x95FD6, size: 0x8, addend: 0x0, symName: __ZN13RuntimeConfig28_gde_binding_create_callbackEPvS0_, symObjAddr: 0x5790, symBinAddr: 0xD660, symSize: 0x10 }
  - { offset: 0x95FFF, size: 0x8, addend: 0x0, symName: __ZN13RuntimeConfig26_gde_binding_free_callbackEPvS0_S0_, symObjAddr: 0x57A0, symBinAddr: 0xD670, symSize: 0x10 }
  - { offset: 0x96032, size: 0x8, addend: 0x0, symName: __ZN13RuntimeConfig31_gde_binding_reference_callbackEPvS0_h, symObjAddr: 0x57B0, symBinAddr: 0xD680, symSize: 0x10 }
  - { offset: 0x9607A, size: 0x8, addend: 0x0, symName: __ZN5godot7ClassDB15_register_classI19SentryConfigurationLb0EEEvbbb.cold.1, symObjAddr: 0xA000, symBinAddr: 0x117E50, symSize: 0x60 }
  - { offset: 0x960A8, size: 0x8, addend: 0x0, symName: __ZN5godot7ClassDB15_register_classI19SentryConfigurationLb0EEEvbbb.cold.2, symObjAddr: 0xA060, symBinAddr: 0x117EB0, symSize: 0x60 }
  - { offset: 0x960D6, size: 0x8, addend: 0x0, symName: __ZN5godot7ClassDB15_register_classI19SentryConfigurationLb0EEEvbbb.cold.3, symObjAddr: 0xA0C0, symBinAddr: 0x117F10, symSize: 0x60 }
  - { offset: 0x9611A, size: 0x8, addend: 0x0, symName: __ZN5godot7ClassDB15_register_classI19SentryConfigurationLb0EEEvbbb.cold.4, symObjAddr: 0xA120, symBinAddr: 0x117F70, symSize: 0x60 }
  - { offset: 0x96149, size: 0x8, addend: 0x0, symName: __ZN19SentryConfiguration8set_bindEPvPKvS2_, symObjAddr: 0x5B80, symBinAddr: 0xDBD0, symSize: 0x10 }
  - { offset: 0x96188, size: 0x8, addend: 0x0, symName: __ZN19SentryConfiguration8get_bindEPvPKvS0_, symObjAddr: 0x5B90, symBinAddr: 0xDBE0, symSize: 0x10 }
  - { offset: 0x961C7, size: 0x8, addend: 0x0, symName: __ZN19SentryConfiguration22get_property_list_bindEPvPj, symObjAddr: 0x5BA0, symBinAddr: 0xDBF0, symSize: 0x40 }
  - { offset: 0x9624D, size: 0x8, addend: 0x0, symName: __ZN19SentryConfiguration22get_property_list_bindEPvPj.cold.1, symObjAddr: 0xA180, symBinAddr: 0x117FD0, symSize: 0x40 }
  - { offset: 0x96265, size: 0x8, addend: 0x0, symName: __ZN19SentryConfiguration23free_property_list_bindEPvPK23GDExtensionPropertyInfoj, symObjAddr: 0x5BE0, symBinAddr: 0xDC30, symSize: 0x60 }
  - { offset: 0x9638A, size: 0x8, addend: 0x0, symName: __ZN19SentryConfiguration24property_can_revert_bindEPvPKv, symObjAddr: 0x5C40, symBinAddr: 0xDC90, symSize: 0x10 }
  - { offset: 0x963BB, size: 0x8, addend: 0x0, symName: __ZN19SentryConfiguration24property_get_revert_bindEPvPKvS0_, symObjAddr: 0x5C50, symBinAddr: 0xDCA0, symSize: 0x10 }
  - { offset: 0x963FA, size: 0x8, addend: 0x0, symName: __ZN19SentryConfiguration22validate_property_bindEPvP23GDExtensionPropertyInfo, symObjAddr: 0x5C60, symBinAddr: 0xDCB0, symSize: 0xE0 }
  - { offset: 0x964EB, size: 0x8, addend: 0x0, symName: __ZN19SentryConfiguration17notification_bindEPvih, symObjAddr: 0x5D30, symBinAddr: 0xDD90, symSize: 0x20 }
  - { offset: 0x96547, size: 0x8, addend: 0x0, symName: __ZN19SentryConfiguration14to_string_bindEPvPhS0_, symObjAddr: 0x5D50, symBinAddr: 0xDDB0, symSize: 0x70 }
  - { offset: 0x965C1, size: 0x8, addend: 0x0, symName: __ZNK5godot4Node10_to_stringEv, symObjAddr: 0x5F20, symBinAddr: 0xE080, symSize: 0x100 }
  - { offset: 0x9669C, size: 0x8, addend: 0x0, symName: __ZN5godot7ClassDB21_create_instance_funcI19SentryConfigurationEEPvS3_h, symObjAddr: 0x5DC0, symBinAddr: 0xDE20, symSize: 0xF0 }
  - { offset: 0x967DA, size: 0x8, addend: 0x0, symName: __ZN5godot7ClassDB21_create_instance_funcI19SentryConfigurationEEPvS3_h.cold.1, symObjAddr: 0xA1C0, symBinAddr: 0x118010, symSize: 0x60 }
  - { offset: 0x96834, size: 0x8, addend: 0x0, symName: __ZN19SentryConfiguration4freeEPvS0_, symObjAddr: 0x5EB0, symBinAddr: 0xDF10, symSize: 0x30 }
  - { offset: 0x96890, size: 0x8, addend: 0x0, symName: __ZN5godot7ClassDB23_recreate_instance_funcI19SentryConfigurationEEPvS3_S3_, symObjAddr: 0x5EE0, symBinAddr: 0xDF40, symSize: 0x110 }
  - { offset: 0x968CA, size: 0x8, addend: 0x0, symName: __ZN19SentryConfiguration28_gde_binding_create_callbackEPvS0_, symObjAddr: 0x5EF0, symBinAddr: 0xE050, symSize: 0x10 }
  - { offset: 0x968F3, size: 0x8, addend: 0x0, symName: __ZN19SentryConfiguration26_gde_binding_free_callbackEPvS0_S0_, symObjAddr: 0x5F00, symBinAddr: 0xE060, symSize: 0x10 }
  - { offset: 0x96926, size: 0x8, addend: 0x0, symName: __ZN19SentryConfiguration31_gde_binding_reference_callbackEPvS0_h, symObjAddr: 0x5F10, symBinAddr: 0xE070, symSize: 0x10 }
  - { offset: 0x96959, size: 0x8, addend: 0x0, symName: __ZNK19SentryConfiguration19_is_extension_classEv, symObjAddr: 0x6020, symBinAddr: 0xE180, symSize: 0x10 }
  - { offset: 0x9699A, size: 0x8, addend: 0x0, symName: __ZN19SentryConfigurationD1Ev, symObjAddr: 0x6030, symBinAddr: 0xE190, symSize: 0x80 }
  - { offset: 0x96B51, size: 0x8, addend: 0x0, symName: __ZN19SentryConfigurationD1Ev.cold.1, symObjAddr: 0xA220, symBinAddr: 0x1180D0, symSize: 0x30 }
  - { offset: 0x96C0A, size: 0x8, addend: 0x0, symName: __ZN19SentryConfigurationD0Ev, symObjAddr: 0x60B0, symBinAddr: 0xE210, symSize: 0x70 }
  - { offset: 0x96D69, size: 0x8, addend: 0x0, symName: __ZN19SentryConfigurationD0Ev.cold.1, symObjAddr: 0xA250, symBinAddr: 0x118100, symSize: 0x30 }
  - { offset: 0x96E31, size: 0x8, addend: 0x0, symName: __ZN5godot7ClassDB15_register_classI10SentryUserLb0EEEvbbb.cold.1, symObjAddr: 0xA280, symBinAddr: 0x118130, symSize: 0x60 }
  - { offset: 0x96E5F, size: 0x8, addend: 0x0, symName: __ZN5godot7ClassDB15_register_classI10SentryUserLb0EEEvbbb.cold.2, symObjAddr: 0xA2E0, symBinAddr: 0x118190, symSize: 0x60 }
  - { offset: 0x96E8D, size: 0x8, addend: 0x0, symName: __ZN5godot7ClassDB15_register_classI10SentryUserLb0EEEvbbb.cold.3, symObjAddr: 0xA340, symBinAddr: 0x1181F0, symSize: 0x60 }
  - { offset: 0x96ED1, size: 0x8, addend: 0x0, symName: __ZN5godot7ClassDB15_register_classI10SentryUserLb0EEEvbbb.cold.4, symObjAddr: 0xA3A0, symBinAddr: 0x118250, symSize: 0x60 }
  - { offset: 0x96F00, size: 0x8, addend: 0x0, symName: __ZN10SentryUser8set_bindEPvPKvS2_, symObjAddr: 0x64E0, symBinAddr: 0xE7C0, symSize: 0x10 }
  - { offset: 0x96F3F, size: 0x8, addend: 0x0, symName: __ZN10SentryUser8get_bindEPvPKvS0_, symObjAddr: 0x64F0, symBinAddr: 0xE7D0, symSize: 0x10 }
  - { offset: 0x96F7E, size: 0x8, addend: 0x0, symName: __ZN10SentryUser22get_property_list_bindEPvPj, symObjAddr: 0x6500, symBinAddr: 0xE7E0, symSize: 0x40 }
  - { offset: 0x97004, size: 0x8, addend: 0x0, symName: __ZN10SentryUser22get_property_list_bindEPvPj.cold.1, symObjAddr: 0xA400, symBinAddr: 0x1182B0, symSize: 0x40 }
  - { offset: 0x9701C, size: 0x8, addend: 0x0, symName: __ZN10SentryUser23free_property_list_bindEPvPK23GDExtensionPropertyInfoj, symObjAddr: 0x6540, symBinAddr: 0xE820, symSize: 0x60 }
  - { offset: 0x97141, size: 0x8, addend: 0x0, symName: __ZN10SentryUser24property_can_revert_bindEPvPKv, symObjAddr: 0x65A0, symBinAddr: 0xE880, symSize: 0x10 }
  - { offset: 0x97172, size: 0x8, addend: 0x0, symName: __ZN10SentryUser24property_get_revert_bindEPvPKvS0_, symObjAddr: 0x65B0, symBinAddr: 0xE890, symSize: 0x10 }
  - { offset: 0x971B1, size: 0x8, addend: 0x0, symName: __ZN10SentryUser22validate_property_bindEPvP23GDExtensionPropertyInfo, symObjAddr: 0x65C0, symBinAddr: 0xE8A0, symSize: 0xE0 }
  - { offset: 0x972A2, size: 0x8, addend: 0x0, symName: __ZN10SentryUser17notification_bindEPvih, symObjAddr: 0x6690, symBinAddr: 0xE980, symSize: 0x10 }
  - { offset: 0x972E1, size: 0x8, addend: 0x0, symName: __ZN10SentryUser14to_string_bindEPvPhS0_, symObjAddr: 0x66A0, symBinAddr: 0xE990, symSize: 0x70 }
  - { offset: 0x973A1, size: 0x8, addend: 0x0, symName: __ZN5godot7ClassDB21_create_instance_funcI10SentryUserEEPvS3_h, symObjAddr: 0x6710, symBinAddr: 0xEA00, symSize: 0x100 }
  - { offset: 0x974DF, size: 0x8, addend: 0x0, symName: __ZN5godot7ClassDB21_create_instance_funcI10SentryUserEEPvS3_h.cold.1, symObjAddr: 0xA440, symBinAddr: 0x1182F0, symSize: 0x60 }
  - { offset: 0x97539, size: 0x8, addend: 0x0, symName: __ZN10SentryUser4freeEPvS0_, symObjAddr: 0x6810, symBinAddr: 0xEB00, symSize: 0x30 }
  - { offset: 0x97595, size: 0x8, addend: 0x0, symName: __ZN5godot7ClassDB23_recreate_instance_funcI10SentryUserEEPvS3_S3_, symObjAddr: 0x6840, symBinAddr: 0xEB30, symSize: 0x120 }
  - { offset: 0x975CF, size: 0x8, addend: 0x0, symName: __ZN10SentryUser28_gde_binding_create_callbackEPvS0_, symObjAddr: 0x6850, symBinAddr: 0xEC50, symSize: 0x10 }
  - { offset: 0x975F8, size: 0x8, addend: 0x0, symName: __ZN10SentryUser26_gde_binding_free_callbackEPvS0_S0_, symObjAddr: 0x6860, symBinAddr: 0xEC60, symSize: 0x10 }
  - { offset: 0x9762B, size: 0x8, addend: 0x0, symName: __ZN10SentryUser31_gde_binding_reference_callbackEPvS0_h, symObjAddr: 0x6870, symBinAddr: 0xEC70, symSize: 0x10 }
  - { offset: 0x9765E, size: 0x8, addend: 0x0, symName: __ZNK10SentryUser19_is_extension_classEv, symObjAddr: 0x6880, symBinAddr: 0xEC80, symSize: 0x10 }
  - { offset: 0x97683, size: 0x8, addend: 0x0, symName: __ZN10SentryUserD1Ev, symObjAddr: 0x6890, symBinAddr: 0xEC90, symSize: 0x10 }
  - { offset: 0x976BB, size: 0x8, addend: 0x0, symName: __ZN10SentryUserD2Ev, symObjAddr: 0x68C0, symBinAddr: 0xECC0, symSize: 0xA0 }
  - { offset: 0x97880, size: 0x8, addend: 0x0, symName: __ZN10SentryUserD0Ev, symObjAddr: 0x68A0, symBinAddr: 0xECA0, symSize: 0x20 }
  - { offset: 0x978E2, size: 0x8, addend: 0x0, symName: __ZN10SentryUserD2Ev.cold.1, symObjAddr: 0xA4A0, symBinAddr: 0x1183B0, symSize: 0x30 }
  - { offset: 0x97977, size: 0x8, addend: 0x0, symName: __ZN5godot7ClassDB15_register_classI9SentrySDKLb0EEEvbbb.cold.1, symObjAddr: 0xA4D0, symBinAddr: 0x1183E0, symSize: 0x60 }
  - { offset: 0x979A5, size: 0x8, addend: 0x0, symName: __ZN5godot7ClassDB15_register_classI9SentrySDKLb0EEEvbbb.cold.2, symObjAddr: 0xA530, symBinAddr: 0x118440, symSize: 0x60 }
  - { offset: 0x979D3, size: 0x8, addend: 0x0, symName: __ZN5godot7ClassDB15_register_classI9SentrySDKLb0EEEvbbb.cold.3, symObjAddr: 0xA590, symBinAddr: 0x1184A0, symSize: 0x60 }
  - { offset: 0x97A17, size: 0x8, addend: 0x0, symName: __ZN5godot7ClassDB15_register_classI9SentrySDKLb0EEEvbbb.cold.4, symObjAddr: 0xA5F0, symBinAddr: 0x118500, symSize: 0x60 }
  - { offset: 0x97A46, size: 0x8, addend: 0x0, symName: __ZN9SentrySDK8set_bindEPvPKvS2_, symObjAddr: 0x6D20, symBinAddr: 0xF2A0, symSize: 0x10 }
  - { offset: 0x97A85, size: 0x8, addend: 0x0, symName: __ZN9SentrySDK8get_bindEPvPKvS0_, symObjAddr: 0x6D30, symBinAddr: 0xF2B0, symSize: 0x10 }
  - { offset: 0x97AC4, size: 0x8, addend: 0x0, symName: __ZN9SentrySDK22get_property_list_bindEPvPj, symObjAddr: 0x6D40, symBinAddr: 0xF2C0, symSize: 0x40 }
  - { offset: 0x97B4A, size: 0x8, addend: 0x0, symName: __ZN9SentrySDK22get_property_list_bindEPvPj.cold.1, symObjAddr: 0xA650, symBinAddr: 0x118560, symSize: 0x40 }
  - { offset: 0x97B62, size: 0x8, addend: 0x0, symName: __ZN9SentrySDK23free_property_list_bindEPvPK23GDExtensionPropertyInfoj, symObjAddr: 0x6D80, symBinAddr: 0xF300, symSize: 0x60 }
  - { offset: 0x97C87, size: 0x8, addend: 0x0, symName: __ZN9SentrySDK24property_can_revert_bindEPvPKv, symObjAddr: 0x6DE0, symBinAddr: 0xF360, symSize: 0x10 }
  - { offset: 0x97CB8, size: 0x8, addend: 0x0, symName: __ZN9SentrySDK24property_get_revert_bindEPvPKvS0_, symObjAddr: 0x6DF0, symBinAddr: 0xF370, symSize: 0x10 }
  - { offset: 0x97CF7, size: 0x8, addend: 0x0, symName: __ZN9SentrySDK22validate_property_bindEPvP23GDExtensionPropertyInfo, symObjAddr: 0x6E00, symBinAddr: 0xF380, symSize: 0xE0 }
  - { offset: 0x97DE8, size: 0x8, addend: 0x0, symName: __ZN9SentrySDK17notification_bindEPvih, symObjAddr: 0x6ED0, symBinAddr: 0xF460, symSize: 0x10 }
  - { offset: 0x97E27, size: 0x8, addend: 0x0, symName: __ZN9SentrySDK14to_string_bindEPvPhS0_, symObjAddr: 0x6EE0, symBinAddr: 0xF470, symSize: 0x70 }
  - { offset: 0x97EA1, size: 0x8, addend: 0x0, symName: __ZN5godot7ClassDB21_create_instance_funcI9SentrySDKEEPvS3_h, symObjAddr: 0x6F50, symBinAddr: 0xF4E0, symSize: 0x80 }
  - { offset: 0x97F35, size: 0x8, addend: 0x0, symName: __ZN5godot7ClassDB21_create_instance_funcI9SentrySDKEEPvS3_h.cold.1, symObjAddr: 0xA690, symBinAddr: 0x1185A0, symSize: 0x60 }
  - { offset: 0x97F8F, size: 0x8, addend: 0x0, symName: __ZN9SentrySDK4freeEPvS0_, symObjAddr: 0x6FC0, symBinAddr: 0xF560, symSize: 0x30 }
  - { offset: 0x97FEB, size: 0x8, addend: 0x0, symName: __ZN5godot7ClassDB23_recreate_instance_funcI9SentrySDKEEPvS3_S3_, symObjAddr: 0x6FF0, symBinAddr: 0xF590, symSize: 0xA0 }
  - { offset: 0x98025, size: 0x8, addend: 0x0, symName: __ZN9SentrySDK28_gde_binding_create_callbackEPvS0_, symObjAddr: 0x7000, symBinAddr: 0xF630, symSize: 0x10 }
  - { offset: 0x9804E, size: 0x8, addend: 0x0, symName: __ZN9SentrySDK26_gde_binding_free_callbackEPvS0_S0_, symObjAddr: 0x7010, symBinAddr: 0xF640, symSize: 0x10 }
  - { offset: 0x98081, size: 0x8, addend: 0x0, symName: __ZN9SentrySDK31_gde_binding_reference_callbackEPvS0_h, symObjAddr: 0x7020, symBinAddr: 0xF650, symSize: 0x10 }
  - { offset: 0x980C9, size: 0x8, addend: 0x0, symName: __ZN5godot7ClassDB15_register_classI11SentryEventLb1EEEvbbb.cold.1, symObjAddr: 0xA6F0, symBinAddr: 0x118660, symSize: 0x60 }
  - { offset: 0x980F7, size: 0x8, addend: 0x0, symName: __ZN5godot7ClassDB15_register_classI11SentryEventLb1EEEvbbb.cold.2, symObjAddr: 0xA750, symBinAddr: 0x1186C0, symSize: 0x60 }
  - { offset: 0x98125, size: 0x8, addend: 0x0, symName: __ZN5godot7ClassDB15_register_classI11SentryEventLb1EEEvbbb.cold.3, symObjAddr: 0xA7B0, symBinAddr: 0x118720, symSize: 0x60 }
  - { offset: 0x98169, size: 0x8, addend: 0x0, symName: __ZN5godot7ClassDB15_register_classI11SentryEventLb1EEEvbbb.cold.4, symObjAddr: 0xA810, symBinAddr: 0x118780, symSize: 0x60 }
  - { offset: 0x98198, size: 0x8, addend: 0x0, symName: __ZN11SentryEvent8set_bindEPvPKvS2_, symObjAddr: 0x73F0, symBinAddr: 0xFBA0, symSize: 0x10 }
  - { offset: 0x981D7, size: 0x8, addend: 0x0, symName: __ZN11SentryEvent8get_bindEPvPKvS0_, symObjAddr: 0x7400, symBinAddr: 0xFBB0, symSize: 0x10 }
  - { offset: 0x98216, size: 0x8, addend: 0x0, symName: __ZN11SentryEvent22get_property_list_bindEPvPj, symObjAddr: 0x7410, symBinAddr: 0xFBC0, symSize: 0x40 }
  - { offset: 0x9829C, size: 0x8, addend: 0x0, symName: __ZN11SentryEvent22get_property_list_bindEPvPj.cold.1, symObjAddr: 0xA870, symBinAddr: 0x1187E0, symSize: 0x40 }
  - { offset: 0x982B4, size: 0x8, addend: 0x0, symName: __ZN11SentryEvent23free_property_list_bindEPvPK23GDExtensionPropertyInfoj, symObjAddr: 0x7450, symBinAddr: 0xFC00, symSize: 0x60 }
  - { offset: 0x983D9, size: 0x8, addend: 0x0, symName: __ZN11SentryEvent24property_can_revert_bindEPvPKv, symObjAddr: 0x74B0, symBinAddr: 0xFC60, symSize: 0x10 }
  - { offset: 0x9840A, size: 0x8, addend: 0x0, symName: __ZN11SentryEvent24property_get_revert_bindEPvPKvS0_, symObjAddr: 0x74C0, symBinAddr: 0xFC70, symSize: 0x10 }
  - { offset: 0x98449, size: 0x8, addend: 0x0, symName: __ZN11SentryEvent22validate_property_bindEPvP23GDExtensionPropertyInfo, symObjAddr: 0x74D0, symBinAddr: 0xFC80, symSize: 0xE0 }
  - { offset: 0x9851D, size: 0x8, addend: 0x0, symName: __ZN11SentryEvent17notification_bindEPvih, symObjAddr: 0x75A0, symBinAddr: 0xFD60, symSize: 0x10 }
  - { offset: 0x9855C, size: 0x8, addend: 0x0, symName: __ZN11SentryEvent14to_string_bindEPvPhS0_, symObjAddr: 0x75B0, symBinAddr: 0xFD70, symSize: 0x70 }
  - { offset: 0x985BE, size: 0x8, addend: 0x0, symName: __ZN5godot7ClassDB21_create_instance_funcI11SentryEventEEPvS3_h, symObjAddr: 0x7620, symBinAddr: 0xFDE0, symSize: 0x10 }
  - { offset: 0x985F8, size: 0x8, addend: 0x0, symName: __ZN11SentryEvent4freeEPvS0_, symObjAddr: 0x7630, symBinAddr: 0xFDF0, symSize: 0x30 }
  - { offset: 0x98654, size: 0x8, addend: 0x0, symName: __ZN5godot7ClassDB23_recreate_instance_funcI11SentryEventEEPvS3_S3_, symObjAddr: 0x7660, symBinAddr: 0xFE20, symSize: 0x10 }
  - { offset: 0x9868E, size: 0x8, addend: 0x0, symName: __ZN11SentryEvent28_gde_binding_create_callbackEPvS0_, symObjAddr: 0x7670, symBinAddr: 0xFE30, symSize: 0x10 }
  - { offset: 0x986B7, size: 0x8, addend: 0x0, symName: __ZN11SentryEvent26_gde_binding_free_callbackEPvS0_S0_, symObjAddr: 0x7680, symBinAddr: 0xFE40, symSize: 0x10 }
  - { offset: 0x986EA, size: 0x8, addend: 0x0, symName: __ZN11SentryEvent31_gde_binding_reference_callbackEPvS0_h, symObjAddr: 0x7690, symBinAddr: 0xFE50, symSize: 0x10 }
  - { offset: 0x98732, size: 0x8, addend: 0x0, symName: __ZN5godot7ClassDB15_register_classI13DisabledEventLb0EEEvbbb.cold.1, symObjAddr: 0xA8B0, symBinAddr: 0x118820, symSize: 0x60 }
  - { offset: 0x98760, size: 0x8, addend: 0x0, symName: __ZN5godot7ClassDB15_register_classI13DisabledEventLb0EEEvbbb.cold.2, symObjAddr: 0xA910, symBinAddr: 0x118880, symSize: 0x60 }
  - { offset: 0x9878E, size: 0x8, addend: 0x0, symName: __ZN5godot7ClassDB15_register_classI13DisabledEventLb0EEEvbbb.cold.3, symObjAddr: 0xA970, symBinAddr: 0x1188E0, symSize: 0x60 }
  - { offset: 0x987D2, size: 0x8, addend: 0x0, symName: __ZN5godot7ClassDB15_register_classI13DisabledEventLb0EEEvbbb.cold.4, symObjAddr: 0xA9D0, symBinAddr: 0x118940, symSize: 0x60 }
  - { offset: 0x98801, size: 0x8, addend: 0x0, symName: __ZN13DisabledEvent8set_bindEPvPKvS2_, symObjAddr: 0x7A70, symBinAddr: 0x103A0, symSize: 0x10 }
  - { offset: 0x98840, size: 0x8, addend: 0x0, symName: __ZN13DisabledEvent8get_bindEPvPKvS0_, symObjAddr: 0x7A80, symBinAddr: 0x103B0, symSize: 0x10 }
  - { offset: 0x9887F, size: 0x8, addend: 0x0, symName: __ZN13DisabledEvent23free_property_list_bindEPvPK23GDExtensionPropertyInfoj, symObjAddr: 0x7A90, symBinAddr: 0x103C0, symSize: 0x60 }
  - { offset: 0x989A4, size: 0x8, addend: 0x0, symName: __ZN13DisabledEvent24property_can_revert_bindEPvPKv, symObjAddr: 0x7AF0, symBinAddr: 0x10420, symSize: 0x10 }
  - { offset: 0x989D5, size: 0x8, addend: 0x0, symName: __ZN13DisabledEvent24property_get_revert_bindEPvPKvS0_, symObjAddr: 0x7B00, symBinAddr: 0x10430, symSize: 0x10 }
  - { offset: 0x98A56, size: 0x8, addend: 0x0, symName: __ZN13DisabledEvent22validate_property_bindEPvP23GDExtensionPropertyInfo, symObjAddr: 0x7B10, symBinAddr: 0x10440, symSize: 0xE0 }
  - { offset: 0x98B6D, size: 0x8, addend: 0x0, symName: __ZN13DisabledEvent17notification_bindEPvih, symObjAddr: 0x7BD0, symBinAddr: 0x10520, symSize: 0x10 }
  - { offset: 0x98BE3, size: 0x8, addend: 0x0, symName: __ZN13DisabledEvent14to_string_bindEPvPhS0_, symObjAddr: 0x7BE0, symBinAddr: 0x10530, symSize: 0x70 }
  - { offset: 0x98CFF, size: 0x8, addend: 0x0, symName: __ZN5godot7ClassDB21_create_instance_funcI13DisabledEventEEPvS3_h, symObjAddr: 0x7C50, symBinAddr: 0x105A0, symSize: 0x120 }
  - { offset: 0x98E5B, size: 0x8, addend: 0x0, symName: __ZN5godot7ClassDB21_create_instance_funcI13DisabledEventEEPvS3_h.cold.1, symObjAddr: 0xAA30, symBinAddr: 0x1189A0, symSize: 0x60 }
  - { offset: 0x98EB5, size: 0x8, addend: 0x0, symName: __ZN13DisabledEvent4freeEPvS0_, symObjAddr: 0x7D60, symBinAddr: 0x106C0, symSize: 0x30 }
  - { offset: 0x98F11, size: 0x8, addend: 0x0, symName: __ZN5godot7ClassDB23_recreate_instance_funcI13DisabledEventEEPvS3_S3_, symObjAddr: 0x7D90, symBinAddr: 0x106F0, symSize: 0x130 }
  - { offset: 0x98F4B, size: 0x8, addend: 0x0, symName: __ZN13DisabledEvent28_gde_binding_create_callbackEPvS0_, symObjAddr: 0x7DA0, symBinAddr: 0x10820, symSize: 0x10 }
  - { offset: 0x98F74, size: 0x8, addend: 0x0, symName: __ZN13DisabledEvent26_gde_binding_free_callbackEPvS0_S0_, symObjAddr: 0x7DB0, symBinAddr: 0x10830, symSize: 0x10 }
  - { offset: 0x98FA7, size: 0x8, addend: 0x0, symName: __ZN13DisabledEvent31_gde_binding_reference_callbackEPvS0_h, symObjAddr: 0x7DC0, symBinAddr: 0x10840, symSize: 0x10 }
  - { offset: 0x98FDA, size: 0x8, addend: 0x0, symName: __ZNK13DisabledEvent19_is_extension_classEv, symObjAddr: 0x7DD0, symBinAddr: 0x10850, symSize: 0x10 }
  - { offset: 0x98FFF, size: 0x8, addend: 0x0, symName: __ZN13DisabledEventD1Ev, symObjAddr: 0x7DE0, symBinAddr: 0x10860, symSize: 0x10 }
  - { offset: 0x99037, size: 0x8, addend: 0x0, symName: __ZN13DisabledEventD2Ev, symObjAddr: 0x7FE0, symBinAddr: 0x10A60, symSize: 0xB0 }
  - { offset: 0x99214, size: 0x8, addend: 0x0, symName: __ZN13DisabledEventD0Ev, symObjAddr: 0x7DF0, symBinAddr: 0x10870, symSize: 0x20 }
  - { offset: 0x99276, size: 0x8, addend: 0x0, symName: __ZNK13DisabledEvent6get_idEv, symObjAddr: 0x7E10, symBinAddr: 0x10890, symSize: 0x20 }
  - { offset: 0x9929D, size: 0x8, addend: 0x0, symName: __ZN13DisabledEvent11set_messageERKN5godot6StringE, symObjAddr: 0x7E30, symBinAddr: 0x108B0, symSize: 0x10 }
  - { offset: 0x992D2, size: 0x8, addend: 0x0, symName: __ZNK13DisabledEvent11get_messageEv, symObjAddr: 0x7E40, symBinAddr: 0x108C0, symSize: 0x20 }
  - { offset: 0x992F9, size: 0x8, addend: 0x0, symName: __ZN13DisabledEvent13set_timestampERKN5godot6StringE, symObjAddr: 0x7E60, symBinAddr: 0x108E0, symSize: 0x10 }
  - { offset: 0x9932E, size: 0x8, addend: 0x0, symName: __ZNK13DisabledEvent13get_timestampEv, symObjAddr: 0x7E70, symBinAddr: 0x108F0, symSize: 0x20 }
  - { offset: 0x99355, size: 0x8, addend: 0x0, symName: __ZNK13DisabledEvent12get_platformEv, symObjAddr: 0x7E90, symBinAddr: 0x10910, symSize: 0x20 }
  - { offset: 0x9937C, size: 0x8, addend: 0x0, symName: __ZN13DisabledEvent9set_levelEN6sentry5LevelE, symObjAddr: 0x7EB0, symBinAddr: 0x10930, symSize: 0x10 }
  - { offset: 0x993AF, size: 0x8, addend: 0x0, symName: __ZNK13DisabledEvent9get_levelEv, symObjAddr: 0x7EC0, symBinAddr: 0x10940, symSize: 0x10 }
  - { offset: 0x993D4, size: 0x8, addend: 0x0, symName: __ZN13DisabledEvent10set_loggerERKN5godot6StringE, symObjAddr: 0x7ED0, symBinAddr: 0x10950, symSize: 0x10 }
  - { offset: 0x99409, size: 0x8, addend: 0x0, symName: __ZNK13DisabledEvent10get_loggerEv, symObjAddr: 0x7EE0, symBinAddr: 0x10960, symSize: 0x20 }
  - { offset: 0x99430, size: 0x8, addend: 0x0, symName: __ZN13DisabledEvent11set_releaseERKN5godot6StringE, symObjAddr: 0x7F00, symBinAddr: 0x10980, symSize: 0x10 }
  - { offset: 0x99465, size: 0x8, addend: 0x0, symName: __ZNK13DisabledEvent11get_releaseEv, symObjAddr: 0x7F10, symBinAddr: 0x10990, symSize: 0x20 }
  - { offset: 0x9948C, size: 0x8, addend: 0x0, symName: __ZN13DisabledEvent8set_distERKN5godot6StringE, symObjAddr: 0x7F30, symBinAddr: 0x109B0, symSize: 0x10 }
  - { offset: 0x994C1, size: 0x8, addend: 0x0, symName: __ZNK13DisabledEvent8get_distEv, symObjAddr: 0x7F40, symBinAddr: 0x109C0, symSize: 0x20 }
  - { offset: 0x994E8, size: 0x8, addend: 0x0, symName: __ZN13DisabledEvent15set_environmentERKN5godot6StringE, symObjAddr: 0x7F60, symBinAddr: 0x109E0, symSize: 0x10 }
  - { offset: 0x9951D, size: 0x8, addend: 0x0, symName: __ZNK13DisabledEvent15get_environmentEv, symObjAddr: 0x7F70, symBinAddr: 0x109F0, symSize: 0x20 }
  - { offset: 0x99544, size: 0x8, addend: 0x0, symName: __ZN13DisabledEvent7set_tagERKN5godot6StringES3_, symObjAddr: 0x7F90, symBinAddr: 0x10A10, symSize: 0x10 }
  - { offset: 0x99585, size: 0x8, addend: 0x0, symName: __ZN13DisabledEvent10remove_tagERKN5godot6StringE, symObjAddr: 0x7FA0, symBinAddr: 0x10A20, symSize: 0x10 }
  - { offset: 0x995B8, size: 0x8, addend: 0x0, symName: __ZN13DisabledEvent7get_tagERKN5godot6StringE, symObjAddr: 0x7FB0, symBinAddr: 0x10A30, symSize: 0x20 }
  - { offset: 0x995EF, size: 0x8, addend: 0x0, symName: __ZN13DisabledEvent13add_exceptionERKN5godot6StringES3_RKNS0_6VectorIN11SentryEvent10StackFrameEEE, symObjAddr: 0x7FD0, symBinAddr: 0x10A50, symSize: 0x10 }
  - { offset: 0x99658, size: 0x8, addend: 0x0, symName: __ZN13DisabledEventD2Ev.cold.1, symObjAddr: 0xAA90, symBinAddr: 0x118A60, symSize: 0x30 }
  - { offset: 0x9970A, size: 0x8, addend: 0x0, symName: __ZN5godot6Logger17register_virtualsI12SentryLoggerS0_EEvv, symObjAddr: 0x8760, symBinAddr: 0x11410, symSize: 0xD0 }
  - { offset: 0x997FD, size: 0x8, addend: 0x0, symName: __ZN5godot7ClassDB15_register_classI12SentryLoggerLb0EEEvbbb.cold.1, symObjAddr: 0xAAC0, symBinAddr: 0x118A90, symSize: 0x60 }
  - { offset: 0x9982B, size: 0x8, addend: 0x0, symName: __ZN5godot7ClassDB15_register_classI12SentryLoggerLb0EEEvbbb.cold.2, symObjAddr: 0xAB20, symBinAddr: 0x118AF0, symSize: 0x60 }
  - { offset: 0x99859, size: 0x8, addend: 0x0, symName: __ZN5godot7ClassDB15_register_classI12SentryLoggerLb0EEEvbbb.cold.3, symObjAddr: 0xAB80, symBinAddr: 0x118B50, symSize: 0x60 }
  - { offset: 0x9989D, size: 0x8, addend: 0x0, symName: __ZN5godot7ClassDB15_register_classI12SentryLoggerLb0EEEvbbb.cold.4, symObjAddr: 0xABE0, symBinAddr: 0x118BB0, symSize: 0x60 }
  - { offset: 0x998CC, size: 0x8, addend: 0x0, symName: __ZN12SentryLogger8set_bindEPvPKvS2_, symObjAddr: 0x8450, symBinAddr: 0x11050, symSize: 0x10 }
  - { offset: 0x9990B, size: 0x8, addend: 0x0, symName: __ZN12SentryLogger8get_bindEPvPKvS0_, symObjAddr: 0x8460, symBinAddr: 0x11060, symSize: 0x10 }
  - { offset: 0x9994A, size: 0x8, addend: 0x0, symName: __ZN12SentryLogger22get_property_list_bindEPvPj, symObjAddr: 0x8470, symBinAddr: 0x11070, symSize: 0x40 }
  - { offset: 0x999D0, size: 0x8, addend: 0x0, symName: __ZN12SentryLogger22get_property_list_bindEPvPj.cold.1, symObjAddr: 0xAC40, symBinAddr: 0x118C10, symSize: 0x40 }
  - { offset: 0x999E8, size: 0x8, addend: 0x0, symName: __ZN12SentryLogger23free_property_list_bindEPvPK23GDExtensionPropertyInfoj, symObjAddr: 0x84B0, symBinAddr: 0x110B0, symSize: 0x60 }
  - { offset: 0x99B0D, size: 0x8, addend: 0x0, symName: __ZN12SentryLogger24property_can_revert_bindEPvPKv, symObjAddr: 0x8510, symBinAddr: 0x11110, symSize: 0x10 }
  - { offset: 0x99B3E, size: 0x8, addend: 0x0, symName: __ZN12SentryLogger24property_get_revert_bindEPvPKvS0_, symObjAddr: 0x8520, symBinAddr: 0x11120, symSize: 0x10 }
  - { offset: 0x99B7D, size: 0x8, addend: 0x0, symName: __ZN12SentryLogger22validate_property_bindEPvP23GDExtensionPropertyInfo, symObjAddr: 0x8530, symBinAddr: 0x11130, symSize: 0xE0 }
  - { offset: 0x99C6E, size: 0x8, addend: 0x0, symName: __ZN12SentryLogger17notification_bindEPvih, symObjAddr: 0x8600, symBinAddr: 0x11210, symSize: 0x10 }
  - { offset: 0x99CAD, size: 0x8, addend: 0x0, symName: __ZN12SentryLogger14to_string_bindEPvPhS0_, symObjAddr: 0x8610, symBinAddr: 0x11220, symSize: 0x70 }
  - { offset: 0x99D4B, size: 0x8, addend: 0x0, symName: __ZN5godot7ClassDB21_create_instance_funcI12SentryLoggerEEPvS3_h, symObjAddr: 0x8680, symBinAddr: 0x11290, symSize: 0x80 }
  - { offset: 0x99DDF, size: 0x8, addend: 0x0, symName: __ZN5godot7ClassDB21_create_instance_funcI12SentryLoggerEEPvS3_h.cold.1, symObjAddr: 0xAC80, symBinAddr: 0x118C50, symSize: 0x60 }
  - { offset: 0x99E39, size: 0x8, addend: 0x0, symName: __ZN12SentryLogger4freeEPvS0_, symObjAddr: 0x86F0, symBinAddr: 0x11310, symSize: 0x30 }
  - { offset: 0x99E95, size: 0x8, addend: 0x0, symName: __ZN5godot7ClassDB23_recreate_instance_funcI12SentryLoggerEEPvS3_S3_, symObjAddr: 0x8720, symBinAddr: 0x11340, symSize: 0xA0 }
  - { offset: 0x99ECF, size: 0x8, addend: 0x0, symName: __ZN12SentryLogger28_gde_binding_create_callbackEPvS0_, symObjAddr: 0x8730, symBinAddr: 0x113E0, symSize: 0x10 }
  - { offset: 0x99EF8, size: 0x8, addend: 0x0, symName: __ZN12SentryLogger26_gde_binding_free_callbackEPvS0_S0_, symObjAddr: 0x8740, symBinAddr: 0x113F0, symSize: 0x10 }
  - { offset: 0x99F2B, size: 0x8, addend: 0x0, symName: __ZN12SentryLogger31_gde_binding_reference_callbackEPvS0_h, symObjAddr: 0x8750, symBinAddr: 0x11400, symSize: 0x10 }
  - { offset: 0x99F5E, size: 0x8, addend: 0x0, symName: __ZN5godot6Logger17register_virtualsI12SentryLoggerS0_EEvv.cold.1, symObjAddr: 0xACE0, symBinAddr: 0x118D10, symSize: 0x60 }
  - { offset: 0x99F8C, size: 0x8, addend: 0x0, symName: __ZN5godot6Logger17register_virtualsI12SentryLoggerS0_EEvv.cold.2, symObjAddr: 0xAD40, symBinAddr: 0x118D70, symSize: 0x60 }
  - { offset: 0x9A03D, size: 0x8, addend: 0x0, symName: __ZZN5godot6Logger17register_virtualsI12SentryLoggerS0_EEvvENUlPvPKPKvS3_E_8__invokeES3_S7_S3_, symObjAddr: 0x8830, symBinAddr: 0x114E0, symSize: 0x20 }
  - { offset: 0x9A1E9, size: 0x8, addend: 0x0, symName: __ZN5godot25call_with_ptr_args_helperI12SentryLoggerJRKNS_6StringES4_iS4_S4_biRKNS_10TypedArrayINS_15ScriptBacktraceEEEEJLm0ELm1ELm2ELm3ELm4ELm5ELm6ELm7EEEEvPT_MSA_FvDpT0_EPKPKvNS_13IndexSequenceIJXspT1_EEEE.cold.1, symObjAddr: 0xADA0, symBinAddr: 0x118DD0, symSize: 0x60 }
  - { offset: 0x9A2BF, size: 0x8, addend: 0x0, symName: __ZZN5godot6Logger17register_virtualsI12SentryLoggerS0_EEvvENUlPvPKPKvS3_E0_8__invokeES3_S7_S3_, symObjAddr: 0x89F0, symBinAddr: 0x116A0, symSize: 0x80 }
  - { offset: 0x9A3F6, size: 0x8, addend: 0x0, symName: __ZN5godot7ClassDB15_register_classI11NativeEventLb0EEEvbbb.cold.1, symObjAddr: 0xAE00, symBinAddr: 0x118E30, symSize: 0x60 }
  - { offset: 0x9A424, size: 0x8, addend: 0x0, symName: __ZN5godot7ClassDB15_register_classI11NativeEventLb0EEEvbbb.cold.2, symObjAddr: 0xAE60, symBinAddr: 0x118E90, symSize: 0x60 }
  - { offset: 0x9A452, size: 0x8, addend: 0x0, symName: __ZN5godot7ClassDB15_register_classI11NativeEventLb0EEEvbbb.cold.3, symObjAddr: 0xAEC0, symBinAddr: 0x118EF0, symSize: 0x60 }
  - { offset: 0x9A496, size: 0x8, addend: 0x0, symName: __ZN5godot7ClassDB15_register_classI11NativeEventLb0EEEvbbb.cold.4, symObjAddr: 0xAF20, symBinAddr: 0x118F50, symSize: 0x60 }
  - { offset: 0x9A4C5, size: 0x8, addend: 0x0, symName: __ZN11NativeEvent8set_bindEPvPKvS2_, symObjAddr: 0x8E40, symBinAddr: 0x11C60, symSize: 0x10 }
  - { offset: 0x9A504, size: 0x8, addend: 0x0, symName: __ZN11NativeEvent8get_bindEPvPKvS0_, symObjAddr: 0x8E50, symBinAddr: 0x11C70, symSize: 0x10 }
  - { offset: 0x9A543, size: 0x8, addend: 0x0, symName: __ZN11NativeEvent23free_property_list_bindEPvPK23GDExtensionPropertyInfoj, symObjAddr: 0x8E60, symBinAddr: 0x11C80, symSize: 0x60 }
  - { offset: 0x9A668, size: 0x8, addend: 0x0, symName: __ZN11NativeEvent24property_can_revert_bindEPvPKv, symObjAddr: 0x8EC0, symBinAddr: 0x11CE0, symSize: 0x10 }
  - { offset: 0x9A699, size: 0x8, addend: 0x0, symName: __ZN11NativeEvent24property_get_revert_bindEPvPKvS0_, symObjAddr: 0x8ED0, symBinAddr: 0x11CF0, symSize: 0x10 }
  - { offset: 0x9A6D8, size: 0x8, addend: 0x0, symName: __ZN11NativeEvent22validate_property_bindEPvP23GDExtensionPropertyInfo, symObjAddr: 0x8EE0, symBinAddr: 0x11D00, symSize: 0xE0 }
  - { offset: 0x9A7EF, size: 0x8, addend: 0x0, symName: __ZN11NativeEvent17notification_bindEPvih, symObjAddr: 0x8FA0, symBinAddr: 0x11DE0, symSize: 0x10 }
  - { offset: 0x9A82E, size: 0x8, addend: 0x0, symName: __ZN11NativeEvent14to_string_bindEPvPhS0_, symObjAddr: 0x8FB0, symBinAddr: 0x11DF0, symSize: 0x70 }
  - { offset: 0x9A8F6, size: 0x8, addend: 0x0, symName: __ZN5godot7ClassDB21_create_instance_funcI11NativeEventEEPvS3_h, symObjAddr: 0x9020, symBinAddr: 0x11E60, symSize: 0x80 }
  - { offset: 0x9A98A, size: 0x8, addend: 0x0, symName: __ZN5godot7ClassDB21_create_instance_funcI11NativeEventEEPvS3_h.cold.1, symObjAddr: 0xAF80, symBinAddr: 0x118FB0, symSize: 0x60 }
  - { offset: 0x9A9E4, size: 0x8, addend: 0x0, symName: __ZN11NativeEvent4freeEPvS0_, symObjAddr: 0x9090, symBinAddr: 0x11EE0, symSize: 0x30 }
  - { offset: 0x9AA40, size: 0x8, addend: 0x0, symName: __ZN5godot7ClassDB23_recreate_instance_funcI11NativeEventEEPvS3_S3_, symObjAddr: 0x90C0, symBinAddr: 0x11F10, symSize: 0xA0 }
  - { offset: 0x9AA7A, size: 0x8, addend: 0x0, symName: __ZN11NativeEvent28_gde_binding_create_callbackEPvS0_, symObjAddr: 0x90D0, symBinAddr: 0x11FB0, symSize: 0x10 }
  - { offset: 0x9AAA3, size: 0x8, addend: 0x0, symName: __ZN11NativeEvent26_gde_binding_free_callbackEPvS0_S0_, symObjAddr: 0x90E0, symBinAddr: 0x11FC0, symSize: 0x10 }
  - { offset: 0x9AAD6, size: 0x8, addend: 0x0, symName: __ZN11NativeEvent31_gde_binding_reference_callbackEPvS0_h, symObjAddr: 0x90F0, symBinAddr: 0x11FD0, symSize: 0x10 }
  - { offset: 0x9F524, size: 0x8, addend: 0x0, symName: ___cxx_global_var_init, symObjAddr: 0x1110, symBinAddr: 0x12920, symSize: 0x40 }
  - { offset: 0x9F5AB, size: 0x8, addend: 0x0, symName: ___cxx_global_var_init.1, symObjAddr: 0x1150, symBinAddr: 0x12960, symSize: 0x40 }
  - { offset: 0x9F632, size: 0x8, addend: 0x0, symName: ___cxx_global_var_init.2, symObjAddr: 0x1190, symBinAddr: 0x129A0, symSize: 0x40 }
  - { offset: 0x9F6B9, size: 0x8, addend: 0x0, symName: ___cxx_global_var_init.3, symObjAddr: 0x11D0, symBinAddr: 0x129E0, symSize: 0x3A }
  - { offset: 0x9FA7A, size: 0x8, addend: 0x0, symName: __ZN13RuntimeConfig19set_installation_idERKN5godot6StringE, symObjAddr: 0x0, symBinAddr: 0x12320, symSize: 0x100 }
  - { offset: 0x9FB01, size: 0x8, addend: 0x0, symName: __ZN13RuntimeConfig19set_installation_idERKN5godot6StringE.cold.1, symObjAddr: 0xD20, symBinAddr: 0x119070, symSize: 0x30 }
  - { offset: 0x9FB69, size: 0x8, addend: 0x0, symName: __ZN13RuntimeConfig9load_fileERKN5godot6StringE, symObjAddr: 0x110, symBinAddr: 0x12420, symSize: 0x190 }
  - { offset: 0x9FC95, size: 0x8, addend: 0x0, symName: __ZN13RuntimeConfig9load_fileERKN5godot6StringE.cold.1, symObjAddr: 0xD50, symBinAddr: 0x1190A0, symSize: 0x30 }
  - { offset: 0x9FD4A, size: 0x8, addend: 0x0, symName: __ZN13RuntimeConfigC2Ev, symObjAddr: 0x2B0, symBinAddr: 0x125B0, symSize: 0xA0 }
  - { offset: 0x9FE2D, size: 0x8, addend: 0x0, symName: __ZN5godot3RefINS_10ConfigFileEE11instantiateEv, symObjAddr: 0x350, symBinAddr: 0x12650, symSize: 0x130 }
  - { offset: 0xA01E8, size: 0x8, addend: 0x0, symName: __ZN13RuntimeConfigC1Ev, symObjAddr: 0x470, symBinAddr: 0x12780, symSize: 0xA0 }
  - { offset: 0xA02F5, size: 0x8, addend: 0x0, symName: __ZNK13RuntimeConfig19_is_extension_classEv, symObjAddr: 0x510, symBinAddr: 0x12820, symSize: 0x10 }
  - { offset: 0xA031A, size: 0x8, addend: 0x0, symName: __ZN13RuntimeConfigD1Ev, symObjAddr: 0x520, symBinAddr: 0x12830, symSize: 0x10 }
  - { offset: 0xA0352, size: 0x8, addend: 0x0, symName: __ZN13RuntimeConfigD2Ev, symObjAddr: 0xC60, symBinAddr: 0x12860, symSize: 0xC0 }
  - { offset: 0xA05A1, size: 0x8, addend: 0x0, symName: __ZN13RuntimeConfigD0Ev, symObjAddr: 0x530, symBinAddr: 0x12840, symSize: 0x20 }
  - { offset: 0xA0794, size: 0x8, addend: 0x0, symName: __ZN5godot10RefCountedD1Ev.cold.1, symObjAddr: 0xD80, symBinAddr: 0x1190D0, symSize: 0x30 }
  - { offset: 0xA0837, size: 0x8, addend: 0x0, symName: __ZN5godot10RefCountedD0Ev.cold.1, symObjAddr: 0xDB0, symBinAddr: 0x119100, symSize: 0x30 }
  - { offset: 0xA08D4, size: 0x8, addend: 0x0, symName: __ZN5godot6ObjectD1Ev.cold.1, symObjAddr: 0xDE0, symBinAddr: 0x119130, symSize: 0x30 }
  - { offset: 0xA095F, size: 0x8, addend: 0x0, symName: __ZN5godot6ObjectD0Ev.cold.1, symObjAddr: 0xE10, symBinAddr: 0x119160, symSize: 0x30 }
  - { offset: 0xA09E6, size: 0x8, addend: 0x0, symName: __ZN5godot7WrappedD1Ev.cold.1, symObjAddr: 0xE40, symBinAddr: 0x119190, symSize: 0x30 }
  - { offset: 0xA0A5B, size: 0x8, addend: 0x0, symName: __ZN5godot7WrappedD0Ev.cold.1, symObjAddr: 0xE70, symBinAddr: 0x1191C0, symSize: 0x30 }
  - { offset: 0xA0B3C, size: 0x8, addend: 0x0, symName: __ZN5godot4ListINS_12PropertyInfoENS_16DefaultAllocatorEE5_Data5eraseEPNS3_7ElementE.cold.2, symObjAddr: 0xED0, symBinAddr: 0x119220, symSize: 0x30 }
  - { offset: 0xA0B54, size: 0x8, addend: 0x0, symName: __ZN5godot4ListINS_12PropertyInfoENS_16DefaultAllocatorEE5_Data5eraseEPNS3_7ElementE.cold.1, symObjAddr: 0xEA0, symBinAddr: 0x1191F0, symSize: 0x30 }
  - { offset: 0xA0B73, size: 0x8, addend: 0x0, symName: __ZN5godot8internal23EngineClassRegistrationINS_6ObjectEE8callbackEv.cold.1, symObjAddr: 0xF00, symBinAddr: 0x119250, symSize: 0x60 }
  - { offset: 0xA0BA8, size: 0x8, addend: 0x0, symName: __ZN5godot8internal23EngineClassRegistrationINS_16ClassDBSingletonEE8callbackEv.cold.1, symObjAddr: 0xF60, symBinAddr: 0x1192B0, symSize: 0x60 }
  - { offset: 0xA0BDD, size: 0x8, addend: 0x0, symName: __ZN5godot8internal23EngineClassRegistrationINS_10RefCountedEE8callbackEv.cold.1, symObjAddr: 0xFC0, symBinAddr: 0x119310, symSize: 0x60 }
  - { offset: 0xA0C12, size: 0x8, addend: 0x0, symName: __ZN5godot8internal23EngineClassRegistrationINS_10ConfigFileEE8callbackEv.cold.1, symObjAddr: 0x1020, symBinAddr: 0x119370, symSize: 0x60 }
  - { offset: 0xA0C5C, size: 0x8, addend: 0x0, symName: __ZN5godot10ConfigFileD1Ev.cold.1, symObjAddr: 0x1080, symBinAddr: 0x1193D0, symSize: 0x30 }
  - { offset: 0xA0D15, size: 0x8, addend: 0x0, symName: __ZN5godot10ConfigFileD0Ev.cold.1, symObjAddr: 0x10B0, symBinAddr: 0x119400, symSize: 0x30 }
  - { offset: 0xA0DC8, size: 0x8, addend: 0x0, symName: __ZN13RuntimeConfigD2Ev.cold.1, symObjAddr: 0x10E0, symBinAddr: 0x119430, symSize: 0x2A }
  - { offset: 0xA95CC, size: 0x8, addend: 0x0, symName: ___cxx_global_var_init, symObjAddr: 0x2180, symBinAddr: 0x136F0, symSize: 0x40 }
  - { offset: 0xA9653, size: 0x8, addend: 0x0, symName: ___cxx_global_var_init.1, symObjAddr: 0x21C0, symBinAddr: 0x13730, symSize: 0x40 }
  - { offset: 0xA96DA, size: 0x8, addend: 0x0, symName: ___cxx_global_var_init.2, symObjAddr: 0x2200, symBinAddr: 0x13770, symSize: 0x40 }
  - { offset: 0xA9761, size: 0x8, addend: 0x0, symName: ___cxx_global_var_init.3, symObjAddr: 0x2240, symBinAddr: 0x137B0, symSize: 0x40 }
  - { offset: 0xA97E8, size: 0x8, addend: 0x0, symName: ___cxx_global_var_init.4, symObjAddr: 0x2280, symBinAddr: 0x137F0, symSize: 0x40 }
  - { offset: 0xA986F, size: 0x8, addend: 0x0, symName: ___cxx_global_var_init.5, symObjAddr: 0x22C0, symBinAddr: 0x13830, symSize: 0x40 }
  - { offset: 0xA98F6, size: 0x8, addend: 0x0, symName: ___cxx_global_var_init.6, symObjAddr: 0x2300, symBinAddr: 0x13870, symSize: 0x40 }
  - { offset: 0xA997D, size: 0x8, addend: 0x0, symName: ___cxx_global_var_init.7, symObjAddr: 0x2340, symBinAddr: 0x138B0, symSize: 0x3A }
  - { offset: 0xA9B2A, size: 0x8, addend: 0x0, symName: __ZN19SentryConfiguration15_call_configureERKN5godot3RefI13SentryOptionsEE, symObjAddr: 0x0, symBinAddr: 0x12A20, symSize: 0x100 }
  - { offset: 0xA9D0E, size: 0x8, addend: 0x0, symName: __ZN19SentryConfiguration15_call_configureERKN5godot3RefI13SentryOptionsEE.cold.2, symObjAddr: 0x18E0, symBinAddr: 0x119490, symSize: 0x30 }
  - { offset: 0xA9D26, size: 0x8, addend: 0x0, symName: __ZN19SentryConfiguration15_call_configureERKN5godot3RefI13SentryOptionsEE.cold.1, symObjAddr: 0x18B0, symBinAddr: 0x119460, symSize: 0x30 }
  - { offset: 0xA9D45, size: 0x8, addend: 0x0, symName: __ZN19SentryConfiguration13_notificationEi, symObjAddr: 0x100, symBinAddr: 0x12B20, symSize: 0x70 }
  - { offset: 0xAA5C0, size: 0x8, addend: 0x0, symName: __ZN19SentryConfiguration13_bind_methodsEv, symObjAddr: 0x170, symBinAddr: 0x12B90, symSize: 0x2D0 }
  - { offset: 0xAAEA7, size: 0x8, addend: 0x0, symName: __ZN5godot11GetTypeInfoINS_3RefI13SentryOptionsEEvE14get_class_infoEv, symObjAddr: 0x440, symBinAddr: 0x12E60, symSize: 0x140 }
  - { offset: 0xAAF5E, size: 0x8, addend: 0x0, symName: __ZNSt3__16vectorIN5godot12PropertyInfoENS_9allocatorIS2_EEE21__push_back_slow_pathIS2_EEPS2_OT_, symObjAddr: 0x580, symBinAddr: 0x12FA0, symSize: 0x160 }
  - { offset: 0xAB462, size: 0x8, addend: 0x0, symName: __ZN5godot6VectorINS_10StringNameEE9push_backES1_, symObjAddr: 0x1450, symBinAddr: 0x132B0, symSize: 0xA0 }
  - { offset: 0xAB60E, size: 0x8, addend: 0x0, symName: __ZN5godot10MethodInfoD2Ev, symObjAddr: 0x850, symBinAddr: 0x131C0, symSize: 0xF0 }
  - { offset: 0xABB4E, size: 0x8, addend: 0x0, symName: __ZN19SentryConfiguration13_bind_methodsEv.cold.1, symObjAddr: 0x1910, symBinAddr: 0x1194C0, symSize: 0x60 }
  - { offset: 0xABBBF, size: 0x8, addend: 0x0, symName: __ZN5godot11GetTypeInfoINS_3RefI13SentryOptionsEEvE14get_class_infoEv.cold.1, symObjAddr: 0x1970, symBinAddr: 0x119520, symSize: 0x60 }
  - { offset: 0xAC31E, size: 0x8, addend: 0x0, symName: __ZN5godot8internal23EngineClassRegistrationINS_6ObjectEE8callbackEv.cold.1, symObjAddr: 0x19D0, symBinAddr: 0x119580, symSize: 0x60 }
  - { offset: 0xAC3B9, size: 0x8, addend: 0x0, symName: __ZN5godot6ObjectD1Ev.cold.1, symObjAddr: 0x1A30, symBinAddr: 0x1195E0, symSize: 0x30 }
  - { offset: 0xAC444, size: 0x8, addend: 0x0, symName: __ZN5godot6ObjectD0Ev.cold.1, symObjAddr: 0x1A60, symBinAddr: 0x119610, symSize: 0x30 }
  - { offset: 0xAC4CB, size: 0x8, addend: 0x0, symName: __ZN5godot7WrappedD1Ev.cold.1, symObjAddr: 0x1A90, symBinAddr: 0x119640, symSize: 0x30 }
  - { offset: 0xAC540, size: 0x8, addend: 0x0, symName: __ZN5godot7WrappedD0Ev.cold.1, symObjAddr: 0x1AC0, symBinAddr: 0x119670, symSize: 0x30 }
  - { offset: 0xAC5B1, size: 0x8, addend: 0x0, symName: __ZN5godot4ListINS_12PropertyInfoENS_16DefaultAllocatorEE5_Data5eraseEPNS3_7ElementE.cold.2, symObjAddr: 0x1B20, symBinAddr: 0x1196D0, symSize: 0x30 }
  - { offset: 0xAC5C9, size: 0x8, addend: 0x0, symName: __ZN5godot4ListINS_12PropertyInfoENS_16DefaultAllocatorEE5_Data5eraseEPNS3_7ElementE.cold.1, symObjAddr: 0x1AF0, symBinAddr: 0x1196A0, symSize: 0x30 }
  - { offset: 0xAC5E8, size: 0x8, addend: 0x0, symName: __ZN5godot8internal23EngineClassRegistrationINS_16ClassDBSingletonEE8callbackEv.cold.1, symObjAddr: 0x1B50, symBinAddr: 0x119700, symSize: 0x60 }
  - { offset: 0xAC61D, size: 0x8, addend: 0x0, symName: __ZN5godot8internal23EngineClassRegistrationINS_10RefCountedEE8callbackEv.cold.1, symObjAddr: 0x1BB0, symBinAddr: 0x119760, symSize: 0x60 }
  - { offset: 0xAC667, size: 0x8, addend: 0x0, symName: __ZN5godot10RefCountedD1Ev.cold.1, symObjAddr: 0x1C10, symBinAddr: 0x1197C0, symSize: 0x30 }
  - { offset: 0xAC70A, size: 0x8, addend: 0x0, symName: __ZN5godot10RefCountedD0Ev.cold.1, symObjAddr: 0x1C40, symBinAddr: 0x1197F0, symSize: 0x30 }
  - { offset: 0xAC7AE, size: 0x8, addend: 0x0, symName: __ZN5godot8internal23EngineClassRegistrationINS_6LoggerEE8callbackEv.cold.1, symObjAddr: 0x1C70, symBinAddr: 0x119820, symSize: 0x60 }
  - { offset: 0xAC7E3, size: 0x8, addend: 0x0, symName: __ZN5godot8internal23EngineClassRegistrationINS_13DisplayServerEE8callbackEv.cold.1, symObjAddr: 0x1CD0, symBinAddr: 0x119880, symSize: 0x60 }
  - { offset: 0xAC818, size: 0x8, addend: 0x0, symName: __ZN5godot8internal23EngineClassRegistrationINS_4NodeEE8callbackEv.cold.1, symObjAddr: 0x1D30, symBinAddr: 0x1198E0, symSize: 0x60 }
  - { offset: 0xAC84D, size: 0x8, addend: 0x0, symName: __ZN5godot8internal23EngineClassRegistrationINS_10ConfigFileEE8callbackEv.cold.1, symObjAddr: 0x1D90, symBinAddr: 0x119940, symSize: 0x60 }
  - { offset: 0xAC897, size: 0x8, addend: 0x0, symName: __ZN5godot10ConfigFileD1Ev.cold.1, symObjAddr: 0x1DF0, symBinAddr: 0x1199A0, symSize: 0x30 }
  - { offset: 0xAC950, size: 0x8, addend: 0x0, symName: __ZN5godot10ConfigFileD0Ev.cold.1, symObjAddr: 0x1E20, symBinAddr: 0x1199D0, symSize: 0x30 }
  - { offset: 0xACA0A, size: 0x8, addend: 0x0, symName: __ZN5godot8internal23EngineClassRegistrationINS_15ScriptBacktraceEE8callbackEv.cold.1, symObjAddr: 0x1E50, symBinAddr: 0x119A00, symSize: 0x60 }
  - { offset: 0xACA54, size: 0x8, addend: 0x0, symName: __ZN5godot15ScriptBacktraceD1Ev.cold.1, symObjAddr: 0x1EB0, symBinAddr: 0x119A60, symSize: 0x30 }
  - { offset: 0xACB0D, size: 0x8, addend: 0x0, symName: __ZN5godot15ScriptBacktraceD0Ev.cold.1, symObjAddr: 0x1EE0, symBinAddr: 0x119A90, symSize: 0x30 }
  - { offset: 0xACC75, size: 0x8, addend: 0x0, symName: __ZN5godot7CowDataINS_10StringNameEE6resizeILb0EEENS_5ErrorEx, symObjAddr: 0x14F0, symBinAddr: 0x13350, symSize: 0x2F0 }
  - { offset: 0xAD339, size: 0x8, addend: 0x0, symName: __ZN5godot7CowDataINS_10StringNameEE14_copy_on_writeEv, symObjAddr: 0x1870, symBinAddr: 0x136B0, symSize: 0x40 }
  - { offset: 0xAD46D, size: 0x8, addend: 0x0, symName: __ZN5godot6VectorINS_10StringNameEE9push_backES1_.cold.1, symObjAddr: 0x1F10, symBinAddr: 0x119AC0, symSize: 0x50 }
  - { offset: 0xAD4B2, size: 0x8, addend: 0x0, symName: __ZN5godot6VectorINS_10StringNameEE9push_backES1_.cold.2, symObjAddr: 0x1F60, symBinAddr: 0x119B10, symSize: 0x30 }
  - { offset: 0xAD621, size: 0x8, addend: 0x0, symName: __ZN5godot7CowDataINS_10StringNameEE6resizeILb0EEENS_5ErrorEx.cold.4, symObjAddr: 0x2020, symBinAddr: 0x119BD0, symSize: 0x30 }
  - { offset: 0xAD639, size: 0x8, addend: 0x0, symName: __ZN5godot7CowDataINS_10StringNameEE6resizeILb0EEENS_5ErrorEx.cold.5, symObjAddr: 0x2050, symBinAddr: 0x119C00, symSize: 0x30 }
  - { offset: 0xAD651, size: 0x8, addend: 0x0, symName: __ZN5godot7CowDataINS_10StringNameEE6resizeILb0EEENS_5ErrorEx.cold.2, symObjAddr: 0x1FC0, symBinAddr: 0x119B70, symSize: 0x30 }
  - { offset: 0xAD680, size: 0x8, addend: 0x0, symName: __ZN5godot7CowDataINS_10StringNameEE6resizeILb0EEENS_5ErrorEx.cold.1, symObjAddr: 0x1F90, symBinAddr: 0x119B40, symSize: 0x30 }
  - { offset: 0xAD6AF, size: 0x8, addend: 0x0, symName: __ZN5godot7CowDataINS_10StringNameEE6resizeILb0EEENS_5ErrorEx.cold.3, symObjAddr: 0x1FF0, symBinAddr: 0x119BA0, symSize: 0x30 }
  - { offset: 0xAD6C7, size: 0x8, addend: 0x0, symName: __ZN5godot7CowDataINS_10StringNameEE6_unrefEv, symObjAddr: 0x1800, symBinAddr: 0x13640, symSize: 0x70 }
  - { offset: 0xAD808, size: 0x8, addend: 0x0, symName: __ZN5godot7CowDataINS_10StringNameEE14_copy_on_writeEv.cold.1, symObjAddr: 0x2080, symBinAddr: 0x119C30, symSize: 0xF8 }
  - { offset: 0xB21DE, size: 0x8, addend: 0x0, symName: __ZN5godot18create_method_bindI11SentryEventNS_6StringEJEEEPNS_10MethodBindEMT_KFT0_DpT1_E, symObjAddr: 0x27E0, symBinAddr: 0x15420, symSize: 0x130 }
  - { offset: 0xB2347, size: 0x8, addend: 0x0, symName: __ZN5godot18create_method_bindI11SentryEventJRKNS_6StringEEEEPNS_10MethodBindEMT_FvDpT0_E, symObjAddr: 0x2BA0, symBinAddr: 0x15880, symSize: 0x120 }
  - { offset: 0xB2493, size: 0x8, addend: 0x0, symName: __ZN5godot18create_method_bindI11SentryEventJN6sentry5LevelEEEEPNS_10MethodBindEMT_FvDpT0_E, symObjAddr: 0x31A0, symBinAddr: 0x15F70, symSize: 0x120 }
  - { offset: 0xB25DF, size: 0x8, addend: 0x0, symName: __ZN5godot18create_method_bindI11SentryEventN6sentry5LevelEJEEEPNS_10MethodBindEMT_KFT0_DpT1_E, symObjAddr: 0x38D0, symBinAddr: 0x16720, symSize: 0x130 }
  - { offset: 0xB272E, size: 0x8, addend: 0x0, symName: __ZN5godot18create_method_bindI11SentryEventJRKNS_6StringES4_EEEPNS_10MethodBindEMT_FvDpT0_E, symObjAddr: 0x3B50, symBinAddr: 0x16A40, symSize: 0x120 }
  - { offset: 0xB287F, size: 0x8, addend: 0x0, symName: __ZN5godot18create_method_bindI11SentryEventNS_6StringEJRKS2_EEEPNS_10MethodBindEMT_FT0_DpT1_E, symObjAddr: 0x40B0, symBinAddr: 0x17100, symSize: 0x120 }
  - { offset: 0xB2ED5, size: 0x8, addend: 0x0, symName: __ZN5godot34call_get_argument_type_info_helperIRKNS_6StringEEEviRiRNS_12PropertyInfoE, symObjAddr: 0x2F10, symBinAddr: 0x15BE0, symSize: 0x180 }
  - { offset: 0xB3047, size: 0x8, addend: 0x0, symName: __ZN5godot25call_with_variant_args_dvINS_20_gde_UnexistingClassEJRKNS_6StringEEEEvPT_MS5_FvDpT0_EPKPKviR20GDExtensionCallErrorRKNSt3__16vectorINS_7VariantENSH_9allocatorISJ_EEEE, symObjAddr: 0x3090, symBinAddr: 0x15D60, symSize: 0x130 }
  - { offset: 0xB3490, size: 0x8, addend: 0x0, symName: __ZN5godot34call_get_argument_type_info_helperIN6sentry5LevelEEEviRiRNS_12PropertyInfoE, symObjAddr: 0x34C0, symBinAddr: 0x16280, symSize: 0xC0 }
  - { offset: 0xB356C, size: 0x8, addend: 0x0, symName: __ZN5godot25call_with_variant_args_dvINS_20_gde_UnexistingClassEJN6sentry5LevelEEEEvPT_MS4_FvDpT0_EPKPKviR20GDExtensionCallErrorRKNSt3__16vectorINS_7VariantENSG_9allocatorISI_EEEE, symObjAddr: 0x37D0, symBinAddr: 0x16590, symSize: 0x190 }
  - { offset: 0xB37E3, size: 0x8, addend: 0x0, symName: __ZN5godot38enum_qualified_name_to_class_info_nameERKNS_6StringE, symObjAddr: 0x36C0, symBinAddr: 0x16480, symSize: 0x110 }
  - { offset: 0xB3D17, size: 0x8, addend: 0x0, symName: __ZN5godot25call_with_variant_args_dvINS_20_gde_UnexistingClassEJRKNS_6StringES4_EEEvPT_MS5_FvDpT0_EPKPKviR20GDExtensionCallErrorRKNSt3__16vectorINS_7VariantENSH_9allocatorISJ_EEEE, symObjAddr: 0x3F00, symBinAddr: 0x16DF0, symSize: 0x1C0 }
  - { offset: 0xB4130, size: 0x8, addend: 0x0, symName: __ZN5godot29call_with_variant_args_ret_dvINS_20_gde_UnexistingClassENS_6StringEJRKS2_EEEvPT_MS5_FT0_DpT1_EPKPKviRNS_7VariantER20GDExtensionCallErrorRKNSt3__16vectorISG_NSK_9allocatorISG_EEEE, symObjAddr: 0x4490, symBinAddr: 0x174D0, symSize: 0x140 }
  - { offset: 0xC23E6, size: 0x8, addend: 0x0, symName: ___cxx_global_var_init, symObjAddr: 0x5000, symBinAddr: 0x17720, symSize: 0x40 }
  - { offset: 0xC246D, size: 0x8, addend: 0x0, symName: ___cxx_global_var_init.1, symObjAddr: 0x5040, symBinAddr: 0x17760, symSize: 0x40 }
  - { offset: 0xC24F4, size: 0x8, addend: 0x0, symName: ___cxx_global_var_init.2, symObjAddr: 0x5080, symBinAddr: 0x177A0, symSize: 0x40 }
  - { offset: 0xC257B, size: 0x8, addend: 0x0, symName: ___cxx_global_var_init.3, symObjAddr: 0x50C0, symBinAddr: 0x177E0, symSize: 0x40 }
  - { offset: 0xC2602, size: 0x8, addend: 0x0, symName: ___cxx_global_var_init.4, symObjAddr: 0x5100, symBinAddr: 0x17820, symSize: 0x40 }
  - { offset: 0xC2689, size: 0x8, addend: 0x0, symName: ___cxx_global_var_init.5, symObjAddr: 0x5140, symBinAddr: 0x17860, symSize: 0x3A }
  - { offset: 0xC2FBF, size: 0x8, addend: 0x0, symName: __ZN11SentryEvent13_bind_methodsEv, symObjAddr: 0x0, symBinAddr: 0x138F0, symSize: 0x1B30 }
  - { offset: 0xC753A, size: 0x8, addend: 0x0, symName: __ZN11SentryEvent13_bind_methodsEv.cold.1, symObjAddr: 0x45E0, symBinAddr: 0x119D30, symSize: 0x60 }
  - { offset: 0xC7568, size: 0x8, addend: 0x0, symName: __ZN11SentryEvent13_bind_methodsEv.cold.2, symObjAddr: 0x4640, symBinAddr: 0x119D90, symSize: 0x60 }
  - { offset: 0xC7596, size: 0x8, addend: 0x0, symName: __ZN11SentryEvent13_bind_methodsEv.cold.3, symObjAddr: 0x46A0, symBinAddr: 0x119DF0, symSize: 0x60 }
  - { offset: 0xC75C4, size: 0x8, addend: 0x0, symName: __ZN11SentryEvent13_bind_methodsEv.cold.4, symObjAddr: 0x4700, symBinAddr: 0x119E50, symSize: 0x60 }
  - { offset: 0xC75F2, size: 0x8, addend: 0x0, symName: __ZN11SentryEvent13_bind_methodsEv.cold.5, symObjAddr: 0x4760, symBinAddr: 0x119EB0, symSize: 0x60 }
  - { offset: 0xC7620, size: 0x8, addend: 0x0, symName: __ZN11SentryEvent13_bind_methodsEv.cold.6, symObjAddr: 0x47C0, symBinAddr: 0x119F10, symSize: 0x60 }
  - { offset: 0xC764E, size: 0x8, addend: 0x0, symName: __ZN11SentryEvent13_bind_methodsEv.cold.7, symObjAddr: 0x4820, symBinAddr: 0x119F70, symSize: 0x60 }
  - { offset: 0xC767C, size: 0x8, addend: 0x0, symName: __ZN11SentryEvent13_bind_methodsEv.cold.8, symObjAddr: 0x4880, symBinAddr: 0x119FD0, symSize: 0x60 }
  - { offset: 0xC76AA, size: 0x8, addend: 0x0, symName: __ZN11SentryEvent13_bind_methodsEv.cold.9, symObjAddr: 0x48E0, symBinAddr: 0x11A030, symSize: 0x60 }
  - { offset: 0xC76DF, size: 0x8, addend: 0x0, symName: __ZN5godot8internal23EngineClassRegistrationINS_6ObjectEE8callbackEv.cold.1, symObjAddr: 0x4940, symBinAddr: 0x11A090, symSize: 0x60 }
  - { offset: 0xC777A, size: 0x8, addend: 0x0, symName: __ZN5godot6ObjectD1Ev.cold.1, symObjAddr: 0x49A0, symBinAddr: 0x11A0F0, symSize: 0x30 }
  - { offset: 0xC7805, size: 0x8, addend: 0x0, symName: __ZN5godot6ObjectD0Ev.cold.1, symObjAddr: 0x49D0, symBinAddr: 0x11A120, symSize: 0x30 }
  - { offset: 0xC788C, size: 0x8, addend: 0x0, symName: __ZN5godot7WrappedD1Ev.cold.1, symObjAddr: 0x4A00, symBinAddr: 0x11A150, symSize: 0x30 }
  - { offset: 0xC7901, size: 0x8, addend: 0x0, symName: __ZN5godot7WrappedD0Ev.cold.1, symObjAddr: 0x4A30, symBinAddr: 0x11A180, symSize: 0x30 }
  - { offset: 0xC7972, size: 0x8, addend: 0x0, symName: __ZN5godot4ListINS_12PropertyInfoENS_16DefaultAllocatorEE5_Data5eraseEPNS3_7ElementE.cold.2, symObjAddr: 0x4A90, symBinAddr: 0x11A1E0, symSize: 0x30 }
  - { offset: 0xC798A, size: 0x8, addend: 0x0, symName: __ZN5godot4ListINS_12PropertyInfoENS_16DefaultAllocatorEE5_Data5eraseEPNS3_7ElementE.cold.1, symObjAddr: 0x4A60, symBinAddr: 0x11A1B0, symSize: 0x30 }
  - { offset: 0xC79A9, size: 0x8, addend: 0x0, symName: __ZN5godot8internal23EngineClassRegistrationINS_16ClassDBSingletonEE8callbackEv.cold.1, symObjAddr: 0x4AC0, symBinAddr: 0x11A210, symSize: 0x60 }
  - { offset: 0xC79DE, size: 0x8, addend: 0x0, symName: __ZN5godot8internal23EngineClassRegistrationINS_10RefCountedEE8callbackEv.cold.1, symObjAddr: 0x4B20, symBinAddr: 0x11A270, symSize: 0x60 }
  - { offset: 0xC7A28, size: 0x8, addend: 0x0, symName: __ZN5godot10RefCountedD1Ev.cold.1, symObjAddr: 0x4B80, symBinAddr: 0x11A2D0, symSize: 0x30 }
  - { offset: 0xC7ACB, size: 0x8, addend: 0x0, symName: __ZN5godot10RefCountedD0Ev.cold.1, symObjAddr: 0x4BB0, symBinAddr: 0x11A300, symSize: 0x30 }
  - { offset: 0xC7B6F, size: 0x8, addend: 0x0, symName: __ZN5godot8internal23EngineClassRegistrationINS_10ConfigFileEE8callbackEv.cold.1, symObjAddr: 0x4BE0, symBinAddr: 0x11A330, symSize: 0x60 }
  - { offset: 0xC7BB9, size: 0x8, addend: 0x0, symName: __ZN5godot10ConfigFileD1Ev.cold.1, symObjAddr: 0x4C40, symBinAddr: 0x11A390, symSize: 0x30 }
  - { offset: 0xC7C72, size: 0x8, addend: 0x0, symName: __ZN5godot10ConfigFileD0Ev.cold.1, symObjAddr: 0x4C70, symBinAddr: 0x11A3C0, symSize: 0x30 }
  - { offset: 0xC7D2C, size: 0x8, addend: 0x0, symName: __ZN5godot8internal23EngineClassRegistrationINS_6LoggerEE8callbackEv.cold.1, symObjAddr: 0x4CA0, symBinAddr: 0x11A3F0, symSize: 0x60 }
  - { offset: 0xC7D61, size: 0x8, addend: 0x0, symName: __ZN5godot8internal23EngineClassRegistrationINS_15ScriptBacktraceEE8callbackEv.cold.1, symObjAddr: 0x4D00, symBinAddr: 0x11A450, symSize: 0x60 }
  - { offset: 0xC7DAB, size: 0x8, addend: 0x0, symName: __ZN5godot15ScriptBacktraceD1Ev.cold.1, symObjAddr: 0x4D60, symBinAddr: 0x11A4B0, symSize: 0x30 }
  - { offset: 0xC7E64, size: 0x8, addend: 0x0, symName: __ZN5godot15ScriptBacktraceD0Ev.cold.1, symObjAddr: 0x4D90, symBinAddr: 0x11A4E0, symSize: 0x30 }
  - { offset: 0xC7FED, size: 0x8, addend: 0x0, symName: __ZN5godot18create_method_bindI11SentryEventNS_6StringEJEEEPNS_10MethodBindEMT_KFT0_DpT1_E.cold.1, symObjAddr: 0x4DC0, symBinAddr: 0x11A510, symSize: 0x60 }
  - { offset: 0xC801C, size: 0x8, addend: 0x0, symName: __ZNK5godot13MethodBindTRCINS_6StringEJEE17gen_argument_typeEi, symObjAddr: 0x2910, symBinAddr: 0x15550, symSize: 0x10 }
  - { offset: 0xC808B, size: 0x8, addend: 0x0, symName: __ZNK5godot13MethodBindTRCINS_6StringEJEE22gen_argument_type_infoEi, symObjAddr: 0x2920, symBinAddr: 0x15560, symSize: 0x110 }
  - { offset: 0xC8169, size: 0x8, addend: 0x0, symName: __ZNK5godot13MethodBindTRCINS_6StringEJEE21get_argument_metadataEi, symObjAddr: 0x2A30, symBinAddr: 0x15670, symSize: 0x10 }
  - { offset: 0xC81D6, size: 0x8, addend: 0x0, symName: __ZNK5godot13MethodBindTRCINS_6StringEJEE4callEPvPKPKvxR20GDExtensionCallError, symObjAddr: 0x2A40, symBinAddr: 0x15680, symSize: 0x60 }
  - { offset: 0xC8320, size: 0x8, addend: 0x0, symName: __ZNK5godot13MethodBindTRCINS_6StringEJEE7ptrcallEPvPKPKvS3_, symObjAddr: 0x2B00, symBinAddr: 0x156E0, symSize: 0x70 }
  - { offset: 0xC841D, size: 0x8, addend: 0x0, symName: __ZN5godot13MethodBindTRCINS_6StringEJEED1Ev, symObjAddr: 0x2B70, symBinAddr: 0x15750, symSize: 0x10 }
  - { offset: 0xC847A, size: 0x8, addend: 0x0, symName: __ZN5godot13MethodBindTRCINS_6StringEJEED0Ev, symObjAddr: 0x2B80, symBinAddr: 0x15760, symSize: 0x20 }
  - { offset: 0xC8546, size: 0x8, addend: 0x0, symName: __ZN5godot18create_method_bindI11SentryEventJRKNS_6StringEEEEPNS_10MethodBindEMT_FvDpT0_E.cold.1, symObjAddr: 0x4E20, symBinAddr: 0x11A570, symSize: 0x60 }
  - { offset: 0xC8575, size: 0x8, addend: 0x0, symName: __ZNK5godot11MethodBindTIJRKNS_6StringEEE17gen_argument_typeEi, symObjAddr: 0x2CC0, symBinAddr: 0x159A0, symSize: 0x10 }
  - { offset: 0xC85D7, size: 0x8, addend: 0x0, symName: __ZNK5godot11MethodBindTIJRKNS_6StringEEE22gen_argument_type_infoEi, symObjAddr: 0x2CD0, symBinAddr: 0x159B0, symSize: 0x130 }
  - { offset: 0xC876B, size: 0x8, addend: 0x0, symName: __ZNK5godot11MethodBindTIJRKNS_6StringEEE21get_argument_metadataEi, symObjAddr: 0x2E10, symBinAddr: 0x15AE0, symSize: 0x10 }
  - { offset: 0xC87BA, size: 0x8, addend: 0x0, symName: __ZNK5godot11MethodBindTIJRKNS_6StringEEE4callEPvPKPKvxR20GDExtensionCallError, symObjAddr: 0x2E20, symBinAddr: 0x15AF0, symSize: 0x40 }
  - { offset: 0xC887E, size: 0x8, addend: 0x0, symName: __ZNK5godot11MethodBindTIJRKNS_6StringEEE7ptrcallEPvPKPKvS5_, symObjAddr: 0x2E60, symBinAddr: 0x15B30, symSize: 0x80 }
  - { offset: 0xC898A, size: 0x8, addend: 0x0, symName: __ZN5godot11MethodBindTIJRKNS_6StringEEED1Ev, symObjAddr: 0x2EE0, symBinAddr: 0x15BB0, symSize: 0x10 }
  - { offset: 0xC89E7, size: 0x8, addend: 0x0, symName: __ZN5godot11MethodBindTIJRKNS_6StringEEED0Ev, symObjAddr: 0x2EF0, symBinAddr: 0x15BC0, symSize: 0x20 }
  - { offset: 0xC8B0A, size: 0x8, addend: 0x0, symName: __ZN5godot18create_method_bindI11SentryEventJN6sentry5LevelEEEEPNS_10MethodBindEMT_FvDpT0_E.cold.1, symObjAddr: 0x4E80, symBinAddr: 0x11A5D0, symSize: 0x60 }
  - { offset: 0xC8B39, size: 0x8, addend: 0x0, symName: __ZNK5godot11MethodBindTIJN6sentry5LevelEEE17gen_argument_typeEi, symObjAddr: 0x32C0, symBinAddr: 0x16090, symSize: 0x10 }
  - { offset: 0xC8B6D, size: 0x8, addend: 0x0, symName: __ZNK5godot11MethodBindTIJN6sentry5LevelEEE22gen_argument_type_infoEi, symObjAddr: 0x32D0, symBinAddr: 0x160A0, symSize: 0x130 }
  - { offset: 0xC8D01, size: 0x8, addend: 0x0, symName: __ZNK5godot11MethodBindTIJN6sentry5LevelEEE21get_argument_metadataEi, symObjAddr: 0x3410, symBinAddr: 0x161D0, symSize: 0x10 }
  - { offset: 0xC8D35, size: 0x8, addend: 0x0, symName: __ZNK5godot11MethodBindTIJN6sentry5LevelEEE4callEPvPKPKvxR20GDExtensionCallError, symObjAddr: 0x3420, symBinAddr: 0x161E0, symSize: 0x40 }
  - { offset: 0xC8DF9, size: 0x8, addend: 0x0, symName: __ZNK5godot11MethodBindTIJN6sentry5LevelEEE7ptrcallEPvPKPKvS4_, symObjAddr: 0x3460, symBinAddr: 0x16220, symSize: 0x30 }
  - { offset: 0xC8EF6, size: 0x8, addend: 0x0, symName: __ZN5godot11MethodBindTIJN6sentry5LevelEEED1Ev, symObjAddr: 0x3490, symBinAddr: 0x16250, symSize: 0x10 }
  - { offset: 0xC8F53, size: 0x8, addend: 0x0, symName: __ZN5godot11MethodBindTIJN6sentry5LevelEEED0Ev, symObjAddr: 0x34A0, symBinAddr: 0x16260, symSize: 0x20 }
  - { offset: 0xC8FBF, size: 0x8, addend: 0x0, symName: __ZN5godot11GetTypeInfoIN6sentry5LevelEvE14get_class_infoEv, symObjAddr: 0x3580, symBinAddr: 0x16340, symSize: 0x140 }
  - { offset: 0xC90F5, size: 0x8, addend: 0x0, symName: __ZN5godot18create_method_bindI11SentryEventN6sentry5LevelEJEEEPNS_10MethodBindEMT_KFT0_DpT1_E.cold.1, symObjAddr: 0x4EE0, symBinAddr: 0x11A630, symSize: 0x60 }
  - { offset: 0xC9124, size: 0x8, addend: 0x0, symName: __ZNK5godot13MethodBindTRCIN6sentry5LevelEJEE17gen_argument_typeEi, symObjAddr: 0x3A00, symBinAddr: 0x16850, symSize: 0x10 }
  - { offset: 0xC9158, size: 0x8, addend: 0x0, symName: __ZNK5godot13MethodBindTRCIN6sentry5LevelEJEE22gen_argument_type_infoEi, symObjAddr: 0x3A10, symBinAddr: 0x16860, symSize: 0x20 }
  - { offset: 0xC91A7, size: 0x8, addend: 0x0, symName: __ZNK5godot13MethodBindTRCIN6sentry5LevelEJEE21get_argument_metadataEi, symObjAddr: 0x3A30, symBinAddr: 0x16880, symSize: 0x10 }
  - { offset: 0xC9200, size: 0x8, addend: 0x0, symName: __ZNK5godot13MethodBindTRCIN6sentry5LevelEJEE4callEPvPKPKvxR20GDExtensionCallError, symObjAddr: 0x3A40, symBinAddr: 0x16890, symSize: 0x60 }
  - { offset: 0xC9369, size: 0x8, addend: 0x0, symName: __ZNK5godot13MethodBindTRCIN6sentry5LevelEJEE7ptrcallEPvPKPKvS4_, symObjAddr: 0x3AF0, symBinAddr: 0x168F0, symSize: 0x30 }
  - { offset: 0xC9469, size: 0x8, addend: 0x0, symName: __ZN5godot13MethodBindTRCIN6sentry5LevelEJEED1Ev, symObjAddr: 0x3B20, symBinAddr: 0x16920, symSize: 0x10 }
  - { offset: 0xC94C6, size: 0x8, addend: 0x0, symName: __ZN5godot13MethodBindTRCIN6sentry5LevelEJEED0Ev, symObjAddr: 0x3B30, symBinAddr: 0x16930, symSize: 0x20 }
  - { offset: 0xC9592, size: 0x8, addend: 0x0, symName: __ZN5godot18create_method_bindI11SentryEventJRKNS_6StringES4_EEEPNS_10MethodBindEMT_FvDpT0_E.cold.1, symObjAddr: 0x4F40, symBinAddr: 0x11A690, symSize: 0x60 }
  - { offset: 0xC95C1, size: 0x8, addend: 0x0, symName: __ZNK5godot11MethodBindTIJRKNS_6StringES3_EE17gen_argument_typeEi, symObjAddr: 0x3C70, symBinAddr: 0x16B60, symSize: 0x20 }
  - { offset: 0xC9601, size: 0x8, addend: 0x0, symName: __ZNK5godot11MethodBindTIJRKNS_6StringES3_EE22gen_argument_type_infoEi, symObjAddr: 0x3C90, symBinAddr: 0x16B80, symSize: 0x150 }
  - { offset: 0xC97BA, size: 0x8, addend: 0x0, symName: __ZNK5godot11MethodBindTIJRKNS_6StringES3_EE21get_argument_metadataEi, symObjAddr: 0x3DE0, symBinAddr: 0x16CD0, symSize: 0x10 }
  - { offset: 0xC97EE, size: 0x8, addend: 0x0, symName: __ZNK5godot11MethodBindTIJRKNS_6StringES3_EE4callEPvPKPKvxR20GDExtensionCallError, symObjAddr: 0x3DF0, symBinAddr: 0x16CE0, symSize: 0x40 }
  - { offset: 0xC989F, size: 0x8, addend: 0x0, symName: __ZNK5godot11MethodBindTIJRKNS_6StringES3_EE7ptrcallEPvPKPKvS5_, symObjAddr: 0x3E30, symBinAddr: 0x16D20, symSize: 0xA0 }
  - { offset: 0xC99D0, size: 0x8, addend: 0x0, symName: __ZN5godot11MethodBindTIJRKNS_6StringES3_EED1Ev, symObjAddr: 0x3ED0, symBinAddr: 0x16DC0, symSize: 0x10 }
  - { offset: 0xC9A2D, size: 0x8, addend: 0x0, symName: __ZN5godot11MethodBindTIJRKNS_6StringES3_EED0Ev, symObjAddr: 0x3EE0, symBinAddr: 0x16DD0, symSize: 0x20 }
  - { offset: 0xC9AF9, size: 0x8, addend: 0x0, symName: __ZN5godot18create_method_bindI11SentryEventNS_6StringEJRKS2_EEEPNS_10MethodBindEMT_FT0_DpT1_E.cold.1, symObjAddr: 0x4FA0, symBinAddr: 0x11A6F0, symSize: 0x5B }
  - { offset: 0xC9B28, size: 0x8, addend: 0x0, symName: __ZNK5godot12MethodBindTRINS_6StringEJRKS1_EE17gen_argument_typeEi, symObjAddr: 0x41D0, symBinAddr: 0x17220, symSize: 0x10 }
  - { offset: 0xC9B5C, size: 0x8, addend: 0x0, symName: __ZNK5godot12MethodBindTRINS_6StringEJRKS1_EE22gen_argument_type_infoEi, symObjAddr: 0x41E0, symBinAddr: 0x17230, symSize: 0x160 }
  - { offset: 0xC9CF3, size: 0x8, addend: 0x0, symName: __ZNK5godot12MethodBindTRINS_6StringEJRKS1_EE21get_argument_metadataEi, symObjAddr: 0x4350, symBinAddr: 0x17390, symSize: 0x10 }
  - { offset: 0xC9D27, size: 0x8, addend: 0x0, symName: __ZNK5godot12MethodBindTRINS_6StringEJRKS1_EE4callEPvPKPKvxR20GDExtensionCallError, symObjAddr: 0x4360, symBinAddr: 0x173A0, symSize: 0x60 }
  - { offset: 0xC9DED, size: 0x8, addend: 0x0, symName: __ZNK5godot12MethodBindTRINS_6StringEJRKS1_EE7ptrcallEPvPKPKvS5_, symObjAddr: 0x43C0, symBinAddr: 0x17400, symSize: 0xA0 }
  - { offset: 0xC9F18, size: 0x8, addend: 0x0, symName: __ZN5godot12MethodBindTRINS_6StringEJRKS1_EED1Ev, symObjAddr: 0x4460, symBinAddr: 0x174A0, symSize: 0x10 }
  - { offset: 0xC9F75, size: 0x8, addend: 0x0, symName: __ZN5godot12MethodBindTRINS_6StringEJRKS1_EED0Ev, symObjAddr: 0x4470, symBinAddr: 0x174B0, symSize: 0x20 }
  - { offset: 0xE54C9, size: 0x8, addend: 0x0, symName: __ZNSt3__119__throw_regex_errorB8nn190102ILNS_15regex_constants10error_typeE17EEEvv, symObjAddr: 0x99F0, symBinAddr: 0x1E420, symSize: 0x10 }
  - { offset: 0xE69AB, size: 0x8, addend: 0x0, symName: __ZNSt3__119__throw_regex_errorB8nn190102ILNS_15regex_constants10error_typeE12EEEvv, symObjAddr: 0x7B60, symBinAddr: 0x1C780, symSize: 0x10 }
  - { offset: 0xE69DF, size: 0x8, addend: 0x0, symName: __ZNSt3__119__throw_regex_errorB8nn190102ILNS_15regex_constants10error_typeE16EEEvv, symObjAddr: 0x7B70, symBinAddr: 0x1C790, symSize: 0x10 }
  - { offset: 0xE8960, size: 0x8, addend: 0x0, symName: __ZNSt3__119__throw_regex_errorB8nn190102ILNS_15regex_constants10error_typeE14EEEvv, symObjAddr: 0xA2A0, symBinAddr: 0x1ECD0, symSize: 0x10 }
  - { offset: 0xE8AA0, size: 0x8, addend: 0x0, symName: __ZNSt3__119__throw_regex_errorB8nn190102ILNS_15regex_constants10error_typeE15EEEvv, symObjAddr: 0x10750, symBinAddr: 0x24F30, symSize: 0x10 }
  - { offset: 0xE8DC2, size: 0x8, addend: 0x0, symName: __ZNSt3__119__throw_regex_errorB8nn190102ILNS_15regex_constants10error_typeE6EEEvv, symObjAddr: 0xB3C0, symBinAddr: 0x1FE50, symSize: 0x10 }
  - { offset: 0xE8F76, size: 0x8, addend: 0x0, symName: __ZNSt3__119__throw_regex_errorB8nn190102ILNS_15regex_constants10error_typeE11EEEvv, symObjAddr: 0xBBF0, symBinAddr: 0x20540, symSize: 0x10 }
  - { offset: 0xE9482, size: 0x8, addend: 0x0, symName: __ZNSt3__119__throw_regex_errorB8nn190102ILNS_15regex_constants10error_typeE8EEEvv, symObjAddr: 0x10120, symBinAddr: 0x24900, symSize: 0x10 }
  - { offset: 0xE94B6, size: 0x8, addend: 0x0, symName: __ZNSt3__119__throw_regex_errorB8nn190102ILNS_15regex_constants10error_typeE7EEEvv, symObjAddr: 0x10130, symBinAddr: 0x24910, symSize: 0x10 }
  - { offset: 0xE95CD, size: 0x8, addend: 0x0, symName: __ZNSt3__119__throw_regex_errorB8nn190102ILNS_15regex_constants10error_typeE4EEEvv, symObjAddr: 0xC5F0, symBinAddr: 0x20FD0, symSize: 0x10 }
  - { offset: 0xE9601, size: 0x8, addend: 0x0, symName: __ZNSt3__119__throw_regex_errorB8nn190102ILNS_15regex_constants10error_typeE3EEEvv, symObjAddr: 0xBE20, symBinAddr: 0x20770, symSize: 0x10 }
  - { offset: 0xE9635, size: 0x8, addend: 0x0, symName: __ZNSt3__119__throw_regex_errorB8nn190102ILNS_15regex_constants10error_typeE5EEEvv, symObjAddr: 0xDF70, symBinAddr: 0x228E0, symSize: 0x10 }
  - { offset: 0xEA24F, size: 0x8, addend: 0x0, symName: __ZNSt3__119__throw_regex_errorB8nn190102ILNS_15regex_constants10error_typeE1EEEvv, symObjAddr: 0xF670, symBinAddr: 0x23ED0, symSize: 0x10 }
  - { offset: 0xEA283, size: 0x8, addend: 0x0, symName: __ZNSt3__119__throw_regex_errorB8nn190102ILNS_15regex_constants10error_typeE2EEEvv, symObjAddr: 0xFA40, symBinAddr: 0x24220, symSize: 0x10 }
  - { offset: 0xEA4D5, size: 0x8, addend: 0x0, symName: __ZNSt3__119__throw_regex_errorB8nn190102ILNS_15regex_constants10error_typeE9EEEvv, symObjAddr: 0xFDD0, symBinAddr: 0x245B0, symSize: 0x10 }
  - { offset: 0xECE3A, size: 0x8, addend: 0x0, symName: __ZN12_GLOBAL__N_111error_typesE, symObjAddr: 0x12CC0, symBinAddr: 0x1DCB40, symSize: 0x0 }
  - { offset: 0xED5BC, size: 0x8, addend: 0x0, symName: __ZN6sentry4util5printIJA15_cN5godot6StringEA3_cA10_cS4_A2_cS6_iS7_S6_S4_S7_S2_S4_S7_A16_cPKcEEEvNS_5LevelERKNS3_7VariantEDpRKT_, symObjAddr: 0x3CE0, symBinAddr: 0x19980, symSize: 0x220 }
  - { offset: 0xEFBC9, size: 0x8, addend: 0x0, symName: ___cxx_global_var_init, symObjAddr: 0x129A0, symBinAddr: 0x26550, symSize: 0x40 }
  - { offset: 0xEFC50, size: 0x8, addend: 0x0, symName: ___cxx_global_var_init.1, symObjAddr: 0x129E0, symBinAddr: 0x26590, symSize: 0x40 }
  - { offset: 0xEFCD7, size: 0x8, addend: 0x0, symName: ___cxx_global_var_init.2, symObjAddr: 0x12A20, symBinAddr: 0x265D0, symSize: 0x40 }
  - { offset: 0xEFD5E, size: 0x8, addend: 0x0, symName: ___cxx_global_var_init.3, symObjAddr: 0x12A60, symBinAddr: 0x26610, symSize: 0x40 }
  - { offset: 0xEFDE5, size: 0x8, addend: 0x0, symName: ___cxx_global_var_init.4, symObjAddr: 0x12AA0, symBinAddr: 0x26650, symSize: 0x40 }
  - { offset: 0xEFE6C, size: 0x8, addend: 0x0, symName: ___cxx_global_var_init.5, symObjAddr: 0x12AE0, symBinAddr: 0x26690, symSize: 0x40 }
  - { offset: 0xEFEF3, size: 0x8, addend: 0x0, symName: ___cxx_global_var_init.6, symObjAddr: 0x12B20, symBinAddr: 0x266D0, symSize: 0x40 }
  - { offset: 0xEFF7A, size: 0x8, addend: 0x0, symName: ___cxx_global_var_init.7, symObjAddr: 0x12B60, symBinAddr: 0x26710, symSize: 0x40 }
  - { offset: 0xF0001, size: 0x8, addend: 0x0, symName: ___cxx_global_var_init.8, symObjAddr: 0x12BA0, symBinAddr: 0x26750, symSize: 0x40 }
  - { offset: 0xF0088, size: 0x8, addend: 0x0, symName: ___cxx_global_var_init.9, symObjAddr: 0x12BE0, symBinAddr: 0x26790, symSize: 0x3A }
  - { offset: 0xF105B, size: 0x8, addend: 0x0, symName: __ZN12SentryLogger10_log_errorERKN5godot6StringES3_iS3_S3_biRKNS0_10TypedArrayINS0_15ScriptBacktraceEEE, symObjAddr: 0x0, symBinAddr: 0x178A0, symSize: 0x1600 }
  - { offset: 0xF3E1F, size: 0x8, addend: 0x0, symName: __ZN5godot6Object7cast_toINS_15ScriptBacktraceEEEPT_PS0_, symObjAddr: 0x47B0, symBinAddr: 0x1A3E0, symSize: 0xE0 }
  - { offset: 0xF3EBD, size: 0x8, addend: 0x0, symName: __ZN5godot6VectorIN11SentryEvent10StackFrameEE9push_backES2_, symObjAddr: 0x4C20, symBinAddr: 0x1A820, symSize: 0x120 }
  - { offset: 0xF41F7, size: 0x8, addend: 0x0, symName: __ZN5godot7CowDataINS_4PairINS_6StringENS_7VariantEEEE6resizeILb0EEENS_5ErrorEx, symObjAddr: 0x48A0, symBinAddr: 0x1A4C0, symSize: 0x320 }
  - { offset: 0xF4950, size: 0x8, addend: 0x0, symName: __ZN12SentryLogger10_log_errorERKN5godot6StringES3_iS3_S3_biRKNS0_10TypedArrayINS0_15ScriptBacktraceEEE.cold.1, symObjAddr: 0x11D80, symBinAddr: 0x11A750, symSize: 0x50 }
  - { offset: 0xF5E2C, size: 0x8, addend: 0x0, symName: __ZN12SentryLogger12_log_messageERKN5godot6StringEb, symObjAddr: 0x1B00, symBinAddr: 0x18EA0, symSize: 0x500 }
  - { offset: 0xF7045, size: 0x8, addend: 0x0, symName: __ZNKSt3__111basic_regexIcNS_12regex_traitsIcEEE8__searchINS_9allocatorINS_9sub_matchIPKcEEEEEEbS8_S8_RNS_13match_resultsIS8_T_EENS_15regex_constants15match_flag_typeE, symObjAddr: 0x5CF0, symBinAddr: 0x1A940, symSize: 0x340 }
  - { offset: 0xF7657, size: 0x8, addend: 0x0, symName: __ZNSt3__111basic_regexIcNS_12regex_traitsIcEEED1Ev, symObjAddr: 0x2000, symBinAddr: 0x193A0, symSize: 0x50 }
  - { offset: 0xF7C7C, size: 0x8, addend: 0x0, symName: __ZN12SentryLoggerC2Ev, symObjAddr: 0x2050, symBinAddr: 0x193F0, symSize: 0x290 }
  - { offset: 0xF83B5, size: 0x8, addend: 0x0, symName: __ZNSt3__111basic_regexIcNS_12regex_traitsIcEEE7__parseIPKcEET_S7_S7_, symObjAddr: 0x9710, symBinAddr: 0x1E140, symSize: 0x2E0 }
  - { offset: 0xF8C29, size: 0x8, addend: 0x0, symName: __ZNSt3__16vectorINS_11basic_regexIcNS_12regex_traitsIcEEEENS_9allocatorIS4_EEE18__assign_with_sizeB8nn190102IPKS4_SA_EEvT_T0_l, symObjAddr: 0x11670, symBinAddr: 0x25E50, symSize: 0x3C0 }
  - { offset: 0xF9DD2, size: 0x8, addend: 0x0, symName: __ZNSt3__16vectorIN5godot6StringENS_9allocatorIS2_EEE18__assign_with_sizeB8nn190102IPKS2_S8_EEvT_T0_l, symObjAddr: 0x11A40, symBinAddr: 0x26210, symSize: 0x210 }
  - { offset: 0xFA71C, size: 0x8, addend: 0x0, symName: __ZNSt3__111basic_regexIcNS_12regex_traitsIcEEE6assignB8nn190102IPKcLi0EEERS3_T_S8_NS_15regex_constants18syntax_option_typeE, symObjAddr: 0x11C50, symBinAddr: 0x26420, symSize: 0x130 }
  - { offset: 0xFAC15, size: 0x8, addend: 0x0, symName: __ZNSt3__111basic_regexIcNS_12regex_traitsIcEEEC1B8nn190102Ev, symObjAddr: 0x22E0, symBinAddr: 0x19680, symSize: 0x50 }
  - { offset: 0xFACF2, size: 0x8, addend: 0x0, symName: __ZN12SentryLoggerC1Ev, symObjAddr: 0x2330, symBinAddr: 0x196D0, symSize: 0x10 }
  - { offset: 0xFAD34, size: 0x8, addend: 0x0, symName: __ZNK12SentryLogger19_is_extension_classEv, symObjAddr: 0x2340, symBinAddr: 0x196E0, symSize: 0x10 }
  - { offset: 0xFAD59, size: 0x8, addend: 0x0, symName: __ZN12SentryLoggerD1Ev, symObjAddr: 0x2350, symBinAddr: 0x196F0, symSize: 0x10 }
  - { offset: 0xFAD91, size: 0x8, addend: 0x0, symName: __ZN12SentryLoggerD2Ev, symObjAddr: 0x2FE0, symBinAddr: 0x19790, symSize: 0x1F0 }
  - { offset: 0xFB9EF, size: 0x8, addend: 0x0, symName: __ZN12SentryLoggerD0Ev, symObjAddr: 0x2360, symBinAddr: 0x19700, symSize: 0x20 }
  - { offset: 0xFBA58, size: 0x8, addend: 0x0, symName: __ZN5godot6Object7cast_toINS_6ScriptEEEPT_PS0_.cold.1, symObjAddr: 0x11DD0, symBinAddr: 0x11A840, symSize: 0x60 }
  - { offset: 0xFBDA4, size: 0x8, addend: 0x0, symName: __ZN5godot7CowDataINS_4PairINS_6StringENS_7VariantEEEE6_unrefEv, symObjAddr: 0x2C40, symBinAddr: 0x19720, symSize: 0x70 }
  - { offset: 0xFC05C, size: 0x8, addend: 0x0, symName: __ZN5godot10RefCountedD1Ev.cold.1, symObjAddr: 0x11E30, symBinAddr: 0x11A8A0, symSize: 0x30 }
  - { offset: 0xFC0FF, size: 0x8, addend: 0x0, symName: __ZN5godot10RefCountedD0Ev.cold.1, symObjAddr: 0x11E60, symBinAddr: 0x11A8D0, symSize: 0x30 }
  - { offset: 0xFC19C, size: 0x8, addend: 0x0, symName: __ZN5godot6ObjectD1Ev.cold.1, symObjAddr: 0x11E90, symBinAddr: 0x11A900, symSize: 0x30 }
  - { offset: 0xFC227, size: 0x8, addend: 0x0, symName: __ZN5godot6ObjectD0Ev.cold.1, symObjAddr: 0x11EC0, symBinAddr: 0x11A930, symSize: 0x30 }
  - { offset: 0xFC2AE, size: 0x8, addend: 0x0, symName: __ZN5godot7WrappedD1Ev.cold.1, symObjAddr: 0x11EF0, symBinAddr: 0x11A960, symSize: 0x30 }
  - { offset: 0xFC323, size: 0x8, addend: 0x0, symName: __ZN5godot7WrappedD0Ev.cold.1, symObjAddr: 0x11F20, symBinAddr: 0x11A990, symSize: 0x30 }
  - { offset: 0xFC404, size: 0x8, addend: 0x0, symName: __ZN5godot4ListINS_12PropertyInfoENS_16DefaultAllocatorEE5_Data5eraseEPNS3_7ElementE.cold.2, symObjAddr: 0x11F80, symBinAddr: 0x11A9F0, symSize: 0x30 }
  - { offset: 0xFC41C, size: 0x8, addend: 0x0, symName: __ZN5godot4ListINS_12PropertyInfoENS_16DefaultAllocatorEE5_Data5eraseEPNS3_7ElementE.cold.1, symObjAddr: 0x11F50, symBinAddr: 0x11A9C0, symSize: 0x30 }
  - { offset: 0xFCC21, size: 0x8, addend: 0x0, symName: __ZN12SentryLoggerD2Ev.cold.1, symObjAddr: 0x11FB0, symBinAddr: 0x11AA20, symSize: 0x30 }
  - { offset: 0xFCEEF, size: 0x8, addend: 0x0, symName: __ZN5godot8internal23EngineClassRegistrationINS_6ObjectEE8callbackEv.cold.1, symObjAddr: 0x11FE0, symBinAddr: 0x11AA50, symSize: 0x60 }
  - { offset: 0xFCF24, size: 0x8, addend: 0x0, symName: __ZN5godot8internal23EngineClassRegistrationINS_16ClassDBSingletonEE8callbackEv.cold.1, symObjAddr: 0x12040, symBinAddr: 0x11AAB0, symSize: 0x60 }
  - { offset: 0xFCF59, size: 0x8, addend: 0x0, symName: __ZN5godot8internal23EngineClassRegistrationINS_10RefCountedEE8callbackEv.cold.1, symObjAddr: 0x120A0, symBinAddr: 0x11AB10, symSize: 0x60 }
  - { offset: 0xFCF8E, size: 0x8, addend: 0x0, symName: __ZN5godot8internal23EngineClassRegistrationINS_6LoggerEE8callbackEv.cold.1, symObjAddr: 0x12100, symBinAddr: 0x11AB70, symSize: 0x60 }
  - { offset: 0xFCFC3, size: 0x8, addend: 0x0, symName: __ZN5godot8internal23EngineClassRegistrationINS_15ScriptBacktraceEE8callbackEv.cold.1, symObjAddr: 0x12160, symBinAddr: 0x11ABD0, symSize: 0x60 }
  - { offset: 0xFD00D, size: 0x8, addend: 0x0, symName: __ZN5godot15ScriptBacktraceD1Ev.cold.1, symObjAddr: 0x121C0, symBinAddr: 0x11AC30, symSize: 0x30 }
  - { offset: 0xFD0C6, size: 0x8, addend: 0x0, symName: __ZN5godot15ScriptBacktraceD0Ev.cold.1, symObjAddr: 0x121F0, symBinAddr: 0x11AC60, symSize: 0x30 }
  - { offset: 0xFD180, size: 0x8, addend: 0x0, symName: __ZN5godot8internal23EngineClassRegistrationINS_10ConfigFileEE8callbackEv.cold.1, symObjAddr: 0x12220, symBinAddr: 0x11AC90, symSize: 0x60 }
  - { offset: 0xFD1CA, size: 0x8, addend: 0x0, symName: __ZN5godot10ConfigFileD1Ev.cold.1, symObjAddr: 0x12280, symBinAddr: 0x11ACF0, symSize: 0x30 }
  - { offset: 0xFD283, size: 0x8, addend: 0x0, symName: __ZN5godot10ConfigFileD0Ev.cold.1, symObjAddr: 0x122B0, symBinAddr: 0x11AD20, symSize: 0x30 }
  - { offset: 0xFD33D, size: 0x8, addend: 0x0, symName: __ZN5godot8internal23EngineClassRegistrationINS_6EngineEE8callbackEv.cold.1, symObjAddr: 0x122E0, symBinAddr: 0x11AD50, symSize: 0x60 }
  - { offset: 0xFD372, size: 0x8, addend: 0x0, symName: __ZN5godot8internal23EngineClassRegistrationINS_14ResourceLoaderEE8callbackEv.cold.1, symObjAddr: 0x12340, symBinAddr: 0x11ADB0, symSize: 0x60 }
  - { offset: 0xFD3A7, size: 0x8, addend: 0x0, symName: __ZN5godot8internal23EngineClassRegistrationINS_8ResourceEE8callbackEv.cold.1, symObjAddr: 0x123A0, symBinAddr: 0x11AE10, symSize: 0x60 }
  - { offset: 0xFD3D5, size: 0x8, addend: 0x0, symName: __ZN5godot8internal23EngineClassRegistrationINS_6ScriptEE8callbackEv.cold.1, symObjAddr: 0x12400, symBinAddr: 0x11AE70, symSize: 0x60 }
  - { offset: 0xFD43B, size: 0x8, addend: 0x0, symName: __ZN5godot6ScriptD1Ev.cold.1, symObjAddr: 0x12460, symBinAddr: 0x11AED0, symSize: 0x30 }
  - { offset: 0xFD50A, size: 0x8, addend: 0x0, symName: __ZN5godot6ScriptD0Ev.cold.1, symObjAddr: 0x12490, symBinAddr: 0x11AF00, symSize: 0x30 }
  - { offset: 0xFD5D3, size: 0x8, addend: 0x0, symName: __ZN5godot16UtilityFunctions8printerrIJNS_7VariantEA15_cNS_6StringEA3_cA10_cS4_A2_cS6_iS7_S6_S4_S7_S3_S4_S7_A16_cPKcEEEvRKS2_DpRKT_, symObjAddr: 0x42B0, symBinAddr: 0x19F50, symSize: 0x3B0 }
  - { offset: 0xFD9EB, size: 0x8, addend: 0x0, symName: __ZN5godot16UtilityFunctions5printIJNS_7VariantEA15_cNS_6StringEA3_cA10_cS4_A2_cS6_iS7_S6_S4_S7_S3_S4_S7_A16_cPKcEEEvRKS2_DpRKT_, symObjAddr: 0x3F00, symBinAddr: 0x19BA0, symSize: 0x3B0 }
  - { offset: 0xFDE5D, size: 0x8, addend: 0x0, symName: __ZNSt3__15arrayIN5godot7VariantELm19EED2Ev, symObjAddr: 0x4660, symBinAddr: 0x1A300, symSize: 0xE0 }
  - { offset: 0xFDE8A, size: 0x8, addend: 0x0, symName: __ZN5godot6Object7cast_toINS_15ScriptBacktraceEEEPT_PS0_.cold.1, symObjAddr: 0x124C0, symBinAddr: 0x11AF30, symSize: 0x60 }
  - { offset: 0xFDF62, size: 0x8, addend: 0x0, symName: __ZN5godot7CowDataINS_4PairINS_6StringENS_7VariantEEEE14_copy_on_writeEv, symObjAddr: 0x4BE0, symBinAddr: 0x1A7E0, symSize: 0x40 }
  - { offset: 0xFE061, size: 0x8, addend: 0x0, symName: __ZN5godot7CowDataINS_4PairINS_6StringENS_7VariantEEEE6resizeILb0EEENS_5ErrorEx.cold.4, symObjAddr: 0x125B0, symBinAddr: 0x11B020, symSize: 0x30 }
  - { offset: 0xFE079, size: 0x8, addend: 0x0, symName: __ZN5godot7CowDataINS_4PairINS_6StringENS_7VariantEEEE6resizeILb0EEENS_5ErrorEx.cold.5, symObjAddr: 0x125E0, symBinAddr: 0x11B050, symSize: 0x30 }
  - { offset: 0xFE091, size: 0x8, addend: 0x0, symName: __ZN5godot7CowDataINS_4PairINS_6StringENS_7VariantEEEE6resizeILb0EEENS_5ErrorEx.cold.2, symObjAddr: 0x12550, symBinAddr: 0x11AFC0, symSize: 0x30 }
  - { offset: 0xFE0C0, size: 0x8, addend: 0x0, symName: __ZN5godot7CowDataINS_4PairINS_6StringENS_7VariantEEEE6resizeILb0EEENS_5ErrorEx.cold.1, symObjAddr: 0x12520, symBinAddr: 0x11AF90, symSize: 0x30 }
  - { offset: 0xFE0EF, size: 0x8, addend: 0x0, symName: __ZN5godot7CowDataINS_4PairINS_6StringENS_7VariantEEEE6resizeILb0EEENS_5ErrorEx.cold.3, symObjAddr: 0x12580, symBinAddr: 0x11AFF0, symSize: 0x30 }
  - { offset: 0xFE107, size: 0x8, addend: 0x0, symName: __ZN5godot7CowDataINS_4PairINS_6StringENS_7VariantEEEE14_copy_on_writeEv.cold.1, symObjAddr: 0x12610, symBinAddr: 0x11B080, symSize: 0x120 }
  - { offset: 0xFEAE4, size: 0x8, addend: 0x0, symName: __ZN5godot6VectorIN11SentryEvent10StackFrameEE9push_backES2_.cold.1, symObjAddr: 0x12730, symBinAddr: 0x11B1A0, symSize: 0x50 }
  - { offset: 0xFEB29, size: 0x8, addend: 0x0, symName: __ZN5godot6VectorIN11SentryEvent10StackFrameEE9push_backES2_.cold.2, symObjAddr: 0x12780, symBinAddr: 0x11B1F0, symSize: 0x30 }
  - { offset: 0xFEC36, size: 0x8, addend: 0x0, symName: __ZN5godot7CowDataIN11SentryEvent10StackFrameEE6resizeILb0EEENS_5ErrorEx.cold.4, symObjAddr: 0x12840, symBinAddr: 0x11B2B0, symSize: 0x30 }
  - { offset: 0xFEC4E, size: 0x8, addend: 0x0, symName: __ZN5godot7CowDataIN11SentryEvent10StackFrameEE6resizeILb0EEENS_5ErrorEx.cold.5, symObjAddr: 0x12870, symBinAddr: 0x11B2E0, symSize: 0x30 }
  - { offset: 0xFEC66, size: 0x8, addend: 0x0, symName: __ZN5godot7CowDataIN11SentryEvent10StackFrameEE6resizeILb0EEENS_5ErrorEx.cold.2, symObjAddr: 0x127E0, symBinAddr: 0x11B250, symSize: 0x30 }
  - { offset: 0xFEC95, size: 0x8, addend: 0x0, symName: __ZN5godot7CowDataIN11SentryEvent10StackFrameEE6resizeILb0EEENS_5ErrorEx.cold.1, symObjAddr: 0x127B0, symBinAddr: 0x11B220, symSize: 0x30 }
  - { offset: 0xFECC4, size: 0x8, addend: 0x0, symName: __ZN5godot7CowDataIN11SentryEvent10StackFrameEE6resizeILb0EEENS_5ErrorEx.cold.3, symObjAddr: 0x12810, symBinAddr: 0x11B280, symSize: 0x30 }
  - { offset: 0xFECDC, size: 0x8, addend: 0x0, symName: __ZN5godot7CowDataIN11SentryEvent10StackFrameEE14_copy_on_writeEv.cold.1, symObjAddr: 0x128A0, symBinAddr: 0x11B310, symSize: 0xF4 }
  - { offset: 0xFFB39, size: 0x8, addend: 0x0, symName: __ZNSt3__16vectorINS_9sub_matchIPKcEENS_9allocatorIS4_EEE6assignEmRKS4_, symObjAddr: 0x6030, symBinAddr: 0x1AC80, symSize: 0x220 }
  - { offset: 0x100234, size: 0x8, addend: 0x0, symName: __ZNKSt3__111basic_regexIcNS_12regex_traitsIcEEE27__match_at_start_posix_subsINS_9allocatorINS_9sub_matchIPKcEEEEEEbS8_S8_RNS_13match_resultsIS8_T_EENS_15regex_constants15match_flag_typeEb, symObjAddr: 0x7350, symBinAddr: 0x1BF90, symSize: 0x7F0 }
  - { offset: 0x10279C, size: 0x8, addend: 0x0, symName: __ZNKSt3__111basic_regexIcNS_12regex_traitsIcEEE21__match_at_start_ecmaINS_9allocatorINS_9sub_matchIPKcEEEEEEbS8_S8_RNS_13match_resultsIS8_T_EENS_15regex_constants15match_flag_typeEb, symObjAddr: 0x6250, symBinAddr: 0x1AEA0, symSize: 0x610 }
  - { offset: 0x103FD0, size: 0x8, addend: 0x0, symName: __ZNKSt3__111basic_regexIcNS_12regex_traitsIcEEE29__match_at_start_posix_nosubsINS_9allocatorINS_9sub_matchIPKcEEEEEEbS8_S8_RNS_13match_resultsIS8_T_EENS_15regex_constants15match_flag_typeEb, symObjAddr: 0x6860, symBinAddr: 0x1B4B0, symSize: 0xAE0 }
  - { offset: 0x10733E, size: 0x8, addend: 0x0, symName: __ZNSt3__16vectorINS_7__stateIcEENS_9allocatorIS2_EEE21__push_back_slow_pathIS2_EEPS2_OT_, symObjAddr: 0x7B80, symBinAddr: 0x1C7A0, symSize: 0x1B0 }
  - { offset: 0x107B73, size: 0x8, addend: 0x0, symName: __ZNSt3__16vectorINS_9sub_matchIPKcEENS_9allocatorIS4_EEE8__appendEmRKS4_, symObjAddr: 0x7EA0, symBinAddr: 0x1CAC0, symSize: 0x1A0 }
  - { offset: 0x1080A7, size: 0x8, addend: 0x0, symName: __ZNSt3__16vectorINS_4pairImPKcEENS_9allocatorIS4_EEE8__appendEm, symObjAddr: 0x8040, symBinAddr: 0x1CC60, symSize: 0x140 }
  - { offset: 0x108A31, size: 0x8, addend: 0x0, symName: __ZNSt3__15dequeINS_7__stateIcEENS_9allocatorIS2_EEE19__add_back_capacityEv, symObjAddr: 0x8180, symBinAddr: 0x1CDA0, symSize: 0x510 }
  - { offset: 0x10A074, size: 0x8, addend: 0x0, symName: __ZNSt3__15dequeINS_7__stateIcEENS_9allocatorIS2_EEE20__add_front_capacityEv, symObjAddr: 0x8C10, symBinAddr: 0x1D830, symSize: 0x3A0 }
  - { offset: 0x10AF11, size: 0x8, addend: 0x0, symName: __ZNSt3__16vectorINS_9sub_matchIPKcEENS_9allocatorIS4_EEE18__assign_with_sizeB8nn190102IPS4_S9_EEvT_T0_l, symObjAddr: 0x9180, symBinAddr: 0x1DDA0, symSize: 0x1F0 }
  - { offset: 0x10B831, size: 0x8, addend: 0x0, symName: __ZNSt3__16vectorINS_4pairImPKcEENS_9allocatorIS4_EEE18__assign_with_sizeB8nn190102IPS4_S9_EEvT_T0_l, symObjAddr: 0x9370, symBinAddr: 0x1DF90, symSize: 0x1B0 }
  - { offset: 0x10C337, size: 0x8, addend: 0x0, symName: __ZNSt3__16vectorINS_7__stateIcEENS_9allocatorIS2_EEE26__swap_out_circular_bufferERNS_14__split_bufferIS2_RS4_EE, symObjAddr: 0x7D30, symBinAddr: 0x1C950, symSize: 0x170 }
  - { offset: 0x10D250, size: 0x8, addend: 0x0, symName: __ZNSt3__114__split_bufferIPNS_7__stateIcEENS_9allocatorIS3_EEE9push_backEOS3_, symObjAddr: 0x8860, symBinAddr: 0x1D2B0, symSize: 0x1E0 }
  - { offset: 0x10D739, size: 0x8, addend: 0x0, symName: __ZNSt3__114__split_bufferIPNS_7__stateIcEENS_9allocatorIS3_EEE10push_frontEOS3_, symObjAddr: 0x8A40, symBinAddr: 0x1D490, symSize: 0x1D0 }
  - { offset: 0x10DCA3, size: 0x8, addend: 0x0, symName: __ZNSt3__114__split_bufferIPNS_7__stateIcEENS_9allocatorIS3_EEE10push_frontERKS3_, symObjAddr: 0x8FB0, symBinAddr: 0x1DBD0, symSize: 0x1D0 }
  - { offset: 0x10EA0D, size: 0x8, addend: 0x0, symName: __ZNSt3__111basic_regexIcNS_12regex_traitsIcEEE13__parse_egrepIPKcEET_S7_S7_, symObjAddr: 0xA0C0, symBinAddr: 0x1EAF0, symSize: 0x1E0 }
  - { offset: 0x10F010, size: 0x8, addend: 0x0, symName: __ZNSt3__111basic_regexIcNS_12regex_traitsIcEEE24__parse_extended_reg_expIPKcEET_S7_S7_, symObjAddr: 0x9D50, symBinAddr: 0x1E780, symSize: 0x190 }
  - { offset: 0x10F3D6, size: 0x8, addend: 0x0, symName: __ZNSt3__111basic_regexIcNS_12regex_traitsIcEEE21__parse_basic_reg_expIPKcEET_S7_S7_, symObjAddr: 0x9BF0, symBinAddr: 0x1E620, symSize: 0x160 }
  - { offset: 0x10F732, size: 0x8, addend: 0x0, symName: __ZNSt3__111basic_regexIcNS_12regex_traitsIcEEE12__parse_grepIPKcEET_S7_S7_, symObjAddr: 0x9EE0, symBinAddr: 0x1E910, symSize: 0x1E0 }
  - { offset: 0x10FD35, size: 0x8, addend: 0x0, symName: __ZNSt3__111basic_regexIcNS_12regex_traitsIcEEE19__parse_alternativeIPKcEET_S7_S7_, symObjAddr: 0xA480, symBinAddr: 0x1EEB0, symSize: 0x90 }
  - { offset: 0x10FE91, size: 0x8, addend: 0x0, symName: __ZNSt3__111basic_regexIcNS_12regex_traitsIcEEE16__parse_ecma_expIPKcEET_S7_S7_, symObjAddr: 0x9A00, symBinAddr: 0x1E430, symSize: 0x1F0 }
  - { offset: 0x11035A, size: 0x8, addend: 0x0, symName: __ZNSt3__111basic_regexIcNS_12regex_traitsIcEEE12__parse_termIPKcEET_S7_S7_, symObjAddr: 0xA510, symBinAddr: 0x1EF40, symSize: 0x80 }
  - { offset: 0x1105FF, size: 0x8, addend: 0x0, symName: __ZNSt3__111basic_regexIcNS_12regex_traitsIcEEE18__parse_nondupl_REIPKcEET_S7_S7_, symObjAddr: 0x10760, symBinAddr: 0x24F40, symSize: 0x1F0 }
  - { offset: 0x110BA2, size: 0x8, addend: 0x0, symName: __ZNSt3__111basic_regexIcNS_12regex_traitsIcEEE22__parse_RE_dupl_symbolIPKcEET_S7_S7_PNS_16__owns_one_stateIcEEjj, symObjAddr: 0x10950, symBinAddr: 0x25130, symSize: 0x520 }
  - { offset: 0x111C7A, size: 0x8, addend: 0x0, symName: __ZNSt3__111basic_regexIcNS_12regex_traitsIcEEE22__parse_ERE_expressionIPKcEET_S7_S7_, symObjAddr: 0x11050, symBinAddr: 0x25830, symSize: 0x260 }
  - { offset: 0x112186, size: 0x8, addend: 0x0, symName: __ZNSt3__111__end_stateIcED1Ev, symObjAddr: 0xA2B0, symBinAddr: 0x1ECE0, symSize: 0x10 }
  - { offset: 0x1121B2, size: 0x8, addend: 0x0, symName: __ZNSt3__111__end_stateIcED0Ev, symObjAddr: 0xA2C0, symBinAddr: 0x1ECF0, symSize: 0x10 }
  - { offset: 0x1121DE, size: 0x8, addend: 0x0, symName: __ZNKSt3__111__end_stateIcE6__execERNS_7__stateIcEE, symObjAddr: 0xA2D0, symBinAddr: 0x1ED00, symSize: 0x10 }
  - { offset: 0x112212, size: 0x8, addend: 0x0, symName: __ZNKSt3__16__nodeIcE12__exec_splitEbRNS_7__stateIcEE, symObjAddr: 0xA2E0, symBinAddr: 0x1ED10, symSize: 0x10 }
  - { offset: 0x112259, size: 0x8, addend: 0x0, symName: __ZNKSt3__16__nodeIcE6__execERNS_7__stateIcEE, symObjAddr: 0xA2F0, symBinAddr: 0x1ED20, symSize: 0x10 }
  - { offset: 0x1122A5, size: 0x8, addend: 0x0, symName: __ZNSt3__120__shared_ptr_pointerIPNS_13__empty_stateIcEENS_10shared_ptrIS2_E27__shared_ptr_default_deleteIS2_S2_EENS_9allocatorIS2_EEED1Ev, symObjAddr: 0xA300, symBinAddr: 0x1ED30, symSize: 0x10 }
  - { offset: 0x112300, size: 0x8, addend: 0x0, symName: __ZNSt3__120__shared_ptr_pointerIPNS_13__empty_stateIcEENS_10shared_ptrIS2_E27__shared_ptr_default_deleteIS2_S2_EENS_9allocatorIS2_EEED0Ev, symObjAddr: 0xA310, symBinAddr: 0x1ED40, symSize: 0x20 }
  - { offset: 0x11238F, size: 0x8, addend: 0x0, symName: __ZNSt3__120__shared_ptr_pointerIPNS_13__empty_stateIcEENS_10shared_ptrIS2_E27__shared_ptr_default_deleteIS2_S2_EENS_9allocatorIS2_EEE16__on_zero_sharedEv, symObjAddr: 0xA330, symBinAddr: 0x1ED60, symSize: 0x20 }
  - { offset: 0x112425, size: 0x8, addend: 0x0, symName: __ZNKSt3__120__shared_ptr_pointerIPNS_13__empty_stateIcEENS_10shared_ptrIS2_E27__shared_ptr_default_deleteIS2_S2_EENS_9allocatorIS2_EEE13__get_deleterERKSt9type_info, symObjAddr: 0xA350, symBinAddr: 0x1ED80, symSize: 0x20 }
  - { offset: 0x1124E9, size: 0x8, addend: 0x0, symName: __ZNSt3__120__shared_ptr_pointerIPNS_13__empty_stateIcEENS_10shared_ptrIS2_E27__shared_ptr_default_deleteIS2_S2_EENS_9allocatorIS2_EEE21__on_zero_shared_weakEv, symObjAddr: 0xA370, symBinAddr: 0x1EDA0, symSize: 0x10 }
  - { offset: 0x1125FB, size: 0x8, addend: 0x0, symName: __ZNSt3__113__empty_stateIcED1Ev, symObjAddr: 0xA380, symBinAddr: 0x1EDB0, symSize: 0x30 }
  - { offset: 0x112689, size: 0x8, addend: 0x0, symName: __ZNSt3__113__empty_stateIcED0Ev, symObjAddr: 0xA3B0, symBinAddr: 0x1EDE0, symSize: 0x40 }
  - { offset: 0x1126BA, size: 0x8, addend: 0x0, symName: __ZNSt3__113__empty_stateIcED0Ev, symObjAddr: 0xA3B0, symBinAddr: 0x1EDE0, symSize: 0x40 }
  - { offset: 0x1126DA, size: 0x8, addend: 0x0, symName: __ZNSt3__113__empty_stateIcED0Ev, symObjAddr: 0xA3B0, symBinAddr: 0x1EDE0, symSize: 0x40 }
  - { offset: 0x1126FA, size: 0x8, addend: 0x0, symName: __ZNSt3__113__empty_stateIcED0Ev, symObjAddr: 0xA3B0, symBinAddr: 0x1EDE0, symSize: 0x40 }
  - { offset: 0x112741, size: 0x8, addend: 0x0, symName: __ZNKSt3__113__empty_stateIcE6__execERNS_7__stateIcEE, symObjAddr: 0xA3F0, symBinAddr: 0x1EE20, symSize: 0x20 }
  - { offset: 0x112796, size: 0x8, addend: 0x0, symName: __ZNSt3__116__owns_one_stateIcED1Ev, symObjAddr: 0xA410, symBinAddr: 0x1EE40, symSize: 0x30 }
  - { offset: 0x112802, size: 0x8, addend: 0x0, symName: __ZNSt3__116__owns_one_stateIcED0Ev, symObjAddr: 0xA440, symBinAddr: 0x1EE70, symSize: 0x40 }
  - { offset: 0x112832, size: 0x8, addend: 0x0, symName: __ZNSt3__116__owns_one_stateIcED0Ev, symObjAddr: 0xA440, symBinAddr: 0x1EE70, symSize: 0x40 }
  - { offset: 0x112852, size: 0x8, addend: 0x0, symName: __ZNSt3__116__owns_one_stateIcED0Ev, symObjAddr: 0xA440, symBinAddr: 0x1EE70, symSize: 0x40 }
  - { offset: 0x1128DE, size: 0x8, addend: 0x0, symName: __ZNSt3__111basic_regexIcNS_12regex_traitsIcEEE23__parse_ERE_dupl_symbolIPKcEET_S7_S7_PNS_16__owns_one_stateIcEEjj, symObjAddr: 0xAAE0, symBinAddr: 0x1F570, symSize: 0x820 }
  - { offset: 0x1144A8, size: 0x8, addend: 0x0, symName: __ZNSt3__111basic_regexIcNS_12regex_traitsIcEEE17__parse_assertionIPKcEET_S7_S7_, symObjAddr: 0xA590, symBinAddr: 0x1EFC0, symSize: 0x290 }
  - { offset: 0x114A8D, size: 0x8, addend: 0x0, symName: __ZNSt3__111basic_regexIcNS_12regex_traitsIcEEE12__parse_atomIPKcEET_S7_S7_, symObjAddr: 0xA820, symBinAddr: 0x1F250, symSize: 0x320 }
  - { offset: 0x114EFA, size: 0x8, addend: 0x0, symName: __ZNSt3__111basic_regexIcNS_12regex_traitsIcEEE16__push_lookaheadERKS3_bj, symObjAddr: 0xB300, symBinAddr: 0x1FD90, symSize: 0xC0 }
  - { offset: 0x115437, size: 0x8, addend: 0x0, symName: __ZNSt3__111basic_regexIcNS_12regex_traitsIcEEE26__parse_bracket_expressionIPKcEET_S7_S7_, symObjAddr: 0xBAC0, symBinAddr: 0x20410, symSize: 0x130 }
  - { offset: 0x11566D, size: 0x8, addend: 0x0, symName: __ZNSt3__111basic_regexIcNS_12regex_traitsIcEEE25__parse_pattern_characterIPKcEET_S7_S7_, symObjAddr: 0xBC00, symBinAddr: 0x20550, symSize: 0x1B0 }
  - { offset: 0x115A51, size: 0x8, addend: 0x0, symName: __ZNSt3__111basic_regexIcNS_12regex_traitsIcEEE27__push_nongreedy_inf_repeatB8nn190102EmPNS_16__owns_one_stateIcEEjj, symObjAddr: 0xFF20, symBinAddr: 0x24700, symSize: 0x100 }
  - { offset: 0x115D7E, size: 0x8, addend: 0x0, symName: __ZNSt3__111basic_regexIcNS_12regex_traitsIcEEE11__push_loopEmmPNS_16__owns_one_stateIcEEmmb, symObjAddr: 0x10020, symBinAddr: 0x24800, symSize: 0x100 }
  - { offset: 0x116109, size: 0x8, addend: 0x0, symName: __ZNSt3__120__l_anchor_multilineIcED1Ev, symObjAddr: 0xB3D0, symBinAddr: 0x1FE60, symSize: 0x30 }
  - { offset: 0x116197, size: 0x8, addend: 0x0, symName: __ZNSt3__120__l_anchor_multilineIcED0Ev, symObjAddr: 0xB400, symBinAddr: 0x1FE90, symSize: 0x40 }
  - { offset: 0x1161C8, size: 0x8, addend: 0x0, symName: __ZNSt3__120__l_anchor_multilineIcED0Ev, symObjAddr: 0xB400, symBinAddr: 0x1FE90, symSize: 0x40 }
  - { offset: 0x1161E8, size: 0x8, addend: 0x0, symName: __ZNSt3__120__l_anchor_multilineIcED0Ev, symObjAddr: 0xB400, symBinAddr: 0x1FE90, symSize: 0x40 }
  - { offset: 0x116208, size: 0x8, addend: 0x0, symName: __ZNSt3__120__l_anchor_multilineIcED0Ev, symObjAddr: 0xB400, symBinAddr: 0x1FE90, symSize: 0x40 }
  - { offset: 0x116234, size: 0x8, addend: 0x0, symName: __ZNKSt3__120__l_anchor_multilineIcE6__execERNS_7__stateIcEE, symObjAddr: 0xB440, symBinAddr: 0x1FED0, symSize: 0x50 }
  - { offset: 0x116299, size: 0x8, addend: 0x0, symName: __ZNSt3__120__r_anchor_multilineIcED1Ev, symObjAddr: 0xB4A0, symBinAddr: 0x1FF20, symSize: 0x30 }
  - { offset: 0x116327, size: 0x8, addend: 0x0, symName: __ZNSt3__120__r_anchor_multilineIcED0Ev, symObjAddr: 0xB4D0, symBinAddr: 0x1FF50, symSize: 0x40 }
  - { offset: 0x116358, size: 0x8, addend: 0x0, symName: __ZNSt3__120__r_anchor_multilineIcED0Ev, symObjAddr: 0xB4D0, symBinAddr: 0x1FF50, symSize: 0x40 }
  - { offset: 0x116378, size: 0x8, addend: 0x0, symName: __ZNSt3__120__r_anchor_multilineIcED0Ev, symObjAddr: 0xB4D0, symBinAddr: 0x1FF50, symSize: 0x40 }
  - { offset: 0x116398, size: 0x8, addend: 0x0, symName: __ZNSt3__120__r_anchor_multilineIcED0Ev, symObjAddr: 0xB4D0, symBinAddr: 0x1FF50, symSize: 0x40 }
  - { offset: 0x1163C4, size: 0x8, addend: 0x0, symName: __ZNKSt3__120__r_anchor_multilineIcE6__execERNS_7__stateIcEE, symObjAddr: 0xB510, symBinAddr: 0x1FF90, symSize: 0x50 }
  - { offset: 0x116453, size: 0x8, addend: 0x0, symName: __ZNSt3__115__word_boundaryIcNS_12regex_traitsIcEEED1Ev, symObjAddr: 0xB570, symBinAddr: 0x1FFE0, symSize: 0x50 }
  - { offset: 0x11651F, size: 0x8, addend: 0x0, symName: __ZNSt3__115__word_boundaryIcNS_12regex_traitsIcEEED0Ev, symObjAddr: 0xB5C0, symBinAddr: 0x20030, symSize: 0x50 }
  - { offset: 0x11666E, size: 0x8, addend: 0x0, symName: __ZNKSt3__115__word_boundaryIcNS_12regex_traitsIcEEE6__execERNS_7__stateIcEE, symObjAddr: 0xB610, symBinAddr: 0x20080, symSize: 0xE0 }
  - { offset: 0x116864, size: 0x8, addend: 0x0, symName: __ZNSt3__111__lookaheadIcNS_12regex_traitsIcEEED1Ev, symObjAddr: 0xB710, symBinAddr: 0x20160, symSize: 0x90 }
  - { offset: 0x116A25, size: 0x8, addend: 0x0, symName: __ZNSt3__111__lookaheadIcNS_12regex_traitsIcEEED0Ev, symObjAddr: 0xB7A0, symBinAddr: 0x201F0, symSize: 0x90 }
  - { offset: 0x116BEF, size: 0x8, addend: 0x0, symName: __ZNKSt3__111__lookaheadIcNS_12regex_traitsIcEEE6__execERNS_7__stateIcEE, symObjAddr: 0xB830, symBinAddr: 0x20280, symSize: 0x190 }
  - { offset: 0x117087, size: 0x8, addend: 0x0, symName: __ZNSt3__111basic_regexIcNS_12regex_traitsIcEEE11__push_charEc, symObjAddr: 0xC4F0, symBinAddr: 0x20ED0, symSize: 0x100 }
  - { offset: 0x11740E, size: 0x8, addend: 0x0, symName: __ZNSt3__111basic_regexIcNS_12regex_traitsIcEEE15__push_back_refEi, symObjAddr: 0xC600, symBinAddr: 0x20FE0, symSize: 0xD0 }
  - { offset: 0x117693, size: 0x8, addend: 0x0, symName: __ZNSt3__111basic_regexIcNS_12regex_traitsIcEEE30__parse_character_class_escapeIPKcEET_S7_S7_, symObjAddr: 0xBE30, symBinAddr: 0x20810, symSize: 0x2B0 }
  - { offset: 0x117BFF, size: 0x8, addend: 0x0, symName: __ZNSt3__111basic_regexIcNS_12regex_traitsIcEEE24__parse_character_escapeIPKcEET_S7_S7_PNS_12basic_stringIcNS_11char_traitsIcEENS_9allocatorIcEEEE, symObjAddr: 0xC0E0, symBinAddr: 0x20AC0, symSize: 0x410 }
  - { offset: 0x118155, size: 0x8, addend: 0x0, symName: __ZNSt3__120__bracket_expressionIcNS_12regex_traitsIcEEEC2B8nn190102ERKS2_PNS_6__nodeIcEEbbb, symObjAddr: 0xCE70, symBinAddr: 0x21850, symSize: 0x100 }
  - { offset: 0x118473, size: 0x8, addend: 0x0, symName: __ZNSt3__120__bracket_expressionIcNS_12regex_traitsIcEEE10__add_charB8nn190102Ec, symObjAddr: 0xCCF0, symBinAddr: 0x216D0, symSize: 0x180 }
  - { offset: 0x1187DF, size: 0x8, addend: 0x0, symName: __ZNSt3__111basic_regexIcNS_12regex_traitsIcEEE23__parse_expression_termIPKcEET_S7_S7_PNS_20__bracket_expressionIcS2_EE, symObjAddr: 0xDF80, symBinAddr: 0x228F0, symSize: 0x440 }
  - { offset: 0x119890, size: 0x8, addend: 0x0, symName: __ZNSt3__123__match_any_but_newlineIcED1Ev, symObjAddr: 0xBDB0, symBinAddr: 0x20700, symSize: 0x30 }
  - { offset: 0x11991E, size: 0x8, addend: 0x0, symName: __ZNSt3__123__match_any_but_newlineIcED0Ev, symObjAddr: 0xBDE0, symBinAddr: 0x20730, symSize: 0x40 }
  - { offset: 0x11994F, size: 0x8, addend: 0x0, symName: __ZNSt3__123__match_any_but_newlineIcED0Ev, symObjAddr: 0xBDE0, symBinAddr: 0x20730, symSize: 0x40 }
  - { offset: 0x11996F, size: 0x8, addend: 0x0, symName: __ZNSt3__123__match_any_but_newlineIcED0Ev, symObjAddr: 0xBDE0, symBinAddr: 0x20730, symSize: 0x40 }
  - { offset: 0x11998F, size: 0x8, addend: 0x0, symName: __ZNSt3__123__match_any_but_newlineIcED0Ev, symObjAddr: 0xBDE0, symBinAddr: 0x20730, symSize: 0x40 }
  - { offset: 0x119DC2, size: 0x8, addend: 0x0, symName: __ZNSt3__118__match_char_icaseIcNS_12regex_traitsIcEEED1Ev, symObjAddr: 0xC6D0, symBinAddr: 0x210B0, symSize: 0x50 }
  - { offset: 0x119E8E, size: 0x8, addend: 0x0, symName: __ZNSt3__118__match_char_icaseIcNS_12regex_traitsIcEEED0Ev, symObjAddr: 0xC720, symBinAddr: 0x21100, symSize: 0x50 }
  - { offset: 0x119F63, size: 0x8, addend: 0x0, symName: __ZNKSt3__118__match_char_icaseIcNS_12regex_traitsIcEEE6__execERNS_7__stateIcEE, symObjAddr: 0xC770, symBinAddr: 0x21150, symSize: 0x50 }
  - { offset: 0x11A023, size: 0x8, addend: 0x0, symName: __ZNSt3__120__match_char_collateIcNS_12regex_traitsIcEEED1Ev, symObjAddr: 0xC7C0, symBinAddr: 0x211A0, symSize: 0x50 }
  - { offset: 0x11A0EF, size: 0x8, addend: 0x0, symName: __ZNSt3__120__match_char_collateIcNS_12regex_traitsIcEEED0Ev, symObjAddr: 0xC810, symBinAddr: 0x211F0, symSize: 0x50 }
  - { offset: 0x11A1C4, size: 0x8, addend: 0x0, symName: __ZNKSt3__120__match_char_collateIcNS_12regex_traitsIcEEE6__execERNS_7__stateIcEE, symObjAddr: 0xC860, symBinAddr: 0x21240, symSize: 0x40 }
  - { offset: 0x11A234, size: 0x8, addend: 0x0, symName: __ZNSt3__112__match_charIcED1Ev, symObjAddr: 0xC8A0, symBinAddr: 0x21280, symSize: 0x30 }
  - { offset: 0x11A2C2, size: 0x8, addend: 0x0, symName: __ZNSt3__112__match_charIcED0Ev, symObjAddr: 0xC8D0, symBinAddr: 0x212B0, symSize: 0x40 }
  - { offset: 0x11A2F3, size: 0x8, addend: 0x0, symName: __ZNSt3__112__match_charIcED0Ev, symObjAddr: 0xC8D0, symBinAddr: 0x212B0, symSize: 0x40 }
  - { offset: 0x11A313, size: 0x8, addend: 0x0, symName: __ZNSt3__112__match_charIcED0Ev, symObjAddr: 0xC8D0, symBinAddr: 0x212B0, symSize: 0x40 }
  - { offset: 0x11A333, size: 0x8, addend: 0x0, symName: __ZNSt3__112__match_charIcED0Ev, symObjAddr: 0xC8D0, symBinAddr: 0x212B0, symSize: 0x40 }
  - { offset: 0x11A35F, size: 0x8, addend: 0x0, symName: __ZNKSt3__112__match_charIcE6__execERNS_7__stateIcEE, symObjAddr: 0xC910, symBinAddr: 0x212F0, symSize: 0x40 }
  - { offset: 0x11A3CF, size: 0x8, addend: 0x0, symName: __ZNSt3__116__back_ref_icaseIcNS_12regex_traitsIcEEED1Ev, symObjAddr: 0xC950, symBinAddr: 0x21330, symSize: 0x50 }
  - { offset: 0x11A49B, size: 0x8, addend: 0x0, symName: __ZNSt3__116__back_ref_icaseIcNS_12regex_traitsIcEEED0Ev, symObjAddr: 0xC9A0, symBinAddr: 0x21380, symSize: 0x50 }
  - { offset: 0x11A570, size: 0x8, addend: 0x0, symName: __ZNKSt3__116__back_ref_icaseIcNS_12regex_traitsIcEEE6__execERNS_7__stateIcEE, symObjAddr: 0xC9F0, symBinAddr: 0x213D0, symSize: 0xC0 }
  - { offset: 0x11A6F0, size: 0x8, addend: 0x0, symName: __ZNSt3__118__back_ref_collateIcNS_12regex_traitsIcEEED1Ev, symObjAddr: 0xCAB0, symBinAddr: 0x21490, symSize: 0x50 }
  - { offset: 0x11A7BC, size: 0x8, addend: 0x0, symName: __ZNSt3__118__back_ref_collateIcNS_12regex_traitsIcEEED0Ev, symObjAddr: 0xCB00, symBinAddr: 0x214E0, symSize: 0x50 }
  - { offset: 0x11A891, size: 0x8, addend: 0x0, symName: __ZNKSt3__118__back_ref_collateIcNS_12regex_traitsIcEEE6__execERNS_7__stateIcEE, symObjAddr: 0xCB50, symBinAddr: 0x21530, symSize: 0x80 }
  - { offset: 0x11A973, size: 0x8, addend: 0x0, symName: __ZNSt3__110__back_refIcED1Ev, symObjAddr: 0xCBD0, symBinAddr: 0x215B0, symSize: 0x30 }
  - { offset: 0x11AA01, size: 0x8, addend: 0x0, symName: __ZNSt3__110__back_refIcED0Ev, symObjAddr: 0xCC00, symBinAddr: 0x215E0, symSize: 0x40 }
  - { offset: 0x11AA32, size: 0x8, addend: 0x0, symName: __ZNSt3__110__back_refIcED0Ev, symObjAddr: 0xCC00, symBinAddr: 0x215E0, symSize: 0x40 }
  - { offset: 0x11AA52, size: 0x8, addend: 0x0, symName: __ZNSt3__110__back_refIcED0Ev, symObjAddr: 0xCC00, symBinAddr: 0x215E0, symSize: 0x40 }
  - { offset: 0x11AA72, size: 0x8, addend: 0x0, symName: __ZNSt3__110__back_refIcED0Ev, symObjAddr: 0xCC00, symBinAddr: 0x215E0, symSize: 0x40 }
  - { offset: 0x11AAA3, size: 0x8, addend: 0x0, symName: __ZNKSt3__110__back_refIcE6__execERNS_7__stateIcEE, symObjAddr: 0xCC40, symBinAddr: 0x21620, symSize: 0xB0 }
  - { offset: 0x11AF90, size: 0x8, addend: 0x0, symName: __ZNSt3__120__bracket_expressionIcNS_12regex_traitsIcEEED1Ev, symObjAddr: 0xCF70, symBinAddr: 0x21950, symSize: 0x10 }
  - { offset: 0x11AFC8, size: 0x8, addend: 0x0, symName: __ZNSt3__120__bracket_expressionIcNS_12regex_traitsIcEEED2Ev, symObjAddr: 0xDB50, symBinAddr: 0x22370, symSize: 0x140 }
  - { offset: 0x11BB4F, size: 0x8, addend: 0x0, symName: __ZNSt3__120__bracket_expressionIcNS_12regex_traitsIcEEED0Ev, symObjAddr: 0xCF80, symBinAddr: 0x21960, symSize: 0x20 }
  - { offset: 0x11C186, size: 0x8, addend: 0x0, symName: __ZNKSt3__120__bracket_expressionIcNS_12regex_traitsIcEEE6__execERNS_7__stateIcEE, symObjAddr: 0xCFA0, symBinAddr: 0x21980, symSize: 0x9F0 }
  - { offset: 0x11E603, size: 0x8, addend: 0x0, symName: __ZNKSt3__112regex_traitsIcE20__lookup_collatenameIPcEENS_12basic_stringIcNS_11char_traitsIcEENS_9allocatorIcEEEET_SA_c, symObjAddr: 0xDD90, symBinAddr: 0x225A0, symSize: 0x1E0 }
  - { offset: 0x11F146, size: 0x8, addend: 0x0, symName: __ZNKSt3__112regex_traitsIcE9transformIPcEENS_12basic_stringIcNS_11char_traitsIcEENS_9allocatorIcEEEET_SA_, symObjAddr: 0xDCA0, symBinAddr: 0x224B0, symSize: 0xF0 }
  - { offset: 0x11FF3D, size: 0x8, addend: 0x0, symName: __ZNSt3__111basic_regexIcNS_12regex_traitsIcEEE25__parse_equivalence_classIPKcEET_S7_S7_PNS_20__bracket_expressionIcS2_EE, symObjAddr: 0xE480, symBinAddr: 0x22D30, symSize: 0x350 }
  - { offset: 0x120CE7, size: 0x8, addend: 0x0, symName: __ZNSt3__111basic_regexIcNS_12regex_traitsIcEEE18__parse_awk_escapeIPKcEET_S7_S7_PNS_12basic_stringIcNS_11char_traitsIcEENS_9allocatorIcEEEE, symObjAddr: 0xEA50, symBinAddr: 0x232E0, symSize: 0x2E0 }
  - { offset: 0x120D8C, size: 0x8, addend: 0x0, symName: __ZNKSt3__112regex_traitsIcE18__lookup_classnameIPKcEEjT_S5_bc, symObjAddr: 0xFA50, symBinAddr: 0x24230, symSize: 0x110 }
  - { offset: 0x12145B, size: 0x8, addend: 0x0, symName: __ZNKSt3__112regex_traitsIcE20__lookup_collatenameIPKcEENS_12basic_stringIcNS_11char_traitsIcEENS_9allocatorIcEEEET_SB_c, symObjAddr: 0xF680, symBinAddr: 0x23EE0, symSize: 0x1E0 }
  - { offset: 0x121F9E, size: 0x8, addend: 0x0, symName: __ZNSt3__120__bracket_expressionIcNS_12regex_traitsIcEEE13__add_digraphB8nn190102Ecc, symObjAddr: 0xF490, symBinAddr: 0x23CF0, symSize: 0x1E0 }
  - { offset: 0x122681, size: 0x8, addend: 0x0, symName: __ZNSt3__111basic_regexIcNS_12regex_traitsIcEEE24__parse_collating_symbolIPKcEET_S7_S7_RNS_12basic_stringIcNS_11char_traitsIcEENS_9allocatorIcEEEE, symObjAddr: 0xE7E0, symBinAddr: 0x23080, symSize: 0xC0 }
  - { offset: 0x122A69, size: 0x8, addend: 0x0, symName: __ZNSt3__111basic_regexIcNS_12regex_traitsIcEEE20__parse_class_escapeIPKcEET_S7_S7_RNS_12basic_stringIcNS_11char_traitsIcEENS_9allocatorIcEEEEPNS_20__bracket_expressionIcS2_EE, symObjAddr: 0xE8B0, symBinAddr: 0x23140, symSize: 0x1A0 }
  - { offset: 0x122C11, size: 0x8, addend: 0x0, symName: __ZNSt3__120__bracket_expressionIcNS_12regex_traitsIcEEE11__add_rangeB8nn190102ENS_12basic_stringIcNS_11char_traitsIcEENS_9allocatorIcEEEES9_, symObjAddr: 0xED30, symBinAddr: 0x235C0, symSize: 0x730 }
  - { offset: 0x124BD7, size: 0x8, addend: 0x0, symName: __ZNKSt3__112regex_traitsIcE19__transform_primaryINS_11__wrap_iterIPcEEEENS_12basic_stringIcNS_11char_traitsIcEENS_9allocatorIcEEEET_SC_c, symObjAddr: 0xF860, symBinAddr: 0x240C0, symSize: 0x160 }
  - { offset: 0x1254D0, size: 0x8, addend: 0x0, symName: __ZNSt3__120__bracket_expressionIcNS_12regex_traitsIcEEE14__add_neg_charB8nn190102Ec, symObjAddr: 0xFB60, symBinAddr: 0x24340, symSize: 0x180 }
  - { offset: 0x125C08, size: 0x8, addend: 0x0, symName: __ZNKSt3__112regex_traitsIcE9transformINS_11__wrap_iterIPcEEEENS_12basic_stringIcNS_11char_traitsIcEENS_9allocatorIcEEEET_SC_, symObjAddr: 0xFCE0, symBinAddr: 0x244C0, symSize: 0xF0 }
  - { offset: 0x12686D, size: 0x8, addend: 0x0, symName: __ZNSt3__128__begin_marked_subexpressionIcED1Ev, symObjAddr: 0xFDE0, symBinAddr: 0x245C0, symSize: 0x30 }
  - { offset: 0x1268FB, size: 0x8, addend: 0x0, symName: __ZNSt3__128__begin_marked_subexpressionIcED0Ev, symObjAddr: 0xFE10, symBinAddr: 0x245F0, symSize: 0x40 }
  - { offset: 0x12692C, size: 0x8, addend: 0x0, symName: __ZNSt3__128__begin_marked_subexpressionIcED0Ev, symObjAddr: 0xFE10, symBinAddr: 0x245F0, symSize: 0x40 }
  - { offset: 0x12694C, size: 0x8, addend: 0x0, symName: __ZNSt3__128__begin_marked_subexpressionIcED0Ev, symObjAddr: 0xFE10, symBinAddr: 0x245F0, symSize: 0x40 }
  - { offset: 0x12696C, size: 0x8, addend: 0x0, symName: __ZNSt3__128__begin_marked_subexpressionIcED0Ev, symObjAddr: 0xFE10, symBinAddr: 0x245F0, symSize: 0x40 }
  - { offset: 0x126998, size: 0x8, addend: 0x0, symName: __ZNKSt3__128__begin_marked_subexpressionIcE6__execERNS_7__stateIcEE, symObjAddr: 0xFE50, symBinAddr: 0x24630, symSize: 0x30 }
  - { offset: 0x126A31, size: 0x8, addend: 0x0, symName: __ZNSt3__126__end_marked_subexpressionIcED1Ev, symObjAddr: 0xFE80, symBinAddr: 0x24660, symSize: 0x30 }
  - { offset: 0x126ABF, size: 0x8, addend: 0x0, symName: __ZNSt3__126__end_marked_subexpressionIcED0Ev, symObjAddr: 0xFEB0, symBinAddr: 0x24690, symSize: 0x40 }
  - { offset: 0x126AF0, size: 0x8, addend: 0x0, symName: __ZNSt3__126__end_marked_subexpressionIcED0Ev, symObjAddr: 0xFEB0, symBinAddr: 0x24690, symSize: 0x40 }
  - { offset: 0x126B10, size: 0x8, addend: 0x0, symName: __ZNSt3__126__end_marked_subexpressionIcED0Ev, symObjAddr: 0xFEB0, symBinAddr: 0x24690, symSize: 0x40 }
  - { offset: 0x126B30, size: 0x8, addend: 0x0, symName: __ZNSt3__126__end_marked_subexpressionIcED0Ev, symObjAddr: 0xFEB0, symBinAddr: 0x24690, symSize: 0x40 }
  - { offset: 0x126B5C, size: 0x8, addend: 0x0, symName: __ZNKSt3__126__end_marked_subexpressionIcE6__execERNS_7__stateIcEE, symObjAddr: 0xFEF0, symBinAddr: 0x246D0, symSize: 0x30 }
  - { offset: 0x126C74, size: 0x8, addend: 0x0, symName: __ZNSt3__16__loopIcED1Ev, symObjAddr: 0x10140, symBinAddr: 0x24920, symSize: 0x50 }
  - { offset: 0x126D2F, size: 0x8, addend: 0x0, symName: __ZNSt3__16__loopIcED0Ev, symObjAddr: 0x10190, symBinAddr: 0x24970, symSize: 0x60 }
  - { offset: 0x126E67, size: 0x8, addend: 0x0, symName: __ZNKSt3__16__loopIcE6__execERNS_7__stateIcEE, symObjAddr: 0x101F0, symBinAddr: 0x249D0, symSize: 0x260 }
  - { offset: 0x126FDF, size: 0x8, addend: 0x0, symName: __ZNKSt3__16__loopIcE12__exec_splitEbRNS_7__stateIcEE, symObjAddr: 0x10450, symBinAddr: 0x24C30, symSize: 0xF0 }
  - { offset: 0x1270D3, size: 0x8, addend: 0x0, symName: __ZNSt3__117__owns_two_statesIcED1Ev, symObjAddr: 0x10540, symBinAddr: 0x24D20, symSize: 0x50 }
  - { offset: 0x12716A, size: 0x8, addend: 0x0, symName: __ZNSt3__117__owns_two_statesIcED0Ev, symObjAddr: 0x10590, symBinAddr: 0x24D70, symSize: 0x60 }
  - { offset: 0x12720A, size: 0x8, addend: 0x0, symName: __ZNSt3__117__repeat_one_loopIcED1Ev, symObjAddr: 0x105F0, symBinAddr: 0x24DD0, symSize: 0x10 }
  - { offset: 0x127236, size: 0x8, addend: 0x0, symName: __ZNSt3__117__repeat_one_loopIcED0Ev, symObjAddr: 0x10600, symBinAddr: 0x24DE0, symSize: 0x10 }
  - { offset: 0x127262, size: 0x8, addend: 0x0, symName: __ZNKSt3__117__repeat_one_loopIcE6__execERNS_7__stateIcEE, symObjAddr: 0x10610, symBinAddr: 0x24DF0, symSize: 0x20 }
  - { offset: 0x1272D2, size: 0x8, addend: 0x0, symName: __ZNSt3__111__alternateIcED1Ev, symObjAddr: 0x10630, symBinAddr: 0x24E10, symSize: 0x50 }
  - { offset: 0x12738D, size: 0x8, addend: 0x0, symName: __ZNSt3__111__alternateIcED0Ev, symObjAddr: 0x10680, symBinAddr: 0x24E60, symSize: 0x60 }
  - { offset: 0x12744F, size: 0x8, addend: 0x0, symName: __ZNKSt3__111__alternateIcE6__execERNS_7__stateIcEE, symObjAddr: 0x106E0, symBinAddr: 0x24EC0, symSize: 0x10 }
  - { offset: 0x127483, size: 0x8, addend: 0x0, symName: __ZNKSt3__111__alternateIcE12__exec_splitEbRNS_7__stateIcEE, symObjAddr: 0x106F0, symBinAddr: 0x24ED0, symSize: 0x20 }
  - { offset: 0x1274D2, size: 0x8, addend: 0x0, symName: __ZNSt3__121__empty_non_own_stateIcED1Ev, symObjAddr: 0x10710, symBinAddr: 0x24EF0, symSize: 0x10 }
  - { offset: 0x1274FE, size: 0x8, addend: 0x0, symName: __ZNSt3__121__empty_non_own_stateIcED0Ev, symObjAddr: 0x10720, symBinAddr: 0x24F00, symSize: 0x10 }
  - { offset: 0x12752A, size: 0x8, addend: 0x0, symName: __ZNKSt3__121__empty_non_own_stateIcE6__execERNS_7__stateIcEE, symObjAddr: 0x10730, symBinAddr: 0x24F10, symSize: 0x20 }
  - { offset: 0x127683, size: 0x8, addend: 0x0, symName: __ZNSt3__111basic_regexIcNS_12regex_traitsIcEEE32__parse_one_char_or_coll_elem_REIPKcEET_S7_S7_, symObjAddr: 0x10E70, symBinAddr: 0x25650, symSize: 0xE0 }
  - { offset: 0x127A4C, size: 0x8, addend: 0x0, symName: __ZNSt3__111__match_anyIcED1Ev, symObjAddr: 0x10F50, symBinAddr: 0x25730, symSize: 0x30 }
  - { offset: 0x127ADA, size: 0x8, addend: 0x0, symName: __ZNSt3__111__match_anyIcED0Ev, symObjAddr: 0x10F80, symBinAddr: 0x25760, symSize: 0x40 }
  - { offset: 0x127B0B, size: 0x8, addend: 0x0, symName: __ZNSt3__111__match_anyIcED0Ev, symObjAddr: 0x10F80, symBinAddr: 0x25760, symSize: 0x40 }
  - { offset: 0x127B2B, size: 0x8, addend: 0x0, symName: __ZNSt3__111__match_anyIcED0Ev, symObjAddr: 0x10F80, symBinAddr: 0x25760, symSize: 0x40 }
  - { offset: 0x127B4B, size: 0x8, addend: 0x0, symName: __ZNSt3__111__match_anyIcED0Ev, symObjAddr: 0x10F80, symBinAddr: 0x25760, symSize: 0x40 }
  - { offset: 0x127B77, size: 0x8, addend: 0x0, symName: __ZNKSt3__111__match_anyIcE6__execERNS_7__stateIcEE, symObjAddr: 0x10FC0, symBinAddr: 0x257A0, symSize: 0x40 }
  - { offset: 0x127BCA, size: 0x8, addend: 0x0, symName: __ZNSt3__111basic_regexIcNS_12regex_traitsIcEEE15__test_back_refEc, symObjAddr: 0x11000, symBinAddr: 0x257E0, symSize: 0x50 }
  - { offset: 0x127D02, size: 0x8, addend: 0x0, symName: __ZNSt3__111basic_regexIcNS_12regex_traitsIcEEE20__parse_ORD_CHAR_EREIPKcEET_S7_S7_, symObjAddr: 0x112B0, symBinAddr: 0x25A90, symSize: 0x1C0 }
  - { offset: 0x127D62, size: 0x8, addend: 0x0, symName: __ZNSt3__111basic_regexIcNS_12regex_traitsIcEEE23__parse_QUOTED_CHAR_EREIPKcEET_S7_S7_, symObjAddr: 0x11470, symBinAddr: 0x25C50, symSize: 0x200 }
  - { offset: 0x12DC91, size: 0x8, addend: 0x0, symName: __ZN5godot18create_method_bindI18SentryLoggerLimitsJiEEEPNS_10MethodBindEMT_FvDpT0_E, symObjAddr: 0x90B0, symBinAddr: 0x2E070, symSize: 0x120 }
  - { offset: 0x12DDF2, size: 0x8, addend: 0x0, symName: __ZN5godot18create_method_bindI18SentryLoggerLimitsiJEEEPNS_10MethodBindEMT_FT0_DpT1_E, symObjAddr: 0x9650, symBinAddr: 0x2E690, symSize: 0x120 }
  - { offset: 0x12E055, size: 0x8, addend: 0x0, symName: __ZN5godot18create_method_bindI13SentryOptionsJbEEEPNS_10MethodBindEMT_FvDpT0_E, symObjAddr: 0x9B70, symBinAddr: 0x2EB10, symSize: 0x120 }
  - { offset: 0x12E1A1, size: 0x8, addend: 0x0, symName: __ZN5godot18create_method_bindI13SentryOptionsbJEEEPNS_10MethodBindEMT_KFT0_DpT1_E, symObjAddr: 0xA110, symBinAddr: 0x2F130, symSize: 0x130 }
  - { offset: 0x12E2F0, size: 0x8, addend: 0x0, symName: __ZN5godot18create_method_bindI13SentryOptionsJRKNS_6StringEEEEPNS_10MethodBindEMT_FvDpT0_E, symObjAddr: 0xA4D0, symBinAddr: 0x2F590, symSize: 0x120 }
  - { offset: 0x12E43C, size: 0x8, addend: 0x0, symName: __ZN5godot18create_method_bindI13SentryOptionsNS_6StringEJEEEPNS_10MethodBindEMT_KFT0_DpT1_E, symObjAddr: 0xAAD0, symBinAddr: 0x2F6B0, symSize: 0x130 }
  - { offset: 0x12E58B, size: 0x8, addend: 0x0, symName: __ZN5godot18create_method_bindI13SentryOptionsJN6sentry5LevelEEEEPNS_10MethodBindEMT_FvDpT0_E, symObjAddr: 0xAF30, symBinAddr: 0x2F880, symSize: 0x120 }
  - { offset: 0x12E6D7, size: 0x8, addend: 0x0, symName: __ZN5godot18create_method_bindI13SentryOptionsN6sentry5LevelEJEEEPNS_10MethodBindEMT_KFT0_DpT1_E, symObjAddr: 0xB660, symBinAddr: 0x2F9A0, symSize: 0x130 }
  - { offset: 0x12E826, size: 0x8, addend: 0x0, symName: __ZN5godot18create_method_bindI13SentryOptionsJdEEEPNS_10MethodBindEMT_FvDpT0_E, symObjAddr: 0xB930, symBinAddr: 0x2FB20, symSize: 0x120 }
  - { offset: 0x12E972, size: 0x8, addend: 0x0, symName: __ZN5godot18create_method_bindI13SentryOptionsdJEEEPNS_10MethodBindEMT_KFT0_DpT1_E, symObjAddr: 0xBEE0, symBinAddr: 0x30150, symSize: 0x130 }
  - { offset: 0x12EAC1, size: 0x8, addend: 0x0, symName: __ZN5godot18create_method_bindI13SentryOptionsJiEEEPNS_10MethodBindEMT_FvDpT0_E, symObjAddr: 0xC270, symBinAddr: 0x30570, symSize: 0x120 }
  - { offset: 0x12EC0D, size: 0x8, addend: 0x0, symName: __ZN5godot18create_method_bindI13SentryOptionsiJEEEPNS_10MethodBindEMT_KFT0_DpT1_E, symObjAddr: 0xC390, symBinAddr: 0x30690, symSize: 0x130 }
  - { offset: 0x12ED5C, size: 0x8, addend: 0x0, symName: __ZN5godot18create_method_bindI13SentryOptionsJNS_8BitFieldIN6sentry14GodotErrorMaskEEEEEEPNS_10MethodBindEMT_FvDpT0_E, symObjAddr: 0xC820, symBinAddr: 0x30BC0, symSize: 0x120 }
  - { offset: 0x12EEA8, size: 0x8, addend: 0x0, symName: __ZN5godot18create_method_bindI13SentryOptionsNS_8BitFieldIN6sentry14GodotErrorMaskEEEJEEEPNS_10MethodBindEMT_KFT0_DpT1_E, symObjAddr: 0xCE40, symBinAddr: 0x31260, symSize: 0x130 }
  - { offset: 0x12EFF7, size: 0x8, addend: 0x0, symName: __ZN5godot18create_method_bindI13SentryOptionsJRKNS_3RefI18SentryLoggerLimitsEEEEEPNS_10MethodBindEMT_FvDpT0_E, symObjAddr: 0xD110, symBinAddr: 0x315D0, symSize: 0x120 }
  - { offset: 0x12F143, size: 0x8, addend: 0x0, symName: __ZN5godot18create_method_bindI13SentryOptionsNS_3RefI18SentryLoggerLimitsEEJEEEPNS_10MethodBindEMT_KFT0_DpT1_E, symObjAddr: 0xD8F0, symBinAddr: 0x31E90, symSize: 0x130 }
  - { offset: 0x12F292, size: 0x8, addend: 0x0, symName: __ZN5godot18create_method_bindI13SentryOptionsJRKNS_8CallableEEEEPNS_10MethodBindEMT_FvDpT0_E, symObjAddr: 0xDDB0, symBinAddr: 0x32390, symSize: 0x120 }
  - { offset: 0x12F3DE, size: 0x8, addend: 0x0, symName: __ZN5godot18create_method_bindI13SentryOptionsNS_8CallableEJEEEPNS_10MethodBindEMT_KFT0_DpT1_E, symObjAddr: 0xE3C0, symBinAddr: 0x32A90, symSize: 0x130 }
  - { offset: 0x12F6EB, size: 0x8, addend: 0x0, symName: __ZN5godot34call_get_argument_type_info_helperIiEEviRiRNS_12PropertyInfoE, symObjAddr: 0x93D0, symBinAddr: 0x2E380, symSize: 0x180 }
  - { offset: 0x12F8E8, size: 0x8, addend: 0x0, symName: __ZN5godot25call_with_variant_args_dvINS_20_gde_UnexistingClassEJiEEEvPT_MS2_FvDpT0_EPKPKviR20GDExtensionCallErrorRKNSt3__16vectorINS_7VariantENSE_9allocatorISG_EEEE, symObjAddr: 0x9550, symBinAddr: 0x2E500, symSize: 0x190 }
  - { offset: 0x13006C, size: 0x8, addend: 0x0, symName: __ZN5godot34call_get_argument_type_info_helperIbEEviRiRNS_12PropertyInfoE, symObjAddr: 0x9E90, symBinAddr: 0x2EE20, symSize: 0x180 }
  - { offset: 0x1301DE, size: 0x8, addend: 0x0, symName: __ZN5godot25call_with_variant_args_dvINS_20_gde_UnexistingClassEJbEEEvPT_MS2_FvDpT0_EPKPKviR20GDExtensionCallErrorRKNSt3__16vectorINS_7VariantENSE_9allocatorISG_EEEE, symObjAddr: 0xA010, symBinAddr: 0x2EFA0, symSize: 0x190 }
  - { offset: 0x130DAC, size: 0x8, addend: 0x0, symName: __ZN5godot34call_get_argument_type_info_helperIdEEviRiRNS_12PropertyInfoE, symObjAddr: 0xBC60, symBinAddr: 0x2FE40, symSize: 0x180 }
  - { offset: 0x130FA9, size: 0x8, addend: 0x0, symName: __ZN5godot25call_with_variant_args_dvINS_20_gde_UnexistingClassEJdEEEvPT_MS2_FvDpT0_EPKPKviR20GDExtensionCallErrorRKNSt3__16vectorINS_7VariantENSE_9allocatorISG_EEEE, symObjAddr: 0xBDE0, symBinAddr: 0x2FFC0, symSize: 0x190 }
  - { offset: 0x131A06, size: 0x8, addend: 0x0, symName: __ZN5godot34call_get_argument_type_info_helperINS_8BitFieldIN6sentry14GodotErrorMaskEEEEEviRiRNS_12PropertyInfoE, symObjAddr: 0xCB40, symBinAddr: 0x30ED0, symSize: 0xC0 }
  - { offset: 0x131AE2, size: 0x8, addend: 0x0, symName: __ZN5godot25call_with_variant_args_dvINS_20_gde_UnexistingClassEJNS_8BitFieldIN6sentry14GodotErrorMaskEEEEEEvPT_MS6_FvDpT0_EPKPKviR20GDExtensionCallErrorRKNSt3__16vectorINS_7VariantENSI_9allocatorISK_EEEE, symObjAddr: 0xCD40, symBinAddr: 0x310D0, symSize: 0x190 }
  - { offset: 0x132245, size: 0x8, addend: 0x0, symName: __ZN5godot34call_get_argument_type_info_helperIRKNS_3RefI18SentryLoggerLimitsEEEEviRiRNS_12PropertyInfoE, symObjAddr: 0xD4B0, symBinAddr: 0x31960, symSize: 0xC0 }
  - { offset: 0x132321, size: 0x8, addend: 0x0, symName: __ZN5godot25call_with_variant_args_dvINS_20_gde_UnexistingClassEJRKNS_3RefI18SentryLoggerLimitsEEEEEvPT_MS7_FvDpT0_EPKPKviR20GDExtensionCallErrorRKNSt3__16vectorINS_7VariantENSJ_9allocatorISL_EEEE, symObjAddr: 0xD6B0, symBinAddr: 0x31B60, symSize: 0x130 }
  - { offset: 0x13284C, size: 0x8, addend: 0x0, symName: __ZN5godot30call_with_variant_args_retc_dvINS_20_gde_UnexistingClassENS_3RefI18SentryLoggerLimitsEEJEEEvPT_MS5_KFT0_DpT1_EPKPKviRNS_7VariantER20GDExtensionCallErrorRKNSt3__16vectorISG_NSK_9allocatorISG_EEEE, symObjAddr: 0xDCB0, symBinAddr: 0x32250, symSize: 0x110 }
  - { offset: 0x132CF5, size: 0x8, addend: 0x0, symName: __ZN5godot34call_get_argument_type_info_helperIRKNS_8CallableEEEviRiRNS_12PropertyInfoE, symObjAddr: 0xE130, symBinAddr: 0x32700, symSize: 0x180 }
  - { offset: 0x132E67, size: 0x8, addend: 0x0, symName: __ZN5godot25call_with_variant_args_dvINS_20_gde_UnexistingClassEJRKNS_8CallableEEEEvPT_MS5_FvDpT0_EPKPKviR20GDExtensionCallErrorRKNSt3__16vectorINS_7VariantENSH_9allocatorISJ_EEEE, symObjAddr: 0xE2B0, symBinAddr: 0x32880, symSize: 0x130 }
  - { offset: 0x13F5A1, size: 0x8, addend: 0x0, symName: __ZN13SentryOptions9singletonE, symObjAddr: 0x17C278, symBinAddr: 0x1E9A60, symSize: 0x0 }
  - { offset: 0x14029F, size: 0x8, addend: 0x0, symName: __ZN13SentryOptions16create_singletonEv, symObjAddr: 0x2C00, symBinAddr: 0x28F10, symSize: 0x130 }
  - { offset: 0x1402C1, size: 0x8, addend: 0x0, symName: __ZZN13SentryOptions16create_singletonEvE20are_settings_defined, symObjAddr: 0x17C280, symBinAddr: 0x1DD15C, symSize: 0x0 }
  - { offset: 0x1404A0, size: 0x8, addend: 0x0, symName: __ZN12_GLOBAL__N_115_define_settingERKN5godot6StringERKNS0_7VariantEb, symObjAddr: 0x1CD0, symBinAddr: 0x27FE0, symSize: 0x110 }
  - { offset: 0x1404C6, size: 0x8, addend: 0x0, symName: __ZZN12_GLOBAL__N_115_define_settingERKN5godot6StringERKNS0_7VariantEbE18config_value_order, symObjAddr: 0x17C284, symBinAddr: 0x1DD160, symSize: 0x0 }
  - { offset: 0x140501, size: 0x8, addend: 0x0, symName: __ZN12_GLOBAL__N_115_define_settingERKN5godot12PropertyInfoERKNS0_7VariantEb, symObjAddr: 0x1DE0, symBinAddr: 0x280F0, symSize: 0xD0 }
  - { offset: 0x14135A, size: 0x8, addend: 0x0, symName: ___cxx_global_var_init, symObjAddr: 0x10450, symBinAddr: 0x32F70, symSize: 0x40 }
  - { offset: 0x1413E1, size: 0x8, addend: 0x0, symName: ___cxx_global_var_init.1, symObjAddr: 0x10490, symBinAddr: 0x32FB0, symSize: 0x40 }
  - { offset: 0x141468, size: 0x8, addend: 0x0, symName: ___cxx_global_var_init.2, symObjAddr: 0x104D0, symBinAddr: 0x32FF0, symSize: 0x40 }
  - { offset: 0x1414EF, size: 0x8, addend: 0x0, symName: ___cxx_global_var_init.3, symObjAddr: 0x10510, symBinAddr: 0x33030, symSize: 0x40 }
  - { offset: 0x141576, size: 0x8, addend: 0x0, symName: ___cxx_global_var_init.4, symObjAddr: 0x10550, symBinAddr: 0x33070, symSize: 0x40 }
  - { offset: 0x1415FD, size: 0x8, addend: 0x0, symName: ___cxx_global_var_init.5, symObjAddr: 0x10590, symBinAddr: 0x330B0, symSize: 0x40 }
  - { offset: 0x141684, size: 0x8, addend: 0x0, symName: ___cxx_global_var_init.6, symObjAddr: 0x105D0, symBinAddr: 0x330F0, symSize: 0x40 }
  - { offset: 0x14170B, size: 0x8, addend: 0x0, symName: ___cxx_global_var_init.7, symObjAddr: 0x10610, symBinAddr: 0x33130, symSize: 0x40 }
  - { offset: 0x141B5D, size: 0x8, addend: 0x0, symName: __ZN18SentryLoggerLimits13_bind_methodsEv, symObjAddr: 0x0, symBinAddr: 0x267D0, symSize: 0xBD0 }
  - { offset: 0x1438E4, size: 0x8, addend: 0x0, symName: __ZN18SentryLoggerLimits13_bind_methodsEv.cold.1, symObjAddr: 0xE800, symBinAddr: 0x11B410, symSize: 0x60 }
  - { offset: 0x143912, size: 0x8, addend: 0x0, symName: __ZN18SentryLoggerLimits13_bind_methodsEv.cold.2, symObjAddr: 0xE860, symBinAddr: 0x11B470, symSize: 0x60 }
  - { offset: 0x143940, size: 0x8, addend: 0x0, symName: __ZN18SentryLoggerLimits13_bind_methodsEv.cold.3, symObjAddr: 0xE8C0, symBinAddr: 0x11B4D0, symSize: 0x60 }
  - { offset: 0x14396E, size: 0x8, addend: 0x0, symName: __ZN18SentryLoggerLimits13_bind_methodsEv.cold.4, symObjAddr: 0xE920, symBinAddr: 0x11B530, symSize: 0x60 }
  - { offset: 0x1439D1, size: 0x8, addend: 0x0, symName: __ZN5godot3RefI13SentryOptionsED1Ev, symObjAddr: 0xD80, symBinAddr: 0x273A0, symSize: 0x40 }
  - { offset: 0x143AE6, size: 0x8, addend: 0x0, symName: __ZN13SentryOptions24_define_project_settingsERKN5godot3RefIS_EE, symObjAddr: 0xDC0, symBinAddr: 0x273E0, symSize: 0xC00 }
  - { offset: 0x144DE9, size: 0x8, addend: 0x0, symName: __ZN13SentryOptions24_define_project_settingsERKN5godot3RefIS_EE.cold.2, symObjAddr: 0xE9B0, symBinAddr: 0x11B5C0, symSize: 0x30 }
  - { offset: 0x144E01, size: 0x8, addend: 0x0, symName: __ZN13SentryOptions24_define_project_settingsERKN5godot3RefIS_EE.cold.1, symObjAddr: 0xE980, symBinAddr: 0x11B590, symSize: 0x30 }
  - { offset: 0x144E3E, size: 0x8, addend: 0x0, symName: __ZNK5godot12PropertyInfocvNS_10DictionaryEEv, symObjAddr: 0x8320, symBinAddr: 0x2DDF0, symSize: 0x260 }
  - { offset: 0x14512F, size: 0x8, addend: 0x0, symName: __ZN13SentryOptions22_load_project_settingsERKN5godot3RefIS_EE, symObjAddr: 0x1EB0, symBinAddr: 0x281C0, symSize: 0xD00 }
  - { offset: 0x145CB0, size: 0x8, addend: 0x0, symName: __ZN13SentryOptions22_load_project_settingsERKN5godot3RefIS_EE.cold.3, symObjAddr: 0xEA40, symBinAddr: 0x11B650, symSize: 0x30 }
  - { offset: 0x145CC8, size: 0x8, addend: 0x0, symName: __ZN13SentryOptions22_load_project_settingsERKN5godot3RefIS_EE.cold.2, symObjAddr: 0xEA10, symBinAddr: 0x11B620, symSize: 0x30 }
  - { offset: 0x145CE0, size: 0x8, addend: 0x0, symName: __ZN13SentryOptions22_load_project_settingsERKN5godot3RefIS_EE.cold.1, symObjAddr: 0xE9E0, symBinAddr: 0x11B5F0, symSize: 0x30 }
  - { offset: 0x145D0E, size: 0x8, addend: 0x0, symName: __ZN13SentryOptions18_init_debug_optionENS_9DebugModeE, symObjAddr: 0x2BB0, symBinAddr: 0x28EC0, symSize: 0x50 }
  - { offset: 0x145D49, size: 0x8, addend: 0x0, symName: __ZN13SentryOptions18_init_debug_optionENS_9DebugModeE.cold.1, symObjAddr: 0xEA70, symBinAddr: 0x11B680, symSize: 0x30 }
  - { offset: 0x145E6F, size: 0x8, addend: 0x0, symName: __ZN13SentryOptionsC2Ev, symObjAddr: 0x8060, symBinAddr: 0x2DB40, symSize: 0x180 }
  - { offset: 0x146049, size: 0x8, addend: 0x0, symName: __ZN13SentryOptions16create_singletonEv.cold.1, symObjAddr: 0xEAA0, symBinAddr: 0x11B6B0, symSize: 0x60 }
  - { offset: 0x1460B9, size: 0x8, addend: 0x0, symName: __ZN13SentryOptionsC1Ev, symObjAddr: 0x2D30, symBinAddr: 0x29040, symSize: 0x10 }
  - { offset: 0x1460F1, size: 0x8, addend: 0x0, symName: __ZN13SentryOptions17destroy_singletonEv, symObjAddr: 0x2D40, symBinAddr: 0x29050, symSize: 0x40 }
  - { offset: 0x14610B, size: 0x8, addend: 0x0, symName: __ZN13SentryOptions17destroy_singletonEv, symObjAddr: 0x2D40, symBinAddr: 0x29050, symSize: 0x40 }
  - { offset: 0x146120, size: 0x8, addend: 0x0, symName: __ZN13SentryOptions17destroy_singletonEv, symObjAddr: 0x2D40, symBinAddr: 0x29050, symSize: 0x40 }
  - { offset: 0x1461E7, size: 0x8, addend: 0x0, symName: __ZN13SentryOptions17set_logger_limitsERKN5godot3RefI18SentryLoggerLimitsEE, symObjAddr: 0x2D80, symBinAddr: 0x29090, symSize: 0x70 }
  - { offset: 0x1462DA, size: 0x8, addend: 0x0, symName: __ZN5godot3RefI18SentryLoggerLimitsE11instantiateEv, symObjAddr: 0x2DF0, symBinAddr: 0x29100, symSize: 0x160 }
  - { offset: 0x146689, size: 0x8, addend: 0x0, symName: __ZN5godot3RefI18SentryLoggerLimitsE11instantiateEv.cold.1, symObjAddr: 0xEB00, symBinAddr: 0x11B710, symSize: 0x60 }
  - { offset: 0x146F39, size: 0x8, addend: 0x0, symName: __ZN13SentryOptions13_bind_methodsEv, symObjAddr: 0x2F40, symBinAddr: 0x29260, symSize: 0x48E0 }
  - { offset: 0x151D89, size: 0x8, addend: 0x0, symName: __ZN5godot11GetTypeInfoINS_8BitFieldIN6sentry14GodotErrorMaskEEEvE14get_class_infoEv, symObjAddr: 0xCC00, symBinAddr: 0x30F90, symSize: 0x140 }
  - { offset: 0x151E4B, size: 0x8, addend: 0x0, symName: __ZN13SentryOptions13_bind_methodsEv.cold.1, symObjAddr: 0xEB60, symBinAddr: 0x11B770, symSize: 0x60 }
  - { offset: 0x151E79, size: 0x8, addend: 0x0, symName: __ZN13SentryOptions13_bind_methodsEv.cold.2, symObjAddr: 0xEBC0, symBinAddr: 0x11B7D0, symSize: 0x60 }
  - { offset: 0x151EA7, size: 0x8, addend: 0x0, symName: __ZN13SentryOptions13_bind_methodsEv.cold.3, symObjAddr: 0xEC20, symBinAddr: 0x11B830, symSize: 0x60 }
  - { offset: 0x151ED5, size: 0x8, addend: 0x0, symName: __ZN13SentryOptions13_bind_methodsEv.cold.4, symObjAddr: 0xEC80, symBinAddr: 0x11B890, symSize: 0x60 }
  - { offset: 0x151F03, size: 0x8, addend: 0x0, symName: __ZN13SentryOptions13_bind_methodsEv.cold.5, symObjAddr: 0xECE0, symBinAddr: 0x11B8F0, symSize: 0x60 }
  - { offset: 0x151F31, size: 0x8, addend: 0x0, symName: __ZN13SentryOptions13_bind_methodsEv.cold.6, symObjAddr: 0xED40, symBinAddr: 0x11B950, symSize: 0x60 }
  - { offset: 0x151F5F, size: 0x8, addend: 0x0, symName: __ZN13SentryOptions13_bind_methodsEv.cold.7, symObjAddr: 0xEDA0, symBinAddr: 0x11B9B0, symSize: 0x60 }
  - { offset: 0x151F8D, size: 0x8, addend: 0x0, symName: __ZN13SentryOptions13_bind_methodsEv.cold.8, symObjAddr: 0xEE00, symBinAddr: 0x11BA10, symSize: 0x60 }
  - { offset: 0x151FBB, size: 0x8, addend: 0x0, symName: __ZN13SentryOptions13_bind_methodsEv.cold.9, symObjAddr: 0xEE60, symBinAddr: 0x11BA70, symSize: 0x60 }
  - { offset: 0x151FE9, size: 0x8, addend: 0x0, symName: __ZN13SentryOptions13_bind_methodsEv.cold.10, symObjAddr: 0xEEC0, symBinAddr: 0x11BAD0, symSize: 0x60 }
  - { offset: 0x152017, size: 0x8, addend: 0x0, symName: __ZN13SentryOptions13_bind_methodsEv.cold.11, symObjAddr: 0xEF20, symBinAddr: 0x11BB30, symSize: 0x60 }
  - { offset: 0x152045, size: 0x8, addend: 0x0, symName: __ZN13SentryOptions13_bind_methodsEv.cold.12, symObjAddr: 0xEF80, symBinAddr: 0x11BB90, symSize: 0x60 }
  - { offset: 0x152073, size: 0x8, addend: 0x0, symName: __ZN13SentryOptions13_bind_methodsEv.cold.13, symObjAddr: 0xEFE0, symBinAddr: 0x11BBF0, symSize: 0x60 }
  - { offset: 0x1520A1, size: 0x8, addend: 0x0, symName: __ZN13SentryOptions13_bind_methodsEv.cold.14, symObjAddr: 0xF040, symBinAddr: 0x11BC50, symSize: 0x60 }
  - { offset: 0x1520CF, size: 0x8, addend: 0x0, symName: __ZN13SentryOptions13_bind_methodsEv.cold.15, symObjAddr: 0xF0A0, symBinAddr: 0x11BCB0, symSize: 0x60 }
  - { offset: 0x1520FD, size: 0x8, addend: 0x0, symName: __ZN13SentryOptions13_bind_methodsEv.cold.16, symObjAddr: 0xF100, symBinAddr: 0x11BD10, symSize: 0x60 }
  - { offset: 0x15212B, size: 0x8, addend: 0x0, symName: __ZN13SentryOptions13_bind_methodsEv.cold.17, symObjAddr: 0xF160, symBinAddr: 0x11BD70, symSize: 0x60 }
  - { offset: 0x152159, size: 0x8, addend: 0x0, symName: __ZN13SentryOptions13_bind_methodsEv.cold.18, symObjAddr: 0xF1C0, symBinAddr: 0x11BDD0, symSize: 0x60 }
  - { offset: 0x152187, size: 0x8, addend: 0x0, symName: __ZN13SentryOptions13_bind_methodsEv.cold.19, symObjAddr: 0xF220, symBinAddr: 0x11BE30, symSize: 0x60 }
  - { offset: 0x1521B5, size: 0x8, addend: 0x0, symName: __ZN13SentryOptions13_bind_methodsEv.cold.20, symObjAddr: 0xF280, symBinAddr: 0x11BE90, symSize: 0x60 }
  - { offset: 0x1521E3, size: 0x8, addend: 0x0, symName: __ZN13SentryOptions13_bind_methodsEv.cold.21, symObjAddr: 0xF2E0, symBinAddr: 0x11BEF0, symSize: 0x60 }
  - { offset: 0x152211, size: 0x8, addend: 0x0, symName: __ZN13SentryOptions13_bind_methodsEv.cold.22, symObjAddr: 0xF340, symBinAddr: 0x11BF50, symSize: 0x60 }
  - { offset: 0x15223F, size: 0x8, addend: 0x0, symName: __ZN13SentryOptions13_bind_methodsEv.cold.23, symObjAddr: 0xF3A0, symBinAddr: 0x11BFB0, symSize: 0x60 }
  - { offset: 0x15226D, size: 0x8, addend: 0x0, symName: __ZN13SentryOptions13_bind_methodsEv.cold.24, symObjAddr: 0xF400, symBinAddr: 0x11C010, symSize: 0x60 }
  - { offset: 0x15229B, size: 0x8, addend: 0x0, symName: __ZN13SentryOptions13_bind_methodsEv.cold.25, symObjAddr: 0xF460, symBinAddr: 0x11C070, symSize: 0x60 }
  - { offset: 0x1522C9, size: 0x8, addend: 0x0, symName: __ZN13SentryOptions13_bind_methodsEv.cold.26, symObjAddr: 0xF4C0, symBinAddr: 0x11C0D0, symSize: 0x60 }
  - { offset: 0x1522F7, size: 0x8, addend: 0x0, symName: __ZN13SentryOptions13_bind_methodsEv.cold.27, symObjAddr: 0xF520, symBinAddr: 0x11C130, symSize: 0x60 }
  - { offset: 0x152325, size: 0x8, addend: 0x0, symName: __ZN13SentryOptions13_bind_methodsEv.cold.28, symObjAddr: 0xF580, symBinAddr: 0x11C190, symSize: 0x60 }
  - { offset: 0x152353, size: 0x8, addend: 0x0, symName: __ZN13SentryOptions13_bind_methodsEv.cold.29, symObjAddr: 0xF5E0, symBinAddr: 0x11C1F0, symSize: 0x60 }
  - { offset: 0x152406, size: 0x8, addend: 0x0, symName: __ZN13SentryOptionsC2Ev.cold.1, symObjAddr: 0xF640, symBinAddr: 0x11C250, symSize: 0x30 }
  - { offset: 0x152529, size: 0x8, addend: 0x0, symName: __ZN13SentryOptionsD2Ev, symObjAddr: 0x81F0, symBinAddr: 0x2DCC0, symSize: 0xF0 }
  - { offset: 0x1527FB, size: 0x8, addend: 0x0, symName: __ZN13SentryOptionsD2Ev.cold.1, symObjAddr: 0xF670, symBinAddr: 0x11C280, symSize: 0x30 }
  - { offset: 0x152882, size: 0x8, addend: 0x0, symName: __ZN13SentryOptionsD1Ev, symObjAddr: 0x82E0, symBinAddr: 0x2DDB0, symSize: 0x10 }
  - { offset: 0x1528D6, size: 0x8, addend: 0x0, symName: __ZN13SentryOptionsD0Ev, symObjAddr: 0x82F0, symBinAddr: 0x2DDC0, symSize: 0x20 }
  - { offset: 0x152938, size: 0x8, addend: 0x0, symName: __ZNK13SentryOptions19_is_extension_classEv, symObjAddr: 0x8310, symBinAddr: 0x2DDE0, symSize: 0x10 }
  - { offset: 0x152982, size: 0x8, addend: 0x0, symName: __ZN5godot10RefCountedD1Ev.cold.1, symObjAddr: 0xF6A0, symBinAddr: 0x11C2B0, symSize: 0x30 }
  - { offset: 0x152A25, size: 0x8, addend: 0x0, symName: __ZN5godot10RefCountedD0Ev.cold.1, symObjAddr: 0xF6D0, symBinAddr: 0x11C2E0, symSize: 0x30 }
  - { offset: 0x152AC2, size: 0x8, addend: 0x0, symName: __ZN5godot6ObjectD1Ev.cold.1, symObjAddr: 0xF700, symBinAddr: 0x11C310, symSize: 0x30 }
  - { offset: 0x152B4D, size: 0x8, addend: 0x0, symName: __ZN5godot6ObjectD0Ev.cold.1, symObjAddr: 0xF730, symBinAddr: 0x11C340, symSize: 0x30 }
  - { offset: 0x152BD4, size: 0x8, addend: 0x0, symName: __ZN5godot7WrappedD1Ev.cold.1, symObjAddr: 0xF760, symBinAddr: 0x11C370, symSize: 0x30 }
  - { offset: 0x152C49, size: 0x8, addend: 0x0, symName: __ZN5godot7WrappedD0Ev.cold.1, symObjAddr: 0xF790, symBinAddr: 0x11C3A0, symSize: 0x30 }
  - { offset: 0x152CF2, size: 0x8, addend: 0x0, symName: __ZN5godot4ListINS_12PropertyInfoENS_16DefaultAllocatorEE5_Data5eraseEPNS3_7ElementE.cold.2, symObjAddr: 0xF7F0, symBinAddr: 0x11C400, symSize: 0x30 }
  - { offset: 0x152D0A, size: 0x8, addend: 0x0, symName: __ZN5godot4ListINS_12PropertyInfoENS_16DefaultAllocatorEE5_Data5eraseEPNS3_7ElementE.cold.1, symObjAddr: 0xF7C0, symBinAddr: 0x11C3D0, symSize: 0x30 }
  - { offset: 0x152D29, size: 0x8, addend: 0x0, symName: __ZN5godot8internal23EngineClassRegistrationINS_6ObjectEE8callbackEv.cold.1, symObjAddr: 0xF820, symBinAddr: 0x11C430, symSize: 0x60 }
  - { offset: 0x152D5E, size: 0x8, addend: 0x0, symName: __ZN5godot8internal23EngineClassRegistrationINS_16ClassDBSingletonEE8callbackEv.cold.1, symObjAddr: 0xF880, symBinAddr: 0x11C490, symSize: 0x60 }
  - { offset: 0x152D93, size: 0x8, addend: 0x0, symName: __ZN5godot8internal23EngineClassRegistrationINS_10RefCountedEE8callbackEv.cold.1, symObjAddr: 0xF8E0, symBinAddr: 0x11C4F0, symSize: 0x60 }
  - { offset: 0x152DC8, size: 0x8, addend: 0x0, symName: __ZN5godot8internal23EngineClassRegistrationINS_6LoggerEE8callbackEv.cold.1, symObjAddr: 0xF940, symBinAddr: 0x11C550, symSize: 0x60 }
  - { offset: 0x152DFD, size: 0x8, addend: 0x0, symName: __ZN5godot8internal23EngineClassRegistrationINS_10ConfigFileEE8callbackEv.cold.1, symObjAddr: 0xF9A0, symBinAddr: 0x11C5B0, symSize: 0x60 }
  - { offset: 0x152E47, size: 0x8, addend: 0x0, symName: __ZN5godot10ConfigFileD1Ev.cold.1, symObjAddr: 0xFA00, symBinAddr: 0x11C610, symSize: 0x30 }
  - { offset: 0x152F00, size: 0x8, addend: 0x0, symName: __ZN5godot10ConfigFileD0Ev.cold.1, symObjAddr: 0xFA30, symBinAddr: 0x11C640, symSize: 0x30 }
  - { offset: 0x152FBA, size: 0x8, addend: 0x0, symName: __ZN5godot8internal23EngineClassRegistrationINS_15ScriptBacktraceEE8callbackEv.cold.1, symObjAddr: 0xFA60, symBinAddr: 0x11C670, symSize: 0x60 }
  - { offset: 0x153004, size: 0x8, addend: 0x0, symName: __ZN5godot15ScriptBacktraceD1Ev.cold.1, symObjAddr: 0xFAC0, symBinAddr: 0x11C6D0, symSize: 0x30 }
  - { offset: 0x1530BD, size: 0x8, addend: 0x0, symName: __ZN5godot15ScriptBacktraceD0Ev.cold.1, symObjAddr: 0xFAF0, symBinAddr: 0x11C700, symSize: 0x30 }
  - { offset: 0x153177, size: 0x8, addend: 0x0, symName: __ZN5godot8internal23EngineClassRegistrationINS_2OSEE8callbackEv.cold.1, symObjAddr: 0xFB20, symBinAddr: 0x11C730, symSize: 0x60 }
  - { offset: 0x1531AC, size: 0x8, addend: 0x0, symName: __ZN5godot8internal23EngineClassRegistrationINS_15ProjectSettingsEE8callbackEv.cold.1, symObjAddr: 0xFB80, symBinAddr: 0x11C790, symSize: 0x60 }
  - { offset: 0x1531DA, size: 0x8, addend: 0x0, symName: __ZN18SentryLoggerLimits20set_events_per_frameEi, symObjAddr: 0x9090, symBinAddr: 0x2E050, symSize: 0x10 }
  - { offset: 0x15320D, size: 0x8, addend: 0x0, symName: __ZN18SentryLoggerLimits20get_events_per_frameEv, symObjAddr: 0x90A0, symBinAddr: 0x2E060, symSize: 0x10 }
  - { offset: 0x153308, size: 0x8, addend: 0x0, symName: __ZN5godot18create_method_bindI18SentryLoggerLimitsJiEEEPNS_10MethodBindEMT_FvDpT0_E.cold.1, symObjAddr: 0xFBE0, symBinAddr: 0x11C7F0, symSize: 0x60 }
  - { offset: 0x153337, size: 0x8, addend: 0x0, symName: __ZNK5godot11MethodBindTIJiEE17gen_argument_typeEi, symObjAddr: 0x91D0, symBinAddr: 0x2E190, symSize: 0x10 }
  - { offset: 0x1533CD, size: 0x8, addend: 0x0, symName: __ZNK5godot11MethodBindTIJiEE22gen_argument_type_infoEi, symObjAddr: 0x91E0, symBinAddr: 0x2E1A0, symSize: 0x130 }
  - { offset: 0x15356B, size: 0x8, addend: 0x0, symName: __ZNK5godot11MethodBindTIJiEE21get_argument_metadataEi, symObjAddr: 0x9320, symBinAddr: 0x2E2D0, symSize: 0x10 }
  - { offset: 0x153614, size: 0x8, addend: 0x0, symName: __ZNK5godot11MethodBindTIJiEE4callEPvPKPKvxR20GDExtensionCallError, symObjAddr: 0x9330, symBinAddr: 0x2E2E0, symSize: 0x40 }
  - { offset: 0x1536D8, size: 0x8, addend: 0x0, symName: __ZNK5godot11MethodBindTIJiEE7ptrcallEPvPKPKvS2_, symObjAddr: 0x9370, symBinAddr: 0x2E320, symSize: 0x30 }
  - { offset: 0x1537D5, size: 0x8, addend: 0x0, symName: __ZN5godot11MethodBindTIJiEED1Ev, symObjAddr: 0x93A0, symBinAddr: 0x2E350, symSize: 0x10 }
  - { offset: 0x153832, size: 0x8, addend: 0x0, symName: __ZN5godot11MethodBindTIJiEED0Ev, symObjAddr: 0x93B0, symBinAddr: 0x2E360, symSize: 0x20 }
  - { offset: 0x153955, size: 0x8, addend: 0x0, symName: __ZN5godot18create_method_bindI18SentryLoggerLimitsiJEEEPNS_10MethodBindEMT_FT0_DpT1_E.cold.1, symObjAddr: 0xFC40, symBinAddr: 0x11C850, symSize: 0x60 }
  - { offset: 0x153984, size: 0x8, addend: 0x0, symName: __ZNK5godot12MethodBindTRIiJEE17gen_argument_typeEi, symObjAddr: 0x9770, symBinAddr: 0x2E7B0, symSize: 0x10 }
  - { offset: 0x1539B8, size: 0x8, addend: 0x0, symName: __ZNK5godot12MethodBindTRIiJEE22gen_argument_type_infoEi, symObjAddr: 0x9780, symBinAddr: 0x2E7C0, symSize: 0x110 }
  - { offset: 0x153A96, size: 0x8, addend: 0x0, symName: __ZNK5godot12MethodBindTRIiJEE21get_argument_metadataEi, symObjAddr: 0x9890, symBinAddr: 0x2E8D0, symSize: 0x10 }
  - { offset: 0x153B05, size: 0x8, addend: 0x0, symName: __ZNK5godot12MethodBindTRIiJEE4callEPvPKPKvxR20GDExtensionCallError, symObjAddr: 0x98A0, symBinAddr: 0x2E8E0, symSize: 0x60 }
  - { offset: 0x153C6E, size: 0x8, addend: 0x0, symName: __ZNK5godot12MethodBindTRIiJEE7ptrcallEPvPKPKvS2_, symObjAddr: 0x9950, symBinAddr: 0x2E940, symSize: 0x30 }
  - { offset: 0x153D6E, size: 0x8, addend: 0x0, symName: __ZN5godot12MethodBindTRIiJEED1Ev, symObjAddr: 0x9980, symBinAddr: 0x2E970, symSize: 0x10 }
  - { offset: 0x153DCB, size: 0x8, addend: 0x0, symName: __ZN5godot12MethodBindTRIiJEED0Ev, symObjAddr: 0x9990, symBinAddr: 0x2E980, symSize: 0x20 }
  - { offset: 0x153E37, size: 0x8, addend: 0x0, symName: __ZN18SentryLoggerLimits28set_repeated_error_window_msEi, symObjAddr: 0x99B0, symBinAddr: 0x2EA90, symSize: 0x10 }
  - { offset: 0x153E6A, size: 0x8, addend: 0x0, symName: __ZN18SentryLoggerLimits28get_repeated_error_window_msEv, symObjAddr: 0x99C0, symBinAddr: 0x2EAA0, symSize: 0x10 }
  - { offset: 0x153E8F, size: 0x8, addend: 0x0, symName: __ZN18SentryLoggerLimits19set_throttle_eventsEi, symObjAddr: 0x99D0, symBinAddr: 0x2EAB0, symSize: 0x10 }
  - { offset: 0x153EC2, size: 0x8, addend: 0x0, symName: __ZN18SentryLoggerLimits19get_throttle_eventsEv, symObjAddr: 0x99E0, symBinAddr: 0x2EAC0, symSize: 0x10 }
  - { offset: 0x153EE7, size: 0x8, addend: 0x0, symName: __ZN18SentryLoggerLimits22set_throttle_window_msEi, symObjAddr: 0x99F0, symBinAddr: 0x2EAD0, symSize: 0x10 }
  - { offset: 0x153F1A, size: 0x8, addend: 0x0, symName: __ZN18SentryLoggerLimits22get_throttle_window_msEv, symObjAddr: 0x9A00, symBinAddr: 0x2EAE0, symSize: 0x10 }
  - { offset: 0x153F5B, size: 0x8, addend: 0x0, symName: __ZN18SentryLoggerLimitsD1Ev.cold.1, symObjAddr: 0xFCA0, symBinAddr: 0x11C8B0, symSize: 0x30 }
  - { offset: 0x154014, size: 0x8, addend: 0x0, symName: __ZN18SentryLoggerLimitsD0Ev.cold.1, symObjAddr: 0xFCD0, symBinAddr: 0x11C8E0, symSize: 0x30 }
  - { offset: 0x1540C7, size: 0x8, addend: 0x0, symName: __ZN13SentryOptions11set_enabledEb, symObjAddr: 0x9B50, symBinAddr: 0x2EAF0, symSize: 0x10 }
  - { offset: 0x1540FA, size: 0x8, addend: 0x0, symName: __ZNK13SentryOptions10is_enabledEv, symObjAddr: 0x9B60, symBinAddr: 0x2EB00, symSize: 0x10 }
  - { offset: 0x15417F, size: 0x8, addend: 0x0, symName: __ZN5godot18create_method_bindI13SentryOptionsJbEEEPNS_10MethodBindEMT_FvDpT0_E.cold.1, symObjAddr: 0xFD00, symBinAddr: 0x11C910, symSize: 0x60 }
  - { offset: 0x1541AE, size: 0x8, addend: 0x0, symName: __ZNK5godot11MethodBindTIJbEE17gen_argument_typeEi, symObjAddr: 0x9C90, symBinAddr: 0x2EC30, symSize: 0x10 }
  - { offset: 0x1541E2, size: 0x8, addend: 0x0, symName: __ZNK5godot11MethodBindTIJbEE22gen_argument_type_infoEi, symObjAddr: 0x9CA0, symBinAddr: 0x2EC40, symSize: 0x130 }
  - { offset: 0x154376, size: 0x8, addend: 0x0, symName: __ZNK5godot11MethodBindTIJbEE21get_argument_metadataEi, symObjAddr: 0x9DE0, symBinAddr: 0x2ED70, symSize: 0x10 }
  - { offset: 0x1543AA, size: 0x8, addend: 0x0, symName: __ZNK5godot11MethodBindTIJbEE4callEPvPKPKvxR20GDExtensionCallError, symObjAddr: 0x9DF0, symBinAddr: 0x2ED80, symSize: 0x40 }
  - { offset: 0x15446E, size: 0x8, addend: 0x0, symName: __ZNK5godot11MethodBindTIJbEE7ptrcallEPvPKPKvS2_, symObjAddr: 0x9E30, symBinAddr: 0x2EDC0, symSize: 0x30 }
  - { offset: 0x15456B, size: 0x8, addend: 0x0, symName: __ZN5godot11MethodBindTIJbEED1Ev, symObjAddr: 0x9E60, symBinAddr: 0x2EDF0, symSize: 0x10 }
  - { offset: 0x1545C8, size: 0x8, addend: 0x0, symName: __ZN5godot11MethodBindTIJbEED0Ev, symObjAddr: 0x9E70, symBinAddr: 0x2EE00, symSize: 0x20 }
  - { offset: 0x1546AE, size: 0x8, addend: 0x0, symName: __ZN5godot18create_method_bindI13SentryOptionsbJEEEPNS_10MethodBindEMT_KFT0_DpT1_E.cold.1, symObjAddr: 0xFD60, symBinAddr: 0x11C970, symSize: 0x60 }
  - { offset: 0x1546DD, size: 0x8, addend: 0x0, symName: __ZNK5godot13MethodBindTRCIbJEE17gen_argument_typeEi, symObjAddr: 0xA240, symBinAddr: 0x2F260, symSize: 0x10 }
  - { offset: 0x154711, size: 0x8, addend: 0x0, symName: __ZNK5godot13MethodBindTRCIbJEE22gen_argument_type_infoEi, symObjAddr: 0xA250, symBinAddr: 0x2F270, symSize: 0x110 }
  - { offset: 0x1547EF, size: 0x8, addend: 0x0, symName: __ZNK5godot13MethodBindTRCIbJEE21get_argument_metadataEi, symObjAddr: 0xA360, symBinAddr: 0x2F380, symSize: 0x10 }
  - { offset: 0x154823, size: 0x8, addend: 0x0, symName: __ZNK5godot13MethodBindTRCIbJEE4callEPvPKPKvxR20GDExtensionCallError, symObjAddr: 0xA370, symBinAddr: 0x2F390, symSize: 0x60 }
  - { offset: 0x154962, size: 0x8, addend: 0x0, symName: __ZNK5godot13MethodBindTRCIbJEE7ptrcallEPvPKPKvS2_, symObjAddr: 0xA420, symBinAddr: 0x2F3F0, symSize: 0x30 }
  - { offset: 0x154A60, size: 0x8, addend: 0x0, symName: __ZN5godot13MethodBindTRCIbJEED1Ev, symObjAddr: 0xA450, symBinAddr: 0x2F420, symSize: 0x10 }
  - { offset: 0x154ABD, size: 0x8, addend: 0x0, symName: __ZN5godot13MethodBindTRCIbJEED0Ev, symObjAddr: 0xA460, symBinAddr: 0x2F430, symSize: 0x20 }
  - { offset: 0x154B29, size: 0x8, addend: 0x0, symName: __ZN13SentryOptions22set_disabled_in_editorEb, symObjAddr: 0xA480, symBinAddr: 0x2F540, symSize: 0x10 }
  - { offset: 0x154B5C, size: 0x8, addend: 0x0, symName: __ZNK13SentryOptions21is_disabled_in_editorEv, symObjAddr: 0xA490, symBinAddr: 0x2F550, symSize: 0x10 }
  - { offset: 0x154B81, size: 0x8, addend: 0x0, symName: __ZN13SentryOptions7set_dsnERKN5godot6StringE, symObjAddr: 0xA4A0, symBinAddr: 0x2F560, symSize: 0x10 }
  - { offset: 0x154BB6, size: 0x8, addend: 0x0, symName: __ZNK13SentryOptions7get_dsnEv, symObjAddr: 0xA4B0, symBinAddr: 0x2F570, symSize: 0x20 }
  - { offset: 0x154C3D, size: 0x8, addend: 0x0, symName: __ZN5godot18create_method_bindI13SentryOptionsJRKNS_6StringEEEEPNS_10MethodBindEMT_FvDpT0_E.cold.1, symObjAddr: 0xFDC0, symBinAddr: 0x11C9D0, symSize: 0x60 }
  - { offset: 0x154CCC, size: 0x8, addend: 0x0, symName: __ZN5godot18create_method_bindI13SentryOptionsNS_6StringEJEEEPNS_10MethodBindEMT_KFT0_DpT1_E.cold.1, symObjAddr: 0xFE20, symBinAddr: 0x11CA30, symSize: 0x60 }
  - { offset: 0x154CFB, size: 0x8, addend: 0x0, symName: __ZN13SentryOptions11set_releaseERKN5godot6StringE, symObjAddr: 0xAE90, symBinAddr: 0x2F7E0, symSize: 0x10 }
  - { offset: 0x154D30, size: 0x8, addend: 0x0, symName: __ZNK13SentryOptions11get_releaseEv, symObjAddr: 0xAEA0, symBinAddr: 0x2F7F0, symSize: 0x20 }
  - { offset: 0x154D57, size: 0x8, addend: 0x0, symName: __ZN13SentryOptions8set_distERKN5godot6StringE, symObjAddr: 0xAEC0, symBinAddr: 0x2F810, symSize: 0x10 }
  - { offset: 0x154D8C, size: 0x8, addend: 0x0, symName: __ZNK13SentryOptions8get_distEv, symObjAddr: 0xAED0, symBinAddr: 0x2F820, symSize: 0x20 }
  - { offset: 0x154DB3, size: 0x8, addend: 0x0, symName: __ZN13SentryOptions17set_debug_enabledEb, symObjAddr: 0xAEF0, symBinAddr: 0x2F840, symSize: 0x10 }
  - { offset: 0x154DE6, size: 0x8, addend: 0x0, symName: __ZNK13SentryOptions16is_debug_enabledEv, symObjAddr: 0xAF00, symBinAddr: 0x2F850, symSize: 0x10 }
  - { offset: 0x154E0B, size: 0x8, addend: 0x0, symName: __ZN13SentryOptions20set_diagnostic_levelEN6sentry5LevelE, symObjAddr: 0xAF10, symBinAddr: 0x2F860, symSize: 0x10 }
  - { offset: 0x154E3E, size: 0x8, addend: 0x0, symName: __ZNK13SentryOptions20get_diagnostic_levelEv, symObjAddr: 0xAF20, symBinAddr: 0x2F870, symSize: 0x10 }
  - { offset: 0x154EC3, size: 0x8, addend: 0x0, symName: __ZN5godot18create_method_bindI13SentryOptionsJN6sentry5LevelEEEEPNS_10MethodBindEMT_FvDpT0_E.cold.1, symObjAddr: 0xFE80, symBinAddr: 0x11CA90, symSize: 0x60 }
  - { offset: 0x154F52, size: 0x8, addend: 0x0, symName: __ZN5godot18create_method_bindI13SentryOptionsN6sentry5LevelEJEEEPNS_10MethodBindEMT_KFT0_DpT1_E.cold.1, symObjAddr: 0xFEE0, symBinAddr: 0x11CAF0, symSize: 0x60 }
  - { offset: 0x154F81, size: 0x8, addend: 0x0, symName: __ZN13SentryOptions15set_environmentERKN5godot6StringE, symObjAddr: 0xB8E0, symBinAddr: 0x2FAD0, symSize: 0x10 }
  - { offset: 0x154FB6, size: 0x8, addend: 0x0, symName: __ZNK13SentryOptions15get_environmentEv, symObjAddr: 0xB8F0, symBinAddr: 0x2FAE0, symSize: 0x20 }
  - { offset: 0x154FDD, size: 0x8, addend: 0x0, symName: __ZN13SentryOptions15set_sample_rateEd, symObjAddr: 0xB910, symBinAddr: 0x2FB00, symSize: 0x10 }
  - { offset: 0x155010, size: 0x8, addend: 0x0, symName: __ZNK13SentryOptions15get_sample_rateEv, symObjAddr: 0xB920, symBinAddr: 0x2FB10, symSize: 0x10 }
  - { offset: 0x155095, size: 0x8, addend: 0x0, symName: __ZN5godot18create_method_bindI13SentryOptionsJdEEEPNS_10MethodBindEMT_FvDpT0_E.cold.1, symObjAddr: 0xFF40, symBinAddr: 0x11CB50, symSize: 0x60 }
  - { offset: 0x1550C4, size: 0x8, addend: 0x0, symName: __ZNK5godot11MethodBindTIJdEE17gen_argument_typeEi, symObjAddr: 0xBA50, symBinAddr: 0x2FC40, symSize: 0x10 }
  - { offset: 0x1550F8, size: 0x8, addend: 0x0, symName: __ZNK5godot11MethodBindTIJdEE22gen_argument_type_infoEi, symObjAddr: 0xBA60, symBinAddr: 0x2FC50, symSize: 0x130 }
  - { offset: 0x15528C, size: 0x8, addend: 0x0, symName: __ZNK5godot11MethodBindTIJdEE21get_argument_metadataEi, symObjAddr: 0xBBA0, symBinAddr: 0x2FD80, symSize: 0x20 }
  - { offset: 0x15531A, size: 0x8, addend: 0x0, symName: __ZNK5godot11MethodBindTIJdEE4callEPvPKPKvxR20GDExtensionCallError, symObjAddr: 0xBBC0, symBinAddr: 0x2FDA0, symSize: 0x40 }
  - { offset: 0x1553DE, size: 0x8, addend: 0x0, symName: __ZNK5godot11MethodBindTIJdEE7ptrcallEPvPKPKvS2_, symObjAddr: 0xBC00, symBinAddr: 0x2FDE0, symSize: 0x30 }
  - { offset: 0x1554D9, size: 0x8, addend: 0x0, symName: __ZN5godot11MethodBindTIJdEED1Ev, symObjAddr: 0xBC30, symBinAddr: 0x2FE10, symSize: 0x10 }
  - { offset: 0x155536, size: 0x8, addend: 0x0, symName: __ZN5godot11MethodBindTIJdEED0Ev, symObjAddr: 0xBC40, symBinAddr: 0x2FE20, symSize: 0x20 }
  - { offset: 0x15561C, size: 0x8, addend: 0x0, symName: __ZN5godot18create_method_bindI13SentryOptionsdJEEEPNS_10MethodBindEMT_KFT0_DpT1_E.cold.1, symObjAddr: 0xFFA0, symBinAddr: 0x11CBB0, symSize: 0x60 }
  - { offset: 0x15564B, size: 0x8, addend: 0x0, symName: __ZNK5godot13MethodBindTRCIdJEE17gen_argument_typeEi, symObjAddr: 0xC010, symBinAddr: 0x30280, symSize: 0x10 }
  - { offset: 0x15567F, size: 0x8, addend: 0x0, symName: __ZNK5godot13MethodBindTRCIdJEE22gen_argument_type_infoEi, symObjAddr: 0xC020, symBinAddr: 0x30290, symSize: 0x110 }
  - { offset: 0x15575D, size: 0x8, addend: 0x0, symName: __ZNK5godot13MethodBindTRCIdJEE21get_argument_metadataEi, symObjAddr: 0xC130, symBinAddr: 0x303A0, symSize: 0x10 }
  - { offset: 0x155793, size: 0x8, addend: 0x0, symName: __ZNK5godot13MethodBindTRCIdJEE4callEPvPKPKvxR20GDExtensionCallError, symObjAddr: 0xC140, symBinAddr: 0x303B0, symSize: 0x60 }
  - { offset: 0x1558D2, size: 0x8, addend: 0x0, symName: __ZNK5godot13MethodBindTRCIdJEE7ptrcallEPvPKPKvS2_, symObjAddr: 0xC1F0, symBinAddr: 0x30410, symSize: 0x30 }
  - { offset: 0x1559D0, size: 0x8, addend: 0x0, symName: __ZN5godot13MethodBindTRCIdJEED1Ev, symObjAddr: 0xC220, symBinAddr: 0x30440, symSize: 0x10 }
  - { offset: 0x155A2D, size: 0x8, addend: 0x0, symName: __ZN5godot13MethodBindTRCIdJEED0Ev, symObjAddr: 0xC230, symBinAddr: 0x30450, symSize: 0x20 }
  - { offset: 0x155A99, size: 0x8, addend: 0x0, symName: __ZN13SentryOptions19set_max_breadcrumbsEi, symObjAddr: 0xC250, symBinAddr: 0x30550, symSize: 0x10 }
  - { offset: 0x155ACC, size: 0x8, addend: 0x0, symName: __ZNK13SentryOptions19get_max_breadcrumbsEv, symObjAddr: 0xC260, symBinAddr: 0x30560, symSize: 0x10 }
  - { offset: 0x155AF1, size: 0x8, addend: 0x0, symName: __ZN5godot18create_method_bindI13SentryOptionsJiEEEPNS_10MethodBindEMT_FvDpT0_E.cold.1, symObjAddr: 0x10000, symBinAddr: 0x11CC10, symSize: 0x60 }
  - { offset: 0x155B80, size: 0x8, addend: 0x0, symName: __ZN5godot18create_method_bindI13SentryOptionsiJEEEPNS_10MethodBindEMT_KFT0_DpT1_E.cold.1, symObjAddr: 0x10060, symBinAddr: 0x11CC70, symSize: 0x60 }
  - { offset: 0x155BAF, size: 0x8, addend: 0x0, symName: __ZNK5godot13MethodBindTRCIiJEE17gen_argument_typeEi, symObjAddr: 0xC4C0, symBinAddr: 0x307C0, symSize: 0x10 }
  - { offset: 0x155BE3, size: 0x8, addend: 0x0, symName: __ZNK5godot13MethodBindTRCIiJEE22gen_argument_type_infoEi, symObjAddr: 0xC4D0, symBinAddr: 0x307D0, symSize: 0x110 }
  - { offset: 0x155CC1, size: 0x8, addend: 0x0, symName: __ZNK5godot13MethodBindTRCIiJEE21get_argument_metadataEi, symObjAddr: 0xC5E0, symBinAddr: 0x308E0, symSize: 0x10 }
  - { offset: 0x155CF7, size: 0x8, addend: 0x0, symName: __ZNK5godot13MethodBindTRCIiJEE4callEPvPKPKvxR20GDExtensionCallError, symObjAddr: 0xC5F0, symBinAddr: 0x308F0, symSize: 0x60 }
  - { offset: 0x155E42, size: 0x8, addend: 0x0, symName: __ZNK5godot13MethodBindTRCIiJEE7ptrcallEPvPKPKvS2_, symObjAddr: 0xC6A0, symBinAddr: 0x30950, symSize: 0x30 }
  - { offset: 0x155F42, size: 0x8, addend: 0x0, symName: __ZN5godot13MethodBindTRCIiJEED1Ev, symObjAddr: 0xC6D0, symBinAddr: 0x30980, symSize: 0x10 }
  - { offset: 0x155F9F, size: 0x8, addend: 0x0, symName: __ZN5godot13MethodBindTRCIiJEED0Ev, symObjAddr: 0xC6E0, symBinAddr: 0x30990, symSize: 0x20 }
  - { offset: 0x15600B, size: 0x8, addend: 0x0, symName: __ZN13SentryOptions20set_send_default_piiEb, symObjAddr: 0xC700, symBinAddr: 0x30AA0, symSize: 0x10 }
  - { offset: 0x15603E, size: 0x8, addend: 0x0, symName: __ZNK13SentryOptions27is_send_default_pii_enabledEv, symObjAddr: 0xC710, symBinAddr: 0x30AB0, symSize: 0x10 }
  - { offset: 0x156063, size: 0x8, addend: 0x0, symName: __ZN13SentryOptions14set_attach_logEb, symObjAddr: 0xC720, symBinAddr: 0x30AC0, symSize: 0x10 }
  - { offset: 0x156096, size: 0x8, addend: 0x0, symName: __ZNK13SentryOptions21is_attach_log_enabledEv, symObjAddr: 0xC730, symBinAddr: 0x30AD0, symSize: 0x10 }
  - { offset: 0x1560BB, size: 0x8, addend: 0x0, symName: __ZN13SentryOptions21set_attach_screenshotEb, symObjAddr: 0xC740, symBinAddr: 0x30AE0, symSize: 0x10 }
  - { offset: 0x1560EE, size: 0x8, addend: 0x0, symName: __ZNK13SentryOptions28is_attach_screenshot_enabledEv, symObjAddr: 0xC750, symBinAddr: 0x30AF0, symSize: 0x10 }
  - { offset: 0x156113, size: 0x8, addend: 0x0, symName: __ZN13SentryOptions20set_screenshot_levelEN6sentry5LevelE, symObjAddr: 0xC760, symBinAddr: 0x30B00, symSize: 0x10 }
  - { offset: 0x156146, size: 0x8, addend: 0x0, symName: __ZNK13SentryOptions20get_screenshot_levelEv, symObjAddr: 0xC770, symBinAddr: 0x30B10, symSize: 0x10 }
  - { offset: 0x15616B, size: 0x8, addend: 0x0, symName: __ZN13SentryOptions21set_attach_scene_treeEb, symObjAddr: 0xC780, symBinAddr: 0x30B20, symSize: 0x10 }
  - { offset: 0x15619E, size: 0x8, addend: 0x0, symName: __ZNK13SentryOptions28is_attach_scene_tree_enabledEv, symObjAddr: 0xC790, symBinAddr: 0x30B30, symSize: 0x10 }
  - { offset: 0x1561C3, size: 0x8, addend: 0x0, symName: __ZN13SentryOptions18set_logger_enabledEb, symObjAddr: 0xC7A0, symBinAddr: 0x30B40, symSize: 0x10 }
  - { offset: 0x1561F6, size: 0x8, addend: 0x0, symName: __ZNK13SentryOptions17is_logger_enabledEv, symObjAddr: 0xC7B0, symBinAddr: 0x30B50, symSize: 0x10 }
  - { offset: 0x15621B, size: 0x8, addend: 0x0, symName: __ZN13SentryOptions25set_logger_include_sourceEb, symObjAddr: 0xC7C0, symBinAddr: 0x30B60, symSize: 0x10 }
  - { offset: 0x15624E, size: 0x8, addend: 0x0, symName: __ZNK13SentryOptions32is_logger_include_source_enabledEv, symObjAddr: 0xC7D0, symBinAddr: 0x30B70, symSize: 0x10 }
  - { offset: 0x156273, size: 0x8, addend: 0x0, symName: __ZN13SentryOptions28set_logger_include_variablesEi, symObjAddr: 0xC7E0, symBinAddr: 0x30B80, symSize: 0x10 }
  - { offset: 0x1562A6, size: 0x8, addend: 0x0, symName: __ZNK13SentryOptions35is_logger_include_variables_enabledEv, symObjAddr: 0xC7F0, symBinAddr: 0x30B90, symSize: 0x10 }
  - { offset: 0x1562CB, size: 0x8, addend: 0x0, symName: __ZN13SentryOptions21set_logger_event_maskEN5godot8BitFieldIN6sentry14GodotErrorMaskEEE, symObjAddr: 0xC800, symBinAddr: 0x30BA0, symSize: 0x10 }
  - { offset: 0x1562FE, size: 0x8, addend: 0x0, symName: __ZNK13SentryOptions21get_logger_event_maskEv, symObjAddr: 0xC810, symBinAddr: 0x30BB0, symSize: 0x10 }
  - { offset: 0x156383, size: 0x8, addend: 0x0, symName: __ZN5godot18create_method_bindI13SentryOptionsJNS_8BitFieldIN6sentry14GodotErrorMaskEEEEEEPNS_10MethodBindEMT_FvDpT0_E.cold.1, symObjAddr: 0x100C0, symBinAddr: 0x11CCD0, symSize: 0x60 }
  - { offset: 0x1563B2, size: 0x8, addend: 0x0, symName: __ZNK5godot11MethodBindTIJNS_8BitFieldIN6sentry14GodotErrorMaskEEEEE17gen_argument_typeEi, symObjAddr: 0xC940, symBinAddr: 0x30CE0, symSize: 0x10 }
  - { offset: 0x1563E6, size: 0x8, addend: 0x0, symName: __ZNK5godot11MethodBindTIJNS_8BitFieldIN6sentry14GodotErrorMaskEEEEE22gen_argument_type_infoEi, symObjAddr: 0xC950, symBinAddr: 0x30CF0, symSize: 0x130 }
  - { offset: 0x15657A, size: 0x8, addend: 0x0, symName: __ZNK5godot11MethodBindTIJNS_8BitFieldIN6sentry14GodotErrorMaskEEEEE21get_argument_metadataEi, symObjAddr: 0xCA90, symBinAddr: 0x30E20, symSize: 0x10 }
  - { offset: 0x1565AE, size: 0x8, addend: 0x0, symName: __ZNK5godot11MethodBindTIJNS_8BitFieldIN6sentry14GodotErrorMaskEEEEE4callEPvPKPKvxR20GDExtensionCallError, symObjAddr: 0xCAA0, symBinAddr: 0x30E30, symSize: 0x40 }
  - { offset: 0x156672, size: 0x8, addend: 0x0, symName: __ZNK5godot11MethodBindTIJNS_8BitFieldIN6sentry14GodotErrorMaskEEEEE7ptrcallEPvPKPKvS6_, symObjAddr: 0xCAE0, symBinAddr: 0x30E70, symSize: 0x30 }
  - { offset: 0x15676F, size: 0x8, addend: 0x0, symName: __ZN5godot11MethodBindTIJNS_8BitFieldIN6sentry14GodotErrorMaskEEEEED1Ev, symObjAddr: 0xCB10, symBinAddr: 0x30EA0, symSize: 0x10 }
  - { offset: 0x1567CC, size: 0x8, addend: 0x0, symName: __ZN5godot11MethodBindTIJNS_8BitFieldIN6sentry14GodotErrorMaskEEEEED0Ev, symObjAddr: 0xCB20, symBinAddr: 0x30EB0, symSize: 0x20 }
  - { offset: 0x1568AB, size: 0x8, addend: 0x0, symName: __ZN5godot18create_method_bindI13SentryOptionsNS_8BitFieldIN6sentry14GodotErrorMaskEEEJEEEPNS_10MethodBindEMT_KFT0_DpT1_E.cold.1, symObjAddr: 0x10120, symBinAddr: 0x11CD30, symSize: 0x60 }
  - { offset: 0x1568DA, size: 0x8, addend: 0x0, symName: __ZNK5godot13MethodBindTRCINS_8BitFieldIN6sentry14GodotErrorMaskEEEJEE17gen_argument_typeEi, symObjAddr: 0xCF70, symBinAddr: 0x31390, symSize: 0x10 }
  - { offset: 0x15690E, size: 0x8, addend: 0x0, symName: __ZNK5godot13MethodBindTRCINS_8BitFieldIN6sentry14GodotErrorMaskEEEJEE22gen_argument_type_infoEi, symObjAddr: 0xCF80, symBinAddr: 0x313A0, symSize: 0x20 }
  - { offset: 0x15695D, size: 0x8, addend: 0x0, symName: __ZNK5godot13MethodBindTRCINS_8BitFieldIN6sentry14GodotErrorMaskEEEJEE21get_argument_metadataEi, symObjAddr: 0xCFA0, symBinAddr: 0x313C0, symSize: 0x10 }
  - { offset: 0x156991, size: 0x8, addend: 0x0, symName: __ZNK5godot13MethodBindTRCINS_8BitFieldIN6sentry14GodotErrorMaskEEEJEE4callEPvPKPKvxR20GDExtensionCallError, symObjAddr: 0xCFB0, symBinAddr: 0x313D0, symSize: 0x60 }
  - { offset: 0x156AE6, size: 0x8, addend: 0x0, symName: __ZNK5godot13MethodBindTRCINS_8BitFieldIN6sentry14GodotErrorMaskEEEJEE7ptrcallEPvPKPKvS6_, symObjAddr: 0xD060, symBinAddr: 0x31430, symSize: 0x30 }
  - { offset: 0x156BE4, size: 0x8, addend: 0x0, symName: __ZN5godot13MethodBindTRCINS_8BitFieldIN6sentry14GodotErrorMaskEEEJEED1Ev, symObjAddr: 0xD090, symBinAddr: 0x31460, symSize: 0x10 }
  - { offset: 0x156C41, size: 0x8, addend: 0x0, symName: __ZN5godot13MethodBindTRCINS_8BitFieldIN6sentry14GodotErrorMaskEEEJEED0Ev, symObjAddr: 0xD0A0, symBinAddr: 0x31470, symSize: 0x20 }
  - { offset: 0x156CAD, size: 0x8, addend: 0x0, symName: __ZN13SentryOptions26set_logger_breadcrumb_maskEN5godot8BitFieldIN6sentry14GodotErrorMaskEEE, symObjAddr: 0xD0C0, symBinAddr: 0x31580, symSize: 0x10 }
  - { offset: 0x156CE0, size: 0x8, addend: 0x0, symName: __ZNK13SentryOptions26get_logger_breadcrumb_maskEv, symObjAddr: 0xD0D0, symBinAddr: 0x31590, symSize: 0x10 }
  - { offset: 0x156D4F, size: 0x8, addend: 0x0, symName: __ZNK13SentryOptions17get_logger_limitsEv, symObjAddr: 0xD0E0, symBinAddr: 0x315A0, symSize: 0x30 }
  - { offset: 0x156E51, size: 0x8, addend: 0x0, symName: __ZN5godot18create_method_bindI13SentryOptionsJRKNS_3RefI18SentryLoggerLimitsEEEEEPNS_10MethodBindEMT_FvDpT0_E.cold.1, symObjAddr: 0x10180, symBinAddr: 0x11CD90, symSize: 0x60 }
  - { offset: 0x156E80, size: 0x8, addend: 0x0, symName: __ZNK5godot11MethodBindTIJRKNS_3RefI18SentryLoggerLimitsEEEE17gen_argument_typeEi, symObjAddr: 0xD230, symBinAddr: 0x316F0, symSize: 0x20 }
  - { offset: 0x156EB4, size: 0x8, addend: 0x0, symName: __ZNK5godot11MethodBindTIJRKNS_3RefI18SentryLoggerLimitsEEEE22gen_argument_type_infoEi, symObjAddr: 0xD250, symBinAddr: 0x31710, symSize: 0x130 }
  - { offset: 0x157048, size: 0x8, addend: 0x0, symName: __ZNK5godot11MethodBindTIJRKNS_3RefI18SentryLoggerLimitsEEEE21get_argument_metadataEi, symObjAddr: 0xD390, symBinAddr: 0x31840, symSize: 0x10 }
  - { offset: 0x15707C, size: 0x8, addend: 0x0, symName: __ZNK5godot11MethodBindTIJRKNS_3RefI18SentryLoggerLimitsEEEE4callEPvPKPKvxR20GDExtensionCallError, symObjAddr: 0xD3A0, symBinAddr: 0x31850, symSize: 0x40 }
  - { offset: 0x15714E, size: 0x8, addend: 0x0, symName: __ZNK5godot11MethodBindTIJRKNS_3RefI18SentryLoggerLimitsEEEE7ptrcallEPvPKPKvS7_, symObjAddr: 0xD3E0, symBinAddr: 0x31890, symSize: 0xA0 }
  - { offset: 0x1573A3, size: 0x8, addend: 0x0, symName: __ZN5godot11MethodBindTIJRKNS_3RefI18SentryLoggerLimitsEEEED1Ev, symObjAddr: 0xD480, symBinAddr: 0x31930, symSize: 0x10 }
  - { offset: 0x157400, size: 0x8, addend: 0x0, symName: __ZN5godot11MethodBindTIJRKNS_3RefI18SentryLoggerLimitsEEEED0Ev, symObjAddr: 0xD490, symBinAddr: 0x31940, symSize: 0x20 }
  - { offset: 0x15746C, size: 0x8, addend: 0x0, symName: __ZN5godot11GetTypeInfoIRKNS_3RefI18SentryLoggerLimitsEEvE14get_class_infoEv, symObjAddr: 0xD570, symBinAddr: 0x31A20, symSize: 0x140 }
  - { offset: 0x15752E, size: 0x8, addend: 0x0, symName: __ZN5godot11GetTypeInfoIRKNS_3RefI18SentryLoggerLimitsEEvE14get_class_infoEv.cold.1, symObjAddr: 0x101E0, symBinAddr: 0x11CDF0, symSize: 0x60 }
  - { offset: 0x1575D3, size: 0x8, addend: 0x0, symName: __ZN5godot6Object7cast_toI18SentryLoggerLimitsEEPT_PS0_, symObjAddr: 0xD800, symBinAddr: 0x31DB0, symSize: 0xE0 }
  - { offset: 0x157671, size: 0x8, addend: 0x0, symName: __ZN5godot6Object7cast_toI18SentryLoggerLimitsEEPT_PS0_.cold.1, symObjAddr: 0x10240, symBinAddr: 0x11CE50, symSize: 0x60 }
  - { offset: 0x1576FF, size: 0x8, addend: 0x0, symName: __ZN5godot18create_method_bindI13SentryOptionsNS_3RefI18SentryLoggerLimitsEEJEEEPNS_10MethodBindEMT_KFT0_DpT1_E.cold.1, symObjAddr: 0x102A0, symBinAddr: 0x11CEB0, symSize: 0x60 }
  - { offset: 0x15772E, size: 0x8, addend: 0x0, symName: __ZNK5godot13MethodBindTRCINS_3RefI18SentryLoggerLimitsEEJEE17gen_argument_typeEi, symObjAddr: 0xDA20, symBinAddr: 0x31FC0, symSize: 0x10 }
  - { offset: 0x157762, size: 0x8, addend: 0x0, symName: __ZNK5godot13MethodBindTRCINS_3RefI18SentryLoggerLimitsEEJEE22gen_argument_type_infoEi, symObjAddr: 0xDA30, symBinAddr: 0x31FD0, symSize: 0x20 }
  - { offset: 0x1577B1, size: 0x8, addend: 0x0, symName: __ZN5godot11GetTypeInfoINS_3RefI18SentryLoggerLimitsEEvE14get_class_infoEv, symObjAddr: 0xDB70, symBinAddr: 0x32110, symSize: 0x140 }
  - { offset: 0x157873, size: 0x8, addend: 0x0, symName: __ZNK5godot13MethodBindTRCINS_3RefI18SentryLoggerLimitsEEJEE21get_argument_metadataEi, symObjAddr: 0xDA50, symBinAddr: 0x31FF0, symSize: 0x10 }
  - { offset: 0x1578A7, size: 0x8, addend: 0x0, symName: __ZNK5godot13MethodBindTRCINS_3RefI18SentryLoggerLimitsEEJEE4callEPvPKPKvxR20GDExtensionCallError, symObjAddr: 0xDA60, symBinAddr: 0x32000, symSize: 0x60 }
  - { offset: 0x1579AC, size: 0x8, addend: 0x0, symName: __ZNK5godot13MethodBindTRCINS_3RefI18SentryLoggerLimitsEEJEE7ptrcallEPvPKPKvS5_, symObjAddr: 0xDAC0, symBinAddr: 0x32060, symSize: 0x80 }
  - { offset: 0x157B35, size: 0x8, addend: 0x0, symName: __ZNK5godot13MethodBindTRCINS_3RefI18SentryLoggerLimitsEEJEE7ptrcallEPvPKPKvS5_.cold.1, symObjAddr: 0x10300, symBinAddr: 0x11CF10, symSize: 0x30 }
  - { offset: 0x157BAD, size: 0x8, addend: 0x0, symName: __ZN5godot13MethodBindTRCINS_3RefI18SentryLoggerLimitsEEJEED1Ev, symObjAddr: 0xDB40, symBinAddr: 0x320E0, symSize: 0x10 }
  - { offset: 0x157C0A, size: 0x8, addend: 0x0, symName: __ZN5godot13MethodBindTRCINS_3RefI18SentryLoggerLimitsEEJEED0Ev, symObjAddr: 0xDB50, symBinAddr: 0x320F0, symSize: 0x20 }
  - { offset: 0x157C76, size: 0x8, addend: 0x0, symName: __ZN5godot11GetTypeInfoINS_3RefI18SentryLoggerLimitsEEvE14get_class_infoEv.cold.1, symObjAddr: 0x10330, symBinAddr: 0x11CF40, symSize: 0x60 }
  - { offset: 0x157CBB, size: 0x8, addend: 0x0, symName: __ZN13SentryOptions15set_before_sendERKN5godot8CallableE, symObjAddr: 0xDD80, symBinAddr: 0x32360, symSize: 0x10 }
  - { offset: 0x157CF0, size: 0x8, addend: 0x0, symName: __ZNK13SentryOptions15get_before_sendEv, symObjAddr: 0xDD90, symBinAddr: 0x32370, symSize: 0x20 }
  - { offset: 0x157D77, size: 0x8, addend: 0x0, symName: __ZN5godot18create_method_bindI13SentryOptionsJRKNS_8CallableEEEEPNS_10MethodBindEMT_FvDpT0_E.cold.1, symObjAddr: 0x10390, symBinAddr: 0x11CFA0, symSize: 0x60 }
  - { offset: 0x157DA6, size: 0x8, addend: 0x0, symName: __ZNK5godot11MethodBindTIJRKNS_8CallableEEE17gen_argument_typeEi, symObjAddr: 0xDED0, symBinAddr: 0x324B0, symSize: 0x20 }
  - { offset: 0x157DDA, size: 0x8, addend: 0x0, symName: __ZNK5godot11MethodBindTIJRKNS_8CallableEEE22gen_argument_type_infoEi, symObjAddr: 0xDEF0, symBinAddr: 0x324D0, symSize: 0x130 }
  - { offset: 0x157F6E, size: 0x8, addend: 0x0, symName: __ZNK5godot11MethodBindTIJRKNS_8CallableEEE21get_argument_metadataEi, symObjAddr: 0xE030, symBinAddr: 0x32600, symSize: 0x10 }
  - { offset: 0x157FA2, size: 0x8, addend: 0x0, symName: __ZNK5godot11MethodBindTIJRKNS_8CallableEEE4callEPvPKPKvxR20GDExtensionCallError, symObjAddr: 0xE040, symBinAddr: 0x32610, symSize: 0x40 }
  - { offset: 0x158066, size: 0x8, addend: 0x0, symName: __ZNK5godot11MethodBindTIJRKNS_8CallableEEE7ptrcallEPvPKPKvS5_, symObjAddr: 0xE080, symBinAddr: 0x32650, symSize: 0x80 }
  - { offset: 0x158172, size: 0x8, addend: 0x0, symName: __ZN5godot11MethodBindTIJRKNS_8CallableEEED1Ev, symObjAddr: 0xE100, symBinAddr: 0x326D0, symSize: 0x10 }
  - { offset: 0x1581CF, size: 0x8, addend: 0x0, symName: __ZN5godot11MethodBindTIJRKNS_8CallableEEED0Ev, symObjAddr: 0xE110, symBinAddr: 0x326E0, symSize: 0x20 }
  - { offset: 0x1582B5, size: 0x8, addend: 0x0, symName: __ZN5godot18create_method_bindI13SentryOptionsNS_8CallableEJEEEPNS_10MethodBindEMT_KFT0_DpT1_E.cold.1, symObjAddr: 0x103F0, symBinAddr: 0x11D000, symSize: 0x5B }
  - { offset: 0x1582E4, size: 0x8, addend: 0x0, symName: __ZNK5godot13MethodBindTRCINS_8CallableEJEE17gen_argument_typeEi, symObjAddr: 0xE4F0, symBinAddr: 0x32BC0, symSize: 0x10 }
  - { offset: 0x15831F, size: 0x8, addend: 0x0, symName: __ZNK5godot13MethodBindTRCINS_8CallableEJEE22gen_argument_type_infoEi, symObjAddr: 0xE500, symBinAddr: 0x32BD0, symSize: 0x110 }
  - { offset: 0x1583FD, size: 0x8, addend: 0x0, symName: __ZNK5godot13MethodBindTRCINS_8CallableEJEE21get_argument_metadataEi, symObjAddr: 0xE610, symBinAddr: 0x32CE0, symSize: 0x10 }
  - { offset: 0x158431, size: 0x8, addend: 0x0, symName: __ZNK5godot13MethodBindTRCINS_8CallableEJEE4callEPvPKPKvxR20GDExtensionCallError, symObjAddr: 0xE620, symBinAddr: 0x32CF0, symSize: 0x60 }
  - { offset: 0x15857B, size: 0x8, addend: 0x0, symName: __ZNK5godot13MethodBindTRCINS_8CallableEJEE7ptrcallEPvPKPKvS3_, symObjAddr: 0xE6E0, symBinAddr: 0x32D50, symSize: 0x70 }
  - { offset: 0x158678, size: 0x8, addend: 0x0, symName: __ZN5godot13MethodBindTRCINS_8CallableEJEED1Ev, symObjAddr: 0xE750, symBinAddr: 0x32DC0, symSize: 0x10 }
  - { offset: 0x1586D5, size: 0x8, addend: 0x0, symName: __ZN5godot13MethodBindTRCINS_8CallableEJEED0Ev, symObjAddr: 0xE760, symBinAddr: 0x32DD0, symSize: 0x20 }
  - { offset: 0x158741, size: 0x8, addend: 0x0, symName: __ZN13SentryOptions12set_on_crashERKN5godot8CallableE, symObjAddr: 0xE780, symBinAddr: 0x32EF0, symSize: 0x20 }
  - { offset: 0x158776, size: 0x8, addend: 0x0, symName: __ZNK13SentryOptions12get_on_crashEv, symObjAddr: 0xE7A0, symBinAddr: 0x32F10, symSize: 0x20 }
  - { offset: 0x15879D, size: 0x8, addend: 0x0, symName: __ZN13SentryOptions29set_before_capture_screenshotERKN5godot8CallableE, symObjAddr: 0xE7C0, symBinAddr: 0x32F30, symSize: 0x20 }
  - { offset: 0x1587D2, size: 0x8, addend: 0x0, symName: __ZNK13SentryOptions29get_before_capture_screenshotEv, symObjAddr: 0xE7E0, symBinAddr: 0x32F50, symSize: 0x20 }
  - { offset: 0x158800, size: 0x8, addend: 0x0, symName: __GLOBAL__sub_I_sentry_options.cpp, symObjAddr: 0x10650, symBinAddr: 0x33170, symSize: 0x2A }
  - { offset: 0x15E860, size: 0x8, addend: 0x0, symName: __ZN5godot18create_method_bindI9SentrySDKbJEEEPNS_10MethodBindEMT_KFT0_DpT1_E, symObjAddr: 0x4F00, symBinAddr: 0x36C10, symSize: 0x130 }
  - { offset: 0x15E9C9, size: 0x8, addend: 0x0, symName: __ZN5godot18create_method_bindI9SentrySDKNS_6StringEJRKS2_N6sentry5LevelEEEEPNS_10MethodBindEMT_FT0_DpT1_E, symObjAddr: 0x5270, symBinAddr: 0x36D40, symSize: 0x120 }
  - { offset: 0x15EB23, size: 0x8, addend: 0x0, symName: __ZN5godot8D_METHODIJPKcS2_S2_S2_EEENS_16MethodDefinitionENS_10StringNameES4_DpT_, symObjAddr: 0x2150, symBinAddr: 0x352E0, symSize: 0x140 }
  - { offset: 0x15F193, size: 0x8, addend: 0x0, symName: __ZN5godot18create_method_bindI9SentrySDKNS_6StringEJEEEPNS_10MethodBindEMT_KFT0_DpT1_E, symObjAddr: 0x6640, symBinAddr: 0x38170, symSize: 0x130 }
  - { offset: 0x15F2E2, size: 0x8, addend: 0x0, symName: __ZN5godot18create_method_bindI9SentrySDKJRKNS_6StringERKNS_10DictionaryEEEEPNS_10MethodBindEMT_FvDpT0_E, symObjAddr: 0x6A00, symBinAddr: 0x382A0, symSize: 0x120 }
  - { offset: 0x15F433, size: 0x8, addend: 0x0, symName: __ZN5godot18create_method_bindI9SentrySDKJRKNS_6StringES4_EEEPNS_10MethodBindEMT_FvDpT0_E, symObjAddr: 0x6F60, symBinAddr: 0x38960, symSize: 0x120 }
  - { offset: 0x15F584, size: 0x8, addend: 0x0, symName: __ZN5godot18create_method_bindI9SentrySDKJRKNS_6StringEEEEPNS_10MethodBindEMT_FvDpT0_E, symObjAddr: 0x74C0, symBinAddr: 0x38A80, symSize: 0x120 }
  - { offset: 0x15F6D0, size: 0x8, addend: 0x0, symName: __ZN5godot18create_method_bindI9SentrySDKJRKNS_3RefI10SentryUserEEEEEPNS_10MethodBindEMT_FvDpT0_E, symObjAddr: 0x7940, symBinAddr: 0x38BA0, symSize: 0x120 }
  - { offset: 0x15F81C, size: 0x8, addend: 0x0, symName: __ZN5godot18create_method_bindI9SentrySDKNS_3RefI10SentryUserEEJEEEPNS_10MethodBindEMT_KFT0_DpT1_E, symObjAddr: 0x8120, symBinAddr: 0x39460, symSize: 0x130 }
  - { offset: 0x15F96B, size: 0x8, addend: 0x0, symName: __ZN5godot18create_method_bindI9SentrySDKJEEEPNS_10MethodBindEMT_FvDpT0_E, symObjAddr: 0x85B0, symBinAddr: 0x39930, symSize: 0x110 }
  - { offset: 0x15FAB1, size: 0x8, addend: 0x0, symName: __ZN5godot18create_method_bindI9SentrySDKNS_3RefI11SentryEventEEJEEEPNS_10MethodBindEMT_KFT0_DpT1_E, symObjAddr: 0x88D0, symBinAddr: 0x39C90, symSize: 0x130 }
  - { offset: 0x15FC00, size: 0x8, addend: 0x0, symName: __ZN5godot18create_method_bindI9SentrySDKNS_6StringEJRKNS_3RefI11SentryEventEEEEEPNS_10MethodBindEMT_FT0_DpT1_E, symObjAddr: 0x8D60, symBinAddr: 0x3A160, symSize: 0x120 }
  - { offset: 0x15FD55, size: 0x8, addend: 0x0, symName: __ZN5godot18create_method_bindI9SentrySDKJRKNS_8CallableEEEEPNS_10MethodBindEMT_FvDpT0_E, symObjAddr: 0x96B0, symBinAddr: 0x3AB30, symSize: 0x120 }
  - { offset: 0x15FEA1, size: 0x8, addend: 0x0, symName: __ZN5godot18create_method_bindI9SentrySDKJRKNS_6StringES4_N6sentry5LevelES4_RKNS_10DictionaryEEEEPNS_10MethodBindEMT_FvDpT0_E, symObjAddr: 0x5C60, symBinAddr: 0x375C0, symSize: 0x120 }
  - { offset: 0x160069, size: 0x8, addend: 0x0, symName: __ZN5godot8D_METHODIJPKcS2_EEENS_16MethodDefinitionENS_10StringNameES4_DpT_, symObjAddr: 0x5B30, symBinAddr: 0x37490, symSize: 0x130 }
  - { offset: 0x1609E0, size: 0x8, addend: 0x0, symName: __ZN5godot7vformatIJNS_6StringENS_5ErrorEEEES1_RKS1_DpKT_, symObjAddr: 0x32A0, symBinAddr: 0x36330, symSize: 0xF0 }
  - { offset: 0x161BAF, size: 0x8, addend: 0x0, symName: __ZN5godot29call_with_variant_args_ret_dvINS_20_gde_UnexistingClassENS_6StringEJRKS2_N6sentry5LevelEEEEvPT_MS7_FT0_DpT1_EPKPKviRNS_7VariantER20GDExtensionCallErrorRKNSt3__16vectorISI_NSM_9allocatorISI_EEEE, symObjAddr: 0x58C0, symBinAddr: 0x37150, symSize: 0x1C0 }
  - { offset: 0x161E12, size: 0x8, addend: 0x0, symName: __ZN5godot33call_with_variant_args_ret_helperINS_20_gde_UnexistingClassENS_6StringEJRKS2_N6sentry5LevelEEJLm0ELm1EEEEvPT_MS7_FT0_DpT1_EPPKNS_7VariantERSE_R20GDExtensionCallErrorNS_13IndexSequenceIJXspT2_EEEE, symObjAddr: 0x5A60, symBinAddr: 0x37310, symSize: 0x180 }
  - { offset: 0x1621C9, size: 0x8, addend: 0x0, symName: __ZN5godot34call_get_argument_type_info_helperIRKNS_10DictionaryEEEviRiRNS_12PropertyInfoE, symObjAddr: 0x5FD0, symBinAddr: 0x37930, symSize: 0x180 }
  - { offset: 0x16233B, size: 0x8, addend: 0x0, symName: __ZN5godot25call_with_variant_args_dvINS_20_gde_UnexistingClassEJRKNS_6StringES4_N6sentry5LevelES4_RKNS_10DictionaryEEEEvPT_MSA_FvDpT0_EPKPKviR20GDExtensionCallErrorRKNSt3__16vectorINS_7VariantENSM_9allocatorISO_EEEE, symObjAddr: 0x6150, symBinAddr: 0x37AB0, symSize: 0x340 }
  - { offset: 0x162526, size: 0x8, addend: 0x0, symName: __ZN5godot25call_with_ptr_args_helperINS_20_gde_UnexistingClassEJRKNS_6StringES4_N6sentry5LevelES4_RKNS_10DictionaryEEJLm0ELm1ELm2ELm3ELm4EEEEvPT_MSA_FvDpT0_EPKPKvNS_13IndexSequenceIJXspT1_EEEE, symObjAddr: 0x6560, symBinAddr: 0x38090, symSize: 0xE0 }
  - { offset: 0x16268A, size: 0x8, addend: 0x0, symName: __ZN5godot29call_with_variant_args_helperINS_20_gde_UnexistingClassEJRKNS_6StringES4_N6sentry5LevelES4_RKNS_10DictionaryEEJLm0ELm1ELm2ELm3ELm4EEEEvPT_MSA_FvDpT0_EPPKNS_7VariantER20GDExtensionCallErrorNS_13IndexSequenceIJXspT1_EEEE, symObjAddr: 0x6470, symBinAddr: 0x37DF0, symSize: 0x2A0 }
  - { offset: 0x162AFC, size: 0x8, addend: 0x0, symName: __ZN5godot25call_with_variant_args_dvINS_20_gde_UnexistingClassEJRKNS_6StringERKNS_10DictionaryEEEEvPT_MS8_FvDpT0_EPKPKviR20GDExtensionCallErrorRKNSt3__16vectorINS_7VariantENSK_9allocatorISM_EEEE, symObjAddr: 0x6DB0, symBinAddr: 0x38650, symSize: 0x1C0 }
  - { offset: 0x16319A, size: 0x8, addend: 0x0, symName: __ZN5godot34call_get_argument_type_info_helperIRKNS_3RefI10SentryUserEEEEviRiRNS_12PropertyInfoE, symObjAddr: 0x7CE0, symBinAddr: 0x38F30, symSize: 0xC0 }
  - { offset: 0x163276, size: 0x8, addend: 0x0, symName: __ZN5godot25call_with_variant_args_dvINS_20_gde_UnexistingClassEJRKNS_3RefI10SentryUserEEEEEvPT_MS7_FvDpT0_EPKPKviR20GDExtensionCallErrorRKNSt3__16vectorINS_7VariantENSJ_9allocatorISL_EEEE, symObjAddr: 0x7EE0, symBinAddr: 0x39130, symSize: 0x130 }
  - { offset: 0x1637A1, size: 0x8, addend: 0x0, symName: __ZN5godot30call_with_variant_args_retc_dvINS_20_gde_UnexistingClassENS_3RefI10SentryUserEEJEEEvPT_MS5_KFT0_DpT1_EPKPKviRNS_7VariantER20GDExtensionCallErrorRKNSt3__16vectorISG_NSK_9allocatorISG_EEEE, symObjAddr: 0x84E0, symBinAddr: 0x39820, symSize: 0x110 }
  - { offset: 0x163EA1, size: 0x8, addend: 0x0, symName: __ZN5godot30call_with_variant_args_retc_dvINS_20_gde_UnexistingClassENS_3RefI11SentryEventEEJEEEvPT_MS5_KFT0_DpT1_EPKPKviRNS_7VariantER20GDExtensionCallErrorRKNSt3__16vectorISG_NSK_9allocatorISG_EEEE, symObjAddr: 0x8C90, symBinAddr: 0x3A050, symSize: 0x110 }
  - { offset: 0x16437A, size: 0x8, addend: 0x0, symName: __ZN5godot34call_get_argument_type_info_helperIRKNS_3RefI11SentryEventEEEEviRiRNS_12PropertyInfoE, symObjAddr: 0x90D0, symBinAddr: 0x3A4C0, symSize: 0xC0 }
  - { offset: 0x164456, size: 0x8, addend: 0x0, symName: __ZN5godot29call_with_variant_args_ret_dvINS_20_gde_UnexistingClassENS_6StringEJRKNS_3RefI11SentryEventEEEEEvPT_MS8_FT0_DpT1_EPKPKviRNS_7VariantER20GDExtensionCallErrorRKNSt3__16vectorISJ_NSN_9allocatorISJ_EEEE, symObjAddr: 0x92D0, symBinAddr: 0x3A6C0, symSize: 0x140 }
  - { offset: 0x164631, size: 0x8, addend: 0x0, symName: __ZN5godot29call_with_ptr_args_ret_helperINS_20_gde_UnexistingClassENS_6StringEJRKNS_3RefI11SentryEventEEEJLm0EEEEvPT_MS8_FT0_DpT1_EPKPKvPvNS_13IndexSequenceIJXspT2_EEEE, symObjAddr: 0x95C0, symBinAddr: 0x3AA40, symSize: 0xF0 }
  - { offset: 0x164879, size: 0x8, addend: 0x0, symName: __ZN5godot33call_with_variant_args_ret_helperINS_20_gde_UnexistingClassENS_6StringEJRKNS_3RefI11SentryEventEEEJLm0EEEEvPT_MS8_FT0_DpT1_EPPKNS_7VariantERSF_R20GDExtensionCallErrorNS_13IndexSequenceIJXspT2_EEEE, symObjAddr: 0x93D0, symBinAddr: 0x3A800, symSize: 0x160 }
  - { offset: 0x17994B, size: 0x8, addend: 0x0, symName: __ZN9SentrySDK9singletonE, symObjAddr: 0x17D8A8, symBinAddr: 0x1E9A68, symSize: 0x0 }
  - { offset: 0x179F20, size: 0x8, addend: 0x0, symName: __ZN6sentry4util5printIJPcEEEvNS_5LevelERKN5godot7VariantEDpRKT_, symObjAddr: 0x4A30, symBinAddr: 0x36990, symSize: 0x280 }
  - { offset: 0x17B56D, size: 0x8, addend: 0x0, symName: __ZN5godot10FileAccess22_gde_binding_callbacksE, symObjAddr: 0xC2B8, symBinAddr: 0x1D8840, symSize: 0x0 }
  - { offset: 0x17C9F7, size: 0x8, addend: 0x0, symName: ___cxx_global_var_init, symObjAddr: 0xB1E0, symBinAddr: 0x3AD90, symSize: 0x40 }
  - { offset: 0x17CA7E, size: 0x8, addend: 0x0, symName: ___cxx_global_var_init.1, symObjAddr: 0xB220, symBinAddr: 0x3ADD0, symSize: 0x40 }
  - { offset: 0x17CB05, size: 0x8, addend: 0x0, symName: ___cxx_global_var_init.2, symObjAddr: 0xB260, symBinAddr: 0x3AE10, symSize: 0x40 }
  - { offset: 0x17CB8C, size: 0x8, addend: 0x0, symName: ___cxx_global_var_init.3, symObjAddr: 0xB2A0, symBinAddr: 0x3AE50, symSize: 0x40 }
  - { offset: 0x17CC13, size: 0x8, addend: 0x0, symName: ___cxx_global_var_init.4, symObjAddr: 0xB2E0, symBinAddr: 0x3AE90, symSize: 0x40 }
  - { offset: 0x17CC9A, size: 0x8, addend: 0x0, symName: ___cxx_global_var_init.5, symObjAddr: 0xB320, symBinAddr: 0x3AED0, symSize: 0x40 }
  - { offset: 0x17CD21, size: 0x8, addend: 0x0, symName: ___cxx_global_var_init.6, symObjAddr: 0xB360, symBinAddr: 0x3AF10, symSize: 0x40 }
  - { offset: 0x17CDA8, size: 0x8, addend: 0x0, symName: ___cxx_global_var_init.7, symObjAddr: 0xB3A0, symBinAddr: 0x3AF50, symSize: 0x40 }
  - { offset: 0x17CE2F, size: 0x8, addend: 0x0, symName: ___cxx_global_var_init.8, symObjAddr: 0xB3E0, symBinAddr: 0x3AF90, symSize: 0x40 }
  - { offset: 0x17CEB6, size: 0x8, addend: 0x0, symName: ___cxx_global_var_init.9, symObjAddr: 0xB420, symBinAddr: 0x3AFD0, symSize: 0x3A }
  - { offset: 0x17CF1F, size: 0x8, addend: 0x0, symName: __ZN9SentrySDK15capture_messageERKN5godot6StringEN6sentry5LevelE, symObjAddr: 0x0, symBinAddr: 0x331A0, symSize: 0x20 }
  - { offset: 0x17CFAD, size: 0x8, addend: 0x0, symName: __ZN9SentrySDK14add_breadcrumbERKN5godot6StringES3_N6sentry5LevelES3_RKNS0_10DictionaryE, symObjAddr: 0x20, symBinAddr: 0x331C0, symSize: 0x20 }
  - { offset: 0x17D071, size: 0x8, addend: 0x0, symName: __ZNK9SentrySDK17get_last_event_idEv, symObjAddr: 0x40, symBinAddr: 0x331E0, symSize: 0x20 }
  - { offset: 0x17D0CF, size: 0x8, addend: 0x0, symName: __ZNK9SentrySDK12create_eventEv, symObjAddr: 0x60, symBinAddr: 0x33200, symSize: 0x20 }
  - { offset: 0x17D148, size: 0x8, addend: 0x0, symName: __ZN9SentrySDK13capture_eventERKN5godot3RefI11SentryEventEE, symObjAddr: 0x80, symBinAddr: 0x33220, symSize: 0x30 }
  - { offset: 0x17D1E9, size: 0x8, addend: 0x0, symName: __ZN9SentrySDK13capture_eventERKN5godot3RefI11SentryEventEE.cold.1, symObjAddr: 0x9E10, symBinAddr: 0x11D060, symSize: 0x50 }
  - { offset: 0x17D201, size: 0x8, addend: 0x0, symName: __ZN9SentrySDK7set_tagERKN5godot6StringES3_, symObjAddr: 0xB0, symBinAddr: 0x33250, symSize: 0x50 }
  - { offset: 0x17D284, size: 0x8, addend: 0x0, symName: __ZN9SentrySDK7set_tagERKN5godot6StringES3_.cold.1, symObjAddr: 0x9E60, symBinAddr: 0x11D0B0, symSize: 0x40 }
  - { offset: 0x17D29C, size: 0x8, addend: 0x0, symName: __ZN9SentrySDK10remove_tagERKN5godot6StringE, symObjAddr: 0x100, symBinAddr: 0x332A0, symSize: 0x40 }
  - { offset: 0x17D30F, size: 0x8, addend: 0x0, symName: __ZN9SentrySDK10remove_tagERKN5godot6StringE.cold.1, symObjAddr: 0x9EA0, symBinAddr: 0x11D0F0, symSize: 0x40 }
  - { offset: 0x17D3B5, size: 0x8, addend: 0x0, symName: __ZN9SentrySDK8set_userERKN5godot3RefI10SentryUserEE, symObjAddr: 0x140, symBinAddr: 0x332E0, symSize: 0xA0 }
  - { offset: 0x17D4F9, size: 0x8, addend: 0x0, symName: __ZN5godot3RefI10SentryUserE11instantiateEv, symObjAddr: 0x1E0, symBinAddr: 0x33380, symSize: 0x190 }
  - { offset: 0x17D8B4, size: 0x8, addend: 0x0, symName: __ZN5godot3RefI10SentryUserE11instantiateEv.cold.1, symObjAddr: 0x9EE0, symBinAddr: 0x11D130, symSize: 0x60 }
  - { offset: 0x17D924, size: 0x8, addend: 0x0, symName: __ZN9SentrySDK11remove_userEv, symObjAddr: 0x360, symBinAddr: 0x33510, symSize: 0x30 }
  - { offset: 0x17D987, size: 0x8, addend: 0x0, symName: __ZN9SentrySDK11set_contextERKN5godot6StringERKNS0_10DictionaryE, symObjAddr: 0x390, symBinAddr: 0x33540, symSize: 0x50 }
  - { offset: 0x17DA0A, size: 0x8, addend: 0x0, symName: __ZN9SentrySDK11set_contextERKN5godot6StringERKNS0_10DictionaryE.cold.1, symObjAddr: 0x9F40, symBinAddr: 0x11D190, symSize: 0x40 }
  - { offset: 0x17DA47, size: 0x8, addend: 0x0, symName: __ZN9SentrySDK14_init_contextsEv, symObjAddr: 0x3E0, symBinAddr: 0x33590, symSize: 0x220 }
  - { offset: 0x17E2F2, size: 0x8, addend: 0x0, symName: __ZN9SentrySDK11_initializeEv, symObjAddr: 0x600, symBinAddr: 0x337B0, symSize: 0x220 }
  - { offset: 0x17E9EA, size: 0x8, addend: 0x0, symName: __ZN5godot3RefI12SentryLoggerE11instantiateEv, symObjAddr: 0x840, symBinAddr: 0x339D0, symSize: 0x110 }
  - { offset: 0x17EB9A, size: 0x8, addend: 0x0, symName: __ZN5godot6Object7cast_toINS_6LoggerEEEPT_PS0_, symObjAddr: 0x4940, symBinAddr: 0x368B0, symSize: 0xE0 }
  - { offset: 0x17ED3E, size: 0x8, addend: 0x0, symName: __ZN5godot3RefI12SentryLoggerE11instantiateEv.cold.1, symObjAddr: 0x9F80, symBinAddr: 0x11D1D0, symSize: 0x60 }
  - { offset: 0x17EDAE, size: 0x8, addend: 0x0, symName: __ZN9SentrySDK33_check_if_configuration_succeededEv, symObjAddr: 0x950, symBinAddr: 0x33AE0, symSize: 0xC0 }
  - { offset: 0x17EE96, size: 0x8, addend: 0x0, symName: __ZN9SentrySDK22_demo_helper_crash_appEv, symObjAddr: 0xA10, symBinAddr: 0x33BA0, symSize: 0x90 }
  - { offset: 0x17EF42, size: 0x8, addend: 0x0, symName: __ZN9SentrySDK25notify_options_configuredEv, symObjAddr: 0xAA0, symBinAddr: 0x33C30, symSize: 0x90 }
  - { offset: 0x17FB7B, size: 0x8, addend: 0x0, symName: __ZN9SentrySDK13_bind_methodsEv, symObjAddr: 0xB30, symBinAddr: 0x33CC0, symSize: 0x14E0 }
  - { offset: 0x183B68, size: 0x8, addend: 0x0, symName: __ZN5godot7ClassDB11bind_methodINS_16MethodDefinitionEM9SentrySDKFvRKNS_6StringES6_N6sentry5LevelES6_RKNS_10DictionaryEEJS8_PKcS9_EEEPNS_10MethodBindET_T0_DpT1_, symObjAddr: 0x2020, symBinAddr: 0x351B0, symSize: 0x130 }
  - { offset: 0x183CBD, size: 0x8, addend: 0x0, symName: __ZN9SentrySDK13_bind_methodsEv.cold.1, symObjAddr: 0x9FE0, symBinAddr: 0x11D230, symSize: 0x60 }
  - { offset: 0x183CEB, size: 0x8, addend: 0x0, symName: __ZN9SentrySDK13_bind_methodsEv.cold.2, symObjAddr: 0xA040, symBinAddr: 0x11D290, symSize: 0x60 }
  - { offset: 0x183D19, size: 0x8, addend: 0x0, symName: __ZN9SentrySDK13_bind_methodsEv.cold.3, symObjAddr: 0xA0A0, symBinAddr: 0x11D2F0, symSize: 0x60 }
  - { offset: 0x183D47, size: 0x8, addend: 0x0, symName: __ZN9SentrySDK13_bind_methodsEv.cold.4, symObjAddr: 0xA100, symBinAddr: 0x11D350, symSize: 0x60 }
  - { offset: 0x183D75, size: 0x8, addend: 0x0, symName: __ZN9SentrySDK13_bind_methodsEv.cold.5, symObjAddr: 0xA160, symBinAddr: 0x11D3B0, symSize: 0x60 }
  - { offset: 0x183DA3, size: 0x8, addend: 0x0, symName: __ZNK9SentrySDK10is_enabledEv, symObjAddr: 0x2010, symBinAddr: 0x351A0, symSize: 0x10 }
  - { offset: 0x183E12, size: 0x8, addend: 0x0, symName: __ZNK9SentrySDK8get_userEv, symObjAddr: 0x2290, symBinAddr: 0x35420, symSize: 0x30 }
  - { offset: 0x183ED2, size: 0x8, addend: 0x0, symName: __ZN9SentrySDK15set_before_sendERKN5godot8CallableE, symObjAddr: 0x22C0, symBinAddr: 0x35450, symSize: 0x60 }
  - { offset: 0x18400F, size: 0x8, addend: 0x0, symName: __ZN9SentrySDK17unset_before_sendEv, symObjAddr: 0x2320, symBinAddr: 0x354B0, symSize: 0xB0 }
  - { offset: 0x18415B, size: 0x8, addend: 0x0, symName: __ZN9SentrySDK12set_on_crashERKN5godot8CallableE, symObjAddr: 0x23D0, symBinAddr: 0x35560, symSize: 0x60 }
  - { offset: 0x184298, size: 0x8, addend: 0x0, symName: __ZN9SentrySDK14unset_on_crashEv, symObjAddr: 0x2430, symBinAddr: 0x355C0, symSize: 0xC0 }
  - { offset: 0x1848C1, size: 0x8, addend: 0x0, symName: __ZN9SentrySDKC2Ev, symObjAddr: 0x24F0, symBinAddr: 0x35680, symSize: 0x5D0 }
  - { offset: 0x185661, size: 0x8, addend: 0x0, symName: __ZN5godot3RefI13RuntimeConfigE11instantiateEv, symObjAddr: 0x2AC0, symBinAddr: 0x35C50, symSize: 0x110 }
  - { offset: 0x185813, size: 0x8, addend: 0x0, symName: __ZN12_GLOBAL__N_132_fix_unix_executable_permissionsERKN5godot6StringE, symObjAddr: 0x2EE0, symBinAddr: 0x36050, symSize: 0xF0 }
  - { offset: 0x1858E4, size: 0x8, addend: 0x0, symName: __ZN12_GLOBAL__N_124_verify_project_settingsEv, symObjAddr: 0x2BD0, symBinAddr: 0x35D60, symSize: 0x2F0 }
  - { offset: 0x185BAE, size: 0x8, addend: 0x0, symName: __ZN9SentrySDKC2Ev.cold.3, symObjAddr: 0xA220, symBinAddr: 0x11D470, symSize: 0x30 }
  - { offset: 0x185BC6, size: 0x8, addend: 0x0, symName: __ZN9SentrySDKC2Ev.cold.2, symObjAddr: 0xA1F0, symBinAddr: 0x11D440, symSize: 0x30 }
  - { offset: 0x185BDE, size: 0x8, addend: 0x0, symName: __ZN9SentrySDKC2Ev.cold.1, symObjAddr: 0xA1C0, symBinAddr: 0x11D410, symSize: 0x30 }
  - { offset: 0x185CF7, size: 0x8, addend: 0x0, symName: __ZN5godot3RefI13RuntimeConfigE11instantiateEv.cold.1, symObjAddr: 0xA250, symBinAddr: 0x11D4A0, symSize: 0x60 }
  - { offset: 0x185DA2, size: 0x8, addend: 0x0, symName: __ZN9SentrySDKC1Ev, symObjAddr: 0x2FD0, symBinAddr: 0x36140, symSize: 0x10 }
  - { offset: 0x185ED3, size: 0x8, addend: 0x0, symName: __ZN9SentrySDKD2Ev, symObjAddr: 0x2FE0, symBinAddr: 0x36150, symSize: 0x1A0 }
  - { offset: 0x1864C0, size: 0x8, addend: 0x0, symName: __ZN9SentrySDKD2Ev.cold.1, symObjAddr: 0xA2B0, symBinAddr: 0x11D500, symSize: 0x30 }
  - { offset: 0x186532, size: 0x8, addend: 0x0, symName: __ZN9SentrySDKD1Ev, symObjAddr: 0x3180, symBinAddr: 0x362F0, symSize: 0x10 }
  - { offset: 0x186587, size: 0x8, addend: 0x0, symName: __ZN9SentrySDKD0Ev, symObjAddr: 0x3190, symBinAddr: 0x36300, symSize: 0x20 }
  - { offset: 0x1865EB, size: 0x8, addend: 0x0, symName: __ZNK9SentrySDK19_is_extension_classEv, symObjAddr: 0x31B0, symBinAddr: 0x36320, symSize: 0x10 }
  - { offset: 0x186610, size: 0x8, addend: 0x0, symName: __ZN5godot6ObjectD1Ev.cold.1, symObjAddr: 0xA2E0, symBinAddr: 0x11D530, symSize: 0x30 }
  - { offset: 0x18669B, size: 0x8, addend: 0x0, symName: __ZN5godot6ObjectD0Ev.cold.1, symObjAddr: 0xA310, symBinAddr: 0x11D560, symSize: 0x30 }
  - { offset: 0x186722, size: 0x8, addend: 0x0, symName: __ZN5godot7WrappedD1Ev.cold.1, symObjAddr: 0xA340, symBinAddr: 0x11D590, symSize: 0x30 }
  - { offset: 0x186797, size: 0x8, addend: 0x0, symName: __ZN5godot7WrappedD0Ev.cold.1, symObjAddr: 0xA370, symBinAddr: 0x11D5C0, symSize: 0x30 }
  - { offset: 0x186840, size: 0x8, addend: 0x0, symName: __ZN5godot4ListINS_12PropertyInfoENS_16DefaultAllocatorEE5_Data5eraseEPNS3_7ElementE.cold.2, symObjAddr: 0xA3D0, symBinAddr: 0x11D620, symSize: 0x30 }
  - { offset: 0x186858, size: 0x8, addend: 0x0, symName: __ZN5godot4ListINS_12PropertyInfoENS_16DefaultAllocatorEE5_Data5eraseEPNS3_7ElementE.cold.1, symObjAddr: 0xA3A0, symBinAddr: 0x11D5F0, symSize: 0x30 }
  - { offset: 0x186877, size: 0x8, addend: 0x0, symName: __ZN5godot8internal23EngineClassRegistrationINS_6ObjectEE8callbackEv.cold.1, symObjAddr: 0xA400, symBinAddr: 0x11D650, symSize: 0x60 }
  - { offset: 0x1868D1, size: 0x8, addend: 0x0, symName: __ZN5godot8internal23EngineClassRegistrationINS_16ClassDBSingletonEE8callbackEv.cold.1, symObjAddr: 0xA460, symBinAddr: 0x11D6B0, symSize: 0x60 }
  - { offset: 0x186906, size: 0x8, addend: 0x0, symName: __ZN5godot8internal23EngineClassRegistrationINS_10RefCountedEE8callbackEv.cold.1, symObjAddr: 0xA4C0, symBinAddr: 0x11D710, symSize: 0x60 }
  - { offset: 0x186975, size: 0x8, addend: 0x0, symName: __ZN5godot10RefCountedD1Ev.cold.1, symObjAddr: 0xA520, symBinAddr: 0x11D770, symSize: 0x30 }
  - { offset: 0x186A18, size: 0x8, addend: 0x0, symName: __ZN5godot10RefCountedD0Ev.cold.1, symObjAddr: 0xA550, symBinAddr: 0x11D7A0, symSize: 0x30 }
  - { offset: 0x186ABC, size: 0x8, addend: 0x0, symName: __ZN5godot8internal23EngineClassRegistrationINS_10ConfigFileEE8callbackEv.cold.1, symObjAddr: 0xA580, symBinAddr: 0x11D7D0, symSize: 0x60 }
  - { offset: 0x186B06, size: 0x8, addend: 0x0, symName: __ZN5godot10ConfigFileD1Ev.cold.1, symObjAddr: 0xA5E0, symBinAddr: 0x11D830, symSize: 0x30 }
  - { offset: 0x186BBF, size: 0x8, addend: 0x0, symName: __ZN5godot10ConfigFileD0Ev.cold.1, symObjAddr: 0xA610, symBinAddr: 0x11D860, symSize: 0x30 }
  - { offset: 0x186C79, size: 0x8, addend: 0x0, symName: __ZN5godot8internal23EngineClassRegistrationINS_6LoggerEE8callbackEv.cold.1, symObjAddr: 0xA640, symBinAddr: 0x11D890, symSize: 0x60 }
  - { offset: 0x186CAE, size: 0x8, addend: 0x0, symName: __ZN5godot8internal23EngineClassRegistrationINS_15ScriptBacktraceEE8callbackEv.cold.1, symObjAddr: 0xA6A0, symBinAddr: 0x11D8F0, symSize: 0x60 }
  - { offset: 0x186CF8, size: 0x8, addend: 0x0, symName: __ZN5godot15ScriptBacktraceD1Ev.cold.1, symObjAddr: 0xA700, symBinAddr: 0x11D950, symSize: 0x30 }
  - { offset: 0x186DB1, size: 0x8, addend: 0x0, symName: __ZN5godot15ScriptBacktraceD0Ev.cold.1, symObjAddr: 0xA730, symBinAddr: 0x11D980, symSize: 0x30 }
  - { offset: 0x186E6B, size: 0x8, addend: 0x0, symName: __ZN5godot8internal23EngineClassRegistrationINS_6EngineEE8callbackEv.cold.1, symObjAddr: 0xA760, symBinAddr: 0x11D9B0, symSize: 0x60 }
  - { offset: 0x186EA0, size: 0x8, addend: 0x0, symName: __ZN5godot8internal23EngineClassRegistrationINS_10FileAccessEE8callbackEv, symObjAddr: 0x3CF0, symBinAddr: 0x36420, symSize: 0x30 }
  - { offset: 0x186EEC, size: 0x8, addend: 0x0, symName: __ZN5godot8internal23EngineClassRegistrationINS_10FileAccessEE8callbackEv.cold.1, symObjAddr: 0xA7C0, symBinAddr: 0x11DA10, symSize: 0x60 }
  - { offset: 0x186F64, size: 0x8, addend: 0x0, symName: __ZN5godot10FileAccess28_gde_binding_create_callbackEPvS1_, symObjAddr: 0x3D30, symBinAddr: 0x36450, symSize: 0x40 }
  - { offset: 0x187031, size: 0x8, addend: 0x0, symName: __ZN5godot10FileAccess26_gde_binding_free_callbackEPvS1_S1_, symObjAddr: 0x3D70, symBinAddr: 0x36490, symSize: 0x30 }
  - { offset: 0x18708B, size: 0x8, addend: 0x0, symName: __ZN5godot10FileAccess31_gde_binding_reference_callbackEPvS1_h, symObjAddr: 0x3DA0, symBinAddr: 0x364C0, symSize: 0x10 }
  - { offset: 0x1870E6, size: 0x8, addend: 0x0, symName: __ZN5godot10FileAccessD1Ev, symObjAddr: 0x3DB0, symBinAddr: 0x364D0, symSize: 0x70 }
  - { offset: 0x18729D, size: 0x8, addend: 0x0, symName: __ZN5godot10FileAccessD1Ev.cold.1, symObjAddr: 0xA820, symBinAddr: 0x11DA70, symSize: 0x30 }
  - { offset: 0x187356, size: 0x8, addend: 0x0, symName: __ZN5godot10FileAccessD0Ev, symObjAddr: 0x3E20, symBinAddr: 0x36540, symSize: 0x60 }
  - { offset: 0x1874B5, size: 0x8, addend: 0x0, symName: __ZN5godot10FileAccessD0Ev.cold.1, symObjAddr: 0xA850, symBinAddr: 0x11DAA0, symSize: 0x30 }
  - { offset: 0x18756F, size: 0x8, addend: 0x0, symName: __ZN5godot8internal23EngineClassRegistrationINS_2OSEE8callbackEv.cold.1, symObjAddr: 0xA880, symBinAddr: 0x11DAD0, symSize: 0x60 }
  - { offset: 0x1875A4, size: 0x8, addend: 0x0, symName: __ZN5godot8internal23EngineClassRegistrationINS_15ProjectSettingsEE8callbackEv.cold.1, symObjAddr: 0xA8E0, symBinAddr: 0x11DB30, symSize: 0x60 }
  - { offset: 0x1876DC, size: 0x8, addend: 0x0, symName: __ZN10SentryUserD2Ev.cold.1, symObjAddr: 0xA940, symBinAddr: 0x11DB90, symSize: 0x30 }
  - { offset: 0x18777F, size: 0x8, addend: 0x0, symName: __ZNSt3__120__shared_ptr_emplaceIN6sentry9NativeSDKENS_9allocatorIS2_EEED1Ev, symObjAddr: 0x4320, symBinAddr: 0x365A0, symSize: 0x20 }
  - { offset: 0x1877DA, size: 0x8, addend: 0x0, symName: __ZNSt3__120__shared_ptr_emplaceIN6sentry9NativeSDKENS_9allocatorIS2_EEED0Ev, symObjAddr: 0x4340, symBinAddr: 0x365C0, symSize: 0x30 }
  - { offset: 0x1878D1, size: 0x8, addend: 0x0, symName: __ZNSt3__120__shared_ptr_emplaceIN6sentry9NativeSDKENS_9allocatorIS2_EEE16__on_zero_sharedEv, symObjAddr: 0x4370, symBinAddr: 0x365F0, symSize: 0x10 }
  - { offset: 0x1879CE, size: 0x8, addend: 0x0, symName: __ZNSt3__120__shared_ptr_emplaceIN6sentry9NativeSDKENS_9allocatorIS2_EEE21__on_zero_shared_weakEv, symObjAddr: 0x4380, symBinAddr: 0x36600, symSize: 0x10 }
  - { offset: 0x187AEF, size: 0x8, addend: 0x0, symName: __ZNSt3__120__shared_ptr_emplaceIN6sentry11DisabledSDKENS_9allocatorIS2_EEED1Ev, symObjAddr: 0x4390, symBinAddr: 0x36610, symSize: 0x20 }
  - { offset: 0x187B4A, size: 0x8, addend: 0x0, symName: __ZNSt3__120__shared_ptr_emplaceIN6sentry11DisabledSDKENS_9allocatorIS2_EEED0Ev, symObjAddr: 0x43B0, symBinAddr: 0x36630, symSize: 0x30 }
  - { offset: 0x187C41, size: 0x8, addend: 0x0, symName: __ZNSt3__120__shared_ptr_emplaceIN6sentry11DisabledSDKENS_9allocatorIS2_EEE16__on_zero_sharedEv, symObjAddr: 0x43E0, symBinAddr: 0x36660, symSize: 0x10 }
  - { offset: 0x187D3E, size: 0x8, addend: 0x0, symName: __ZNSt3__120__shared_ptr_emplaceIN6sentry11DisabledSDKENS_9allocatorIS2_EEE21__on_zero_shared_weakEv, symObjAddr: 0x43F0, symBinAddr: 0x36670, symSize: 0x10 }
  - { offset: 0x187E41, size: 0x8, addend: 0x0, symName: __ZN6sentry11DisabledSDK11set_contextERKN5godot6StringERKNS1_10DictionaryE, symObjAddr: 0x4400, symBinAddr: 0x36680, symSize: 0x10 }
  - { offset: 0x187E82, size: 0x8, addend: 0x0, symName: __ZN6sentry11DisabledSDK14remove_contextERKN5godot6StringE, symObjAddr: 0x4410, symBinAddr: 0x36690, symSize: 0x10 }
  - { offset: 0x187EB5, size: 0x8, addend: 0x0, symName: __ZN6sentry11DisabledSDK7set_tagERKN5godot6StringES4_, symObjAddr: 0x4420, symBinAddr: 0x366A0, symSize: 0x10 }
  - { offset: 0x187EF6, size: 0x8, addend: 0x0, symName: __ZN6sentry11DisabledSDK10remove_tagERKN5godot6StringE, symObjAddr: 0x4430, symBinAddr: 0x366B0, symSize: 0x10 }
  - { offset: 0x187F29, size: 0x8, addend: 0x0, symName: __ZN6sentry11DisabledSDK8set_userERKN5godot3RefI10SentryUserEE, symObjAddr: 0x4440, symBinAddr: 0x366C0, symSize: 0x10 }
  - { offset: 0x187F5C, size: 0x8, addend: 0x0, symName: __ZN6sentry11DisabledSDK11remove_userEv, symObjAddr: 0x4450, symBinAddr: 0x366D0, symSize: 0x10 }
  - { offset: 0x187F81, size: 0x8, addend: 0x0, symName: __ZN6sentry11DisabledSDK14add_breadcrumbERKN5godot6StringES4_NS_5LevelES4_RKNS1_10DictionaryE, symObjAddr: 0x4460, symBinAddr: 0x366E0, symSize: 0x10 }
  - { offset: 0x187FEC, size: 0x8, addend: 0x0, symName: __ZN6sentry11DisabledSDK15capture_messageERKN5godot6StringENS_5LevelE, symObjAddr: 0x4470, symBinAddr: 0x366F0, symSize: 0x20 }
  - { offset: 0x188033, size: 0x8, addend: 0x0, symName: __ZN6sentry11DisabledSDK17get_last_event_idEv, symObjAddr: 0x4490, symBinAddr: 0x36710, symSize: 0x20 }
  - { offset: 0x18814E, size: 0x8, addend: 0x0, symName: __ZN6sentry11DisabledSDK12create_eventEv, symObjAddr: 0x44B0, symBinAddr: 0x36730, symSize: 0x130 }
  - { offset: 0x188328, size: 0x8, addend: 0x0, symName: __ZN6sentry11DisabledSDK12create_eventEv.cold.1, symObjAddr: 0xA970, symBinAddr: 0x11DBC0, symSize: 0x60 }
  - { offset: 0x188398, size: 0x8, addend: 0x0, symName: __ZN6sentry11DisabledSDK13capture_eventERKN5godot3RefI11SentryEventEE, symObjAddr: 0x45D0, symBinAddr: 0x36860, symSize: 0x20 }
  - { offset: 0x1883CF, size: 0x8, addend: 0x0, symName: __ZN6sentry11DisabledSDK10initializeEv, symObjAddr: 0x45F0, symBinAddr: 0x36880, symSize: 0x10 }
  - { offset: 0x1883F4, size: 0x8, addend: 0x0, symName: __ZN6sentry11DisabledSDKD1Ev, symObjAddr: 0x4600, symBinAddr: 0x36890, symSize: 0x10 }
  - { offset: 0x18841F, size: 0x8, addend: 0x0, symName: __ZN6sentry11DisabledSDKD0Ev, symObjAddr: 0x4610, symBinAddr: 0x368A0, symSize: 0x10 }
  - { offset: 0x188464, size: 0x8, addend: 0x0, symName: __ZN13DisabledEventD2Ev.cold.1, symObjAddr: 0xA9D0, symBinAddr: 0x11DC20, symSize: 0x30 }
  - { offset: 0x188501, size: 0x8, addend: 0x0, symName: __ZN5godot6Object7cast_toINS_6LoggerEEEPT_PS0_.cold.1, symObjAddr: 0xAA00, symBinAddr: 0x11DC50, symSize: 0x60 }
  - { offset: 0x188765, size: 0x8, addend: 0x0, symName: __ZN5godot18create_method_bindI9SentrySDKbJEEEPNS_10MethodBindEMT_KFT0_DpT1_E.cold.1, symObjAddr: 0xAA60, symBinAddr: 0x11DCB0, symSize: 0x60 }
  - { offset: 0x1887F4, size: 0x8, addend: 0x0, symName: __ZN5godot18create_method_bindI9SentrySDKNS_6StringEJRKS2_N6sentry5LevelEEEEPNS_10MethodBindEMT_FT0_DpT1_E.cold.1, symObjAddr: 0xAAC0, symBinAddr: 0x11DD10, symSize: 0x60 }
  - { offset: 0x188823, size: 0x8, addend: 0x0, symName: __ZNK5godot12MethodBindTRINS_6StringEJRKS1_N6sentry5LevelEEE17gen_argument_typeEi, symObjAddr: 0x5390, symBinAddr: 0x36E60, symSize: 0x30 }
  - { offset: 0x18886A, size: 0x8, addend: 0x0, symName: __ZNK5godot12MethodBindTRINS_6StringEJRKS1_N6sentry5LevelEEE22gen_argument_type_infoEi, symObjAddr: 0x53C0, symBinAddr: 0x36E90, symSize: 0x170 }
  - { offset: 0x188A27, size: 0x8, addend: 0x0, symName: __ZNK5godot12MethodBindTRINS_6StringEJRKS1_N6sentry5LevelEEE21get_argument_metadataEi, symObjAddr: 0x5530, symBinAddr: 0x37000, symSize: 0x10 }
  - { offset: 0x188A76, size: 0x8, addend: 0x0, symName: __ZNK5godot12MethodBindTRINS_6StringEJRKS1_N6sentry5LevelEEE4callEPvPKPKvxR20GDExtensionCallError, symObjAddr: 0x5540, symBinAddr: 0x37010, symSize: 0x60 }
  - { offset: 0x188B80, size: 0x8, addend: 0x0, symName: __ZNK5godot12MethodBindTRINS_6StringEJRKS1_N6sentry5LevelEEE7ptrcallEPvPKPKvS7_, symObjAddr: 0x55A0, symBinAddr: 0x37070, symSize: 0xB0 }
  - { offset: 0x188CC7, size: 0x8, addend: 0x0, symName: __ZN5godot12MethodBindTRINS_6StringEJRKS1_N6sentry5LevelEEED1Ev, symObjAddr: 0x5650, symBinAddr: 0x37120, symSize: 0x10 }
  - { offset: 0x188D24, size: 0x8, addend: 0x0, symName: __ZN5godot12MethodBindTRINS_6StringEJRKS1_N6sentry5LevelEEED0Ev, symObjAddr: 0x5660, symBinAddr: 0x37130, symSize: 0x20 }
  - { offset: 0x188E7C, size: 0x8, addend: 0x0, symName: __ZN5godot18create_method_bindI9SentrySDKJRKNS_6StringES4_N6sentry5LevelES4_RKNS_10DictionaryEEEEPNS_10MethodBindEMT_FvDpT0_E.cold.1, symObjAddr: 0xAB20, symBinAddr: 0x11DD70, symSize: 0x60 }
  - { offset: 0x188EC1, size: 0x8, addend: 0x0, symName: __ZNK5godot11MethodBindTIJRKNS_6StringES3_N6sentry5LevelES3_RKNS_10DictionaryEEE17gen_argument_typeEi, symObjAddr: 0x5D80, symBinAddr: 0x376E0, symSize: 0x40 }
  - { offset: 0x188FA8, size: 0x8, addend: 0x0, symName: __ZNK5godot11MethodBindTIJRKNS_6StringES3_N6sentry5LevelES3_RKNS_10DictionaryEEE22gen_argument_type_infoEi, symObjAddr: 0x5DC0, symBinAddr: 0x37720, symSize: 0x170 }
  - { offset: 0x1891CD, size: 0x8, addend: 0x0, symName: __ZNK5godot11MethodBindTIJRKNS_6StringES3_N6sentry5LevelES3_RKNS_10DictionaryEEE21get_argument_metadataEi, symObjAddr: 0x5F30, symBinAddr: 0x37890, symSize: 0x10 }
  - { offset: 0x189201, size: 0x8, addend: 0x0, symName: __ZNK5godot11MethodBindTIJRKNS_6StringES3_N6sentry5LevelES3_RKNS_10DictionaryEEE4callEPvPKPKvxR20GDExtensionCallError, symObjAddr: 0x5F40, symBinAddr: 0x378A0, symSize: 0x40 }
  - { offset: 0x1892B2, size: 0x8, addend: 0x0, symName: __ZNK5godot11MethodBindTIJRKNS_6StringES3_N6sentry5LevelES3_RKNS_10DictionaryEEE7ptrcallEPvPKPKvSA_, symObjAddr: 0x5F80, symBinAddr: 0x378E0, symSize: 0x20 }
  - { offset: 0x189380, size: 0x8, addend: 0x0, symName: __ZN5godot11MethodBindTIJRKNS_6StringES3_N6sentry5LevelES3_RKNS_10DictionaryEEED1Ev, symObjAddr: 0x5FA0, symBinAddr: 0x37900, symSize: 0x10 }
  - { offset: 0x1893DD, size: 0x8, addend: 0x0, symName: __ZN5godot11MethodBindTIJRKNS_6StringES3_N6sentry5LevelES3_RKNS_10DictionaryEEED0Ev, symObjAddr: 0x5FB0, symBinAddr: 0x37910, symSize: 0x20 }
  - { offset: 0x1894D6, size: 0x8, addend: 0x0, symName: __ZN5godot18create_method_bindI9SentrySDKNS_6StringEJEEEPNS_10MethodBindEMT_KFT0_DpT1_E.cold.1, symObjAddr: 0xAB80, symBinAddr: 0x11DDD0, symSize: 0x60 }
  - { offset: 0x189565, size: 0x8, addend: 0x0, symName: __ZN5godot18create_method_bindI9SentrySDKJRKNS_6StringERKNS_10DictionaryEEEEPNS_10MethodBindEMT_FvDpT0_E.cold.1, symObjAddr: 0xABE0, symBinAddr: 0x11DE30, symSize: 0x60 }
  - { offset: 0x189594, size: 0x8, addend: 0x0, symName: __ZNK5godot11MethodBindTIJRKNS_6StringERKNS_10DictionaryEEE17gen_argument_typeEi, symObjAddr: 0x6B20, symBinAddr: 0x383C0, symSize: 0x20 }
  - { offset: 0x1895C8, size: 0x8, addend: 0x0, symName: __ZNK5godot11MethodBindTIJRKNS_6StringERKNS_10DictionaryEEE22gen_argument_type_infoEi, symObjAddr: 0x6B40, symBinAddr: 0x383E0, symSize: 0x150 }
  - { offset: 0x189781, size: 0x8, addend: 0x0, symName: __ZNK5godot11MethodBindTIJRKNS_6StringERKNS_10DictionaryEEE21get_argument_metadataEi, symObjAddr: 0x6C90, symBinAddr: 0x38530, symSize: 0x10 }
  - { offset: 0x1897B5, size: 0x8, addend: 0x0, symName: __ZNK5godot11MethodBindTIJRKNS_6StringERKNS_10DictionaryEEE4callEPvPKPKvxR20GDExtensionCallError, symObjAddr: 0x6CA0, symBinAddr: 0x38540, symSize: 0x40 }
  - { offset: 0x189866, size: 0x8, addend: 0x0, symName: __ZNK5godot11MethodBindTIJRKNS_6StringERKNS_10DictionaryEEE7ptrcallEPvPKPKvS8_, symObjAddr: 0x6CE0, symBinAddr: 0x38580, symSize: 0xA0 }
  - { offset: 0x189997, size: 0x8, addend: 0x0, symName: __ZN5godot11MethodBindTIJRKNS_6StringERKNS_10DictionaryEEED1Ev, symObjAddr: 0x6D80, symBinAddr: 0x38620, symSize: 0x10 }
  - { offset: 0x1899F4, size: 0x8, addend: 0x0, symName: __ZN5godot11MethodBindTIJRKNS_6StringERKNS_10DictionaryEEED0Ev, symObjAddr: 0x6D90, symBinAddr: 0x38630, symSize: 0x20 }
  - { offset: 0x189AC0, size: 0x8, addend: 0x0, symName: __ZN5godot18create_method_bindI9SentrySDKJRKNS_6StringES4_EEEPNS_10MethodBindEMT_FvDpT0_E.cold.1, symObjAddr: 0xAC40, symBinAddr: 0x11DE90, symSize: 0x60 }
  - { offset: 0x189B4F, size: 0x8, addend: 0x0, symName: __ZN5godot18create_method_bindI9SentrySDKJRKNS_6StringEEEEPNS_10MethodBindEMT_FvDpT0_E.cold.1, symObjAddr: 0xACA0, symBinAddr: 0x11DEF0, symSize: 0x60 }
  - { offset: 0x189BEA, size: 0x8, addend: 0x0, symName: __ZN5godot18create_method_bindI9SentrySDKJRKNS_3RefI10SentryUserEEEEEPNS_10MethodBindEMT_FvDpT0_E.cold.1, symObjAddr: 0xAD00, symBinAddr: 0x11DF50, symSize: 0x60 }
  - { offset: 0x189C19, size: 0x8, addend: 0x0, symName: __ZNK5godot11MethodBindTIJRKNS_3RefI10SentryUserEEEE17gen_argument_typeEi, symObjAddr: 0x7A60, symBinAddr: 0x38CC0, symSize: 0x20 }
  - { offset: 0x189C4D, size: 0x8, addend: 0x0, symName: __ZNK5godot11MethodBindTIJRKNS_3RefI10SentryUserEEEE22gen_argument_type_infoEi, symObjAddr: 0x7A80, symBinAddr: 0x38CE0, symSize: 0x130 }
  - { offset: 0x189DE1, size: 0x8, addend: 0x0, symName: __ZNK5godot11MethodBindTIJRKNS_3RefI10SentryUserEEEE21get_argument_metadataEi, symObjAddr: 0x7BC0, symBinAddr: 0x38E10, symSize: 0x10 }
  - { offset: 0x189E15, size: 0x8, addend: 0x0, symName: __ZNK5godot11MethodBindTIJRKNS_3RefI10SentryUserEEEE4callEPvPKPKvxR20GDExtensionCallError, symObjAddr: 0x7BD0, symBinAddr: 0x38E20, symSize: 0x40 }
  - { offset: 0x189F1B, size: 0x8, addend: 0x0, symName: __ZNK5godot11MethodBindTIJRKNS_3RefI10SentryUserEEEE7ptrcallEPvPKPKvS7_, symObjAddr: 0x7C10, symBinAddr: 0x38E60, symSize: 0xA0 }
  - { offset: 0x18A170, size: 0x8, addend: 0x0, symName: __ZN5godot11MethodBindTIJRKNS_3RefI10SentryUserEEEED1Ev, symObjAddr: 0x7CB0, symBinAddr: 0x38F00, symSize: 0x10 }
  - { offset: 0x18A1CD, size: 0x8, addend: 0x0, symName: __ZN5godot11MethodBindTIJRKNS_3RefI10SentryUserEEEED0Ev, symObjAddr: 0x7CC0, symBinAddr: 0x38F10, symSize: 0x20 }
  - { offset: 0x18A239, size: 0x8, addend: 0x0, symName: __ZN5godot11GetTypeInfoIRKNS_3RefI10SentryUserEEvE14get_class_infoEv, symObjAddr: 0x7DA0, symBinAddr: 0x38FF0, symSize: 0x140 }
  - { offset: 0x18A2FB, size: 0x8, addend: 0x0, symName: __ZN5godot11GetTypeInfoIRKNS_3RefI10SentryUserEEvE14get_class_infoEv.cold.1, symObjAddr: 0xAD60, symBinAddr: 0x11DFB0, symSize: 0x60 }
  - { offset: 0x18A3A0, size: 0x8, addend: 0x0, symName: __ZN5godot6Object7cast_toI10SentryUserEEPT_PS0_, symObjAddr: 0x8030, symBinAddr: 0x39380, symSize: 0xE0 }
  - { offset: 0x18A43E, size: 0x8, addend: 0x0, symName: __ZN5godot6Object7cast_toI10SentryUserEEPT_PS0_.cold.1, symObjAddr: 0xADC0, symBinAddr: 0x11E010, symSize: 0x60 }
  - { offset: 0x18A4CC, size: 0x8, addend: 0x0, symName: __ZN5godot18create_method_bindI9SentrySDKNS_3RefI10SentryUserEEJEEEPNS_10MethodBindEMT_KFT0_DpT1_E.cold.1, symObjAddr: 0xAE20, symBinAddr: 0x11E070, symSize: 0x60 }
  - { offset: 0x18A4FB, size: 0x8, addend: 0x0, symName: __ZNK5godot13MethodBindTRCINS_3RefI10SentryUserEEJEE17gen_argument_typeEi, symObjAddr: 0x8250, symBinAddr: 0x39590, symSize: 0x10 }
  - { offset: 0x18A52F, size: 0x8, addend: 0x0, symName: __ZNK5godot13MethodBindTRCINS_3RefI10SentryUserEEJEE22gen_argument_type_infoEi, symObjAddr: 0x8260, symBinAddr: 0x395A0, symSize: 0x20 }
  - { offset: 0x18A57E, size: 0x8, addend: 0x0, symName: __ZN5godot11GetTypeInfoINS_3RefI10SentryUserEEvE14get_class_infoEv, symObjAddr: 0x83A0, symBinAddr: 0x396E0, symSize: 0x140 }
  - { offset: 0x18A640, size: 0x8, addend: 0x0, symName: __ZNK5godot13MethodBindTRCINS_3RefI10SentryUserEEJEE21get_argument_metadataEi, symObjAddr: 0x8280, symBinAddr: 0x395C0, symSize: 0x10 }
  - { offset: 0x18A674, size: 0x8, addend: 0x0, symName: __ZNK5godot13MethodBindTRCINS_3RefI10SentryUserEEJEE4callEPvPKPKvxR20GDExtensionCallError, symObjAddr: 0x8290, symBinAddr: 0x395D0, symSize: 0x60 }
  - { offset: 0x18A779, size: 0x8, addend: 0x0, symName: __ZNK5godot13MethodBindTRCINS_3RefI10SentryUserEEJEE7ptrcallEPvPKPKvS5_, symObjAddr: 0x82F0, symBinAddr: 0x39630, symSize: 0x80 }
  - { offset: 0x18A902, size: 0x8, addend: 0x0, symName: __ZNK5godot13MethodBindTRCINS_3RefI10SentryUserEEJEE7ptrcallEPvPKPKvS5_.cold.1, symObjAddr: 0xAE80, symBinAddr: 0x11E0D0, symSize: 0x30 }
  - { offset: 0x18A97A, size: 0x8, addend: 0x0, symName: __ZN5godot13MethodBindTRCINS_3RefI10SentryUserEEJEED1Ev, symObjAddr: 0x8370, symBinAddr: 0x396B0, symSize: 0x10 }
  - { offset: 0x18A9D7, size: 0x8, addend: 0x0, symName: __ZN5godot13MethodBindTRCINS_3RefI10SentryUserEEJEED0Ev, symObjAddr: 0x8380, symBinAddr: 0x396C0, symSize: 0x20 }
  - { offset: 0x18AA43, size: 0x8, addend: 0x0, symName: __ZN5godot11GetTypeInfoINS_3RefI10SentryUserEEvE14get_class_infoEv.cold.1, symObjAddr: 0xAEB0, symBinAddr: 0x11E100, symSize: 0x60 }
  - { offset: 0x18AAE8, size: 0x8, addend: 0x0, symName: __ZN5godot18create_method_bindI9SentrySDKJEEEPNS_10MethodBindEMT_FvDpT0_E.cold.1, symObjAddr: 0xAF10, symBinAddr: 0x11E160, symSize: 0x60 }
  - { offset: 0x18AB17, size: 0x8, addend: 0x0, symName: __ZNK5godot11MethodBindTIJEE17gen_argument_typeEi, symObjAddr: 0x86C0, symBinAddr: 0x39A40, symSize: 0x10 }
  - { offset: 0x18AB4B, size: 0x8, addend: 0x0, symName: __ZNK5godot11MethodBindTIJEE22gen_argument_type_infoEi, symObjAddr: 0x86D0, symBinAddr: 0x39A50, symSize: 0x110 }
  - { offset: 0x18AC81, size: 0x8, addend: 0x0, symName: __ZNK5godot11MethodBindTIJEE21get_argument_metadataEi, symObjAddr: 0x87E0, symBinAddr: 0x39B60, symSize: 0x10 }
  - { offset: 0x18ACB5, size: 0x8, addend: 0x0, symName: __ZNK5godot11MethodBindTIJEE4callEPvPKPKvxR20GDExtensionCallError, symObjAddr: 0x87F0, symBinAddr: 0x39B70, symSize: 0xD0 }
  - { offset: 0x18ADAF, size: 0x8, addend: 0x0, symName: __ZNK5godot11MethodBindTIJEE7ptrcallEPvPKPKvS2_, symObjAddr: 0x8880, symBinAddr: 0x39C40, symSize: 0x20 }
  - { offset: 0x18AE8C, size: 0x8, addend: 0x0, symName: __ZN5godot11MethodBindTIJEED1Ev, symObjAddr: 0x88A0, symBinAddr: 0x39C60, symSize: 0x10 }
  - { offset: 0x18AEE9, size: 0x8, addend: 0x0, symName: __ZN5godot11MethodBindTIJEED0Ev, symObjAddr: 0x88B0, symBinAddr: 0x39C70, symSize: 0x20 }
  - { offset: 0x18AFB5, size: 0x8, addend: 0x0, symName: __ZN5godot18create_method_bindI9SentrySDKNS_3RefI11SentryEventEEJEEEPNS_10MethodBindEMT_KFT0_DpT1_E.cold.1, symObjAddr: 0xAF70, symBinAddr: 0x11E1C0, symSize: 0x60 }
  - { offset: 0x18AFE4, size: 0x8, addend: 0x0, symName: __ZNK5godot13MethodBindTRCINS_3RefI11SentryEventEEJEE17gen_argument_typeEi, symObjAddr: 0x8A00, symBinAddr: 0x39DC0, symSize: 0x10 }
  - { offset: 0x18B018, size: 0x8, addend: 0x0, symName: __ZNK5godot13MethodBindTRCINS_3RefI11SentryEventEEJEE22gen_argument_type_infoEi, symObjAddr: 0x8A10, symBinAddr: 0x39DD0, symSize: 0x20 }
  - { offset: 0x18B067, size: 0x8, addend: 0x0, symName: __ZN5godot11GetTypeInfoINS_3RefI11SentryEventEEvE14get_class_infoEv, symObjAddr: 0x8B50, symBinAddr: 0x39F10, symSize: 0x140 }
  - { offset: 0x18B129, size: 0x8, addend: 0x0, symName: __ZNK5godot13MethodBindTRCINS_3RefI11SentryEventEEJEE21get_argument_metadataEi, symObjAddr: 0x8A30, symBinAddr: 0x39DF0, symSize: 0x10 }
  - { offset: 0x18B15D, size: 0x8, addend: 0x0, symName: __ZNK5godot13MethodBindTRCINS_3RefI11SentryEventEEJEE4callEPvPKPKvxR20GDExtensionCallError, symObjAddr: 0x8A40, symBinAddr: 0x39E00, symSize: 0x60 }
  - { offset: 0x18B2AC, size: 0x8, addend: 0x0, symName: __ZNK5godot13MethodBindTRCINS_3RefI11SentryEventEEJEE7ptrcallEPvPKPKvS5_, symObjAddr: 0x8AA0, symBinAddr: 0x39E60, symSize: 0x80 }
  - { offset: 0x18B435, size: 0x8, addend: 0x0, symName: __ZNK5godot13MethodBindTRCINS_3RefI11SentryEventEEJEE7ptrcallEPvPKPKvS5_.cold.1, symObjAddr: 0xAFD0, symBinAddr: 0x11E220, symSize: 0x30 }
  - { offset: 0x18B4AD, size: 0x8, addend: 0x0, symName: __ZN5godot13MethodBindTRCINS_3RefI11SentryEventEEJEED1Ev, symObjAddr: 0x8B20, symBinAddr: 0x39EE0, symSize: 0x10 }
  - { offset: 0x18B50A, size: 0x8, addend: 0x0, symName: __ZN5godot13MethodBindTRCINS_3RefI11SentryEventEEJEED0Ev, symObjAddr: 0x8B30, symBinAddr: 0x39EF0, symSize: 0x20 }
  - { offset: 0x18B57D, size: 0x8, addend: 0x0, symName: __ZN5godot11GetTypeInfoINS_3RefI11SentryEventEEvE14get_class_infoEv.cold.1, symObjAddr: 0xB000, symBinAddr: 0x11E250, symSize: 0x60 }
  - { offset: 0x18B622, size: 0x8, addend: 0x0, symName: __ZN5godot18create_method_bindI9SentrySDKNS_6StringEJRKNS_3RefI11SentryEventEEEEEPNS_10MethodBindEMT_FT0_DpT1_E.cold.1, symObjAddr: 0xB060, symBinAddr: 0x11E2B0, symSize: 0x60 }
  - { offset: 0x18B651, size: 0x8, addend: 0x0, symName: __ZNK5godot12MethodBindTRINS_6StringEJRKNS_3RefI11SentryEventEEEE17gen_argument_typeEi, symObjAddr: 0x8E80, symBinAddr: 0x3A280, symSize: 0x20 }
  - { offset: 0x18B685, size: 0x8, addend: 0x0, symName: __ZNK5godot12MethodBindTRINS_6StringEJRKNS_3RefI11SentryEventEEEE22gen_argument_type_infoEi, symObjAddr: 0x8EA0, symBinAddr: 0x3A2A0, symSize: 0x160 }
  - { offset: 0x18B81C, size: 0x8, addend: 0x0, symName: __ZNK5godot12MethodBindTRINS_6StringEJRKNS_3RefI11SentryEventEEEE21get_argument_metadataEi, symObjAddr: 0x9010, symBinAddr: 0x3A400, symSize: 0x10 }
  - { offset: 0x18B850, size: 0x8, addend: 0x0, symName: __ZNK5godot12MethodBindTRINS_6StringEJRKNS_3RefI11SentryEventEEEE4callEPvPKPKvxR20GDExtensionCallError, symObjAddr: 0x9020, symBinAddr: 0x3A410, symSize: 0x60 }
  - { offset: 0x18B916, size: 0x8, addend: 0x0, symName: __ZNK5godot12MethodBindTRINS_6StringEJRKNS_3RefI11SentryEventEEEE7ptrcallEPvPKPKvS8_, symObjAddr: 0x9080, symBinAddr: 0x3A470, symSize: 0x20 }
  - { offset: 0x18B9ED, size: 0x8, addend: 0x0, symName: __ZN5godot12MethodBindTRINS_6StringEJRKNS_3RefI11SentryEventEEEED1Ev, symObjAddr: 0x90A0, symBinAddr: 0x3A490, symSize: 0x10 }
  - { offset: 0x18BA4A, size: 0x8, addend: 0x0, symName: __ZN5godot12MethodBindTRINS_6StringEJRKNS_3RefI11SentryEventEEEED0Ev, symObjAddr: 0x90B0, symBinAddr: 0x3A4A0, symSize: 0x20 }
  - { offset: 0x18BAB6, size: 0x8, addend: 0x0, symName: __ZN5godot11GetTypeInfoIRKNS_3RefI11SentryEventEEvE14get_class_infoEv, symObjAddr: 0x9190, symBinAddr: 0x3A580, symSize: 0x140 }
  - { offset: 0x18BB78, size: 0x8, addend: 0x0, symName: __ZN5godot11GetTypeInfoIRKNS_3RefI11SentryEventEEvE14get_class_infoEv.cold.1, symObjAddr: 0xB0C0, symBinAddr: 0x11E310, symSize: 0x60 }
  - { offset: 0x18BC1D, size: 0x8, addend: 0x0, symName: __ZN5godot6Object7cast_toI11SentryEventEEPT_PS0_, symObjAddr: 0x94D0, symBinAddr: 0x3A960, symSize: 0xE0 }
  - { offset: 0x18BCBB, size: 0x8, addend: 0x0, symName: __ZN5godot6Object7cast_toI11SentryEventEEPT_PS0_.cold.1, symObjAddr: 0xB120, symBinAddr: 0x11E370, symSize: 0x60 }
  - { offset: 0x18BD9E, size: 0x8, addend: 0x0, symName: __ZN5godot18create_method_bindI9SentrySDKJRKNS_8CallableEEEEPNS_10MethodBindEMT_FvDpT0_E.cold.1, symObjAddr: 0xB180, symBinAddr: 0x11E3D0, symSize: 0x5B }
  - { offset: 0x18BDCD, size: 0x8, addend: 0x0, symName: __ZNK5godot33CallableCustomStaticMethodPointerIJEE10get_objectEv, symObjAddr: 0x9CF0, symBinAddr: 0x3AC50, symSize: 0x10 }
  - { offset: 0x18BDF2, size: 0x8, addend: 0x0, symName: __ZNK5godot33CallableCustomStaticMethodPointerIJEE18get_argument_countERb, symObjAddr: 0x9D00, symBinAddr: 0x3AC60, symSize: 0x10 }
  - { offset: 0x18BE25, size: 0x8, addend: 0x0, symName: __ZNK5godot33CallableCustomStaticMethodPointerIJEE4callEPPKNS_7VariantEiRS2_R20GDExtensionCallError, symObjAddr: 0x9D10, symBinAddr: 0x3AC70, symSize: 0x80 }
  - { offset: 0x18BEF5, size: 0x8, addend: 0x0, symName: __ZN5godot33CallableCustomStaticMethodPointerIJEED1Ev, symObjAddr: 0x9D80, symBinAddr: 0x3ACF0, symSize: 0x10 }
  - { offset: 0x18BF20, size: 0x8, addend: 0x0, symName: __ZN5godot33CallableCustomStaticMethodPointerIJEED0Ev, symObjAddr: 0x9D90, symBinAddr: 0x3AD00, symSize: 0x10 }
  - { offset: 0x18BF4B, size: 0x8, addend: 0x0, symName: __ZNK5godot27CallableCustomMethodPointerI9SentrySDKJEE10get_objectEv, symObjAddr: 0x9DA0, symBinAddr: 0x3AD10, symSize: 0x10 }
  - { offset: 0x18BF72, size: 0x8, addend: 0x0, symName: __ZNK5godot27CallableCustomMethodPointerI9SentrySDKJEE18get_argument_countERb, symObjAddr: 0x9DB0, symBinAddr: 0x3AD20, symSize: 0x10 }
  - { offset: 0x18BFA5, size: 0x8, addend: 0x0, symName: __ZNK5godot27CallableCustomMethodPointerI9SentrySDKJEE4callEPPKNS_7VariantEiRS3_R20GDExtensionCallError, symObjAddr: 0x9DC0, symBinAddr: 0x3AD30, symSize: 0x40 }
  - { offset: 0x18C067, size: 0x8, addend: 0x0, symName: __ZN5godot27CallableCustomMethodPointerI9SentrySDKJEED1Ev, symObjAddr: 0x9DF0, symBinAddr: 0x3AD70, symSize: 0x10 }
  - { offset: 0x18C092, size: 0x8, addend: 0x0, symName: __ZN5godot27CallableCustomMethodPointerI9SentrySDKJEED0Ev, symObjAddr: 0x9E00, symBinAddr: 0x3AD80, symSize: 0x10 }
  - { offset: 0x190124, size: 0x8, addend: 0x0, symName: __ZN5godot18create_method_bindI10SentryUserJRKNS_6StringEEEEPNS_10MethodBindEMT_FvDpT0_E, symObjAddr: 0x1910, symBinAddr: 0x3C1F0, symSize: 0x120 }
  - { offset: 0x190285, size: 0x8, addend: 0x0, symName: __ZN5godot18create_method_bindI10SentryUserNS_6StringEJEEEPNS_10MethodBindEMT_KFT0_DpT1_E, symObjAddr: 0x1F10, symBinAddr: 0x3C310, symSize: 0x130 }
  - { offset: 0x1903D4, size: 0x8, addend: 0x0, symName: __ZN5godot18create_method_bindI10SentryUserJEEEPNS_10MethodBindEMT_FvDpT0_E, symObjAddr: 0x22D0, symBinAddr: 0x3C440, symSize: 0x110 }
  - { offset: 0x19051A, size: 0x8, addend: 0x0, symName: __ZN5godot18create_method_bindI10SentryUserbJEEEPNS_10MethodBindEMT_KFT0_DpT1_E, symObjAddr: 0x25F0, symBinAddr: 0x3C550, symSize: 0x130 }
  - { offset: 0x19D173, size: 0x8, addend: 0x0, symName: ___cxx_global_var_init, symObjAddr: 0x2F00, symBinAddr: 0x3C680, symSize: 0x40 }
  - { offset: 0x19D1FA, size: 0x8, addend: 0x0, symName: ___cxx_global_var_init.1, symObjAddr: 0x2F40, symBinAddr: 0x3C6C0, symSize: 0x40 }
  - { offset: 0x19D281, size: 0x8, addend: 0x0, symName: ___cxx_global_var_init.2, symObjAddr: 0x2F80, symBinAddr: 0x3C700, symSize: 0x3A }
  - { offset: 0x19D2CF, size: 0x8, addend: 0x0, symName: __ZNK10SentryUser8is_emptyEv, symObjAddr: 0x0, symBinAddr: 0x3B010, symSize: 0x50 }
  - { offset: 0x19D2F8, size: 0x8, addend: 0x0, symName: __ZNK10SentryUser10_to_stringEv, symObjAddr: 0x50, symBinAddr: 0x3B060, symSize: 0x1B0 }
  - { offset: 0x19D3C1, size: 0x8, addend: 0x0, symName: __ZN10SentryUser15generate_new_idEv, symObjAddr: 0x200, symBinAddr: 0x3B210, symSize: 0x60 }
  - { offset: 0x19D928, size: 0x8, addend: 0x0, symName: __ZN10SentryUser13_bind_methodsEv, symObjAddr: 0x260, symBinAddr: 0x3B270, symSize: 0xEA0 }
  - { offset: 0x19FE66, size: 0x8, addend: 0x0, symName: __ZN10SentryUser13_bind_methodsEv.cold.1, symObjAddr: 0x2960, symBinAddr: 0x11E430, symSize: 0x60 }
  - { offset: 0x19FE94, size: 0x8, addend: 0x0, symName: __ZN10SentryUser13_bind_methodsEv.cold.2, symObjAddr: 0x29C0, symBinAddr: 0x11E490, symSize: 0x60 }
  - { offset: 0x19FEC2, size: 0x8, addend: 0x0, symName: __ZN10SentryUser13_bind_methodsEv.cold.3, symObjAddr: 0x2A20, symBinAddr: 0x11E4F0, symSize: 0x60 }
  - { offset: 0x19FEF0, size: 0x8, addend: 0x0, symName: __ZN10SentryUser13_bind_methodsEv.cold.4, symObjAddr: 0x2A80, symBinAddr: 0x11E550, symSize: 0x60 }
  - { offset: 0x19FF1E, size: 0x8, addend: 0x0, symName: __ZN10SentryUser6set_idERKN5godot6StringE, symObjAddr: 0x12B0, symBinAddr: 0x3C110, symSize: 0x10 }
  - { offset: 0x19FF53, size: 0x8, addend: 0x0, symName: __ZNK10SentryUser6get_idEv, symObjAddr: 0x12C0, symBinAddr: 0x3C120, symSize: 0x20 }
  - { offset: 0x19FF7A, size: 0x8, addend: 0x0, symName: __ZN10SentryUser12set_usernameERKN5godot6StringE, symObjAddr: 0x12E0, symBinAddr: 0x3C140, symSize: 0x10 }
  - { offset: 0x19FFAF, size: 0x8, addend: 0x0, symName: __ZNK10SentryUser12get_usernameEv, symObjAddr: 0x12F0, symBinAddr: 0x3C150, symSize: 0x20 }
  - { offset: 0x19FFD6, size: 0x8, addend: 0x0, symName: __ZN10SentryUser9set_emailERKN5godot6StringE, symObjAddr: 0x1310, symBinAddr: 0x3C170, symSize: 0x10 }
  - { offset: 0x1A000B, size: 0x8, addend: 0x0, symName: __ZNK10SentryUser9get_emailEv, symObjAddr: 0x1320, symBinAddr: 0x3C180, symSize: 0x20 }
  - { offset: 0x1A0032, size: 0x8, addend: 0x0, symName: __ZN10SentryUser14set_ip_addressERKN5godot6StringE, symObjAddr: 0x1340, symBinAddr: 0x3C1A0, symSize: 0x10 }
  - { offset: 0x1A0067, size: 0x8, addend: 0x0, symName: __ZNK10SentryUser14get_ip_addressEv, symObjAddr: 0x1350, symBinAddr: 0x3C1B0, symSize: 0x20 }
  - { offset: 0x1A008E, size: 0x8, addend: 0x0, symName: __ZN10SentryUser16infer_ip_addressEv, symObjAddr: 0x1370, symBinAddr: 0x3C1D0, symSize: 0x20 }
  - { offset: 0x1A00BC, size: 0x8, addend: 0x0, symName: __ZN5godot8internal23EngineClassRegistrationINS_6ObjectEE8callbackEv.cold.1, symObjAddr: 0x2AE0, symBinAddr: 0x11E5B0, symSize: 0x60 }
  - { offset: 0x1A0157, size: 0x8, addend: 0x0, symName: __ZN5godot6ObjectD1Ev.cold.1, symObjAddr: 0x2B40, symBinAddr: 0x11E610, symSize: 0x30 }
  - { offset: 0x1A01E2, size: 0x8, addend: 0x0, symName: __ZN5godot6ObjectD0Ev.cold.1, symObjAddr: 0x2B70, symBinAddr: 0x11E640, symSize: 0x30 }
  - { offset: 0x1A0269, size: 0x8, addend: 0x0, symName: __ZN5godot7WrappedD1Ev.cold.1, symObjAddr: 0x2BA0, symBinAddr: 0x11E670, symSize: 0x30 }
  - { offset: 0x1A02DE, size: 0x8, addend: 0x0, symName: __ZN5godot7WrappedD0Ev.cold.1, symObjAddr: 0x2BD0, symBinAddr: 0x11E6A0, symSize: 0x30 }
  - { offset: 0x1A034F, size: 0x8, addend: 0x0, symName: __ZN5godot4ListINS_12PropertyInfoENS_16DefaultAllocatorEE5_Data5eraseEPNS3_7ElementE.cold.2, symObjAddr: 0x2C30, symBinAddr: 0x11E700, symSize: 0x30 }
  - { offset: 0x1A0367, size: 0x8, addend: 0x0, symName: __ZN5godot4ListINS_12PropertyInfoENS_16DefaultAllocatorEE5_Data5eraseEPNS3_7ElementE.cold.1, symObjAddr: 0x2C00, symBinAddr: 0x11E6D0, symSize: 0x30 }
  - { offset: 0x1A0386, size: 0x8, addend: 0x0, symName: __ZN5godot8internal23EngineClassRegistrationINS_16ClassDBSingletonEE8callbackEv.cold.1, symObjAddr: 0x2C60, symBinAddr: 0x11E730, symSize: 0x60 }
  - { offset: 0x1A03BB, size: 0x8, addend: 0x0, symName: __ZN5godot8internal23EngineClassRegistrationINS_10RefCountedEE8callbackEv.cold.1, symObjAddr: 0x2CC0, symBinAddr: 0x11E790, symSize: 0x60 }
  - { offset: 0x1A0405, size: 0x8, addend: 0x0, symName: __ZN5godot10RefCountedD1Ev.cold.1, symObjAddr: 0x2D20, symBinAddr: 0x11E7F0, symSize: 0x30 }
  - { offset: 0x1A04A8, size: 0x8, addend: 0x0, symName: __ZN5godot10RefCountedD0Ev.cold.1, symObjAddr: 0x2D50, symBinAddr: 0x11E820, symSize: 0x30 }
  - { offset: 0x1A061B, size: 0x8, addend: 0x0, symName: __ZN5godot18create_method_bindI10SentryUserJRKNS_6StringEEEEPNS_10MethodBindEMT_FvDpT0_E.cold.1, symObjAddr: 0x2D80, symBinAddr: 0x11E850, symSize: 0x60 }
  - { offset: 0x1A06AF, size: 0x8, addend: 0x0, symName: __ZN5godot18create_method_bindI10SentryUserNS_6StringEJEEEPNS_10MethodBindEMT_KFT0_DpT1_E.cold.1, symObjAddr: 0x2DE0, symBinAddr: 0x11E8B0, symSize: 0x60 }
  - { offset: 0x1A073E, size: 0x8, addend: 0x0, symName: __ZN5godot18create_method_bindI10SentryUserJEEEPNS_10MethodBindEMT_FvDpT0_E.cold.1, symObjAddr: 0x2E40, symBinAddr: 0x11E910, symSize: 0x60 }
  - { offset: 0x1A07CD, size: 0x8, addend: 0x0, symName: __ZN5godot18create_method_bindI10SentryUserbJEEEPNS_10MethodBindEMT_KFT0_DpT1_E.cold.1, symObjAddr: 0x2EA0, symBinAddr: 0x11E970, symSize: 0x5B }
  - { offset: 0x1AD30D, size: 0x8, addend: 0x0, symName: __ZN5godot22hash_table_size_primesE, symObjAddr: 0x6850, symBinAddr: 0x1AD950, symSize: 0x0 }
  - { offset: 0x1AD328, size: 0x8, addend: 0x0, symName: __ZN5godot26hash_table_size_primes_invE, symObjAddr: 0x68D0, symBinAddr: 0x1AD9D0, symSize: 0x0 }
  - { offset: 0x1AF376, size: 0x8, addend: 0x0, symName: __ZN5godot9DirAccess22_gde_binding_callbacksE, symObjAddr: 0x6518, symBinAddr: 0x1D8D80, symSize: 0x0 }
  - { offset: 0x1AF38A, size: 0x8, addend: 0x0, symName: __ZN5godot11Performance22_gde_binding_callbacksE, symObjAddr: 0x65B8, symBinAddr: 0x1D8DD8, symSize: 0x0 }
  - { offset: 0x1AF39E, size: 0x8, addend: 0x0, symName: __ZN5godot5Image22_gde_binding_callbacksE, symObjAddr: 0x6600, symBinAddr: 0x1D8DF0, symSize: 0x0 }
  - { offset: 0x1AF3B2, size: 0x8, addend: 0x0, symName: __ZN5godot32RDPipelineSpecializationConstant22_gde_binding_callbacksE, symObjAddr: 0x6678, symBinAddr: 0x1D8E68, symSize: 0x0 }
  - { offset: 0x1AF3C6, size: 0x8, addend: 0x0, symName: __ZN5godot15RenderingDevice22_gde_binding_callbacksE, symObjAddr: 0x66D0, symBinAddr: 0x1D8EC0, symSize: 0x0 }
  - { offset: 0x1AF3DA, size: 0x8, addend: 0x0, symName: __ZN5godot15RenderingServer22_gde_binding_callbacksE, symObjAddr: 0x6728, symBinAddr: 0x1D8F18, symSize: 0x0 }
  - { offset: 0x1AF3EE, size: 0x8, addend: 0x0, symName: __ZN5godot4Time22_gde_binding_callbacksE, symObjAddr: 0x6740, symBinAddr: 0x1D8F30, symSize: 0x0 }
  - { offset: 0x1AF446, size: 0x8, addend: 0x0, symName: __ZN6sentry8contexts19make_device_contextERKN5godot3RefI13RuntimeConfigEE, symObjAddr: 0x0, symBinAddr: 0x3C740, symSize: 0x8B0 }
  - { offset: 0x1AFACD, size: 0x8, addend: 0x0, symName: __ZN6sentry8contexts26make_device_context_updateEv, symObjAddr: 0x900, symBinAddr: 0x3D050, symSize: 0x310 }
  - { offset: 0x1AFD05, size: 0x8, addend: 0x0, symName: __ZN6sentry8contexts16make_app_contextEv, symObjAddr: 0xC40, symBinAddr: 0x3D360, symSize: 0x3C0 }
  - { offset: 0x1AFE9F, size: 0x8, addend: 0x0, symName: __ZN6sentry8contexts16make_gpu_contextEv, symObjAddr: 0x1000, symBinAddr: 0x3D720, symSize: 0x410 }
  - { offset: 0x1B0059, size: 0x8, addend: 0x0, symName: __ZN6sentry8contexts20make_culture_contextEv, symObjAddr: 0x1410, symBinAddr: 0x3DB30, symSize: 0x290 }
  - { offset: 0x1B01A8, size: 0x8, addend: 0x0, symName: __ZN6sentry8contexts20make_display_contextEv, symObjAddr: 0x16B0, symBinAddr: 0x3DDC0, symSize: 0x5B0 }
  - { offset: 0x1B04F8, size: 0x8, addend: 0x0, symName: __ZN6sentry8contexts25make_godot_engine_contextEv, symObjAddr: 0x1CD0, symBinAddr: 0x3E370, symSize: 0x490 }
  - { offset: 0x1B074F, size: 0x8, addend: 0x0, symName: __ZN6sentry8contexts24make_environment_contextEv, symObjAddr: 0x2160, symBinAddr: 0x3E800, symSize: 0x1B0 }
  - { offset: 0x1B0812, size: 0x8, addend: 0x0, symName: __ZN6sentry8contexts24make_performance_contextEv, symObjAddr: 0x2320, symBinAddr: 0x3E9B0, symSize: 0x6D0 }
  - { offset: 0x1B0B9D, size: 0x8, addend: 0x0, symName: __ZN6sentry8contexts19make_event_contextsEv, symObjAddr: 0x29F0, symBinAddr: 0x3F080, symSize: 0xE0 }
  - { offset: 0x1B0D9B, size: 0x8, addend: 0x0, symName: ___cxx_global_var_init, symObjAddr: 0x5420, symBinAddr: 0x3FFA0, symSize: 0x40 }
  - { offset: 0x1B0E22, size: 0x8, addend: 0x0, symName: ___cxx_global_var_init.1, symObjAddr: 0x5460, symBinAddr: 0x3FFE0, symSize: 0x40 }
  - { offset: 0x1B0EA9, size: 0x8, addend: 0x0, symName: ___cxx_global_var_init.2, symObjAddr: 0x54A0, symBinAddr: 0x40020, symSize: 0x40 }
  - { offset: 0x1B0F30, size: 0x8, addend: 0x0, symName: ___cxx_global_var_init.3, symObjAddr: 0x54E0, symBinAddr: 0x40060, symSize: 0x40 }
  - { offset: 0x1B0FB7, size: 0x8, addend: 0x0, symName: ___cxx_global_var_init.4, symObjAddr: 0x5520, symBinAddr: 0x400A0, symSize: 0x40 }
  - { offset: 0x1B103E, size: 0x8, addend: 0x0, symName: ___cxx_global_var_init.5, symObjAddr: 0x5560, symBinAddr: 0x400E0, symSize: 0x40 }
  - { offset: 0x1B10C5, size: 0x8, addend: 0x0, symName: ___cxx_global_var_init.6, symObjAddr: 0x55A0, symBinAddr: 0x40120, symSize: 0x40 }
  - { offset: 0x1B114C, size: 0x8, addend: 0x0, symName: ___cxx_global_var_init.7, symObjAddr: 0x55E0, symBinAddr: 0x40160, symSize: 0x40 }
  - { offset: 0x1B11D3, size: 0x8, addend: 0x0, symName: ___cxx_global_var_init.8, symObjAddr: 0x5620, symBinAddr: 0x401A0, symSize: 0x40 }
  - { offset: 0x1B125A, size: 0x8, addend: 0x0, symName: ___cxx_global_var_init.9, symObjAddr: 0x5660, symBinAddr: 0x401E0, symSize: 0x40 }
  - { offset: 0x1B12E1, size: 0x8, addend: 0x0, symName: ___cxx_global_var_init.10, symObjAddr: 0x56A0, symBinAddr: 0x40220, symSize: 0x40 }
  - { offset: 0x1B1368, size: 0x8, addend: 0x0, symName: ___cxx_global_var_init.11, symObjAddr: 0x56E0, symBinAddr: 0x40260, symSize: 0x40 }
  - { offset: 0x1B13EF, size: 0x8, addend: 0x0, symName: ___cxx_global_var_init.12, symObjAddr: 0x5720, symBinAddr: 0x402A0, symSize: 0x40 }
  - { offset: 0x1B1476, size: 0x8, addend: 0x0, symName: ___cxx_global_var_init.13, symObjAddr: 0x5760, symBinAddr: 0x402E0, symSize: 0x40 }
  - { offset: 0x1B14FD, size: 0x8, addend: 0x0, symName: ___cxx_global_var_init.14, symObjAddr: 0x57A0, symBinAddr: 0x40320, symSize: 0x40 }
  - { offset: 0x1B1584, size: 0x8, addend: 0x0, symName: ___cxx_global_var_init.15, symObjAddr: 0x57E0, symBinAddr: 0x40360, symSize: 0x40 }
  - { offset: 0x1B160B, size: 0x8, addend: 0x0, symName: ___cxx_global_var_init.16, symObjAddr: 0x5820, symBinAddr: 0x403A0, symSize: 0x3A }
  - { offset: 0x1B1853, size: 0x8, addend: 0x0, symName: __ZN6sentry8contexts19make_device_contextERKN5godot3RefI13RuntimeConfigEE.cold.3, symObjAddr: 0x45D0, symBinAddr: 0x11EA30, symSize: 0x30 }
  - { offset: 0x1B186B, size: 0x8, addend: 0x0, symName: __ZN6sentry8contexts19make_device_contextERKN5godot3RefI13RuntimeConfigEE.cold.2, symObjAddr: 0x45A0, symBinAddr: 0x11EA00, symSize: 0x30 }
  - { offset: 0x1B1883, size: 0x8, addend: 0x0, symName: __ZN6sentry8contexts19make_device_contextERKN5godot3RefI13RuntimeConfigEE.cold.1, symObjAddr: 0x4570, symBinAddr: 0x11E9D0, symSize: 0x30 }
  - { offset: 0x1B18C5, size: 0x8, addend: 0x0, symName: __ZN6sentry8contexts16make_app_contextEv.cold.3, symObjAddr: 0x46C0, symBinAddr: 0x11EAF0, symSize: 0x30 }
  - { offset: 0x1B18DD, size: 0x8, addend: 0x0, symName: __ZN6sentry8contexts16make_app_contextEv.cold.2, symObjAddr: 0x4690, symBinAddr: 0x11EAC0, symSize: 0x30 }
  - { offset: 0x1B18F5, size: 0x8, addend: 0x0, symName: __ZN6sentry8contexts16make_app_contextEv.cold.1, symObjAddr: 0x4660, symBinAddr: 0x11EA90, symSize: 0x30 }
  - { offset: 0x1B190D, size: 0x8, addend: 0x0, symName: __ZN6sentry8contexts16make_gpu_contextEv.cold.2, symObjAddr: 0x4740, symBinAddr: 0x11EB70, symSize: 0x50 }
  - { offset: 0x1B1925, size: 0x8, addend: 0x0, symName: __ZN6sentry8contexts16make_gpu_contextEv.cold.1, symObjAddr: 0x46F0, symBinAddr: 0x11EB20, symSize: 0x50 }
  - { offset: 0x1B193D, size: 0x8, addend: 0x0, symName: __ZN6sentry8contexts20make_culture_contextEv.cold.1, symObjAddr: 0x4790, symBinAddr: 0x11EBC0, symSize: 0x30 }
  - { offset: 0x1B197A, size: 0x8, addend: 0x0, symName: __ZN6sentry8contexts20make_display_contextEv.cold.1, symObjAddr: 0x47C0, symBinAddr: 0x11EBF0, symSize: 0x30 }
  - { offset: 0x1B19B2, size: 0x8, addend: 0x0, symName: __ZN6sentry8contexts25make_godot_engine_contextEv.cold.2, symObjAddr: 0x4850, symBinAddr: 0x11EC50, symSize: 0x30 }
  - { offset: 0x1B19CA, size: 0x8, addend: 0x0, symName: __ZN6sentry8contexts25make_godot_engine_contextEv.cold.1, symObjAddr: 0x4820, symBinAddr: 0x11EC20, symSize: 0x30 }
  - { offset: 0x1B19E2, size: 0x8, addend: 0x0, symName: __ZN6sentry8contexts24make_environment_contextEv.cold.1, symObjAddr: 0x4880, symBinAddr: 0x11EC80, symSize: 0x30 }
  - { offset: 0x1B1A1F, size: 0x8, addend: 0x0, symName: __ZN6sentry8contexts24make_performance_contextEv.cold.4, symObjAddr: 0x4940, symBinAddr: 0x11ED40, symSize: 0x30 }
  - { offset: 0x1B1A37, size: 0x8, addend: 0x0, symName: __ZN6sentry8contexts24make_performance_contextEv.cold.3, symObjAddr: 0x4910, symBinAddr: 0x11ED10, symSize: 0x30 }
  - { offset: 0x1B1A4F, size: 0x8, addend: 0x0, symName: __ZN6sentry8contexts24make_performance_contextEv.cold.2, symObjAddr: 0x48E0, symBinAddr: 0x11ECE0, symSize: 0x30 }
  - { offset: 0x1B1A67, size: 0x8, addend: 0x0, symName: __ZN6sentry8contexts24make_performance_contextEv.cold.1, symObjAddr: 0x48B0, symBinAddr: 0x11ECB0, symSize: 0x30 }
  - { offset: 0x1B1AB8, size: 0x8, addend: 0x0, symName: __ZN5godot7HashMapINS_6StringENS_10DictionaryENS_20HashMapHasherDefaultENS_24HashMapComparatorDefaultIS1_EENS_21DefaultTypedAllocatorINS_14HashMapElementIS1_S2_EEEEEixERKS1_, symObjAddr: 0x2AD0, symBinAddr: 0x3F160, symSize: 0x2B0 }
  - { offset: 0x1B23C4, size: 0x8, addend: 0x0, symName: __ZNK5godot7HashMapINS_6StringENS_10DictionaryENS_20HashMapHasherDefaultENS_24HashMapComparatorDefaultIS1_EENS_21DefaultTypedAllocatorINS_14HashMapElementIS1_S2_EEEEE11_lookup_posERKS1_Rj, symObjAddr: 0x4220, symBinAddr: 0x3FC50, symSize: 0x140 }
  - { offset: 0x1B25F6, size: 0x8, addend: 0x0, symName: __ZN5godot7HashMapINS_6StringENS_10DictionaryENS_20HashMapHasherDefaultENS_24HashMapComparatorDefaultIS1_EENS_21DefaultTypedAllocatorINS_14HashMapElementIS1_S2_EEEEE18_resize_and_rehashEj, symObjAddr: 0x4360, symBinAddr: 0x3FD90, symSize: 0x210 }
  - { offset: 0x1B28A1, size: 0x8, addend: 0x0, symName: __ZN5godot7HashMapINS_6StringENS_10DictionaryENS_20HashMapHasherDefaultENS_24HashMapComparatorDefaultIS1_EENS_21DefaultTypedAllocatorINS_14HashMapElementIS1_S2_EEEEEixERKS1_.cold.1, symObjAddr: 0x4970, symBinAddr: 0x11ED70, symSize: 0xB0 }
  - { offset: 0x1B28EA, size: 0x8, addend: 0x0, symName: __ZN5godot7HashMapINS_6StringENS_10DictionaryENS_20HashMapHasherDefaultENS_24HashMapComparatorDefaultIS1_EENS_21DefaultTypedAllocatorINS_14HashMapElementIS1_S2_EEEEEixERKS1_.cold.2, symObjAddr: 0x4A20, symBinAddr: 0x11EE20, symSize: 0x40 }
  - { offset: 0x1B2920, size: 0x8, addend: 0x0, symName: __ZN5godot8internal23EngineClassRegistrationINS_6ObjectEE8callbackEv.cold.1, symObjAddr: 0x4A60, symBinAddr: 0x11EE60, symSize: 0x60 }
  - { offset: 0x1B2AED, size: 0x8, addend: 0x0, symName: __ZN5godot6ObjectD1Ev.cold.1, symObjAddr: 0x4AC0, symBinAddr: 0x11EEC0, symSize: 0x30 }
  - { offset: 0x1B2B78, size: 0x8, addend: 0x0, symName: __ZN5godot6ObjectD0Ev.cold.1, symObjAddr: 0x4AF0, symBinAddr: 0x11EEF0, symSize: 0x30 }
  - { offset: 0x1B2BFF, size: 0x8, addend: 0x0, symName: __ZN5godot7WrappedD1Ev.cold.1, symObjAddr: 0x4B20, symBinAddr: 0x11EF20, symSize: 0x30 }
  - { offset: 0x1B2C74, size: 0x8, addend: 0x0, symName: __ZN5godot7WrappedD0Ev.cold.1, symObjAddr: 0x4B50, symBinAddr: 0x11EF50, symSize: 0x30 }
  - { offset: 0x1B2D55, size: 0x8, addend: 0x0, symName: __ZN5godot4ListINS_12PropertyInfoENS_16DefaultAllocatorEE5_Data5eraseEPNS3_7ElementE.cold.2, symObjAddr: 0x4BB0, symBinAddr: 0x11EFB0, symSize: 0x30 }
  - { offset: 0x1B2D6D, size: 0x8, addend: 0x0, symName: __ZN5godot4ListINS_12PropertyInfoENS_16DefaultAllocatorEE5_Data5eraseEPNS3_7ElementE.cold.1, symObjAddr: 0x4B80, symBinAddr: 0x11EF80, symSize: 0x30 }
  - { offset: 0x1B2D8C, size: 0x8, addend: 0x0, symName: __ZN5godot8internal23EngineClassRegistrationINS_16ClassDBSingletonEE8callbackEv.cold.1, symObjAddr: 0x4BE0, symBinAddr: 0x11EFE0, symSize: 0x60 }
  - { offset: 0x1B2DC1, size: 0x8, addend: 0x0, symName: __ZN5godot8internal23EngineClassRegistrationINS_10RefCountedEE8callbackEv.cold.1, symObjAddr: 0x4C40, symBinAddr: 0x11F040, symSize: 0x60 }
  - { offset: 0x1B2E30, size: 0x8, addend: 0x0, symName: __ZN5godot10RefCountedD1Ev.cold.1, symObjAddr: 0x4CA0, symBinAddr: 0x11F0A0, symSize: 0x30 }
  - { offset: 0x1B2ED3, size: 0x8, addend: 0x0, symName: __ZN5godot10RefCountedD0Ev.cold.1, symObjAddr: 0x4CD0, symBinAddr: 0x11F0D0, symSize: 0x30 }
  - { offset: 0x1B2F77, size: 0x8, addend: 0x0, symName: __ZN5godot8internal23EngineClassRegistrationINS_10ConfigFileEE8callbackEv.cold.1, symObjAddr: 0x4D00, symBinAddr: 0x11F100, symSize: 0x60 }
  - { offset: 0x1B2FC1, size: 0x8, addend: 0x0, symName: __ZN5godot10ConfigFileD1Ev.cold.1, symObjAddr: 0x4D60, symBinAddr: 0x11F160, symSize: 0x30 }
  - { offset: 0x1B307A, size: 0x8, addend: 0x0, symName: __ZN5godot10ConfigFileD0Ev.cold.1, symObjAddr: 0x4D90, symBinAddr: 0x11F190, symSize: 0x30 }
  - { offset: 0x1B3134, size: 0x8, addend: 0x0, symName: __ZN5godot8internal23EngineClassRegistrationINS_6LoggerEE8callbackEv.cold.1, symObjAddr: 0x4DC0, symBinAddr: 0x11F1C0, symSize: 0x60 }
  - { offset: 0x1B3169, size: 0x8, addend: 0x0, symName: __ZN5godot8internal23EngineClassRegistrationINS_9DirAccessEE8callbackEv, symObjAddr: 0x3560, symBinAddr: 0x3F410, symSize: 0x30 }
  - { offset: 0x1B31B5, size: 0x8, addend: 0x0, symName: __ZN5godot8internal23EngineClassRegistrationINS_9DirAccessEE8callbackEv.cold.1, symObjAddr: 0x4E20, symBinAddr: 0x11F220, symSize: 0x60 }
  - { offset: 0x1B322D, size: 0x8, addend: 0x0, symName: __ZN5godot9DirAccess28_gde_binding_create_callbackEPvS1_, symObjAddr: 0x35A0, symBinAddr: 0x3F440, symSize: 0x40 }
  - { offset: 0x1B32FA, size: 0x8, addend: 0x0, symName: __ZN5godot9DirAccess26_gde_binding_free_callbackEPvS1_S1_, symObjAddr: 0x35E0, symBinAddr: 0x3F480, symSize: 0x30 }
  - { offset: 0x1B3354, size: 0x8, addend: 0x0, symName: __ZN5godot9DirAccess31_gde_binding_reference_callbackEPvS1_h, symObjAddr: 0x3610, symBinAddr: 0x3F4B0, symSize: 0x10 }
  - { offset: 0x1B33AF, size: 0x8, addend: 0x0, symName: __ZN5godot9DirAccessD1Ev, symObjAddr: 0x3620, symBinAddr: 0x3F4C0, symSize: 0x70 }
  - { offset: 0x1B3566, size: 0x8, addend: 0x0, symName: __ZN5godot9DirAccessD1Ev.cold.1, symObjAddr: 0x4E80, symBinAddr: 0x11F280, symSize: 0x30 }
  - { offset: 0x1B361F, size: 0x8, addend: 0x0, symName: __ZN5godot9DirAccessD0Ev, symObjAddr: 0x3690, symBinAddr: 0x3F530, symSize: 0x60 }
  - { offset: 0x1B377E, size: 0x8, addend: 0x0, symName: __ZN5godot9DirAccessD0Ev.cold.1, symObjAddr: 0x4EB0, symBinAddr: 0x11F2B0, symSize: 0x30 }
  - { offset: 0x1B3838, size: 0x8, addend: 0x0, symName: __ZN5godot8internal23EngineClassRegistrationINS_13DisplayServerEE8callbackEv.cold.1, symObjAddr: 0x4EE0, symBinAddr: 0x11F2E0, symSize: 0x60 }
  - { offset: 0x1B386D, size: 0x8, addend: 0x0, symName: __ZN5godot8internal23EngineClassRegistrationINS_6EngineEE8callbackEv.cold.1, symObjAddr: 0x4F40, symBinAddr: 0x11F340, symSize: 0x60 }
  - { offset: 0x1B38A2, size: 0x8, addend: 0x0, symName: __ZN5godot8internal23EngineClassRegistrationINS_2OSEE8callbackEv.cold.1, symObjAddr: 0x4FA0, symBinAddr: 0x11F3A0, symSize: 0x60 }
  - { offset: 0x1B38D7, size: 0x8, addend: 0x0, symName: __ZN5godot8internal23EngineClassRegistrationINS_11PerformanceEE8callbackEv, symObjAddr: 0x3960, symBinAddr: 0x3F590, symSize: 0x30 }
  - { offset: 0x1B3923, size: 0x8, addend: 0x0, symName: __ZN5godot8internal23EngineClassRegistrationINS_11PerformanceEE8callbackEv.cold.1, symObjAddr: 0x5000, symBinAddr: 0x11F400, symSize: 0x60 }
  - { offset: 0x1B399B, size: 0x8, addend: 0x0, symName: __ZN5godot11Performance28_gde_binding_create_callbackEPvS1_, symObjAddr: 0x39A0, symBinAddr: 0x3F5C0, symSize: 0x50 }
  - { offset: 0x1B3A42, size: 0x8, addend: 0x0, symName: __ZN5godot11Performance26_gde_binding_free_callbackEPvS1_S1_, symObjAddr: 0x39F0, symBinAddr: 0x3F610, symSize: 0x30 }
  - { offset: 0x1B3A9C, size: 0x8, addend: 0x0, symName: __ZN5godot11Performance31_gde_binding_reference_callbackEPvS1_h, symObjAddr: 0x3A20, symBinAddr: 0x3F640, symSize: 0x10 }
  - { offset: 0x1B3AE2, size: 0x8, addend: 0x0, symName: __ZN5godot8internal23EngineClassRegistrationINS_15ProjectSettingsEE8callbackEv.cold.1, symObjAddr: 0x5060, symBinAddr: 0x11F460, symSize: 0x60 }
  - { offset: 0x1B3B17, size: 0x8, addend: 0x0, symName: __ZN5godot8internal23EngineClassRegistrationINS_8ResourceEE8callbackEv.cold.1, symObjAddr: 0x50C0, symBinAddr: 0x11F4C0, symSize: 0x60 }
  - { offset: 0x1B3B71, size: 0x8, addend: 0x0, symName: __ZN5godot8internal23EngineClassRegistrationINS_5ImageEE8callbackEv, symObjAddr: 0x3BD0, symBinAddr: 0x3F650, symSize: 0x30 }
  - { offset: 0x1B3BBD, size: 0x8, addend: 0x0, symName: __ZN5godot8internal23EngineClassRegistrationINS_5ImageEE8callbackEv.cold.1, symObjAddr: 0x5120, symBinAddr: 0x11F520, symSize: 0x60 }
  - { offset: 0x1B3C35, size: 0x8, addend: 0x0, symName: __ZN5godot5Image28_gde_binding_create_callbackEPvS1_, symObjAddr: 0x3C10, symBinAddr: 0x3F680, symSize: 0x40 }
  - { offset: 0x1B3D28, size: 0x8, addend: 0x0, symName: __ZN5godot5Image26_gde_binding_free_callbackEPvS1_S1_, symObjAddr: 0x3C50, symBinAddr: 0x3F6C0, symSize: 0x30 }
  - { offset: 0x1B3D82, size: 0x8, addend: 0x0, symName: __ZN5godot5Image31_gde_binding_reference_callbackEPvS1_h, symObjAddr: 0x3C80, symBinAddr: 0x3F6F0, symSize: 0x10 }
  - { offset: 0x1B3DF9, size: 0x8, addend: 0x0, symName: __ZN5godot5ImageD1Ev, symObjAddr: 0x3C90, symBinAddr: 0x3F700, symSize: 0x70 }
  - { offset: 0x1B3FC8, size: 0x8, addend: 0x0, symName: __ZN5godot5ImageD1Ev.cold.1, symObjAddr: 0x5180, symBinAddr: 0x11F580, symSize: 0x30 }
  - { offset: 0x1B4097, size: 0x8, addend: 0x0, symName: __ZN5godot5ImageD0Ev, symObjAddr: 0x3D00, symBinAddr: 0x3F770, symSize: 0x60 }
  - { offset: 0x1B420E, size: 0x8, addend: 0x0, symName: __ZN5godot5ImageD0Ev.cold.1, symObjAddr: 0x51B0, symBinAddr: 0x11F5B0, symSize: 0x30 }
  - { offset: 0x1B42DE, size: 0x8, addend: 0x0, symName: __ZN5godot8internal23EngineClassRegistrationINS_32RDPipelineSpecializationConstantEE8callbackEv, symObjAddr: 0x3D60, symBinAddr: 0x3F7D0, symSize: 0x30 }
  - { offset: 0x1B432A, size: 0x8, addend: 0x0, symName: __ZN5godot8internal23EngineClassRegistrationINS_32RDPipelineSpecializationConstantEE8callbackEv.cold.1, symObjAddr: 0x51E0, symBinAddr: 0x11F5E0, symSize: 0x60 }
  - { offset: 0x1B43A2, size: 0x8, addend: 0x0, symName: __ZN5godot32RDPipelineSpecializationConstant28_gde_binding_create_callbackEPvS1_, symObjAddr: 0x3DA0, symBinAddr: 0x3F800, symSize: 0x40 }
  - { offset: 0x1B446F, size: 0x8, addend: 0x0, symName: __ZN5godot32RDPipelineSpecializationConstant26_gde_binding_free_callbackEPvS1_S1_, symObjAddr: 0x3DE0, symBinAddr: 0x3F840, symSize: 0x30 }
  - { offset: 0x1B44C9, size: 0x8, addend: 0x0, symName: __ZN5godot32RDPipelineSpecializationConstant31_gde_binding_reference_callbackEPvS1_h, symObjAddr: 0x3E10, symBinAddr: 0x3F870, symSize: 0x10 }
  - { offset: 0x1B4524, size: 0x8, addend: 0x0, symName: __ZN5godot32RDPipelineSpecializationConstantD1Ev, symObjAddr: 0x3E20, symBinAddr: 0x3F880, symSize: 0x70 }
  - { offset: 0x1B46DB, size: 0x8, addend: 0x0, symName: __ZN5godot32RDPipelineSpecializationConstantD1Ev.cold.1, symObjAddr: 0x5240, symBinAddr: 0x11F640, symSize: 0x30 }
  - { offset: 0x1B4794, size: 0x8, addend: 0x0, symName: __ZN5godot32RDPipelineSpecializationConstantD0Ev, symObjAddr: 0x3E90, symBinAddr: 0x3F8F0, symSize: 0x60 }
  - { offset: 0x1B48F3, size: 0x8, addend: 0x0, symName: __ZN5godot32RDPipelineSpecializationConstantD0Ev.cold.1, symObjAddr: 0x5270, symBinAddr: 0x11F670, symSize: 0x30 }
  - { offset: 0x1B49AD, size: 0x8, addend: 0x0, symName: __ZN5godot8internal23EngineClassRegistrationINS_15RenderingDeviceEE8callbackEv, symObjAddr: 0x3EF0, symBinAddr: 0x3F950, symSize: 0x30 }
  - { offset: 0x1B49F9, size: 0x8, addend: 0x0, symName: __ZN5godot8internal23EngineClassRegistrationINS_15RenderingDeviceEE8callbackEv.cold.1, symObjAddr: 0x52A0, symBinAddr: 0x11F6A0, symSize: 0x60 }
  - { offset: 0x1B4A71, size: 0x8, addend: 0x0, symName: __ZN5godot15RenderingDevice28_gde_binding_create_callbackEPvS1_, symObjAddr: 0x3F30, symBinAddr: 0x3F980, symSize: 0x40 }
  - { offset: 0x1B4B18, size: 0x8, addend: 0x0, symName: __ZN5godot15RenderingDevice26_gde_binding_free_callbackEPvS1_S1_, symObjAddr: 0x3F70, symBinAddr: 0x3F9C0, symSize: 0x30 }
  - { offset: 0x1B4B72, size: 0x8, addend: 0x0, symName: __ZN5godot15RenderingDevice31_gde_binding_reference_callbackEPvS1_h, symObjAddr: 0x3FA0, symBinAddr: 0x3F9F0, symSize: 0x10 }
  - { offset: 0x1B4BCD, size: 0x8, addend: 0x0, symName: __ZN5godot15RenderingDeviceD1Ev, symObjAddr: 0x3FB0, symBinAddr: 0x3FA00, symSize: 0x70 }
  - { offset: 0x1B4D6C, size: 0x8, addend: 0x0, symName: __ZN5godot15RenderingDeviceD1Ev.cold.1, symObjAddr: 0x5300, symBinAddr: 0x11F700, symSize: 0x30 }
  - { offset: 0x1B4E0F, size: 0x8, addend: 0x0, symName: __ZN5godot15RenderingDeviceD0Ev, symObjAddr: 0x4020, symBinAddr: 0x3FA70, symSize: 0x60 }
  - { offset: 0x1B4F56, size: 0x8, addend: 0x0, symName: __ZN5godot15RenderingDeviceD0Ev.cold.1, symObjAddr: 0x5330, symBinAddr: 0x11F730, symSize: 0x30 }
  - { offset: 0x1B4FFA, size: 0x8, addend: 0x0, symName: __ZN5godot8internal23EngineClassRegistrationINS_15RenderingServerEE8callbackEv, symObjAddr: 0x4080, symBinAddr: 0x3FAD0, symSize: 0x30 }
  - { offset: 0x1B5046, size: 0x8, addend: 0x0, symName: __ZN5godot8internal23EngineClassRegistrationINS_15RenderingServerEE8callbackEv.cold.1, symObjAddr: 0x5360, symBinAddr: 0x11F760, symSize: 0x60 }
  - { offset: 0x1B50BE, size: 0x8, addend: 0x0, symName: __ZN5godot15RenderingServer28_gde_binding_create_callbackEPvS1_, symObjAddr: 0x40C0, symBinAddr: 0x3FB00, symSize: 0x50 }
  - { offset: 0x1B5165, size: 0x8, addend: 0x0, symName: __ZN5godot15RenderingServer26_gde_binding_free_callbackEPvS1_S1_, symObjAddr: 0x4110, symBinAddr: 0x3FB50, symSize: 0x30 }
  - { offset: 0x1B51BF, size: 0x8, addend: 0x0, symName: __ZN5godot15RenderingServer31_gde_binding_reference_callbackEPvS1_h, symObjAddr: 0x4140, symBinAddr: 0x3FB80, symSize: 0x10 }
  - { offset: 0x1B5205, size: 0x8, addend: 0x0, symName: __ZN5godot8internal23EngineClassRegistrationINS_4TimeEE8callbackEv, symObjAddr: 0x4150, symBinAddr: 0x3FB90, symSize: 0x30 }
  - { offset: 0x1B5251, size: 0x8, addend: 0x0, symName: __ZN5godot8internal23EngineClassRegistrationINS_4TimeEE8callbackEv.cold.1, symObjAddr: 0x53C0, symBinAddr: 0x11F7C0, symSize: 0x5D }
  - { offset: 0x1B52C9, size: 0x8, addend: 0x0, symName: __ZN5godot4Time28_gde_binding_create_callbackEPvS1_, symObjAddr: 0x4190, symBinAddr: 0x3FBC0, symSize: 0x50 }
  - { offset: 0x1B5370, size: 0x8, addend: 0x0, symName: __ZN5godot4Time26_gde_binding_free_callbackEPvS1_S1_, symObjAddr: 0x41E0, symBinAddr: 0x3FC10, symSize: 0x30 }
  - { offset: 0x1B53CA, size: 0x8, addend: 0x0, symName: __ZN5godot4Time31_gde_binding_reference_callbackEPvS1_h, symObjAddr: 0x4210, symBinAddr: 0x3FC40, symSize: 0x10 }
  - { offset: 0x1B8C8D, size: 0x8, addend: 0x0, symName: ___cxx_global_var_init, symObjAddr: 0xC50, symBinAddr: 0x40510, symSize: 0x40 }
  - { offset: 0x1B8D14, size: 0x8, addend: 0x0, symName: ___cxx_global_var_init.1, symObjAddr: 0xC90, symBinAddr: 0x40550, symSize: 0x40 }
  - { offset: 0x1B8D9B, size: 0x8, addend: 0x0, symName: ___cxx_global_var_init.2, symObjAddr: 0xCD0, symBinAddr: 0x40590, symSize: 0x40 }
  - { offset: 0x1B8E22, size: 0x8, addend: 0x0, symName: ___cxx_global_var_init.3, symObjAddr: 0xD10, symBinAddr: 0x405D0, symSize: 0x40 }
  - { offset: 0x1B8EA9, size: 0x8, addend: 0x0, symName: ___cxx_global_var_init.4, symObjAddr: 0xD50, symBinAddr: 0x40610, symSize: 0x3A }
  - { offset: 0x1B8F01, size: 0x8, addend: 0x0, symName: __ZN6sentry11environment24detect_godot_environmentEv, symObjAddr: 0x0, symBinAddr: 0x403E0, symSize: 0x130 }
  - { offset: 0x1B8F4E, size: 0x8, addend: 0x0, symName: __ZN6sentry11environment24detect_godot_environmentEv.cold.2, symObjAddr: 0x8A0, symBinAddr: 0x11F870, symSize: 0x50 }
  - { offset: 0x1B8F66, size: 0x8, addend: 0x0, symName: __ZN6sentry11environment24detect_godot_environmentEv.cold.1, symObjAddr: 0x850, symBinAddr: 0x11F820, symSize: 0x50 }
  - { offset: 0x1B8F85, size: 0x8, addend: 0x0, symName: __ZN5godot8internal23EngineClassRegistrationINS_6ObjectEE8callbackEv.cold.1, symObjAddr: 0x8F0, symBinAddr: 0x11F8C0, symSize: 0x60 }
  - { offset: 0x1B9020, size: 0x8, addend: 0x0, symName: __ZN5godot6ObjectD1Ev.cold.1, symObjAddr: 0x950, symBinAddr: 0x11F920, symSize: 0x30 }
  - { offset: 0x1B90AB, size: 0x8, addend: 0x0, symName: __ZN5godot6ObjectD0Ev.cold.1, symObjAddr: 0x980, symBinAddr: 0x11F950, symSize: 0x30 }
  - { offset: 0x1B9132, size: 0x8, addend: 0x0, symName: __ZN5godot7WrappedD1Ev.cold.1, symObjAddr: 0x9B0, symBinAddr: 0x11F980, symSize: 0x30 }
  - { offset: 0x1B91A7, size: 0x8, addend: 0x0, symName: __ZN5godot7WrappedD0Ev.cold.1, symObjAddr: 0x9E0, symBinAddr: 0x11F9B0, symSize: 0x30 }
  - { offset: 0x1B9218, size: 0x8, addend: 0x0, symName: __ZN5godot4ListINS_12PropertyInfoENS_16DefaultAllocatorEE5_Data5eraseEPNS3_7ElementE.cold.2, symObjAddr: 0xA40, symBinAddr: 0x11FA10, symSize: 0x30 }
  - { offset: 0x1B9230, size: 0x8, addend: 0x0, symName: __ZN5godot4ListINS_12PropertyInfoENS_16DefaultAllocatorEE5_Data5eraseEPNS3_7ElementE.cold.1, symObjAddr: 0xA10, symBinAddr: 0x11F9E0, symSize: 0x30 }
  - { offset: 0x1B924F, size: 0x8, addend: 0x0, symName: __ZN5godot8internal23EngineClassRegistrationINS_16ClassDBSingletonEE8callbackEv.cold.1, symObjAddr: 0xA70, symBinAddr: 0x11FA40, symSize: 0x60 }
  - { offset: 0x1B9284, size: 0x8, addend: 0x0, symName: __ZN5godot8internal23EngineClassRegistrationINS_6EngineEE8callbackEv.cold.1, symObjAddr: 0xAD0, symBinAddr: 0x11FAA0, symSize: 0x60 }
  - { offset: 0x1B92B9, size: 0x8, addend: 0x0, symName: __ZN5godot8internal23EngineClassRegistrationINS_10RefCountedEE8callbackEv.cold.1, symObjAddr: 0xB30, symBinAddr: 0x11FB00, symSize: 0x60 }
  - { offset: 0x1B9303, size: 0x8, addend: 0x0, symName: __ZN5godot10RefCountedD1Ev.cold.1, symObjAddr: 0xB90, symBinAddr: 0x11FB60, symSize: 0x30 }
  - { offset: 0x1B93A6, size: 0x8, addend: 0x0, symName: __ZN5godot10RefCountedD0Ev.cold.1, symObjAddr: 0xBC0, symBinAddr: 0x11FB90, symSize: 0x30 }
  - { offset: 0x1B944A, size: 0x8, addend: 0x0, symName: __ZN5godot8internal23EngineClassRegistrationINS_2OSEE8callbackEv.cold.1, symObjAddr: 0xBF0, symBinAddr: 0x11FBC0, symSize: 0x5D }
  - { offset: 0x1BB329, size: 0x8, addend: 0x0, symName: __ZN6sentry16level_as_cstringENS_5LevelE, symObjAddr: 0x0, symBinAddr: 0x40650, symSize: 0x40 }
  - { offset: 0x1BBEAD, size: 0x8, addend: 0x0, symName: __ZN6sentry16level_as_cstringENS_5LevelE, symObjAddr: 0x0, symBinAddr: 0x40650, symSize: 0x40 }
  - { offset: 0x1BBF23, size: 0x8, addend: 0x0, symName: __ZN6sentry24make_level_enum_propertyERKN5godot6StringE, symObjAddr: 0x40, symBinAddr: 0x40690, symSize: 0xC0 }
  - { offset: 0x1BDC3C, size: 0x8, addend: 0x0, symName: __ZN6sentry4uuid9make_uuidEv, symObjAddr: 0x0, symBinAddr: 0x40750, symSize: 0x18 }
  - { offset: 0x1D30F1, size: 0x8, addend: 0x0, symName: __ZN6sentry4uuid9make_uuidEv, symObjAddr: 0x0, symBinAddr: 0x40750, symSize: 0x18 }
  - { offset: 0x1D9DAA, size: 0x8, addend: 0x0, symName: __ZN5godot4JSON22_gde_binding_callbacksE, symObjAddr: 0x2DD8, symBinAddr: 0x1D8F48, symSize: 0x0 }
  - { offset: 0x1D9E0A, size: 0x8, addend: 0x0, symName: ___cxx_global_var_init, symObjAddr: 0x2640, symBinAddr: 0x41330, symSize: 0x40 }
  - { offset: 0x1D9E91, size: 0x8, addend: 0x0, symName: ___cxx_global_var_init.1, symObjAddr: 0x2680, symBinAddr: 0x41370, symSize: 0x40 }
  - { offset: 0x1D9F18, size: 0x8, addend: 0x0, symName: ___cxx_global_var_init.2, symObjAddr: 0x26C0, symBinAddr: 0x413B0, symSize: 0x40 }
  - { offset: 0x1D9F9F, size: 0x8, addend: 0x0, symName: ___cxx_global_var_init.3, symObjAddr: 0x2700, symBinAddr: 0x413F0, symSize: 0x40 }
  - { offset: 0x1DA026, size: 0x8, addend: 0x0, symName: ___cxx_global_var_init.4, symObjAddr: 0x2740, symBinAddr: 0x41430, symSize: 0x40 }
  - { offset: 0x1DA0AD, size: 0x8, addend: 0x0, symName: ___cxx_global_var_init.5, symObjAddr: 0x2780, symBinAddr: 0x41470, symSize: 0x40 }
  - { offset: 0x1DA134, size: 0x8, addend: 0x0, symName: ___cxx_global_var_init.6, symObjAddr: 0x27C0, symBinAddr: 0x414B0, symSize: 0x40 }
  - { offset: 0x1DA1BB, size: 0x8, addend: 0x0, symName: ___cxx_global_var_init.7, symObjAddr: 0x2800, symBinAddr: 0x414F0, symSize: 0x40 }
  - { offset: 0x1DA242, size: 0x8, addend: 0x0, symName: ___cxx_global_var_init.8, symObjAddr: 0x2840, symBinAddr: 0x41530, symSize: 0x40 }
  - { offset: 0x1DA2C9, size: 0x8, addend: 0x0, symName: ___cxx_global_var_init.9, symObjAddr: 0x2880, symBinAddr: 0x41570, symSize: 0x40 }
  - { offset: 0x1DA350, size: 0x8, addend: 0x0, symName: ___cxx_global_var_init.10, symObjAddr: 0x28C0, symBinAddr: 0x415B0, symSize: 0x40 }
  - { offset: 0x1DA3D7, size: 0x8, addend: 0x0, symName: ___cxx_global_var_init.11, symObjAddr: 0x2900, symBinAddr: 0x415F0, symSize: 0x40 }
  - { offset: 0x1DA45E, size: 0x8, addend: 0x0, symName: ___cxx_global_var_init.12, symObjAddr: 0x2940, symBinAddr: 0x41630, symSize: 0x3A }
  - { offset: 0x1DA93B, size: 0x8, addend: 0x0, symName: __ZN6sentry25build_view_hierarchy_jsonEv, symObjAddr: 0x0, symBinAddr: 0x40770, symSize: 0x810 }
  - { offset: 0x1DB169, size: 0x8, addend: 0x0, symName: __ZN5godot6Object7cast_toINS_9SceneTreeEEEPT_PS0_, symObjAddr: 0xA60, symBinAddr: 0x40F80, symSize: 0xE0 }
  - { offset: 0x1DB281, size: 0x8, addend: 0x0, symName: __ZN6sentry25build_view_hierarchy_jsonEv.cold.3, symObjAddr: 0x1D60, symBinAddr: 0x11FC80, symSize: 0x40 }
  - { offset: 0x1DB299, size: 0x8, addend: 0x0, symName: __ZN6sentry25build_view_hierarchy_jsonEv.cold.1, symObjAddr: 0x1CF0, symBinAddr: 0x11FC20, symSize: 0x30 }
  - { offset: 0x1DB338, size: 0x8, addend: 0x0, symName: __ZN6sentry25build_view_hierarchy_jsonEv.cold.2, symObjAddr: 0x1D30, symBinAddr: 0x11FC50, symSize: 0x30 }
  - { offset: 0x1DB384, size: 0x8, addend: 0x0, symName: __ZN5godot6Object7cast_toINS_9SceneTreeEEEPT_PS0_.cold.1, symObjAddr: 0x1DA0, symBinAddr: 0x11FCC0, symSize: 0x60 }
  - { offset: 0x1DB3B9, size: 0x8, addend: 0x0, symName: __ZN5godot8internal23EngineClassRegistrationINS_6ObjectEE8callbackEv.cold.1, symObjAddr: 0x1E00, symBinAddr: 0x11FD20, symSize: 0x60 }
  - { offset: 0x1DB573, size: 0x8, addend: 0x0, symName: __ZN5godot6ObjectD1Ev.cold.1, symObjAddr: 0x1E60, symBinAddr: 0x11FD80, symSize: 0x30 }
  - { offset: 0x1DB5FE, size: 0x8, addend: 0x0, symName: __ZN5godot6ObjectD0Ev.cold.1, symObjAddr: 0x1E90, symBinAddr: 0x11FDB0, symSize: 0x30 }
  - { offset: 0x1DB685, size: 0x8, addend: 0x0, symName: __ZN5godot7WrappedD1Ev.cold.1, symObjAddr: 0x1EC0, symBinAddr: 0x11FDE0, symSize: 0x30 }
  - { offset: 0x1DB6FA, size: 0x8, addend: 0x0, symName: __ZN5godot7WrappedD0Ev.cold.1, symObjAddr: 0x1EF0, symBinAddr: 0x11FE10, symSize: 0x30 }
  - { offset: 0x1DB7DB, size: 0x8, addend: 0x0, symName: __ZN5godot4ListINS_12PropertyInfoENS_16DefaultAllocatorEE5_Data5eraseEPNS3_7ElementE.cold.2, symObjAddr: 0x1F50, symBinAddr: 0x11FE70, symSize: 0x30 }
  - { offset: 0x1DB7F3, size: 0x8, addend: 0x0, symName: __ZN5godot4ListINS_12PropertyInfoENS_16DefaultAllocatorEE5_Data5eraseEPNS3_7ElementE.cold.1, symObjAddr: 0x1F20, symBinAddr: 0x11FE40, symSize: 0x30 }
  - { offset: 0x1DB812, size: 0x8, addend: 0x0, symName: __ZN5godot8internal23EngineClassRegistrationINS_16ClassDBSingletonEE8callbackEv.cold.1, symObjAddr: 0x1F80, symBinAddr: 0x11FEA0, symSize: 0x60 }
  - { offset: 0x1DB847, size: 0x8, addend: 0x0, symName: __ZN5godot8internal23EngineClassRegistrationINS_6EngineEE8callbackEv.cold.1, symObjAddr: 0x1FE0, symBinAddr: 0x11FF00, symSize: 0x60 }
  - { offset: 0x1DB87C, size: 0x8, addend: 0x0, symName: __ZN5godot8internal23EngineClassRegistrationINS_10RefCountedEE8callbackEv.cold.1, symObjAddr: 0x2040, symBinAddr: 0x11FF60, symSize: 0x60 }
  - { offset: 0x1DB8EB, size: 0x8, addend: 0x0, symName: __ZN5godot10RefCountedD1Ev.cold.1, symObjAddr: 0x20A0, symBinAddr: 0x11FFC0, symSize: 0x30 }
  - { offset: 0x1DB98E, size: 0x8, addend: 0x0, symName: __ZN5godot10RefCountedD0Ev.cold.1, symObjAddr: 0x20D0, symBinAddr: 0x11FFF0, symSize: 0x30 }
  - { offset: 0x1DBA32, size: 0x8, addend: 0x0, symName: __ZN5godot8internal23EngineClassRegistrationINS_8ResourceEE8callbackEv.cold.1, symObjAddr: 0x2100, symBinAddr: 0x120020, symSize: 0x60 }
  - { offset: 0x1DBA8C, size: 0x8, addend: 0x0, symName: __ZN5godot8internal23EngineClassRegistrationINS_4JSONEE8callbackEv, symObjAddr: 0x1270, symBinAddr: 0x41060, symSize: 0x30 }
  - { offset: 0x1DBAD8, size: 0x8, addend: 0x0, symName: __ZN5godot8internal23EngineClassRegistrationINS_4JSONEE8callbackEv.cold.1, symObjAddr: 0x2160, symBinAddr: 0x120080, symSize: 0x60 }
  - { offset: 0x1DBB50, size: 0x8, addend: 0x0, symName: __ZN5godot4JSON28_gde_binding_create_callbackEPvS1_, symObjAddr: 0x12B0, symBinAddr: 0x41090, symSize: 0x40 }
  - { offset: 0x1DBC43, size: 0x8, addend: 0x0, symName: __ZN5godot4JSON26_gde_binding_free_callbackEPvS1_S1_, symObjAddr: 0x12F0, symBinAddr: 0x410D0, symSize: 0x30 }
  - { offset: 0x1DBC9D, size: 0x8, addend: 0x0, symName: __ZN5godot4JSON31_gde_binding_reference_callbackEPvS1_h, symObjAddr: 0x1320, symBinAddr: 0x41100, symSize: 0x10 }
  - { offset: 0x1DBD14, size: 0x8, addend: 0x0, symName: __ZN5godot4JSOND1Ev, symObjAddr: 0x1330, symBinAddr: 0x41110, symSize: 0x70 }
  - { offset: 0x1DBEE3, size: 0x8, addend: 0x0, symName: __ZN5godot4JSOND1Ev.cold.1, symObjAddr: 0x21C0, symBinAddr: 0x1200E0, symSize: 0x30 }
  - { offset: 0x1DBFB2, size: 0x8, addend: 0x0, symName: __ZN5godot4JSOND0Ev, symObjAddr: 0x13A0, symBinAddr: 0x41180, symSize: 0x60 }
  - { offset: 0x1DC129, size: 0x8, addend: 0x0, symName: __ZN5godot4JSOND0Ev.cold.1, symObjAddr: 0x21F0, symBinAddr: 0x120110, symSize: 0x30 }
  - { offset: 0x1DC1F9, size: 0x8, addend: 0x0, symName: __ZN5godot8internal23EngineClassRegistrationINS_13DisplayServerEE8callbackEv.cold.1, symObjAddr: 0x2220, symBinAddr: 0x120140, symSize: 0x60 }
  - { offset: 0x1DC22E, size: 0x8, addend: 0x0, symName: __ZN5godot8internal23EngineClassRegistrationINS_4NodeEE8callbackEv.cold.1, symObjAddr: 0x2280, symBinAddr: 0x1201A0, symSize: 0x60 }
  - { offset: 0x1DC268, size: 0x8, addend: 0x0, symName: __ZN5godot8internal23EngineClassRegistrationINS_8MainLoopEE8callbackEv.cold.1, symObjAddr: 0x22E0, symBinAddr: 0x120200, symSize: 0x60 }
  - { offset: 0x1DC29B, size: 0x8, addend: 0x0, symName: __ZN5godot8internal23EngineClassRegistrationINS_9SceneTreeEE8callbackEv.cold.1, symObjAddr: 0x2340, symBinAddr: 0x120260, symSize: 0x60 }
  - { offset: 0x1DC301, size: 0x8, addend: 0x0, symName: __ZN5godot9SceneTreeD1Ev.cold.1, symObjAddr: 0x23A0, symBinAddr: 0x1202C0, symSize: 0x30 }
  - { offset: 0x1DC3BA, size: 0x8, addend: 0x0, symName: __ZN5godot9SceneTreeD0Ev.cold.1, symObjAddr: 0x23D0, symBinAddr: 0x1202F0, symSize: 0x30 }
  - { offset: 0x1DC474, size: 0x8, addend: 0x0, symName: __ZN5godot8internal23EngineClassRegistrationINS_6ScriptEE8callbackEv.cold.1, symObjAddr: 0x2400, symBinAddr: 0x120320, symSize: 0x60 }
  - { offset: 0x1DC4BE, size: 0x8, addend: 0x0, symName: __ZN5godot6ScriptD1Ev.cold.1, symObjAddr: 0x2460, symBinAddr: 0x120380, symSize: 0x30 }
  - { offset: 0x1DC58D, size: 0x8, addend: 0x0, symName: __ZN5godot6ScriptD0Ev.cold.1, symObjAddr: 0x2490, symBinAddr: 0x1203B0, symSize: 0x30 }
  - { offset: 0x1DC65D, size: 0x8, addend: 0x0, symName: __ZN5godot8internal23EngineClassRegistrationINS_8ViewportEE8callbackEv.cold.1, symObjAddr: 0x24C0, symBinAddr: 0x1203E0, symSize: 0x60 }
  - { offset: 0x1DC6C3, size: 0x8, addend: 0x0, symName: __ZN5godot8ViewportD1Ev.cold.1, symObjAddr: 0x2520, symBinAddr: 0x120440, symSize: 0x30 }
  - { offset: 0x1DC77C, size: 0x8, addend: 0x0, symName: __ZN5godot8ViewportD0Ev.cold.1, symObjAddr: 0x2550, symBinAddr: 0x120470, symSize: 0x30 }
  - { offset: 0x1DC836, size: 0x8, addend: 0x0, symName: __ZN5godot8internal23EngineClassRegistrationINS_6WindowEE8callbackEv.cold.1, symObjAddr: 0x2580, symBinAddr: 0x1204A0, symSize: 0x60 }
  - { offset: 0x1DC869, size: 0x8, addend: 0x0, symName: __ZN5godot16DefaultAllocator5allocEm, symObjAddr: 0x1BF0, symBinAddr: 0x41320, symSize: 0x10 }
  - { offset: 0x1DC88C, size: 0x8, addend: 0x0, symName: __ZN5godot6Object7cast_toINS_6ScriptEEEPT_PS0_.cold.1, symObjAddr: 0x25E0, symBinAddr: 0x120560, symSize: 0x5D }
  - { offset: 0x1E601F, size: 0x8, addend: 0x0, symName: __ZN5godot7Texture22_gde_binding_callbacksE, symObjAddr: 0x3030, symBinAddr: 0x1D8FC0, symSize: 0x0 }
  - { offset: 0x1E6033, size: 0x8, addend: 0x0, symName: __ZN5godot9Texture2D22_gde_binding_callbacksE, symObjAddr: 0x30A8, symBinAddr: 0x1D9038, symSize: 0x0 }
  - { offset: 0x1E6047, size: 0x8, addend: 0x0, symName: __ZN5godot15ViewportTexture22_gde_binding_callbacksE, symObjAddr: 0x30C0, symBinAddr: 0x1D9050, symSize: 0x0 }
  - { offset: 0x1E60B1, size: 0x8, addend: 0x0, symName: ___cxx_global_var_init, symObjAddr: 0x2490, symBinAddr: 0x41B00, symSize: 0x40 }
  - { offset: 0x1E6138, size: 0x8, addend: 0x0, symName: ___cxx_global_var_init.1, symObjAddr: 0x24D0, symBinAddr: 0x41B40, symSize: 0x40 }
  - { offset: 0x1E61BF, size: 0x8, addend: 0x0, symName: ___cxx_global_var_init.2, symObjAddr: 0x2510, symBinAddr: 0x41B80, symSize: 0x40 }
  - { offset: 0x1E6246, size: 0x8, addend: 0x0, symName: ___cxx_global_var_init.3, symObjAddr: 0x2550, symBinAddr: 0x41BC0, symSize: 0x40 }
  - { offset: 0x1E62CD, size: 0x8, addend: 0x0, symName: ___cxx_global_var_init.4, symObjAddr: 0x2590, symBinAddr: 0x41C00, symSize: 0x40 }
  - { offset: 0x1E6354, size: 0x8, addend: 0x0, symName: ___cxx_global_var_init.5, symObjAddr: 0x25D0, symBinAddr: 0x41C40, symSize: 0x40 }
  - { offset: 0x1E63DB, size: 0x8, addend: 0x0, symName: ___cxx_global_var_init.6, symObjAddr: 0x2610, symBinAddr: 0x41C80, symSize: 0x40 }
  - { offset: 0x1E6462, size: 0x8, addend: 0x0, symName: ___cxx_global_var_init.7, symObjAddr: 0x2650, symBinAddr: 0x41CC0, symSize: 0x40 }
  - { offset: 0x1E64E9, size: 0x8, addend: 0x0, symName: ___cxx_global_var_init.8, symObjAddr: 0x2690, symBinAddr: 0x41D00, symSize: 0x40 }
  - { offset: 0x1E6570, size: 0x8, addend: 0x0, symName: ___cxx_global_var_init.9, symObjAddr: 0x26D0, symBinAddr: 0x41D40, symSize: 0x40 }
  - { offset: 0x1E65F7, size: 0x8, addend: 0x0, symName: ___cxx_global_var_init.10, symObjAddr: 0x2710, symBinAddr: 0x41D80, symSize: 0x40 }
  - { offset: 0x1E667E, size: 0x8, addend: 0x0, symName: ___cxx_global_var_init.11, symObjAddr: 0x2750, symBinAddr: 0x41DC0, symSize: 0x40 }
  - { offset: 0x1E6705, size: 0x8, addend: 0x0, symName: ___cxx_global_var_init.12, symObjAddr: 0x2790, symBinAddr: 0x41E00, symSize: 0x40 }
  - { offset: 0x1E678C, size: 0x8, addend: 0x0, symName: ___cxx_global_var_init.13, symObjAddr: 0x27D0, symBinAddr: 0x41E40, symSize: 0x40 }
  - { offset: 0x1E6813, size: 0x8, addend: 0x0, symName: ___cxx_global_var_init.14, symObjAddr: 0x2810, symBinAddr: 0x41E80, symSize: 0x40 }
  - { offset: 0x1E689A, size: 0x8, addend: 0x0, symName: ___cxx_global_var_init.15, symObjAddr: 0x2850, symBinAddr: 0x41EC0, symSize: 0x40 }
  - { offset: 0x1E6921, size: 0x8, addend: 0x0, symName: ___cxx_global_var_init.16, symObjAddr: 0x2890, symBinAddr: 0x41F00, symSize: 0x40 }
  - { offset: 0x1E69A8, size: 0x8, addend: 0x0, symName: ___cxx_global_var_init.17, symObjAddr: 0x28D0, symBinAddr: 0x41F40, symSize: 0x3A }
  - { offset: 0x1E6AD4, size: 0x8, addend: 0x0, symName: __ZN6sentry4util15take_screenshotEv, symObjAddr: 0x0, symBinAddr: 0x41670, symSize: 0xD0 }
  - { offset: 0x1E6D2C, size: 0x8, addend: 0x0, symName: __ZN6sentry4util15take_screenshotEv.cold.2, symObjAddr: 0x1900, symBinAddr: 0x120610, symSize: 0x50 }
  - { offset: 0x1E6D44, size: 0x8, addend: 0x0, symName: __ZN6sentry4util15take_screenshotEv.cold.1, symObjAddr: 0x18B0, symBinAddr: 0x1205C0, symSize: 0x50 }
  - { offset: 0x1E6D63, size: 0x8, addend: 0x0, symName: __ZN5godot6Object7cast_toINS_9SceneTreeEEEPT_PS0_.cold.1, symObjAddr: 0x1950, symBinAddr: 0x120660, symSize: 0x60 }
  - { offset: 0x1E6D98, size: 0x8, addend: 0x0, symName: __ZN5godot8internal23EngineClassRegistrationINS_6ObjectEE8callbackEv.cold.1, symObjAddr: 0x19B0, symBinAddr: 0x1206C0, symSize: 0x60 }
  - { offset: 0x1E6F65, size: 0x8, addend: 0x0, symName: __ZN5godot6ObjectD1Ev.cold.1, symObjAddr: 0x1A10, symBinAddr: 0x120720, symSize: 0x30 }
  - { offset: 0x1E6FF0, size: 0x8, addend: 0x0, symName: __ZN5godot6ObjectD0Ev.cold.1, symObjAddr: 0x1A40, symBinAddr: 0x120750, symSize: 0x30 }
  - { offset: 0x1E7077, size: 0x8, addend: 0x0, symName: __ZN5godot7WrappedD1Ev.cold.1, symObjAddr: 0x1A70, symBinAddr: 0x120780, symSize: 0x30 }
  - { offset: 0x1E70EC, size: 0x8, addend: 0x0, symName: __ZN5godot7WrappedD0Ev.cold.1, symObjAddr: 0x1AA0, symBinAddr: 0x1207B0, symSize: 0x30 }
  - { offset: 0x1E71CD, size: 0x8, addend: 0x0, symName: __ZN5godot4ListINS_12PropertyInfoENS_16DefaultAllocatorEE5_Data5eraseEPNS3_7ElementE.cold.2, symObjAddr: 0x1B00, symBinAddr: 0x120810, symSize: 0x30 }
  - { offset: 0x1E71E5, size: 0x8, addend: 0x0, symName: __ZN5godot4ListINS_12PropertyInfoENS_16DefaultAllocatorEE5_Data5eraseEPNS3_7ElementE.cold.1, symObjAddr: 0x1AD0, symBinAddr: 0x1207E0, symSize: 0x30 }
  - { offset: 0x1E7204, size: 0x8, addend: 0x0, symName: __ZN5godot8internal23EngineClassRegistrationINS_16ClassDBSingletonEE8callbackEv.cold.1, symObjAddr: 0x1B30, symBinAddr: 0x120840, symSize: 0x60 }
  - { offset: 0x1E7239, size: 0x8, addend: 0x0, symName: __ZN5godot8internal23EngineClassRegistrationINS_6EngineEE8callbackEv.cold.1, symObjAddr: 0x1B90, symBinAddr: 0x1208A0, symSize: 0x60 }
  - { offset: 0x1E726E, size: 0x8, addend: 0x0, symName: __ZN5godot8internal23EngineClassRegistrationINS_10RefCountedEE8callbackEv.cold.1, symObjAddr: 0x1BF0, symBinAddr: 0x120900, symSize: 0x60 }
  - { offset: 0x1E72DD, size: 0x8, addend: 0x0, symName: __ZN5godot10RefCountedD1Ev.cold.1, symObjAddr: 0x1C50, symBinAddr: 0x120960, symSize: 0x30 }
  - { offset: 0x1E7380, size: 0x8, addend: 0x0, symName: __ZN5godot10RefCountedD0Ev.cold.1, symObjAddr: 0x1C80, symBinAddr: 0x120990, symSize: 0x30 }
  - { offset: 0x1E7424, size: 0x8, addend: 0x0, symName: __ZN5godot8internal23EngineClassRegistrationINS_8ResourceEE8callbackEv.cold.1, symObjAddr: 0x1CB0, symBinAddr: 0x1209C0, symSize: 0x60 }
  - { offset: 0x1E747E, size: 0x8, addend: 0x0, symName: __ZN5godot8internal23EngineClassRegistrationINS_5ImageEE8callbackEv.cold.1, symObjAddr: 0x1D10, symBinAddr: 0x120A20, symSize: 0x60 }
  - { offset: 0x1E74E4, size: 0x8, addend: 0x0, symName: __ZN5godot5ImageD1Ev.cold.1, symObjAddr: 0x1D70, symBinAddr: 0x120A80, symSize: 0x30 }
  - { offset: 0x1E75B3, size: 0x8, addend: 0x0, symName: __ZN5godot5ImageD0Ev.cold.1, symObjAddr: 0x1DA0, symBinAddr: 0x120AB0, symSize: 0x30 }
  - { offset: 0x1E7683, size: 0x8, addend: 0x0, symName: __ZN5godot8internal23EngineClassRegistrationINS_32RDPipelineSpecializationConstantEE8callbackEv.cold.1, symObjAddr: 0x1DD0, symBinAddr: 0x120AE0, symSize: 0x60 }
  - { offset: 0x1E76CD, size: 0x8, addend: 0x0, symName: __ZN5godot32RDPipelineSpecializationConstantD1Ev.cold.1, symObjAddr: 0x1E30, symBinAddr: 0x120B40, symSize: 0x30 }
  - { offset: 0x1E7786, size: 0x8, addend: 0x0, symName: __ZN5godot32RDPipelineSpecializationConstantD0Ev.cold.1, symObjAddr: 0x1E60, symBinAddr: 0x120B70, symSize: 0x30 }
  - { offset: 0x1E7840, size: 0x8, addend: 0x0, symName: __ZN5godot8internal23EngineClassRegistrationINS_15RenderingDeviceEE8callbackEv.cold.1, symObjAddr: 0x1E90, symBinAddr: 0x120BA0, symSize: 0x60 }
  - { offset: 0x1E788A, size: 0x8, addend: 0x0, symName: __ZN5godot15RenderingDeviceD1Ev.cold.1, symObjAddr: 0x1EF0, symBinAddr: 0x120C00, symSize: 0x30 }
  - { offset: 0x1E792D, size: 0x8, addend: 0x0, symName: __ZN5godot15RenderingDeviceD0Ev.cold.1, symObjAddr: 0x1F20, symBinAddr: 0x120C30, symSize: 0x30 }
  - { offset: 0x1E79D1, size: 0x8, addend: 0x0, symName: __ZN5godot8internal23EngineClassRegistrationINS_15RenderingServerEE8callbackEv.cold.1, symObjAddr: 0x1F50, symBinAddr: 0x120C60, symSize: 0x60 }
  - { offset: 0x1E7A06, size: 0x8, addend: 0x0, symName: __ZN5godot8internal23EngineClassRegistrationINS_8MainLoopEE8callbackEv.cold.1, symObjAddr: 0x1FB0, symBinAddr: 0x120CC0, symSize: 0x60 }
  - { offset: 0x1E7A39, size: 0x8, addend: 0x0, symName: __ZN5godot8internal23EngineClassRegistrationINS_9SceneTreeEE8callbackEv.cold.1, symObjAddr: 0x2010, symBinAddr: 0x120D20, symSize: 0x60 }
  - { offset: 0x1E7A9F, size: 0x8, addend: 0x0, symName: __ZN5godot9SceneTreeD1Ev.cold.1, symObjAddr: 0x2070, symBinAddr: 0x120D80, symSize: 0x30 }
  - { offset: 0x1E7B58, size: 0x8, addend: 0x0, symName: __ZN5godot9SceneTreeD0Ev.cold.1, symObjAddr: 0x20A0, symBinAddr: 0x120DB0, symSize: 0x30 }
  - { offset: 0x1E7C12, size: 0x8, addend: 0x0, symName: __ZN5godot8internal23EngineClassRegistrationINS_7TextureEE8callbackEv, symObjAddr: 0x10C0, symBinAddr: 0x41740, symSize: 0x30 }
  - { offset: 0x1E7C5E, size: 0x8, addend: 0x0, symName: __ZN5godot8internal23EngineClassRegistrationINS_7TextureEE8callbackEv.cold.1, symObjAddr: 0x20D0, symBinAddr: 0x120DE0, symSize: 0x60 }
  - { offset: 0x1E7CD6, size: 0x8, addend: 0x0, symName: __ZN5godot7Texture28_gde_binding_create_callbackEPvS1_, symObjAddr: 0x1100, symBinAddr: 0x41770, symSize: 0x40 }
  - { offset: 0x1E7DC9, size: 0x8, addend: 0x0, symName: __ZN5godot7Texture26_gde_binding_free_callbackEPvS1_S1_, symObjAddr: 0x1140, symBinAddr: 0x417B0, symSize: 0x30 }
  - { offset: 0x1E7E23, size: 0x8, addend: 0x0, symName: __ZN5godot7Texture31_gde_binding_reference_callbackEPvS1_h, symObjAddr: 0x1170, symBinAddr: 0x417E0, symSize: 0x10 }
  - { offset: 0x1E7E7E, size: 0x8, addend: 0x0, symName: __ZN5godot7TextureD1Ev, symObjAddr: 0x1180, symBinAddr: 0x417F0, symSize: 0x70 }
  - { offset: 0x1E804D, size: 0x8, addend: 0x0, symName: __ZN5godot7TextureD1Ev.cold.1, symObjAddr: 0x2130, symBinAddr: 0x120E40, symSize: 0x30 }
  - { offset: 0x1E811C, size: 0x8, addend: 0x0, symName: __ZN5godot7TextureD0Ev, symObjAddr: 0x11F0, symBinAddr: 0x41860, symSize: 0x60 }
  - { offset: 0x1E8293, size: 0x8, addend: 0x0, symName: __ZN5godot7TextureD0Ev.cold.1, symObjAddr: 0x2160, symBinAddr: 0x120E70, symSize: 0x30 }
  - { offset: 0x1E8363, size: 0x8, addend: 0x0, symName: __ZN5godot8internal23EngineClassRegistrationINS_9Texture2DEE8callbackEv, symObjAddr: 0x1250, symBinAddr: 0x418C0, symSize: 0x30 }
  - { offset: 0x1E83AF, size: 0x8, addend: 0x0, symName: __ZN5godot8internal23EngineClassRegistrationINS_9Texture2DEE8callbackEv.cold.1, symObjAddr: 0x2190, symBinAddr: 0x120EA0, symSize: 0x60 }
  - { offset: 0x1E8427, size: 0x8, addend: 0x0, symName: __ZN5godot9Texture2D28_gde_binding_create_callbackEPvS1_, symObjAddr: 0x1290, symBinAddr: 0x418F0, symSize: 0x50 }
  - { offset: 0x1E8540, size: 0x8, addend: 0x0, symName: __ZN5godot9Texture2D26_gde_binding_free_callbackEPvS1_S1_, symObjAddr: 0x12E0, symBinAddr: 0x41940, symSize: 0x30 }
  - { offset: 0x1E859A, size: 0x8, addend: 0x0, symName: __ZN5godot9Texture2D31_gde_binding_reference_callbackEPvS1_h, symObjAddr: 0x1310, symBinAddr: 0x41970, symSize: 0x10 }
  - { offset: 0x1E85E0, size: 0x8, addend: 0x0, symName: __ZN5godot8internal23EngineClassRegistrationINS_15ViewportTextureEE8callbackEv, symObjAddr: 0x1320, symBinAddr: 0x41980, symSize: 0x30 }
  - { offset: 0x1E862C, size: 0x8, addend: 0x0, symName: __ZN5godot8internal23EngineClassRegistrationINS_15ViewportTextureEE8callbackEv.cold.1, symObjAddr: 0x21F0, symBinAddr: 0x120F00, symSize: 0x60 }
  - { offset: 0x1E86A4, size: 0x8, addend: 0x0, symName: __ZN5godot15ViewportTexture28_gde_binding_create_callbackEPvS1_, symObjAddr: 0x1360, symBinAddr: 0x419B0, symSize: 0x40 }
  - { offset: 0x1E87E3, size: 0x8, addend: 0x0, symName: __ZN5godot15ViewportTexture26_gde_binding_free_callbackEPvS1_S1_, symObjAddr: 0x13A0, symBinAddr: 0x419F0, symSize: 0x30 }
  - { offset: 0x1E883D, size: 0x8, addend: 0x0, symName: __ZN5godot15ViewportTexture31_gde_binding_reference_callbackEPvS1_h, symObjAddr: 0x13D0, symBinAddr: 0x41A20, symSize: 0x10 }
  - { offset: 0x1E88B4, size: 0x8, addend: 0x0, symName: __ZN5godot15ViewportTextureD1Ev, symObjAddr: 0x13E0, symBinAddr: 0x41A30, symSize: 0x70 }
  - { offset: 0x1E8AB3, size: 0x8, addend: 0x0, symName: __ZN5godot15ViewportTextureD1Ev.cold.1, symObjAddr: 0x2250, symBinAddr: 0x120F60, symSize: 0x30 }
  - { offset: 0x1E8BAE, size: 0x8, addend: 0x0, symName: __ZN5godot15ViewportTextureD0Ev, symObjAddr: 0x1450, symBinAddr: 0x41AA0, symSize: 0x60 }
  - { offset: 0x1E8D55, size: 0x8, addend: 0x0, symName: __ZN5godot15ViewportTextureD0Ev.cold.1, symObjAddr: 0x2280, symBinAddr: 0x120F90, symSize: 0x30 }
  - { offset: 0x1E8E51, size: 0x8, addend: 0x0, symName: __ZN5godot8internal23EngineClassRegistrationINS_13DisplayServerEE8callbackEv.cold.1, symObjAddr: 0x22B0, symBinAddr: 0x120FC0, symSize: 0x60 }
  - { offset: 0x1E8E86, size: 0x8, addend: 0x0, symName: __ZN5godot8internal23EngineClassRegistrationINS_4NodeEE8callbackEv.cold.1, symObjAddr: 0x2310, symBinAddr: 0x121020, symSize: 0x60 }
  - { offset: 0x1E8EC0, size: 0x8, addend: 0x0, symName: __ZN5godot8internal23EngineClassRegistrationINS_8ViewportEE8callbackEv.cold.1, symObjAddr: 0x2370, symBinAddr: 0x121080, symSize: 0x60 }
  - { offset: 0x1E8F26, size: 0x8, addend: 0x0, symName: __ZN5godot8ViewportD1Ev.cold.1, symObjAddr: 0x23D0, symBinAddr: 0x1210E0, symSize: 0x30 }
  - { offset: 0x1E8FDF, size: 0x8, addend: 0x0, symName: __ZN5godot8ViewportD0Ev.cold.1, symObjAddr: 0x2400, symBinAddr: 0x121110, symSize: 0x30 }
  - { offset: 0x1E9099, size: 0x8, addend: 0x0, symName: __ZN5godot8internal23EngineClassRegistrationINS_6WindowEE8callbackEv.cold.1, symObjAddr: 0x2430, symBinAddr: 0x121140, symSize: 0x5D }
  - { offset: 0x1EEA61, size: 0x8, addend: 0x0, symName: ___cxx_global_var_init, symObjAddr: 0x19D0, symBinAddr: 0x43020, symSize: 0x40 }
  - { offset: 0x1EEAE8, size: 0x8, addend: 0x0, symName: ___cxx_global_var_init.1, symObjAddr: 0x1A10, symBinAddr: 0x43060, symSize: 0x40 }
  - { offset: 0x1EEB6F, size: 0x8, addend: 0x0, symName: ___cxx_global_var_init.2, symObjAddr: 0x1A50, symBinAddr: 0x430A0, symSize: 0x3A }
  - { offset: 0x1EEBC2, size: 0x8, addend: 0x0, symName: __ZNK11NativeEvent6get_idEv, symObjAddr: 0x0, symBinAddr: 0x41F80, symSize: 0x40 }
  - { offset: 0x1EED73, size: 0x8, addend: 0x0, symName: __ZN11NativeEvent11set_messageERKN5godot6StringE, symObjAddr: 0x40, symBinAddr: 0x41FC0, symSize: 0xD0 }
  - { offset: 0x1EF00E, size: 0x8, addend: 0x0, symName: __ZNK11NativeEvent11get_messageEv, symObjAddr: 0x110, symBinAddr: 0x42090, symSize: 0x60 }
  - { offset: 0x1EF0C9, size: 0x8, addend: 0x0, symName: __ZN11NativeEvent13set_timestampERKN5godot6StringE, symObjAddr: 0x170, symBinAddr: 0x420F0, symSize: 0xA0 }
  - { offset: 0x1EF2D2, size: 0x8, addend: 0x0, symName: __ZNK11NativeEvent13get_timestampEv, symObjAddr: 0x210, symBinAddr: 0x42190, symSize: 0x40 }
  - { offset: 0x1EF327, size: 0x8, addend: 0x0, symName: __ZNK11NativeEvent12get_platformEv, symObjAddr: 0x250, symBinAddr: 0x421D0, symSize: 0x40 }
  - { offset: 0x1EF37C, size: 0x8, addend: 0x0, symName: __ZN11NativeEvent9set_levelEN6sentry5LevelE, symObjAddr: 0x290, symBinAddr: 0x42210, symSize: 0x70 }
  - { offset: 0x1EF5E9, size: 0x8, addend: 0x0, symName: __ZNK11NativeEvent9get_levelEv, symObjAddr: 0x300, symBinAddr: 0x42280, symSize: 0x90 }
  - { offset: 0x1EF859, size: 0x8, addend: 0x0, symName: __ZN11NativeEvent10set_loggerERKN5godot6StringE, symObjAddr: 0x390, symBinAddr: 0x42310, symSize: 0xA0 }
  - { offset: 0x1EFA62, size: 0x8, addend: 0x0, symName: __ZNK11NativeEvent10get_loggerEv, symObjAddr: 0x430, symBinAddr: 0x423B0, symSize: 0x40 }
  - { offset: 0x1EFAB7, size: 0x8, addend: 0x0, symName: __ZN11NativeEvent11set_releaseERKN5godot6StringE, symObjAddr: 0x470, symBinAddr: 0x423F0, symSize: 0xA0 }
  - { offset: 0x1EFCC0, size: 0x8, addend: 0x0, symName: __ZNK11NativeEvent11get_releaseEv, symObjAddr: 0x510, symBinAddr: 0x42490, symSize: 0x40 }
  - { offset: 0x1EFD15, size: 0x8, addend: 0x0, symName: __ZN11NativeEvent8set_distERKN5godot6StringE, symObjAddr: 0x550, symBinAddr: 0x424D0, symSize: 0xA0 }
  - { offset: 0x1EFF1E, size: 0x8, addend: 0x0, symName: __ZNK11NativeEvent8get_distEv, symObjAddr: 0x5F0, symBinAddr: 0x42570, symSize: 0x40 }
  - { offset: 0x1EFF73, size: 0x8, addend: 0x0, symName: __ZN11NativeEvent15set_environmentERKN5godot6StringE, symObjAddr: 0x630, symBinAddr: 0x425B0, symSize: 0xA0 }
  - { offset: 0x1F017C, size: 0x8, addend: 0x0, symName: __ZNK11NativeEvent15get_environmentEv, symObjAddr: 0x6D0, symBinAddr: 0x42650, symSize: 0x40 }
  - { offset: 0x1F01D1, size: 0x8, addend: 0x0, symName: __ZN11NativeEvent7set_tagERKN5godot6StringES3_, symObjAddr: 0x710, symBinAddr: 0x42690, symSize: 0x110 }
  - { offset: 0x1F0583, size: 0x8, addend: 0x0, symName: __ZN11NativeEvent7set_tagERKN5godot6StringES3_.cold.1, symObjAddr: 0x1630, symBinAddr: 0x1211A0, symSize: 0x40 }
  - { offset: 0x1F059B, size: 0x8, addend: 0x0, symName: __ZN11NativeEvent10remove_tagERKN5godot6StringE, symObjAddr: 0x820, symBinAddr: 0x427A0, symSize: 0xA0 }
  - { offset: 0x1F0798, size: 0x8, addend: 0x0, symName: __ZN11NativeEvent10remove_tagERKN5godot6StringE.cold.1, symObjAddr: 0x1670, symBinAddr: 0x1211E0, symSize: 0x40 }
  - { offset: 0x1F07B0, size: 0x8, addend: 0x0, symName: __ZN11NativeEvent7get_tagERKN5godot6StringE, symObjAddr: 0x8C0, symBinAddr: 0x42840, symSize: 0xD0 }
  - { offset: 0x1F09E2, size: 0x8, addend: 0x0, symName: __ZN11NativeEvent7get_tagERKN5godot6StringE.cold.1, symObjAddr: 0x16B0, symBinAddr: 0x121220, symSize: 0x50 }
  - { offset: 0x1F0C31, size: 0x8, addend: 0x0, symName: __ZN11NativeEvent13add_exceptionERKN5godot6StringES3_RKNS0_6VectorIN11SentryEvent10StackFrameEEE, symObjAddr: 0x990, symBinAddr: 0x42910, symSize: 0x480 }
  - { offset: 0x1F1DFC, size: 0x8, addend: 0x0, symName: __ZN11NativeEventC2E14sentry_value_u, symObjAddr: 0xE10, symBinAddr: 0x42D90, symSize: 0xC0 }
  - { offset: 0x1F1F4E, size: 0x8, addend: 0x0, symName: __ZN11NativeEventC1E14sentry_value_u, symObjAddr: 0xEE0, symBinAddr: 0x42E50, symSize: 0x10 }
  - { offset: 0x1F1FA6, size: 0x8, addend: 0x0, symName: __ZN11NativeEventC2Ev, symObjAddr: 0xEF0, symBinAddr: 0x42E60, symSize: 0x80 }
  - { offset: 0x1F2084, size: 0x8, addend: 0x0, symName: __ZN11NativeEventC1Ev, symObjAddr: 0xF70, symBinAddr: 0x42EE0, symSize: 0x80 }
  - { offset: 0x1F227D, size: 0x8, addend: 0x0, symName: __ZN11NativeEventD2Ev, symObjAddr: 0xFF0, symBinAddr: 0x42F60, symSize: 0x80 }
  - { offset: 0x1F24F5, size: 0x8, addend: 0x0, symName: __ZN11NativeEventD2Ev.cold.1, symObjAddr: 0x1700, symBinAddr: 0x121270, symSize: 0x30 }
  - { offset: 0x1F2592, size: 0x8, addend: 0x0, symName: __ZN11NativeEventD1Ev, symObjAddr: 0x1070, symBinAddr: 0x42FE0, symSize: 0x10 }
  - { offset: 0x1F25E6, size: 0x8, addend: 0x0, symName: __ZN11NativeEventD0Ev, symObjAddr: 0x1080, symBinAddr: 0x42FF0, symSize: 0x20 }
  - { offset: 0x1F2648, size: 0x8, addend: 0x0, symName: __ZNK11NativeEvent19_is_extension_classEv, symObjAddr: 0x10A0, symBinAddr: 0x43010, symSize: 0x10 }
  - { offset: 0x1F266D, size: 0x8, addend: 0x0, symName: __ZN5godot10RefCountedD1Ev.cold.1, symObjAddr: 0x1730, symBinAddr: 0x1212A0, symSize: 0x30 }
  - { offset: 0x1F2710, size: 0x8, addend: 0x0, symName: __ZN5godot10RefCountedD0Ev.cold.1, symObjAddr: 0x1760, symBinAddr: 0x1212D0, symSize: 0x30 }
  - { offset: 0x1F27AD, size: 0x8, addend: 0x0, symName: __ZN5godot6ObjectD1Ev.cold.1, symObjAddr: 0x1790, symBinAddr: 0x121300, symSize: 0x30 }
  - { offset: 0x1F2838, size: 0x8, addend: 0x0, symName: __ZN5godot6ObjectD0Ev.cold.1, symObjAddr: 0x17C0, symBinAddr: 0x121330, symSize: 0x30 }
  - { offset: 0x1F28BF, size: 0x8, addend: 0x0, symName: __ZN5godot7WrappedD1Ev.cold.1, symObjAddr: 0x17F0, symBinAddr: 0x121360, symSize: 0x30 }
  - { offset: 0x1F2934, size: 0x8, addend: 0x0, symName: __ZN5godot7WrappedD0Ev.cold.1, symObjAddr: 0x1820, symBinAddr: 0x121390, symSize: 0x30 }
  - { offset: 0x1F2A15, size: 0x8, addend: 0x0, symName: __ZN5godot4ListINS_12PropertyInfoENS_16DefaultAllocatorEE5_Data5eraseEPNS3_7ElementE.cold.2, symObjAddr: 0x1880, symBinAddr: 0x1213F0, symSize: 0x30 }
  - { offset: 0x1F2A2D, size: 0x8, addend: 0x0, symName: __ZN5godot4ListINS_12PropertyInfoENS_16DefaultAllocatorEE5_Data5eraseEPNS3_7ElementE.cold.1, symObjAddr: 0x1850, symBinAddr: 0x1213C0, symSize: 0x30 }
  - { offset: 0x1F2A4C, size: 0x8, addend: 0x0, symName: __ZN5godot8internal23EngineClassRegistrationINS_6ObjectEE8callbackEv.cold.1, symObjAddr: 0x18B0, symBinAddr: 0x121420, symSize: 0x60 }
  - { offset: 0x1F2A81, size: 0x8, addend: 0x0, symName: __ZN5godot8internal23EngineClassRegistrationINS_16ClassDBSingletonEE8callbackEv.cold.1, symObjAddr: 0x1910, symBinAddr: 0x121480, symSize: 0x60 }
  - { offset: 0x1F2AB6, size: 0x8, addend: 0x0, symName: __ZN5godot8internal23EngineClassRegistrationINS_10RefCountedEE8callbackEv.cold.1, symObjAddr: 0x1970, symBinAddr: 0x1214E0, symSize: 0x5D }
  - { offset: 0x20A6B3, size: 0x8, addend: 0x0, symName: __ZN12_GLOBAL__N_119_handle_before_sendE14sentry_value_uPvS1_, symObjAddr: 0x1760, symBinAddr: 0x44830, symSize: 0x3B0 }
  - { offset: 0x20A6DD, size: 0x8, addend: 0x0, symName: __ZZN12_GLOBAL__N_119_handle_before_sendE14sentry_value_uPvS1_E11first_print, symObjAddr: 0x16FBD0, symBinAddr: 0x1DD168, symSize: 0x0 }
  - { offset: 0x20AE90, size: 0x8, addend: 0x0, symName: __ZN12_GLOBAL__N_116_save_screenshotERKN5godot3RefI11SentryEventEE, symObjAddr: 0x2250, symBinAddr: 0x45300, symSize: 0x3A0 }
  - { offset: 0x20AEB6, size: 0x8, addend: 0x0, symName: __ZZN12_GLOBAL__N_116_save_screenshotERKN5godot3RefI11SentryEventEEE21last_screenshot_frame, symObjAddr: 0x16FBD4, symBinAddr: 0x1DD16C, symSize: 0x0 }
  - { offset: 0x20AECC, size: 0x8, addend: 0x0, symName: __ZZN12_GLOBAL__N_116_save_screenshotERKN5godot3RefI11SentryEventEEE11first_print, symObjAddr: 0x16FBD8, symBinAddr: 0x1DD170, symSize: 0x0 }
  - { offset: 0x20B650, size: 0x8, addend: 0x0, symName: __ZN12_GLOBAL__N_116_handle_on_crashEPK17sentry_ucontext_s14sentry_value_uPv, symObjAddr: 0x1B10, symBinAddr: 0x44BE0, symSize: 0x3B0 }
  - { offset: 0x20B67A, size: 0x8, addend: 0x0, symName: __ZZN12_GLOBAL__N_116_handle_on_crashEPK17sentry_ucontext_s14sentry_value_uPvE11first_print, symObjAddr: 0x16FBD9, symBinAddr: 0x1DD171, symSize: 0x0 }
  - { offset: 0x20BE2D, size: 0x8, addend: 0x0, symName: __ZN12_GLOBAL__N_119_log_native_messageE14sentry_level_ePKcP13__va_list_tagPv, symObjAddr: 0x1EC0, symBinAddr: 0x44F90, symSize: 0x2A0 }
  - { offset: 0x20BE53, size: 0x8, addend: 0x0, symName: __ZZN12_GLOBAL__N_119_log_native_messageE14sentry_level_ePKcP13__va_list_tagPvE7pattern, symObjAddr: 0x16FBE0, symBinAddr: 0x1DD178, symSize: 0x0 }
  - { offset: 0x20C7D1, size: 0x8, addend: 0x0, symName: __ZN12_GLOBAL__N_115_uuid_as_stringE13sentry_uuid_s, symObjAddr: 0x850, symBinAddr: 0x43910, symSize: 0x60 }
  - { offset: 0x20C816, size: 0x8, addend: 0x0, symName: __ZN12_GLOBAL__N_120_save_view_hierarchyEv, symObjAddr: 0x25F0, symBinAddr: 0x456A0, symSize: 0x230 }
  - { offset: 0x20CB11, size: 0x8, addend: 0x0, symName: __ZN12_GLOBAL__N_116_inject_contextsE14sentry_value_u, symObjAddr: 0x27D0, symBinAddr: 0x458D0, symSize: 0x2F0 }
  - { offset: 0x20E0FE, size: 0x8, addend: 0x0, symName: ___cxx_global_var_init, symObjAddr: 0x10380, symBinAddr: 0x460C0, symSize: 0x40 }
  - { offset: 0x20E185, size: 0x8, addend: 0x0, symName: ___cxx_global_var_init.1, symObjAddr: 0x103C0, symBinAddr: 0x46100, symSize: 0x40 }
  - { offset: 0x20E20C, size: 0x8, addend: 0x0, symName: ___cxx_global_var_init.2, symObjAddr: 0x10400, symBinAddr: 0x46140, symSize: 0x40 }
  - { offset: 0x20E293, size: 0x8, addend: 0x0, symName: ___cxx_global_var_init.3, symObjAddr: 0x10440, symBinAddr: 0x46180, symSize: 0x40 }
  - { offset: 0x20E31A, size: 0x8, addend: 0x0, symName: ___cxx_global_var_init.4, symObjAddr: 0x10480, symBinAddr: 0x461C0, symSize: 0x40 }
  - { offset: 0x20E3A1, size: 0x8, addend: 0x0, symName: ___cxx_global_var_init.5, symObjAddr: 0x104C0, symBinAddr: 0x46200, symSize: 0x40 }
  - { offset: 0x20E428, size: 0x8, addend: 0x0, symName: ___cxx_global_var_init.6, symObjAddr: 0x10500, symBinAddr: 0x46240, symSize: 0x40 }
  - { offset: 0x20E4AF, size: 0x8, addend: 0x0, symName: ___cxx_global_var_init.7, symObjAddr: 0x10540, symBinAddr: 0x46280, symSize: 0x40 }
  - { offset: 0x20E536, size: 0x8, addend: 0x0, symName: ___cxx_global_var_init.8, symObjAddr: 0x10580, symBinAddr: 0x462C0, symSize: 0x40 }
  - { offset: 0x20E5BD, size: 0x8, addend: 0x0, symName: ___cxx_global_var_init.9, symObjAddr: 0x105C0, symBinAddr: 0x46300, symSize: 0x40 }
  - { offset: 0x20E644, size: 0x8, addend: 0x0, symName: ___cxx_global_var_init.10, symObjAddr: 0x10600, symBinAddr: 0x46340, symSize: 0x40 }
  - { offset: 0x20E7FD, size: 0x8, addend: 0x0, symName: __ZN6sentry9NativeSDK11set_contextERKN5godot6StringERKNS1_10DictionaryE, symObjAddr: 0x0, symBinAddr: 0x430E0, symSize: 0xD0 }
  - { offset: 0x20EA03, size: 0x8, addend: 0x0, symName: __ZN6sentry9NativeSDK11set_contextERKN5godot6StringERKNS1_10DictionaryE.cold.1, symObjAddr: 0xF820, symBinAddr: 0x121540, symSize: 0x30 }
  - { offset: 0x20EA1B, size: 0x8, addend: 0x0, symName: __ZN6sentry9NativeSDK14remove_contextERKN5godot6StringE, symObjAddr: 0xE0, symBinAddr: 0x431B0, symSize: 0x70 }
  - { offset: 0x20EBF0, size: 0x8, addend: 0x0, symName: __ZN6sentry9NativeSDK14remove_contextERKN5godot6StringE.cold.1, symObjAddr: 0xF850, symBinAddr: 0x121570, symSize: 0x30 }
  - { offset: 0x20EC08, size: 0x8, addend: 0x0, symName: __ZN6sentry9NativeSDK7set_tagERKN5godot6StringES4_, symObjAddr: 0x150, symBinAddr: 0x43220, symSize: 0xC0 }
  - { offset: 0x20EF73, size: 0x8, addend: 0x0, symName: __ZN6sentry9NativeSDK7set_tagERKN5godot6StringES4_.cold.1, symObjAddr: 0xF880, symBinAddr: 0x1215A0, symSize: 0x30 }
  - { offset: 0x20EF8B, size: 0x8, addend: 0x0, symName: __ZN6sentry9NativeSDK10remove_tagERKN5godot6StringE, symObjAddr: 0x210, symBinAddr: 0x432E0, symSize: 0x70 }
  - { offset: 0x20F162, size: 0x8, addend: 0x0, symName: __ZN6sentry9NativeSDK10remove_tagERKN5godot6StringE.cold.1, symObjAddr: 0xF8B0, symBinAddr: 0x1215D0, symSize: 0x30 }
  - { offset: 0x20F20E, size: 0x8, addend: 0x0, symName: __ZN6sentry9NativeSDK8set_userERKN5godot3RefI10SentryUserEE, symObjAddr: 0x280, symBinAddr: 0x43350, symSize: 0x310 }
  - { offset: 0x20FB5E, size: 0x8, addend: 0x0, symName: __ZN6sentry9NativeSDK8set_userERKN5godot3RefI10SentryUserEE.cold.1, symObjAddr: 0xF8E0, symBinAddr: 0x121600, symSize: 0x30 }
  - { offset: 0x20FB76, size: 0x8, addend: 0x0, symName: __ZN6sentry9NativeSDK11remove_userEv, symObjAddr: 0x5A0, symBinAddr: 0x43660, symSize: 0x10 }
  - { offset: 0x20FBDF, size: 0x8, addend: 0x0, symName: __ZN6sentry9NativeSDK14add_breadcrumbERKN5godot6StringES4_NS_5LevelES4_RKNS1_10DictionaryE, symObjAddr: 0x5B0, symBinAddr: 0x43670, symSize: 0x1B0 }
  - { offset: 0x2103B1, size: 0x8, addend: 0x0, symName: __ZN6sentry9NativeSDK15capture_messageERKN5godot6StringENS_5LevelE, symObjAddr: 0x760, symBinAddr: 0x43820, symSize: 0xF0 }
  - { offset: 0x210644, size: 0x8, addend: 0x0, symName: __ZN6sentry9NativeSDK17get_last_event_idEv, symObjAddr: 0x8B0, symBinAddr: 0x43970, symSize: 0x60 }
  - { offset: 0x210750, size: 0x8, addend: 0x0, symName: __ZN6sentry9NativeSDK12create_eventEv, symObjAddr: 0x910, symBinAddr: 0x439D0, symSize: 0xB0 }
  - { offset: 0x2108A6, size: 0x8, addend: 0x0, symName: __ZN6sentry9NativeSDK12create_eventEv.cold.1, symObjAddr: 0xF910, symBinAddr: 0x121630, symSize: 0x60 }
  - { offset: 0x21094D, size: 0x8, addend: 0x0, symName: __ZN6sentry9NativeSDK13capture_eventERKN5godot3RefI11SentryEventEE, symObjAddr: 0x9B0, symBinAddr: 0x43A80, symSize: 0xD0 }
  - { offset: 0x210ABE, size: 0x8, addend: 0x0, symName: __ZN5godot6Object7cast_toI11NativeEventEEPT_PS0_, symObjAddr: 0xA80, symBinAddr: 0x43B50, symSize: 0xE0 }
  - { offset: 0x210B69, size: 0x8, addend: 0x0, symName: __ZN6sentry9NativeSDK13capture_eventERKN5godot3RefI11SentryEventEE.cold.2, symObjAddr: 0xF9C0, symBinAddr: 0x1216E0, symSize: 0x60 }
  - { offset: 0x210B81, size: 0x8, addend: 0x0, symName: __ZN6sentry9NativeSDK13capture_eventERKN5godot3RefI11SentryEventEE.cold.1, symObjAddr: 0xF970, symBinAddr: 0x121690, symSize: 0x50 }
  - { offset: 0x210B99, size: 0x8, addend: 0x0, symName: __ZN5godot6Object7cast_toI11NativeEventEEPT_PS0_.cold.1, symObjAddr: 0xFA20, symBinAddr: 0x121740, symSize: 0x60 }
  - { offset: 0x210D95, size: 0x8, addend: 0x0, symName: __ZN6sentry9NativeSDK10initializeEv, symObjAddr: 0xB70, symBinAddr: 0x43C30, symSize: 0xB40 }
  - { offset: 0x213053, size: 0x8, addend: 0x0, symName: __ZN6sentry9NativeSDK10initializeEv.cold.2, symObjAddr: 0xFAB0, symBinAddr: 0x1217D0, symSize: 0x30 }
  - { offset: 0x21306B, size: 0x8, addend: 0x0, symName: __ZN6sentry9NativeSDK10initializeEv.cold.1, symObjAddr: 0xFA80, symBinAddr: 0x1217A0, symSize: 0x30 }
  - { offset: 0x2134AD, size: 0x8, addend: 0x0, symName: __ZN12_GLOBAL__N_119_handle_before_sendE14sentry_value_uPvS1_.cold.1, symObjAddr: 0xFAE0, symBinAddr: 0x121800, symSize: 0x60 }
  - { offset: 0x213533, size: 0x8, addend: 0x0, symName: __ZN12_GLOBAL__N_116_handle_on_crashEPK17sentry_ucontext_s14sentry_value_uPv.cold.1, symObjAddr: 0xFB40, symBinAddr: 0x121860, symSize: 0x60 }
  - { offset: 0x213F29, size: 0x8, addend: 0x0, symName: __ZN12_GLOBAL__N_119_log_native_messageE14sentry_level_ePKcP13__va_list_tagPv.cold.1, symObjAddr: 0xFBA0, symBinAddr: 0x1218C0, symSize: 0x60 }
  - { offset: 0x213F49, size: 0x8, addend: 0x0, symName: __ZN6sentry9NativeSDKD2Ev, symObjAddr: 0x2180, symBinAddr: 0x45230, symSize: 0x20 }
  - { offset: 0x213FA7, size: 0x8, addend: 0x0, symName: __ZN6sentry9NativeSDKD1Ev, symObjAddr: 0x21A0, symBinAddr: 0x45250, symSize: 0x20 }
  - { offset: 0x214012, size: 0x8, addend: 0x0, symName: __ZN6sentry9NativeSDKD0Ev, symObjAddr: 0x21C0, symBinAddr: 0x45270, symSize: 0x30 }
  - { offset: 0x21408C, size: 0x8, addend: 0x0, symName: __ZN5godot7VariantC1EPKc, symObjAddr: 0x21F0, symBinAddr: 0x452A0, symSize: 0x60 }
  - { offset: 0x2142C1, size: 0x8, addend: 0x0, symName: __ZN12_GLOBAL__N_116_inject_contextsE14sentry_value_u.cold.1, symObjAddr: 0xFC00, symBinAddr: 0x121920, symSize: 0x30 }
  - { offset: 0x2142EF, size: 0x8, addend: 0x0, symName: __ZN12_GLOBAL__N_116_inject_contextsE14sentry_value_u.cold.2, symObjAddr: 0xFC30, symBinAddr: 0x121950, symSize: 0x30 }
  - { offset: 0x21431D, size: 0x8, addend: 0x0, symName: __ZN5godot7HashMapINS_6StringENS_10DictionaryENS_20HashMapHasherDefaultENS_24HashMapComparatorDefaultIS1_EENS_21DefaultTypedAllocatorINS_14HashMapElementIS1_S2_EEEEED2Ev, symObjAddr: 0x2FF0, symBinAddr: 0x45F40, symSize: 0xF0 }
  - { offset: 0x214697, size: 0x8, addend: 0x0, symName: __ZN5godot6Object7cast_toI11SentryEventEEPT_PS0_.cold.1, symObjAddr: 0xFC60, symBinAddr: 0x121980, symSize: 0x60 }
  - { offset: 0x214880, size: 0x8, addend: 0x0, symName: __ZNSt3__111basic_regexIcNS_12regex_traitsIcEEEC1B8nn190102EPKcNS_15regex_constants18syntax_option_typeE, symObjAddr: 0x30E0, symBinAddr: 0x46030, symSize: 0x90 }
  - { offset: 0x22A101, size: 0x8, addend: 0x0, symName: __ZN5godot8internal23EngineClassRegistrationINS_6ObjectEE8callbackEv.cold.1, symObjAddr: 0xFCC0, symBinAddr: 0x1219E0, symSize: 0x60 }
  - { offset: 0x22A197, size: 0x8, addend: 0x0, symName: __ZN5godot6ObjectD1Ev.cold.1, symObjAddr: 0xFD20, symBinAddr: 0x121A40, symSize: 0x30 }
  - { offset: 0x22A222, size: 0x8, addend: 0x0, symName: __ZN5godot6ObjectD0Ev.cold.1, symObjAddr: 0xFD50, symBinAddr: 0x121A70, symSize: 0x30 }
  - { offset: 0x22A2A9, size: 0x8, addend: 0x0, symName: __ZN5godot7WrappedD1Ev.cold.1, symObjAddr: 0xFD80, symBinAddr: 0x121AA0, symSize: 0x30 }
  - { offset: 0x22A31E, size: 0x8, addend: 0x0, symName: __ZN5godot7WrappedD0Ev.cold.1, symObjAddr: 0xFDB0, symBinAddr: 0x121AD0, symSize: 0x30 }
  - { offset: 0x22A38F, size: 0x8, addend: 0x0, symName: __ZN5godot4ListINS_12PropertyInfoENS_16DefaultAllocatorEE5_Data5eraseEPNS3_7ElementE.cold.2, symObjAddr: 0xFE10, symBinAddr: 0x121B30, symSize: 0x30 }
  - { offset: 0x22A3A7, size: 0x8, addend: 0x0, symName: __ZN5godot4ListINS_12PropertyInfoENS_16DefaultAllocatorEE5_Data5eraseEPNS3_7ElementE.cold.1, symObjAddr: 0xFDE0, symBinAddr: 0x121B00, symSize: 0x30 }
  - { offset: 0x22A3C6, size: 0x8, addend: 0x0, symName: __ZN5godot8internal23EngineClassRegistrationINS_16ClassDBSingletonEE8callbackEv.cold.1, symObjAddr: 0xFE40, symBinAddr: 0x121B60, symSize: 0x60 }
  - { offset: 0x22A3FB, size: 0x8, addend: 0x0, symName: __ZN5godot8internal23EngineClassRegistrationINS_10RefCountedEE8callbackEv.cold.1, symObjAddr: 0xFEA0, symBinAddr: 0x121BC0, symSize: 0x60 }
  - { offset: 0x22A445, size: 0x8, addend: 0x0, symName: __ZN5godot10RefCountedD1Ev.cold.1, symObjAddr: 0xFF00, symBinAddr: 0x121C20, symSize: 0x30 }
  - { offset: 0x22A4E8, size: 0x8, addend: 0x0, symName: __ZN5godot10RefCountedD0Ev.cold.1, symObjAddr: 0xFF30, symBinAddr: 0x121C50, symSize: 0x30 }
  - { offset: 0x22A58C, size: 0x8, addend: 0x0, symName: __ZN5godot8internal23EngineClassRegistrationINS_10ConfigFileEE8callbackEv.cold.1, symObjAddr: 0xFF60, symBinAddr: 0x121C80, symSize: 0x60 }
  - { offset: 0x22A5D6, size: 0x8, addend: 0x0, symName: __ZN5godot10ConfigFileD1Ev.cold.1, symObjAddr: 0xFFC0, symBinAddr: 0x121CE0, symSize: 0x30 }
  - { offset: 0x22A68F, size: 0x8, addend: 0x0, symName: __ZN5godot10ConfigFileD0Ev.cold.1, symObjAddr: 0xFFF0, symBinAddr: 0x121D10, symSize: 0x30 }
  - { offset: 0x22A749, size: 0x8, addend: 0x0, symName: __ZN5godot8internal23EngineClassRegistrationINS_6LoggerEE8callbackEv.cold.1, symObjAddr: 0x10020, symBinAddr: 0x121D40, symSize: 0x60 }
  - { offset: 0x22A77E, size: 0x8, addend: 0x0, symName: __ZN5godot8internal23EngineClassRegistrationINS_9DirAccessEE8callbackEv.cold.1, symObjAddr: 0x10080, symBinAddr: 0x121DA0, symSize: 0x60 }
  - { offset: 0x22A7C8, size: 0x8, addend: 0x0, symName: __ZN5godot9DirAccessD1Ev.cold.1, symObjAddr: 0x100E0, symBinAddr: 0x121E00, symSize: 0x30 }
  - { offset: 0x22A881, size: 0x8, addend: 0x0, symName: __ZN5godot9DirAccessD0Ev.cold.1, symObjAddr: 0x10110, symBinAddr: 0x121E30, symSize: 0x30 }
  - { offset: 0x22A93B, size: 0x8, addend: 0x0, symName: __ZN5godot8internal23EngineClassRegistrationINS_13DisplayServerEE8callbackEv.cold.1, symObjAddr: 0x10140, symBinAddr: 0x121E60, symSize: 0x60 }
  - { offset: 0x22A970, size: 0x8, addend: 0x0, symName: __ZN5godot8internal23EngineClassRegistrationINS_6EngineEE8callbackEv.cold.1, symObjAddr: 0x101A0, symBinAddr: 0x121EC0, symSize: 0x60 }
  - { offset: 0x22A9A5, size: 0x8, addend: 0x0, symName: __ZN5godot8internal23EngineClassRegistrationINS_10FileAccessEE8callbackEv.cold.1, symObjAddr: 0x10200, symBinAddr: 0x121F20, symSize: 0x60 }
  - { offset: 0x22A9EF, size: 0x8, addend: 0x0, symName: __ZN5godot10FileAccessD1Ev.cold.1, symObjAddr: 0x10260, symBinAddr: 0x121F80, symSize: 0x30 }
  - { offset: 0x22AAA8, size: 0x8, addend: 0x0, symName: __ZN5godot10FileAccessD0Ev.cold.1, symObjAddr: 0x10290, symBinAddr: 0x121FB0, symSize: 0x30 }
  - { offset: 0x22AB62, size: 0x8, addend: 0x0, symName: __ZN5godot8internal23EngineClassRegistrationINS_2OSEE8callbackEv.cold.1, symObjAddr: 0x102C0, symBinAddr: 0x121FE0, symSize: 0x60 }
  - { offset: 0x22AB97, size: 0x8, addend: 0x0, symName: __ZN5godot8internal23EngineClassRegistrationINS_15ProjectSettingsEE8callbackEv.cold.1, symObjAddr: 0x10320, symBinAddr: 0x122040, symSize: 0x60 }
  - { offset: 0x22CA91, size: 0x8, addend: 0x0, symName: __ZN6sentry6native23variant_to_sentry_valueERKN5godot7VariantE, symObjAddr: 0x0, symBinAddr: 0x463C0, symSize: 0x410 }
  - { offset: 0x22D960, size: 0x8, addend: 0x0, symName: __ZN6sentry6native23variant_to_sentry_valueERKN5godot7VariantE, symObjAddr: 0x0, symBinAddr: 0x463C0, symSize: 0x410 }
  - { offset: 0x22DFBC, size: 0x8, addend: 0x0, symName: __ZN6sentry6native22strings_to_sentry_listERKN5godot17PackedStringArrayE, symObjAddr: 0x410, symBinAddr: 0x467D0, symSize: 0xB0 }
  - { offset: 0x22E1C0, size: 0x8, addend: 0x0, symName: __ZN6sentry6native9make_uuidEv, symObjAddr: 0x4C0, symBinAddr: 0x46880, symSize: 0x70 }
  - { offset: 0x22E229, size: 0x8, addend: 0x0, symName: __ZN6sentry6native15level_to_nativeENS_5LevelE, symObjAddr: 0x530, symBinAddr: 0x468F0, symSize: 0x50 }
  - { offset: 0x22E274, size: 0x8, addend: 0x0, symName: __ZN6sentry6native15native_to_levelE14sentry_level_e, symObjAddr: 0x580, symBinAddr: 0x46940, symSize: 0x50 }
  - { offset: 0x22E2BF, size: 0x8, addend: 0x0, symName: __ZN6sentry6native16level_to_cstringENS_5LevelE, symObjAddr: 0x5D0, symBinAddr: 0x46990, symSize: 0x70 }
  - { offset: 0x22E361, size: 0x8, addend: 0x0, symName: __ZN6sentry6native16cstring_to_levelERKN5godot11CharStringTIcEE, symObjAddr: 0x640, symBinAddr: 0x46A00, symSize: 0xF1 }
  - { offset: 0x230188, size: 0x8, addend: 0x0, symName: __GLOBAL__sub_I_doc_data.gen.cpp, symObjAddr: 0x0, symBinAddr: 0x46B00, symSize: 0x29 }
  - { offset: 0x2301CC, size: 0x8, addend: 0x0, symName: __ZL22_doc_data_registration, symObjAddr: 0x2E29, symBinAddr: 0x1DD1C0, symSize: 0x0 }
  - { offset: 0x23024C, size: 0x8, addend: 0x0, symName: __ZL20_doc_data_compressed, symObjAddr: 0x30, symBinAddr: 0x1ADE40, symSize: 0x0 }
  - { offset: 0x23026F, size: 0x8, addend: 0x0, symName: __GLOBAL__sub_I_doc_data.gen.cpp, symObjAddr: 0x0, symBinAddr: 0x46B00, symSize: 0x29 }
  - { offset: 0x230C13, size: 0x8, addend: 0x0, symName: _gdextension_interface_get_proc_address, symObjAddr: 0x5D310, symBinAddr: 0x1E9A70, symSize: 0x0 }
  - { offset: 0x230C29, size: 0x8, addend: 0x0, symName: _library, symObjAddr: 0x5D318, symBinAddr: 0x1E9A78, symSize: 0x0 }
  - { offset: 0x230C3F, size: 0x8, addend: 0x0, symName: _token, symObjAddr: 0x5D320, symBinAddr: 0x1E9A80, symSize: 0x0 }
  - { offset: 0x230C55, size: 0x8, addend: 0x0, symName: _godot_version, symObjAddr: 0x5D328, symBinAddr: 0x1E9A88, symSize: 0x0 }
  - { offset: 0x230C6B, size: 0x8, addend: 0x0, symName: _gdextension_interface_get_godot_version, symObjAddr: 0x5D340, symBinAddr: 0x1E9AA0, symSize: 0x0 }
  - { offset: 0x230C81, size: 0x8, addend: 0x0, symName: _gdextension_interface_mem_alloc, symObjAddr: 0x5D348, symBinAddr: 0x1E9AA8, symSize: 0x0 }
  - { offset: 0x230C97, size: 0x8, addend: 0x0, symName: _gdextension_interface_mem_realloc, symObjAddr: 0x5D350, symBinAddr: 0x1E9AB0, symSize: 0x0 }
  - { offset: 0x230CAD, size: 0x8, addend: 0x0, symName: _gdextension_interface_mem_free, symObjAddr: 0x5D358, symBinAddr: 0x1E9AB8, symSize: 0x0 }
  - { offset: 0x230CC3, size: 0x8, addend: 0x0, symName: _gdextension_interface_print_error, symObjAddr: 0x5D360, symBinAddr: 0x1E9AC0, symSize: 0x0 }
  - { offset: 0x230CD9, size: 0x8, addend: 0x0, symName: _gdextension_interface_print_error_with_message, symObjAddr: 0x5D368, symBinAddr: 0x1E9AC8, symSize: 0x0 }
  - { offset: 0x230CEF, size: 0x8, addend: 0x0, symName: _gdextension_interface_print_warning, symObjAddr: 0x5D370, symBinAddr: 0x1E9AD0, symSize: 0x0 }
  - { offset: 0x230D05, size: 0x8, addend: 0x0, symName: _gdextension_interface_print_warning_with_message, symObjAddr: 0x5D378, symBinAddr: 0x1E9AD8, symSize: 0x0 }
  - { offset: 0x230D1B, size: 0x8, addend: 0x0, symName: _gdextension_interface_print_script_error, symObjAddr: 0x5D380, symBinAddr: 0x1E9AE0, symSize: 0x0 }
  - { offset: 0x230D31, size: 0x8, addend: 0x0, symName: _gdextension_interface_print_script_error_with_message, symObjAddr: 0x5D388, symBinAddr: 0x1E9AE8, symSize: 0x0 }
  - { offset: 0x230D47, size: 0x8, addend: 0x0, symName: _gdextension_interface_get_native_struct_size, symObjAddr: 0x5D390, symBinAddr: 0x1E9AF0, symSize: 0x0 }
  - { offset: 0x230D5D, size: 0x8, addend: 0x0, symName: _gdextension_interface_variant_new_copy, symObjAddr: 0x5D398, symBinAddr: 0x1E9AF8, symSize: 0x0 }
  - { offset: 0x230D73, size: 0x8, addend: 0x0, symName: _gdextension_interface_variant_new_nil, symObjAddr: 0x5D3A0, symBinAddr: 0x1E9B00, symSize: 0x0 }
  - { offset: 0x230D89, size: 0x8, addend: 0x0, symName: _gdextension_interface_variant_destroy, symObjAddr: 0x5D3A8, symBinAddr: 0x1E9B08, symSize: 0x0 }
  - { offset: 0x230D9F, size: 0x8, addend: 0x0, symName: _gdextension_interface_variant_call, symObjAddr: 0x5D3B0, symBinAddr: 0x1E9B10, symSize: 0x0 }
  - { offset: 0x230DB5, size: 0x8, addend: 0x0, symName: _gdextension_interface_variant_call_static, symObjAddr: 0x5D3B8, symBinAddr: 0x1E9B18, symSize: 0x0 }
  - { offset: 0x230DCB, size: 0x8, addend: 0x0, symName: _gdextension_interface_variant_evaluate, symObjAddr: 0x5D3C0, symBinAddr: 0x1E9B20, symSize: 0x0 }
  - { offset: 0x230DE1, size: 0x8, addend: 0x0, symName: _gdextension_interface_variant_set, symObjAddr: 0x5D3C8, symBinAddr: 0x1E9B28, symSize: 0x0 }
  - { offset: 0x230DF7, size: 0x8, addend: 0x0, symName: _gdextension_interface_variant_set_named, symObjAddr: 0x5D3D0, symBinAddr: 0x1E9B30, symSize: 0x0 }
  - { offset: 0x230E0D, size: 0x8, addend: 0x0, symName: _gdextension_interface_variant_set_keyed, symObjAddr: 0x5D3D8, symBinAddr: 0x1E9B38, symSize: 0x0 }
  - { offset: 0x230E23, size: 0x8, addend: 0x0, symName: _gdextension_interface_variant_set_indexed, symObjAddr: 0x5D3E0, symBinAddr: 0x1E9B40, symSize: 0x0 }
  - { offset: 0x230E39, size: 0x8, addend: 0x0, symName: _gdextension_interface_variant_get, symObjAddr: 0x5D3E8, symBinAddr: 0x1E9B48, symSize: 0x0 }
  - { offset: 0x230E4F, size: 0x8, addend: 0x0, symName: _gdextension_interface_variant_get_named, symObjAddr: 0x5D3F0, symBinAddr: 0x1E9B50, symSize: 0x0 }
  - { offset: 0x230E65, size: 0x8, addend: 0x0, symName: _gdextension_interface_variant_get_keyed, symObjAddr: 0x5D3F8, symBinAddr: 0x1E9B58, symSize: 0x0 }
  - { offset: 0x230E7B, size: 0x8, addend: 0x0, symName: _gdextension_interface_variant_get_indexed, symObjAddr: 0x5D400, symBinAddr: 0x1E9B60, symSize: 0x0 }
  - { offset: 0x230E91, size: 0x8, addend: 0x0, symName: _gdextension_interface_variant_iter_init, symObjAddr: 0x5D408, symBinAddr: 0x1E9B68, symSize: 0x0 }
  - { offset: 0x230EA7, size: 0x8, addend: 0x0, symName: _gdextension_interface_variant_iter_next, symObjAddr: 0x5D410, symBinAddr: 0x1E9B70, symSize: 0x0 }
  - { offset: 0x230EBD, size: 0x8, addend: 0x0, symName: _gdextension_interface_variant_iter_get, symObjAddr: 0x5D418, symBinAddr: 0x1E9B78, symSize: 0x0 }
  - { offset: 0x230ED3, size: 0x8, addend: 0x0, symName: _gdextension_interface_variant_hash, symObjAddr: 0x5D420, symBinAddr: 0x1E9B80, symSize: 0x0 }
  - { offset: 0x230EE9, size: 0x8, addend: 0x0, symName: _gdextension_interface_variant_recursive_hash, symObjAddr: 0x5D428, symBinAddr: 0x1E9B88, symSize: 0x0 }
  - { offset: 0x230EFF, size: 0x8, addend: 0x0, symName: _gdextension_interface_variant_hash_compare, symObjAddr: 0x5D430, symBinAddr: 0x1E9B90, symSize: 0x0 }
  - { offset: 0x230F15, size: 0x8, addend: 0x0, symName: _gdextension_interface_variant_booleanize, symObjAddr: 0x5D438, symBinAddr: 0x1E9B98, symSize: 0x0 }
  - { offset: 0x230F2B, size: 0x8, addend: 0x0, symName: _gdextension_interface_variant_duplicate, symObjAddr: 0x5D440, symBinAddr: 0x1E9BA0, symSize: 0x0 }
  - { offset: 0x230F41, size: 0x8, addend: 0x0, symName: _gdextension_interface_variant_stringify, symObjAddr: 0x5D448, symBinAddr: 0x1E9BA8, symSize: 0x0 }
  - { offset: 0x230F57, size: 0x8, addend: 0x0, symName: _gdextension_interface_variant_get_type, symObjAddr: 0x5D450, symBinAddr: 0x1E9BB0, symSize: 0x0 }
  - { offset: 0x230F6D, size: 0x8, addend: 0x0, symName: _gdextension_interface_variant_has_method, symObjAddr: 0x5D458, symBinAddr: 0x1E9BB8, symSize: 0x0 }
  - { offset: 0x230F83, size: 0x8, addend: 0x0, symName: _gdextension_interface_variant_has_member, symObjAddr: 0x5D460, symBinAddr: 0x1E9BC0, symSize: 0x0 }
  - { offset: 0x230F99, size: 0x8, addend: 0x0, symName: _gdextension_interface_variant_has_key, symObjAddr: 0x5D468, symBinAddr: 0x1E9BC8, symSize: 0x0 }
  - { offset: 0x230FAF, size: 0x8, addend: 0x0, symName: _gdextension_interface_variant_get_object_instance_id, symObjAddr: 0x5D470, symBinAddr: 0x1E9BD0, symSize: 0x0 }
  - { offset: 0x230FC5, size: 0x8, addend: 0x0, symName: _gdextension_interface_variant_get_type_name, symObjAddr: 0x5D478, symBinAddr: 0x1E9BD8, symSize: 0x0 }
  - { offset: 0x230FDB, size: 0x8, addend: 0x0, symName: _gdextension_interface_variant_can_convert, symObjAddr: 0x5D480, symBinAddr: 0x1E9BE0, symSize: 0x0 }
  - { offset: 0x230FF1, size: 0x8, addend: 0x0, symName: _gdextension_interface_variant_can_convert_strict, symObjAddr: 0x5D488, symBinAddr: 0x1E9BE8, symSize: 0x0 }
  - { offset: 0x231007, size: 0x8, addend: 0x0, symName: _gdextension_interface_get_variant_from_type_constructor, symObjAddr: 0x5D490, symBinAddr: 0x1E9BF0, symSize: 0x0 }
  - { offset: 0x23101D, size: 0x8, addend: 0x0, symName: _gdextension_interface_get_variant_to_type_constructor, symObjAddr: 0x5D498, symBinAddr: 0x1E9BF8, symSize: 0x0 }
  - { offset: 0x231033, size: 0x8, addend: 0x0, symName: _gdextension_interface_variant_get_ptr_internal_getter, symObjAddr: 0x5D4A0, symBinAddr: 0x1E9C00, symSize: 0x0 }
  - { offset: 0x231049, size: 0x8, addend: 0x0, symName: _gdextension_interface_variant_get_ptr_operator_evaluator, symObjAddr: 0x5D4A8, symBinAddr: 0x1E9C08, symSize: 0x0 }
  - { offset: 0x23105F, size: 0x8, addend: 0x0, symName: _gdextension_interface_variant_get_ptr_builtin_method, symObjAddr: 0x5D4B0, symBinAddr: 0x1E9C10, symSize: 0x0 }
  - { offset: 0x231075, size: 0x8, addend: 0x0, symName: _gdextension_interface_variant_get_ptr_constructor, symObjAddr: 0x5D4B8, symBinAddr: 0x1E9C18, symSize: 0x0 }
  - { offset: 0x23108B, size: 0x8, addend: 0x0, symName: _gdextension_interface_variant_get_ptr_destructor, symObjAddr: 0x5D4C0, symBinAddr: 0x1E9C20, symSize: 0x0 }
  - { offset: 0x2310A1, size: 0x8, addend: 0x0, symName: _gdextension_interface_variant_construct, symObjAddr: 0x5D4C8, symBinAddr: 0x1E9C28, symSize: 0x0 }
  - { offset: 0x2310B7, size: 0x8, addend: 0x0, symName: _gdextension_interface_variant_get_ptr_setter, symObjAddr: 0x5D4D0, symBinAddr: 0x1E9C30, symSize: 0x0 }
  - { offset: 0x2310CD, size: 0x8, addend: 0x0, symName: _gdextension_interface_variant_get_ptr_getter, symObjAddr: 0x5D4D8, symBinAddr: 0x1E9C38, symSize: 0x0 }
  - { offset: 0x2310E3, size: 0x8, addend: 0x0, symName: _gdextension_interface_variant_get_ptr_indexed_setter, symObjAddr: 0x5D4E0, symBinAddr: 0x1E9C40, symSize: 0x0 }
  - { offset: 0x2310F9, size: 0x8, addend: 0x0, symName: _gdextension_interface_variant_get_ptr_indexed_getter, symObjAddr: 0x5D4E8, symBinAddr: 0x1E9C48, symSize: 0x0 }
  - { offset: 0x23110F, size: 0x8, addend: 0x0, symName: _gdextension_interface_variant_get_ptr_keyed_setter, symObjAddr: 0x5D4F0, symBinAddr: 0x1E9C50, symSize: 0x0 }
  - { offset: 0x231125, size: 0x8, addend: 0x0, symName: _gdextension_interface_variant_get_ptr_keyed_getter, symObjAddr: 0x5D4F8, symBinAddr: 0x1E9C58, symSize: 0x0 }
  - { offset: 0x23113B, size: 0x8, addend: 0x0, symName: _gdextension_interface_variant_get_ptr_keyed_checker, symObjAddr: 0x5D500, symBinAddr: 0x1E9C60, symSize: 0x0 }
  - { offset: 0x231151, size: 0x8, addend: 0x0, symName: _gdextension_interface_variant_get_constant_value, symObjAddr: 0x5D508, symBinAddr: 0x1E9C68, symSize: 0x0 }
  - { offset: 0x231167, size: 0x8, addend: 0x0, symName: _gdextension_interface_variant_get_ptr_utility_function, symObjAddr: 0x5D510, symBinAddr: 0x1E9C70, symSize: 0x0 }
  - { offset: 0x23117D, size: 0x8, addend: 0x0, symName: _gdextension_interface_string_new_with_latin1_chars, symObjAddr: 0x5D518, symBinAddr: 0x1E9C78, symSize: 0x0 }
  - { offset: 0x231193, size: 0x8, addend: 0x0, symName: _gdextension_interface_string_new_with_utf8_chars, symObjAddr: 0x5D520, symBinAddr: 0x1E9C80, symSize: 0x0 }
  - { offset: 0x2311A9, size: 0x8, addend: 0x0, symName: _gdextension_interface_string_new_with_utf16_chars, symObjAddr: 0x5D528, symBinAddr: 0x1E9C88, symSize: 0x0 }
  - { offset: 0x2311BF, size: 0x8, addend: 0x0, symName: _gdextension_interface_string_new_with_utf32_chars, symObjAddr: 0x5D530, symBinAddr: 0x1E9C90, symSize: 0x0 }
  - { offset: 0x2311D5, size: 0x8, addend: 0x0, symName: _gdextension_interface_string_new_with_wide_chars, symObjAddr: 0x5D538, symBinAddr: 0x1E9C98, symSize: 0x0 }
  - { offset: 0x2311EB, size: 0x8, addend: 0x0, symName: _gdextension_interface_string_new_with_latin1_chars_and_len, symObjAddr: 0x5D540, symBinAddr: 0x1E9CA0, symSize: 0x0 }
  - { offset: 0x231201, size: 0x8, addend: 0x0, symName: _gdextension_interface_string_new_with_utf8_chars_and_len, symObjAddr: 0x5D548, symBinAddr: 0x1E9CA8, symSize: 0x0 }
  - { offset: 0x231217, size: 0x8, addend: 0x0, symName: _gdextension_interface_string_new_with_utf8_chars_and_len2, symObjAddr: 0x5D550, symBinAddr: 0x1E9CB0, symSize: 0x0 }
  - { offset: 0x23122D, size: 0x8, addend: 0x0, symName: _gdextension_interface_string_new_with_utf16_chars_and_len, symObjAddr: 0x5D558, symBinAddr: 0x1E9CB8, symSize: 0x0 }
  - { offset: 0x231243, size: 0x8, addend: 0x0, symName: _gdextension_interface_string_new_with_utf16_chars_and_len2, symObjAddr: 0x5D560, symBinAddr: 0x1E9CC0, symSize: 0x0 }
  - { offset: 0x231259, size: 0x8, addend: 0x0, symName: _gdextension_interface_string_new_with_utf32_chars_and_len, symObjAddr: 0x5D568, symBinAddr: 0x1E9CC8, symSize: 0x0 }
  - { offset: 0x23126F, size: 0x8, addend: 0x0, symName: _gdextension_interface_string_new_with_wide_chars_and_len, symObjAddr: 0x5D570, symBinAddr: 0x1E9CD0, symSize: 0x0 }
  - { offset: 0x231285, size: 0x8, addend: 0x0, symName: _gdextension_interface_string_to_latin1_chars, symObjAddr: 0x5D578, symBinAddr: 0x1E9CD8, symSize: 0x0 }
  - { offset: 0x23129B, size: 0x8, addend: 0x0, symName: _gdextension_interface_string_to_utf8_chars, symObjAddr: 0x5D580, symBinAddr: 0x1E9CE0, symSize: 0x0 }
  - { offset: 0x2312B1, size: 0x8, addend: 0x0, symName: _gdextension_interface_string_to_utf16_chars, symObjAddr: 0x5D588, symBinAddr: 0x1E9CE8, symSize: 0x0 }
  - { offset: 0x2312C7, size: 0x8, addend: 0x0, symName: _gdextension_interface_string_to_utf32_chars, symObjAddr: 0x5D590, symBinAddr: 0x1E9CF0, symSize: 0x0 }
  - { offset: 0x2312DD, size: 0x8, addend: 0x0, symName: _gdextension_interface_string_to_wide_chars, symObjAddr: 0x5D598, symBinAddr: 0x1E9CF8, symSize: 0x0 }
  - { offset: 0x2312F3, size: 0x8, addend: 0x0, symName: _gdextension_interface_string_operator_index, symObjAddr: 0x5D5A0, symBinAddr: 0x1E9D00, symSize: 0x0 }
  - { offset: 0x231309, size: 0x8, addend: 0x0, symName: _gdextension_interface_string_operator_index_const, symObjAddr: 0x5D5A8, symBinAddr: 0x1E9D08, symSize: 0x0 }
  - { offset: 0x23131F, size: 0x8, addend: 0x0, symName: _gdextension_interface_string_operator_plus_eq_string, symObjAddr: 0x5D5B0, symBinAddr: 0x1E9D10, symSize: 0x0 }
  - { offset: 0x231335, size: 0x8, addend: 0x0, symName: _gdextension_interface_string_operator_plus_eq_char, symObjAddr: 0x5D5B8, symBinAddr: 0x1E9D18, symSize: 0x0 }
  - { offset: 0x23134B, size: 0x8, addend: 0x0, symName: _gdextension_interface_string_operator_plus_eq_cstr, symObjAddr: 0x5D5C0, symBinAddr: 0x1E9D20, symSize: 0x0 }
  - { offset: 0x231361, size: 0x8, addend: 0x0, symName: _gdextension_interface_string_operator_plus_eq_wcstr, symObjAddr: 0x5D5C8, symBinAddr: 0x1E9D28, symSize: 0x0 }
  - { offset: 0x231377, size: 0x8, addend: 0x0, symName: _gdextension_interface_string_operator_plus_eq_c32str, symObjAddr: 0x5D5D0, symBinAddr: 0x1E9D30, symSize: 0x0 }
  - { offset: 0x23138D, size: 0x8, addend: 0x0, symName: _gdextension_interface_string_resize, symObjAddr: 0x5D5D8, symBinAddr: 0x1E9D38, symSize: 0x0 }
  - { offset: 0x2313A3, size: 0x8, addend: 0x0, symName: _gdextension_interface_string_name_new_with_latin1_chars, symObjAddr: 0x5D5E0, symBinAddr: 0x1E9D40, symSize: 0x0 }
  - { offset: 0x2313B9, size: 0x8, addend: 0x0, symName: _gdextension_interface_xml_parser_open_buffer, symObjAddr: 0x5D5E8, symBinAddr: 0x1E9D48, symSize: 0x0 }
  - { offset: 0x2313CF, size: 0x8, addend: 0x0, symName: _gdextension_interface_file_access_store_buffer, symObjAddr: 0x5D5F0, symBinAddr: 0x1E9D50, symSize: 0x0 }
  - { offset: 0x2313E5, size: 0x8, addend: 0x0, symName: _gdextension_interface_file_access_get_buffer, symObjAddr: 0x5D5F8, symBinAddr: 0x1E9D58, symSize: 0x0 }
  - { offset: 0x2313FB, size: 0x8, addend: 0x0, symName: _gdextension_interface_worker_thread_pool_add_native_group_task, symObjAddr: 0x5D600, symBinAddr: 0x1E9D60, symSize: 0x0 }
  - { offset: 0x231411, size: 0x8, addend: 0x0, symName: _gdextension_interface_worker_thread_pool_add_native_task, symObjAddr: 0x5D608, symBinAddr: 0x1E9D68, symSize: 0x0 }
  - { offset: 0x231427, size: 0x8, addend: 0x0, symName: _gdextension_interface_packed_byte_array_operator_index, symObjAddr: 0x5D610, symBinAddr: 0x1E9D70, symSize: 0x0 }
  - { offset: 0x23143D, size: 0x8, addend: 0x0, symName: _gdextension_interface_packed_byte_array_operator_index_const, symObjAddr: 0x5D618, symBinAddr: 0x1E9D78, symSize: 0x0 }
  - { offset: 0x231453, size: 0x8, addend: 0x0, symName: _gdextension_interface_packed_color_array_operator_index, symObjAddr: 0x5D620, symBinAddr: 0x1E9D80, symSize: 0x0 }
  - { offset: 0x231469, size: 0x8, addend: 0x0, symName: _gdextension_interface_packed_color_array_operator_index_const, symObjAddr: 0x5D628, symBinAddr: 0x1E9D88, symSize: 0x0 }
  - { offset: 0x23147F, size: 0x8, addend: 0x0, symName: _gdextension_interface_packed_float32_array_operator_index, symObjAddr: 0x5D630, symBinAddr: 0x1E9D90, symSize: 0x0 }
  - { offset: 0x231495, size: 0x8, addend: 0x0, symName: _gdextension_interface_packed_float32_array_operator_index_const, symObjAddr: 0x5D638, symBinAddr: 0x1E9D98, symSize: 0x0 }
  - { offset: 0x2314AB, size: 0x8, addend: 0x0, symName: _gdextension_interface_packed_float64_array_operator_index, symObjAddr: 0x5D640, symBinAddr: 0x1E9DA0, symSize: 0x0 }
  - { offset: 0x2314C1, size: 0x8, addend: 0x0, symName: _gdextension_interface_packed_float64_array_operator_index_const, symObjAddr: 0x5D648, symBinAddr: 0x1E9DA8, symSize: 0x0 }
  - { offset: 0x2314D7, size: 0x8, addend: 0x0, symName: _gdextension_interface_packed_int32_array_operator_index, symObjAddr: 0x5D650, symBinAddr: 0x1E9DB0, symSize: 0x0 }
  - { offset: 0x2314ED, size: 0x8, addend: 0x0, symName: _gdextension_interface_packed_int32_array_operator_index_const, symObjAddr: 0x5D658, symBinAddr: 0x1E9DB8, symSize: 0x0 }
  - { offset: 0x231503, size: 0x8, addend: 0x0, symName: _gdextension_interface_packed_int64_array_operator_index, symObjAddr: 0x5D660, symBinAddr: 0x1E9DC0, symSize: 0x0 }
  - { offset: 0x231519, size: 0x8, addend: 0x0, symName: _gdextension_interface_packed_int64_array_operator_index_const, symObjAddr: 0x5D668, symBinAddr: 0x1E9DC8, symSize: 0x0 }
  - { offset: 0x23152F, size: 0x8, addend: 0x0, symName: _gdextension_interface_packed_string_array_operator_index, symObjAddr: 0x5D670, symBinAddr: 0x1E9DD0, symSize: 0x0 }
  - { offset: 0x231545, size: 0x8, addend: 0x0, symName: _gdextension_interface_packed_string_array_operator_index_const, symObjAddr: 0x5D678, symBinAddr: 0x1E9DD8, symSize: 0x0 }
  - { offset: 0x23155B, size: 0x8, addend: 0x0, symName: _gdextension_interface_packed_vector2_array_operator_index, symObjAddr: 0x5D680, symBinAddr: 0x1E9DE0, symSize: 0x0 }
  - { offset: 0x231571, size: 0x8, addend: 0x0, symName: _gdextension_interface_packed_vector2_array_operator_index_const, symObjAddr: 0x5D688, symBinAddr: 0x1E9DE8, symSize: 0x0 }
  - { offset: 0x231587, size: 0x8, addend: 0x0, symName: _gdextension_interface_packed_vector3_array_operator_index, symObjAddr: 0x5D690, symBinAddr: 0x1E9DF0, symSize: 0x0 }
  - { offset: 0x23159D, size: 0x8, addend: 0x0, symName: _gdextension_interface_packed_vector3_array_operator_index_const, symObjAddr: 0x5D698, symBinAddr: 0x1E9DF8, symSize: 0x0 }
  - { offset: 0x2315B3, size: 0x8, addend: 0x0, symName: _gdextension_interface_packed_vector4_array_operator_index, symObjAddr: 0x5D6A0, symBinAddr: 0x1E9E00, symSize: 0x0 }
  - { offset: 0x2315C9, size: 0x8, addend: 0x0, symName: _gdextension_interface_packed_vector4_array_operator_index_const, symObjAddr: 0x5D6A8, symBinAddr: 0x1E9E08, symSize: 0x0 }
  - { offset: 0x2315DF, size: 0x8, addend: 0x0, symName: _gdextension_interface_array_operator_index, symObjAddr: 0x5D6B0, symBinAddr: 0x1E9E10, symSize: 0x0 }
  - { offset: 0x2315F5, size: 0x8, addend: 0x0, symName: _gdextension_interface_array_operator_index_const, symObjAddr: 0x5D6B8, symBinAddr: 0x1E9E18, symSize: 0x0 }
  - { offset: 0x23160B, size: 0x8, addend: 0x0, symName: _gdextension_interface_array_ref, symObjAddr: 0x5D6C0, symBinAddr: 0x1E9E20, symSize: 0x0 }
  - { offset: 0x231621, size: 0x8, addend: 0x0, symName: _gdextension_interface_array_set_typed, symObjAddr: 0x5D6C8, symBinAddr: 0x1E9E28, symSize: 0x0 }
  - { offset: 0x231637, size: 0x8, addend: 0x0, symName: _gdextension_interface_dictionary_operator_index, symObjAddr: 0x5D6D0, symBinAddr: 0x1E9E30, symSize: 0x0 }
  - { offset: 0x23164D, size: 0x8, addend: 0x0, symName: _gdextension_interface_dictionary_operator_index_const, symObjAddr: 0x5D6D8, symBinAddr: 0x1E9E38, symSize: 0x0 }
  - { offset: 0x231663, size: 0x8, addend: 0x0, symName: _gdextension_interface_dictionary_set_typed, symObjAddr: 0x5D6E0, symBinAddr: 0x1E9E40, symSize: 0x0 }
  - { offset: 0x231679, size: 0x8, addend: 0x0, symName: _gdextension_interface_object_method_bind_call, symObjAddr: 0x5D6E8, symBinAddr: 0x1E9E48, symSize: 0x0 }
  - { offset: 0x23168F, size: 0x8, addend: 0x0, symName: _gdextension_interface_object_method_bind_ptrcall, symObjAddr: 0x5D6F0, symBinAddr: 0x1E9E50, symSize: 0x0 }
  - { offset: 0x2316A5, size: 0x8, addend: 0x0, symName: _gdextension_interface_object_destroy, symObjAddr: 0x5D6F8, symBinAddr: 0x1E9E58, symSize: 0x0 }
  - { offset: 0x2316BB, size: 0x8, addend: 0x0, symName: _gdextension_interface_global_get_singleton, symObjAddr: 0x5D700, symBinAddr: 0x1E9E60, symSize: 0x0 }
  - { offset: 0x2316D1, size: 0x8, addend: 0x0, symName: _gdextension_interface_object_get_instance_binding, symObjAddr: 0x5D708, symBinAddr: 0x1E9E68, symSize: 0x0 }
  - { offset: 0x2316E7, size: 0x8, addend: 0x0, symName: _gdextension_interface_object_set_instance_binding, symObjAddr: 0x5D710, symBinAddr: 0x1E9E70, symSize: 0x0 }
  - { offset: 0x2316FD, size: 0x8, addend: 0x0, symName: _gdextension_interface_object_free_instance_binding, symObjAddr: 0x5D718, symBinAddr: 0x1E9E78, symSize: 0x0 }
  - { offset: 0x231713, size: 0x8, addend: 0x0, symName: _gdextension_interface_object_set_instance, symObjAddr: 0x5D720, symBinAddr: 0x1E9E80, symSize: 0x0 }
  - { offset: 0x231729, size: 0x8, addend: 0x0, symName: _gdextension_interface_object_get_class_name, symObjAddr: 0x5D728, symBinAddr: 0x1E9E88, symSize: 0x0 }
  - { offset: 0x23173F, size: 0x8, addend: 0x0, symName: _gdextension_interface_object_cast_to, symObjAddr: 0x5D730, symBinAddr: 0x1E9E90, symSize: 0x0 }
  - { offset: 0x231755, size: 0x8, addend: 0x0, symName: _gdextension_interface_object_get_instance_from_id, symObjAddr: 0x5D738, symBinAddr: 0x1E9E98, symSize: 0x0 }
  - { offset: 0x23176B, size: 0x8, addend: 0x0, symName: _gdextension_interface_object_get_instance_id, symObjAddr: 0x5D740, symBinAddr: 0x1E9EA0, symSize: 0x0 }
  - { offset: 0x231781, size: 0x8, addend: 0x0, symName: _gdextension_interface_object_has_script_method, symObjAddr: 0x5D748, symBinAddr: 0x1E9EA8, symSize: 0x0 }
  - { offset: 0x231797, size: 0x8, addend: 0x0, symName: _gdextension_interface_object_call_script_method, symObjAddr: 0x5D750, symBinAddr: 0x1E9EB0, symSize: 0x0 }
  - { offset: 0x2317AD, size: 0x8, addend: 0x0, symName: _gdextension_interface_callable_custom_create2, symObjAddr: 0x5D758, symBinAddr: 0x1E9EB8, symSize: 0x0 }
  - { offset: 0x2317C3, size: 0x8, addend: 0x0, symName: _gdextension_interface_callable_custom_get_userdata, symObjAddr: 0x5D760, symBinAddr: 0x1E9EC0, symSize: 0x0 }
  - { offset: 0x2317D9, size: 0x8, addend: 0x0, symName: _gdextension_interface_ref_get_object, symObjAddr: 0x5D768, symBinAddr: 0x1E9EC8, symSize: 0x0 }
  - { offset: 0x2317EF, size: 0x8, addend: 0x0, symName: _gdextension_interface_ref_set_object, symObjAddr: 0x5D770, symBinAddr: 0x1E9ED0, symSize: 0x0 }
  - { offset: 0x231805, size: 0x8, addend: 0x0, symName: _gdextension_interface_script_instance_create3, symObjAddr: 0x5D778, symBinAddr: 0x1E9ED8, symSize: 0x0 }
  - { offset: 0x23181B, size: 0x8, addend: 0x0, symName: _gdextension_interface_placeholder_script_instance_create, symObjAddr: 0x5D780, symBinAddr: 0x1E9EE0, symSize: 0x0 }
  - { offset: 0x231831, size: 0x8, addend: 0x0, symName: _gdextension_interface_placeholder_script_instance_update, symObjAddr: 0x5D788, symBinAddr: 0x1E9EE8, symSize: 0x0 }
  - { offset: 0x231847, size: 0x8, addend: 0x0, symName: _gdextension_interface_classdb_construct_object2, symObjAddr: 0x5D790, symBinAddr: 0x1E9EF0, symSize: 0x0 }
  - { offset: 0x23185D, size: 0x8, addend: 0x0, symName: _gdextension_interface_classdb_get_method_bind, symObjAddr: 0x5D798, symBinAddr: 0x1E9EF8, symSize: 0x0 }
  - { offset: 0x231873, size: 0x8, addend: 0x0, symName: _gdextension_interface_classdb_get_class_tag, symObjAddr: 0x5D7A0, symBinAddr: 0x1E9F00, symSize: 0x0 }
  - { offset: 0x231889, size: 0x8, addend: 0x0, symName: _gdextension_interface_classdb_register_extension_class4, symObjAddr: 0x5D7A8, symBinAddr: 0x1E9F08, symSize: 0x0 }
  - { offset: 0x23189F, size: 0x8, addend: 0x0, symName: _gdextension_interface_classdb_register_extension_class_method, symObjAddr: 0x5D7B0, symBinAddr: 0x1E9F10, symSize: 0x0 }
  - { offset: 0x2318B5, size: 0x8, addend: 0x0, symName: _gdextension_interface_classdb_register_extension_class_virtual_method, symObjAddr: 0x5D7B8, symBinAddr: 0x1E9F18, symSize: 0x0 }
  - { offset: 0x2318CB, size: 0x8, addend: 0x0, symName: _gdextension_interface_classdb_register_extension_class_integer_constant, symObjAddr: 0x5D7C0, symBinAddr: 0x1E9F20, symSize: 0x0 }
  - { offset: 0x2318E1, size: 0x8, addend: 0x0, symName: _gdextension_interface_classdb_register_extension_class_property, symObjAddr: 0x5D7C8, symBinAddr: 0x1E9F28, symSize: 0x0 }
  - { offset: 0x2318F7, size: 0x8, addend: 0x0, symName: _gdextension_interface_classdb_register_extension_class_property_indexed, symObjAddr: 0x5D7D0, symBinAddr: 0x1E9F30, symSize: 0x0 }
  - { offset: 0x23190D, size: 0x8, addend: 0x0, symName: _gdextension_interface_classdb_register_extension_class_property_group, symObjAddr: 0x5D7D8, symBinAddr: 0x1E9F38, symSize: 0x0 }
  - { offset: 0x231923, size: 0x8, addend: 0x0, symName: _gdextension_interface_classdb_register_extension_class_property_subgroup, symObjAddr: 0x5D7E0, symBinAddr: 0x1E9F40, symSize: 0x0 }
  - { offset: 0x231939, size: 0x8, addend: 0x0, symName: _gdextension_interface_classdb_register_extension_class_signal, symObjAddr: 0x5D7E8, symBinAddr: 0x1E9F48, symSize: 0x0 }
  - { offset: 0x23194F, size: 0x8, addend: 0x0, symName: _gdextension_interface_classdb_unregister_extension_class, symObjAddr: 0x5D7F0, symBinAddr: 0x1E9F50, symSize: 0x0 }
  - { offset: 0x231965, size: 0x8, addend: 0x0, symName: _gdextension_interface_get_library_path, symObjAddr: 0x5D7F8, symBinAddr: 0x1E9F58, symSize: 0x0 }
  - { offset: 0x23197B, size: 0x8, addend: 0x0, symName: _gdextension_interface_editor_add_plugin, symObjAddr: 0x5D800, symBinAddr: 0x1E9F60, symSize: 0x0 }
  - { offset: 0x231991, size: 0x8, addend: 0x0, symName: _gdextension_interface_editor_remove_plugin, symObjAddr: 0x5D808, symBinAddr: 0x1E9F68, symSize: 0x0 }
  - { offset: 0x2319A7, size: 0x8, addend: 0x0, symName: _gdextension_interface_editor_register_get_classes_used_callback, symObjAddr: 0x5D810, symBinAddr: 0x1E9F70, symSize: 0x0 }
  - { offset: 0x2319BD, size: 0x8, addend: 0x0, symName: _gdextension_interface_editor_help_load_xml_from_utf8_chars, symObjAddr: 0x5D818, symBinAddr: 0x1E9F78, symSize: 0x0 }
  - { offset: 0x2319D3, size: 0x8, addend: 0x0, symName: _gdextension_interface_editor_help_load_xml_from_utf8_chars_and_len, symObjAddr: 0x5D820, symBinAddr: 0x1E9F80, symSize: 0x0 }
  - { offset: 0x2319E9, size: 0x8, addend: 0x0, symName: _gdextension_interface_image_ptrw, symObjAddr: 0x5D828, symBinAddr: 0x1E9F88, symSize: 0x0 }
  - { offset: 0x2319FF, size: 0x8, addend: 0x0, symName: _gdextension_interface_image_ptr, symObjAddr: 0x5D830, symBinAddr: 0x1E9F90, symSize: 0x0 }
  - { offset: 0x231A8C, size: 0x8, addend: 0x0, symName: __ZN5godot18GDExtensionBinding15api_initializedE, symObjAddr: 0x5D838, symBinAddr: 0x1E9F98, symSize: 0x0 }
  - { offset: 0x231C73, size: 0x8, addend: 0x0, symName: __ZN5godot18GDExtensionBinding17level_initializedE, symObjAddr: 0x5D840, symBinAddr: 0x1E9FA0, symSize: 0x0 }
  - { offset: 0x231C87, size: 0x8, addend: 0x0, symName: __ZN5godot18GDExtensionBinding8initdataE, symObjAddr: 0x5D850, symBinAddr: 0x1E9FB0, symSize: 0x0 }
  - { offset: 0x234B58, size: 0x8, addend: 0x0, symName: ___cxx_global_var_init, symObjAddr: 0x32F0, symBinAddr: 0x49830, symSize: 0x40 }
  - { offset: 0x234BDF, size: 0x8, addend: 0x0, symName: ___cxx_global_var_init.1, symObjAddr: 0x3330, symBinAddr: 0x49870, symSize: 0x40 }
  - { offset: 0x234C48, size: 0x8, addend: 0x0, symName: __ZN5godot8internal19DocDataRegistrationC2EPKciiPKh, symObjAddr: 0x0, symBinAddr: 0x46B30, symSize: 0x60 }
  - { offset: 0x234D15, size: 0x8, addend: 0x0, symName: __ZN5godot8internal19DocDataRegistrationC1EPKciiPKh, symObjAddr: 0x60, symBinAddr: 0x46B90, symSize: 0x60 }
  - { offset: 0x234E01, size: 0x8, addend: 0x0, symName: __ZN5godot18GDExtensionBinding12InitDataListD1Ev, symObjAddr: 0xC0, symBinAddr: 0x46BF0, symSize: 0x60 }
  - { offset: 0x234E84, size: 0x8, addend: 0x0, symName: __ZN5godot18GDExtensionBinding4initEPFPFvvEPKcEPvPNS0_8InitDataEP25GDExtensionInitialization, symObjAddr: 0x120, symBinAddr: 0x46C50, symSize: 0x2680 }
  - { offset: 0x23579A, size: 0x8, addend: 0x0, symName: __ZN5godot18GDExtensionBinding16initialize_levelEPv30GDExtensionInitializationLevel, symObjAddr: 0x27A0, symBinAddr: 0x492D0, symSize: 0x160 }
  - { offset: 0x23587A, size: 0x8, addend: 0x0, symName: __ZN5godot18GDExtensionBinding16initialize_levelEPv30GDExtensionInitializationLevel.cold.1, symObjAddr: 0x30B0, symBinAddr: 0x122100, symSize: 0x30 }
  - { offset: 0x235892, size: 0x8, addend: 0x0, symName: __ZN5godot18GDExtensionBinding18deinitialize_levelEPv30GDExtensionInitializationLevel, symObjAddr: 0x2900, symBinAddr: 0x49430, symSize: 0x60 }
  - { offset: 0x2358FF, size: 0x8, addend: 0x0, symName: __ZN5godot18GDExtensionBinding18deinitialize_levelEPv30GDExtensionInitializationLevel.cold.1, symObjAddr: 0x30E0, symBinAddr: 0x122130, symSize: 0x30 }
  - { offset: 0x235917, size: 0x8, addend: 0x0, symName: __ZNK5godot8internal7DocData9load_dataEv, symObjAddr: 0x2960, symBinAddr: 0x49490, symSize: 0xC0 }
  - { offset: 0x235959, size: 0x8, addend: 0x0, symName: __ZN5godot18GDExtensionBinding12InitDataList3addEPNS0_8InitDataE, symObjAddr: 0x2A20, symBinAddr: 0x49550, symSize: 0x90 }
  - { offset: 0x2359D9, size: 0x8, addend: 0x0, symName: __ZN5godot18GDExtensionBinding12InitDataListD2Ev, symObjAddr: 0x2AB0, symBinAddr: 0x495E0, symSize: 0x60 }
  - { offset: 0x235AA4, size: 0x8, addend: 0x0, symName: __ZN5godot18GDExtensionBinding10InitObjectC2EPFPFvvEPKcEPvP25GDExtensionInitialization, symObjAddr: 0x2B10, symBinAddr: 0x49640, symSize: 0xD0 }
  - { offset: 0x235BBD, size: 0x8, addend: 0x0, symName: __ZN5godot18GDExtensionBinding10InitObjectC1EPFPFvvEPKcEPvP25GDExtensionInitialization, symObjAddr: 0x2BE0, symBinAddr: 0x49710, symSize: 0xD0 }
  - { offset: 0x235CE7, size: 0x8, addend: 0x0, symName: __ZNK5godot18GDExtensionBinding10InitObject20register_initializerEPFvNS_25ModuleInitializationLevelEE, symObjAddr: 0x2CB0, symBinAddr: 0x497E0, symSize: 0x10 }
  - { offset: 0x235D1E, size: 0x8, addend: 0x0, symName: __ZNK5godot18GDExtensionBinding10InitObject19register_terminatorEPFvNS_25ModuleInitializationLevelEE, symObjAddr: 0x2CC0, symBinAddr: 0x497F0, symSize: 0x10 }
  - { offset: 0x235D55, size: 0x8, addend: 0x0, symName: __ZNK5godot18GDExtensionBinding10InitObject40set_minimum_library_initialization_levelENS_25ModuleInitializationLevelE, symObjAddr: 0x2CD0, symBinAddr: 0x49800, symSize: 0x10 }
  - { offset: 0x235D8C, size: 0x8, addend: 0x0, symName: __ZNK5godot18GDExtensionBinding10InitObject4initEv, symObjAddr: 0x2CE0, symBinAddr: 0x49810, symSize: 0x20 }
  - { offset: 0x235DCB, size: 0x8, addend: 0x0, symName: __ZN5godot8internal23EngineClassRegistrationINS_6ObjectEE8callbackEv.cold.1, symObjAddr: 0x3110, symBinAddr: 0x122160, symSize: 0x60 }
  - { offset: 0x235E66, size: 0x8, addend: 0x0, symName: __ZN5godot6ObjectD1Ev.cold.1, symObjAddr: 0x3170, symBinAddr: 0x1221C0, symSize: 0x30 }
  - { offset: 0x235EF1, size: 0x8, addend: 0x0, symName: __ZN5godot6ObjectD0Ev.cold.1, symObjAddr: 0x31A0, symBinAddr: 0x1221F0, symSize: 0x30 }
  - { offset: 0x235F78, size: 0x8, addend: 0x0, symName: __ZN5godot7WrappedD1Ev.cold.1, symObjAddr: 0x31D0, symBinAddr: 0x122220, symSize: 0x30 }
  - { offset: 0x235FED, size: 0x8, addend: 0x0, symName: __ZN5godot7WrappedD0Ev.cold.1, symObjAddr: 0x3200, symBinAddr: 0x122250, symSize: 0x30 }
  - { offset: 0x23605E, size: 0x8, addend: 0x0, symName: __ZN5godot4ListINS_12PropertyInfoENS_16DefaultAllocatorEE5_Data5eraseEPNS3_7ElementE.cold.2, symObjAddr: 0x3260, symBinAddr: 0x1222B0, symSize: 0x30 }
  - { offset: 0x236076, size: 0x8, addend: 0x0, symName: __ZN5godot4ListINS_12PropertyInfoENS_16DefaultAllocatorEE5_Data5eraseEPNS3_7ElementE.cold.1, symObjAddr: 0x3230, symBinAddr: 0x122280, symSize: 0x30 }
  - { offset: 0x236095, size: 0x8, addend: 0x0, symName: __ZN5godot8internal23EngineClassRegistrationINS_16ClassDBSingletonEE8callbackEv.cold.1, symObjAddr: 0x3290, symBinAddr: 0x1222E0, symSize: 0x5D }
  - { offset: 0x2360CA, size: 0x8, addend: 0x0, symName: __GLOBAL__sub_I_godot.cpp, symObjAddr: 0x3370, symBinAddr: 0x498B0, symSize: 0x1F }
  - { offset: 0x238832, size: 0x8, addend: 0x0, symName: __ZN5godot8internal39get_engine_class_registration_callbacksEv, symObjAddr: 0x250, symBinAddr: 0x49B20, symSize: 0x30 }
  - { offset: 0x238852, size: 0x8, addend: 0x0, symName: __ZZN5godot8internal39get_engine_class_registration_callbacksEvE35engine_class_registration_callbacks, symObjAddr: 0xD12E8, symBinAddr: 0x1DD1E8, symSize: 0x0 }
  - { offset: 0x23886B, size: 0x8, addend: 0x0, symName: __ZN5godot8internal38add_engine_class_registration_callbackEPFvvE, symObjAddr: 0x350, symBinAddr: 0x49C20, symSize: 0x130 }
  - { offset: 0x238C49, size: 0x8, addend: 0x0, symName: __ZN5godot8internal22create_c_property_listERKNS_4ListINS_12PropertyInfoENS_16DefaultAllocatorEEEPj, symObjAddr: 0x2A0, symBinAddr: 0x49B70, symSize: 0xA0 }
  - { offset: 0x238DA7, size: 0x8, addend: 0x0, symName: __ZN5godot8internal20free_c_property_listEP23GDExtensionPropertyInfo, symObjAddr: 0x340, symBinAddr: 0x49C10, symSize: 0x10 }
  - { offset: 0x238DE1, size: 0x8, addend: 0x0, symName: __ZN5godot8internal21register_engine_classERKNS_10StringNameEPK35GDExtensionInstanceBindingCallbacks, symObjAddr: 0x480, symBinAddr: 0x49D50, symSize: 0x40 }
  - { offset: 0x238E7F, size: 0x8, addend: 0x0, symName: __ZN5godot8internal23register_engine_classesEv, symObjAddr: 0x4C0, symBinAddr: 0x49D90, symSize: 0x60 }
  - { offset: 0x239001, size: 0x8, addend: 0x0, symName: __ZN5godot7Wrapped19_constructing_mutexE, symObjAddr: 0xD1290, symBinAddr: 0x1E9FC0, symSize: 0x0 }
  - { offset: 0x239015, size: 0x8, addend: 0x0, symName: __ZN5godot7Wrapped34_constructing_extension_class_nameE, symObjAddr: 0xD12D0, symBinAddr: 0x1EA000, symSize: 0x0 }
  - { offset: 0x239029, size: 0x8, addend: 0x0, symName: __ZN5godot7Wrapped37_constructing_class_binding_callbacksE, symObjAddr: 0xD12D8, symBinAddr: 0x1EA008, symSize: 0x0 }
  - { offset: 0x23903D, size: 0x8, addend: 0x0, symName: __ZN5godot7Wrapped28_constructing_recreate_ownerE, symObjAddr: 0xD12E0, symBinAddr: 0x1EA010, symSize: 0x0 }
  - { offset: 0x23A478, size: 0x8, addend: 0x0, symName: __ZN5godot22postinitialize_handlerEPNS_7WrappedE, symObjAddr: 0x200, symBinAddr: 0x49AD0, symSize: 0x50 }
  - { offset: 0x2487A4, size: 0x8, addend: 0x0, symName: ___cxx_global_var_init, symObjAddr: 0x1350, symBinAddr: 0x49DF0, symSize: 0x40 }
  - { offset: 0x24882B, size: 0x8, addend: 0x0, symName: ___cxx_global_var_init.1, symObjAddr: 0x1390, symBinAddr: 0x49E30, symSize: 0x40 }
  - { offset: 0x248879, size: 0x8, addend: 0x0, symName: __ZN5godot7Wrapped25_get_extension_class_nameEv, symObjAddr: 0x0, symBinAddr: 0x498D0, symSize: 0x10 }
  - { offset: 0x24888F, size: 0x8, addend: 0x0, symName: __ZN5godot7Wrapped15_postinitializeEv, symObjAddr: 0x10, symBinAddr: 0x498E0, symSize: 0x50 }
  - { offset: 0x2488BC, size: 0x8, addend: 0x0, symName: __ZN5godot7WrappedC2ENS_10StringNameE, symObjAddr: 0x60, symBinAddr: 0x49930, symSize: 0xB0 }
  - { offset: 0x24892B, size: 0x8, addend: 0x0, symName: __ZN5godot7WrappedC2ENS_10StringNameE.cold.1, symObjAddr: 0x1000, symBinAddr: 0x122340, symSize: 0x40 }
  - { offset: 0x24896F, size: 0x8, addend: 0x0, symName: __ZN5godot7WrappedC1ENS_10StringNameE, symObjAddr: 0x110, symBinAddr: 0x499E0, symSize: 0xB0 }
  - { offset: 0x248A10, size: 0x8, addend: 0x0, symName: __ZN5godot7WrappedC1ENS_10StringNameE.cold.1, symObjAddr: 0x1040, symBinAddr: 0x122380, symSize: 0x40 }
  - { offset: 0x248A72, size: 0x8, addend: 0x0, symName: __ZN5godot7WrappedC2EPv, symObjAddr: 0x1C0, symBinAddr: 0x49A90, symSize: 0x20 }
  - { offset: 0x248B03, size: 0x8, addend: 0x0, symName: __ZN5godot7WrappedC1EPv, symObjAddr: 0x1E0, symBinAddr: 0x49AB0, symSize: 0x20 }
  - { offset: 0x248BC6, size: 0x8, addend: 0x0, symName: __ZN5godot8internal39get_engine_class_registration_callbacksEv.cold.1, symObjAddr: 0x1080, symBinAddr: 0x1223C0, symSize: 0x50 }
  - { offset: 0x248CEC, size: 0x8, addend: 0x0, symName: __ZNSt3__16vectorIPFvvENS_9allocatorIS2_EEED1B8nn190102Ev, symObjAddr: 0x280, symBinAddr: 0x49B50, symSize: 0x20 }
  - { offset: 0x2491C4, size: 0x8, addend: 0x0, symName: __ZN5godot8internal38add_engine_class_registration_callbackEPFvvE.cold.1, symObjAddr: 0x10D0, symBinAddr: 0x122410, symSize: 0x50 }
  - { offset: 0x249771, size: 0x8, addend: 0x0, symName: __ZN5godot8internal23register_engine_classesEv.cold.1, symObjAddr: 0x1120, symBinAddr: 0x122460, symSize: 0x50 }
  - { offset: 0x24981A, size: 0x8, addend: 0x0, symName: __ZN5godot7WrappedD1Ev.cold.1, symObjAddr: 0x1170, symBinAddr: 0x1224B0, symSize: 0x30 }
  - { offset: 0x24988F, size: 0x8, addend: 0x0, symName: __ZN5godot7WrappedD0Ev.cold.1, symObjAddr: 0x11A0, symBinAddr: 0x1224E0, symSize: 0x30 }
  - { offset: 0x24A1D1, size: 0x8, addend: 0x0, symName: __ZN5godot8internal23EngineClassRegistrationINS_6ObjectEE8callbackEv.cold.1, symObjAddr: 0x11D0, symBinAddr: 0x122510, symSize: 0x60 }
  - { offset: 0x24A219, size: 0x8, addend: 0x0, symName: __ZN5godot6ObjectD1Ev.cold.1, symObjAddr: 0x1230, symBinAddr: 0x122570, symSize: 0x30 }
  - { offset: 0x24A2A4, size: 0x8, addend: 0x0, symName: __ZN5godot6ObjectD0Ev.cold.1, symObjAddr: 0x1260, symBinAddr: 0x1225A0, symSize: 0x30 }
  - { offset: 0x24A32B, size: 0x8, addend: 0x0, symName: __ZN5godot4ListINS_12PropertyInfoENS_16DefaultAllocatorEE5_Data5eraseEPNS3_7ElementE.cold.2, symObjAddr: 0x12C0, symBinAddr: 0x122600, symSize: 0x30 }
  - { offset: 0x24A343, size: 0x8, addend: 0x0, symName: __ZN5godot4ListINS_12PropertyInfoENS_16DefaultAllocatorEE5_Data5eraseEPNS3_7ElementE.cold.1, symObjAddr: 0x1290, symBinAddr: 0x1225D0, symSize: 0x30 }
  - { offset: 0x24A362, size: 0x8, addend: 0x0, symName: __ZN5godot8internal23EngineClassRegistrationINS_16ClassDBSingletonEE8callbackEv.cold.1, symObjAddr: 0x12F0, symBinAddr: 0x122630, symSize: 0x5D }
  - { offset: 0x24A397, size: 0x8, addend: 0x0, symName: __GLOBAL__sub_I_wrapped.cpp, symObjAddr: 0x13D0, symBinAddr: 0x49E70, symSize: 0x31 }
  - { offset: 0x24C2AB, size: 0x8, addend: 0x0, symName: __ZN5godot13EditorPlugins14plugin_classesE, symObjAddr: 0x42028, symBinAddr: 0x1EA018, symSize: 0x0 }
  - { offset: 0x24CFCE, size: 0x8, addend: 0x0, symName: __ZN5godot7vformatIJNS_10StringNameEEEENS_6StringERKS2_DpKT_, symObjAddr: 0x1C0, symBinAddr: 0x4A070, symSize: 0xC0 }
  - { offset: 0x24DF04, size: 0x8, addend: 0x0, symName: __ZN5godot6VectorINS_10StringNameEED1Ev, symObjAddr: 0x0, symBinAddr: 0x49EB0, symSize: 0x80 }
  - { offset: 0x24DF32, size: 0x8, addend: 0x0, symName: __ZN5godot6VectorINS_10StringNameEED1Ev, symObjAddr: 0x0, symBinAddr: 0x49EB0, symSize: 0x80 }
  - { offset: 0x24DF52, size: 0x8, addend: 0x0, symName: __ZN5godot6VectorINS_10StringNameEED1Ev, symObjAddr: 0x0, symBinAddr: 0x49EB0, symSize: 0x80 }
  - { offset: 0x24DF72, size: 0x8, addend: 0x0, symName: __ZN5godot6VectorINS_10StringNameEED1Ev, symObjAddr: 0x0, symBinAddr: 0x49EB0, symSize: 0x80 }
  - { offset: 0x24DF92, size: 0x8, addend: 0x0, symName: __ZN5godot6VectorINS_10StringNameEED1Ev, symObjAddr: 0x0, symBinAddr: 0x49EB0, symSize: 0x80 }
  - { offset: 0x24E127, size: 0x8, addend: 0x0, symName: __ZN5godot13EditorPlugins16add_plugin_classERKNS_10StringNameE, symObjAddr: 0x80, symBinAddr: 0x49F30, symSize: 0x140 }
  - { offset: 0x24E8E9, size: 0x8, addend: 0x0, symName: __ZN5godot6VectorINS_10StringNameEE9push_backES1_.cold.1, symObjAddr: 0x940, symBinAddr: 0x122690, symSize: 0x50 }
  - { offset: 0x24E92E, size: 0x8, addend: 0x0, symName: __ZN5godot6VectorINS_10StringNameEE9push_backES1_.cold.2, symObjAddr: 0x990, symBinAddr: 0x1226E0, symSize: 0x30 }
  - { offset: 0x24E946, size: 0x8, addend: 0x0, symName: __ZN5godot13EditorPlugins19remove_plugin_classERKNS_10StringNameE, symObjAddr: 0x320, symBinAddr: 0x4A130, symSize: 0xF0 }
  - { offset: 0x24EA64, size: 0x8, addend: 0x0, symName: __ZN5godot13EditorPlugins19remove_plugin_classERKNS_10StringNameE.cold.1, symObjAddr: 0x9C0, symBinAddr: 0x122710, symSize: 0xB0 }
  - { offset: 0x24EA7C, size: 0x8, addend: 0x0, symName: __ZN5godot6VectorINS_10StringNameEE9remove_atEx, symObjAddr: 0x410, symBinAddr: 0x4A220, symSize: 0xA0 }
  - { offset: 0x24EC2F, size: 0x8, addend: 0x0, symName: __ZN5godot6VectorINS_10StringNameEE9remove_atEx.cold.1, symObjAddr: 0xA70, symBinAddr: 0x1227C0, symSize: 0x50 }
  - { offset: 0x24EE00, size: 0x8, addend: 0x0, symName: __ZN5godot13EditorPlugins12deinitializeE30GDExtensionInitializationLevel, symObjAddr: 0x4B0, symBinAddr: 0x4A2C0, symSize: 0xF0 }
  - { offset: 0x24F282, size: 0x8, addend: 0x0, symName: __ZN5godot7CowDataINS_10StringNameEE6resizeILb0EEENS_5ErrorEx.cold.4, symObjAddr: 0xB50, symBinAddr: 0x1228A0, symSize: 0x30 }
  - { offset: 0x24F29A, size: 0x8, addend: 0x0, symName: __ZN5godot7CowDataINS_10StringNameEE6resizeILb0EEENS_5ErrorEx.cold.5, symObjAddr: 0xB80, symBinAddr: 0x1228D0, symSize: 0x30 }
  - { offset: 0x24F2B2, size: 0x8, addend: 0x0, symName: __ZN5godot7CowDataINS_10StringNameEE6resizeILb0EEENS_5ErrorEx.cold.2, symObjAddr: 0xAF0, symBinAddr: 0x122840, symSize: 0x30 }
  - { offset: 0x24F2E1, size: 0x8, addend: 0x0, symName: __ZN5godot7CowDataINS_10StringNameEE6resizeILb0EEENS_5ErrorEx.cold.1, symObjAddr: 0xAC0, symBinAddr: 0x122810, symSize: 0x30 }
  - { offset: 0x24F310, size: 0x8, addend: 0x0, symName: __ZN5godot7CowDataINS_10StringNameEE6resizeILb0EEENS_5ErrorEx.cold.3, symObjAddr: 0xB20, symBinAddr: 0x122870, symSize: 0x30 }
  - { offset: 0x24F373, size: 0x8, addend: 0x0, symName: __ZN5godot7CowDataINS_10StringNameEE14_copy_on_writeEv.cold.1, symObjAddr: 0xBB0, symBinAddr: 0x122900, symSize: 0xF8 }
  - { offset: 0x24F5B8, size: 0x8, addend: 0x0, symName: __GLOBAL__sub_I_editor_plugin_registration.cpp, symObjAddr: 0xCB0, symBinAddr: 0x4A3B0, symSize: 0x2A }
  - { offset: 0x2510AD, size: 0x8, addend: 0x0, symName: __ZN5godot6Memory12alloc_staticEmb, symObjAddr: 0x0, symBinAddr: 0x4A3E0, symSize: 0x30 }
  - { offset: 0x2510D9, size: 0x8, addend: 0x0, symName: __ZN5godot15_GlobalNilClass4_nilE, symObjAddr: 0x1E8, symBinAddr: 0x1DCCB8, symSize: 0x0 }
  - { offset: 0x25120A, size: 0x8, addend: 0x0, symName: __ZN5godot6Memory12alloc_staticEmb, symObjAddr: 0x0, symBinAddr: 0x4A3E0, symSize: 0x30 }
  - { offset: 0x251267, size: 0x8, addend: 0x0, symName: __ZN5godot6Memory12alloc_staticEmb.cold.1, symObjAddr: 0x110, symBinAddr: 0x122A00, symSize: 0x30 }
  - { offset: 0x2512F8, size: 0x8, addend: 0x0, symName: __ZN5godot6Memory14realloc_staticEPvmb, symObjAddr: 0x30, symBinAddr: 0x4A410, symSize: 0x50 }
  - { offset: 0x2513EA, size: 0x8, addend: 0x0, symName: __ZN5godot6Memory14realloc_staticEPvmb.cold.1, symObjAddr: 0x140, symBinAddr: 0x122A30, symSize: 0x30 }
  - { offset: 0x251418, size: 0x8, addend: 0x0, symName: __ZN5godot6Memory11free_staticEPvb, symObjAddr: 0x80, symBinAddr: 0x4A460, symSize: 0x10 }
  - { offset: 0x25146D, size: 0x8, addend: 0x0, symName: __ZN5godot10_GlobalNilC2Ev, symObjAddr: 0x90, symBinAddr: 0x4A470, symSize: 0x20 }
  - { offset: 0x2514AA, size: 0x8, addend: 0x0, symName: __ZN5godot10_GlobalNilC1Ev, symObjAddr: 0xB0, symBinAddr: 0x4A490, symSize: 0x20 }
  - { offset: 0x2514F3, size: 0x8, addend: 0x0, symName: __ZnwmPKcS0_, symObjAddr: 0xD0, symBinAddr: 0x4A4B0, symSize: 0x30 }
  - { offset: 0x25159B, size: 0x8, addend: 0x0, symName: __ZnwmPKcS0_.cold.1, symObjAddr: 0x170, symBinAddr: 0x122A60, symSize: 0x2A }
  - { offset: 0x2515C9, size: 0x8, addend: 0x0, symName: __ZnwmPKcPFPvmE, symObjAddr: 0x100, symBinAddr: 0x4A4E0, symSize: 0x10 }
  - { offset: 0x257EF9, size: 0x8, addend: 0x0, symName: ___cxx_global_var_init, symObjAddr: 0xAB0, symBinAddr: 0x4AB00, symSize: 0x3A }
  - { offset: 0x257F47, size: 0x8, addend: 0x0, symName: __ZNK5godot10MethodBind8get_nameEv, symObjAddr: 0x0, symBinAddr: 0x4A4F0, symSize: 0x20 }
  - { offset: 0x257F70, size: 0x8, addend: 0x0, symName: __ZN5godot10MethodBind8set_nameERKNS_10StringNameE, symObjAddr: 0x20, symBinAddr: 0x4A510, symSize: 0x10 }
  - { offset: 0x257FA7, size: 0x8, addend: 0x0, symName: __ZN5godot10MethodBind18set_argument_countEi, symObjAddr: 0x30, symBinAddr: 0x4A520, symSize: 0x10 }
  - { offset: 0x257FD0, size: 0x8, addend: 0x0, symName: __ZN5godot10MethodBind9set_constEb, symObjAddr: 0x40, symBinAddr: 0x4A530, symSize: 0x10 }
  - { offset: 0x258005, size: 0x8, addend: 0x0, symName: __ZN5godot10MethodBind10set_returnEb, symObjAddr: 0x50, symBinAddr: 0x4A540, symSize: 0x10 }
  - { offset: 0x25803A, size: 0x8, addend: 0x0, symName: __ZN5godot10MethodBind10set_staticEb, symObjAddr: 0x60, symBinAddr: 0x4A550, symSize: 0x10 }
  - { offset: 0x25806F, size: 0x8, addend: 0x0, symName: __ZN5godot10MethodBind10set_varargEb, symObjAddr: 0x70, symBinAddr: 0x4A560, symSize: 0x10 }
  - { offset: 0x25810A, size: 0x8, addend: 0x0, symName: __ZN5godot10MethodBind18set_argument_namesERKNSt3__16vectorINS_10StringNameENS1_9allocatorIS3_EEEE, symObjAddr: 0x80, symBinAddr: 0x4A570, symSize: 0x30 }
  - { offset: 0x2581F5, size: 0x8, addend: 0x0, symName: __ZNSt3__16vectorIN5godot10StringNameENS_9allocatorIS2_EEE18__assign_with_sizeB8nn190102IPS2_S7_EEvT_T0_l, symObjAddr: 0x6F0, symBinAddr: 0x4A8F0, symSize: 0x210 }
  - { offset: 0x258DA7, size: 0x8, addend: 0x0, symName: __ZNK5godot10MethodBind18get_argument_namesEv, symObjAddr: 0xB0, symBinAddr: 0x4A5A0, symSize: 0x90 }
  - { offset: 0x2590C0, size: 0x8, addend: 0x0, symName: __ZN5godot10MethodBind23generate_argument_typesEi, symObjAddr: 0x140, symBinAddr: 0x4A630, symSize: 0xB0 }
  - { offset: 0x2591C5, size: 0x8, addend: 0x0, symName: __ZN5godot10MethodBind23generate_argument_typesEi.cold.1, symObjAddr: 0x900, symBinAddr: 0x122A90, symSize: 0x30 }
  - { offset: 0x25922D, size: 0x8, addend: 0x0, symName: __ZNK5godot10MethodBind17get_argument_infoEi, symObjAddr: 0x1F0, symBinAddr: 0x4A6E0, symSize: 0xB0 }
  - { offset: 0x2592D9, size: 0x8, addend: 0x0, symName: __ZN5godot10MethodBind9bind_callEPvS1_PKPKvxS1_P20GDExtensionCallError, symObjAddr: 0x2A0, symBinAddr: 0x4A790, symSize: 0x70 }
  - { offset: 0x2593C6, size: 0x8, addend: 0x0, symName: __ZN5godot10MethodBind12bind_ptrcallEPvS1_PKPKvS1_, symObjAddr: 0x310, symBinAddr: 0x4A800, symSize: 0x10 }
  - { offset: 0x2596D2, size: 0x8, addend: 0x0, symName: __ZN5godot10MethodBindD2Ev, symObjAddr: 0x320, symBinAddr: 0x4A810, symSize: 0xC0 }
  - { offset: 0x259A53, size: 0x8, addend: 0x0, symName: __ZN5godot10MethodBindD1Ev, symObjAddr: 0x3E0, symBinAddr: 0x4A8D0, symSize: 0x10 }
  - { offset: 0x259A7C, size: 0x8, addend: 0x0, symName: __ZN5godot10MethodBindD0Ev, symObjAddr: 0x3F0, symBinAddr: 0x4A8E0, symSize: 0x10 }
  - { offset: 0x259AAC, size: 0x8, addend: 0x0, symName: __ZN5godot8internal23EngineClassRegistrationINS_6ObjectEE8callbackEv.cold.1, symObjAddr: 0x930, symBinAddr: 0x122AC0, symSize: 0x60 }
  - { offset: 0x259B47, size: 0x8, addend: 0x0, symName: __ZN5godot6ObjectD1Ev.cold.1, symObjAddr: 0x990, symBinAddr: 0x122B20, symSize: 0x30 }
  - { offset: 0x259BD2, size: 0x8, addend: 0x0, symName: __ZN5godot6ObjectD0Ev.cold.1, symObjAddr: 0x9C0, symBinAddr: 0x122B50, symSize: 0x30 }
  - { offset: 0x259C59, size: 0x8, addend: 0x0, symName: __ZN5godot7WrappedD1Ev.cold.1, symObjAddr: 0x9F0, symBinAddr: 0x122B80, symSize: 0x30 }
  - { offset: 0x259CCE, size: 0x8, addend: 0x0, symName: __ZN5godot7WrappedD0Ev.cold.1, symObjAddr: 0xA20, symBinAddr: 0x122BB0, symSize: 0x30 }
  - { offset: 0x259D3F, size: 0x8, addend: 0x0, symName: __ZN5godot4ListINS_12PropertyInfoENS_16DefaultAllocatorEE5_Data5eraseEPNS3_7ElementE.cold.2, symObjAddr: 0xA80, symBinAddr: 0x122C10, symSize: 0x2A }
  - { offset: 0x259D57, size: 0x8, addend: 0x0, symName: __ZN5godot4ListINS_12PropertyInfoENS_16DefaultAllocatorEE5_Data5eraseEPNS3_7ElementE.cold.1, symObjAddr: 0xA50, symBinAddr: 0x122BE0, symSize: 0x30 }
  - { offset: 0x25D5B0, size: 0x8, addend: 0x0, symName: __ZN5godot7ClassDB7classesE, symObjAddr: 0x138E50, symBinAddr: 0x1EA028, symSize: 0x0 }
  - { offset: 0x25EA06, size: 0x8, addend: 0x0, symName: __ZN5godot7ClassDB26instance_binding_callbacksE, symObjAddr: 0x138E78, symBinAddr: 0x1EA050, symSize: 0x0 }
  - { offset: 0x25EA1A, size: 0x8, addend: 0x0, symName: __ZN5godot7ClassDB20class_register_orderE, symObjAddr: 0x138EA0, symBinAddr: 0x1EA078, symSize: 0x0 }
  - { offset: 0x25EA2E, size: 0x8, addend: 0x0, symName: __ZN5godot7ClassDB17engine_singletonsE, symObjAddr: 0x138EB8, symBinAddr: 0x1EA090, symSize: 0x0 }
  - { offset: 0x25EA42, size: 0x8, addend: 0x0, symName: __ZN5godot7ClassDB23engine_singletons_mutexE, symObjAddr: 0x8570, symBinAddr: 0x1DCCD8, symSize: 0x0 }
  - { offset: 0x25EA56, size: 0x8, addend: 0x0, symName: __ZN5godot7ClassDB13current_levelE, symObjAddr: 0x138EE0, symBinAddr: 0x1EA0B8, symSize: 0x0 }
  - { offset: 0x25EA64, size: 0x8, addend: 0x0, symName: __ZN5godot8D_METHODENS_10StringNameE, symObjAddr: 0x1C0, symBinAddr: 0x4AD00, symSize: 0x70 }
  - { offset: 0x25EBDC, size: 0x8, addend: 0x0, symName: __ZN5godot8D_METHODENS_10StringNameES0_, symObjAddr: 0x230, symBinAddr: 0x4AD70, symSize: 0xB0 }
  - { offset: 0x25F038, size: 0x8, addend: 0x0, symName: __ZN5godot7helpers10append_allINS_5ArrayENS_6StringEJS3_NS_10StringNameEEEET_S5_T0_DpT1_, symObjAddr: 0x5D10, symBinAddr: 0x50190, symSize: 0xD0 }
  - { offset: 0x25F0E4, size: 0x8, addend: 0x0, symName: __ZN5godot7helpers10append_allINS_5ArrayENS_10StringNameEJS3_EEET_S4_T0_DpT1_, symObjAddr: 0x5EB0, symBinAddr: 0x50330, symSize: 0xD0 }
  - { offset: 0x25F17A, size: 0x8, addend: 0x0, symName: __ZN5godot7helpers10append_allINS_5ArrayENS_10StringNameEJS3_S3_S3_EEET_S4_T0_DpT1_, symObjAddr: 0x6720, symBinAddr: 0x50400, symSize: 0xF0 }
  - { offset: 0x25F27B, size: 0x8, addend: 0x0, symName: __ZN5godot7helpers10append_allINS_5ArrayENS_6StringEJNS_10StringNameEEEET_S5_T0_DpT1_, symObjAddr: 0x5DE0, symBinAddr: 0x50260, symSize: 0xD0 }
  - { offset: 0x25F311, size: 0x8, addend: 0x0, symName: __ZN5godot7helpers10append_allINS_5ArrayENS_10StringNameEJS3_S3_EEET_S4_T0_DpT1_, symObjAddr: 0x6810, symBinAddr: 0x504F0, symSize: 0xD0 }
  - { offset: 0x277486, size: 0x8, addend: 0x0, symName: ___cxx_global_var_init, symObjAddr: 0x83D0, symBinAddr: 0x51CC0, symSize: 0x40 }
  - { offset: 0x27750D, size: 0x8, addend: 0x0, symName: ___cxx_global_var_init.1, symObjAddr: 0x8410, symBinAddr: 0x51D00, symSize: 0x40 }
  - { offset: 0x2777EC, size: 0x8, addend: 0x0, symName: __ZNSt3__113unordered_mapIN5godot10StringNameENS1_7ClassDB9ClassInfoENS_4hashIS2_EENS_8equal_toIS2_EENS_9allocatorINS_4pairIKS2_S4_EEEEED1B8nn190102Ev, symObjAddr: 0x0, symBinAddr: 0x4AB40, symSize: 0x70 }
  - { offset: 0x278380, size: 0x8, addend: 0x0, symName: __ZNSt3__113unordered_mapIN5godot10StringNameEPK35GDExtensionInstanceBindingCallbacksNS_4hashIS2_EENS_8equal_toIS2_EENS_9allocatorINS_4pairIKS2_S5_EEEEED1B8nn190102Ev, symObjAddr: 0x70, symBinAddr: 0x4ABB0, symSize: 0x70 }
  - { offset: 0x27880B, size: 0x8, addend: 0x0, symName: __ZNSt3__16vectorIN5godot10StringNameENS_9allocatorIS2_EEED1B8nn190102Ev, symObjAddr: 0xE0, symBinAddr: 0x4AC20, symSize: 0x70 }
  - { offset: 0x278C0A, size: 0x8, addend: 0x0, symName: __ZNSt3__113unordered_mapIN5godot10StringNameEPNS1_6ObjectENS_4hashIS2_EENS_8equal_toIS2_EENS_9allocatorINS_4pairIKS2_S4_EEEEED1B8nn190102Ev, symObjAddr: 0x150, symBinAddr: 0x4AC90, symSize: 0x70 }
  - { offset: 0x27957D, size: 0x8, addend: 0x0, symName: __ZN5godot7ClassDB18add_property_groupERKNS_10StringNameERKNS_6StringES6_, symObjAddr: 0x2E0, symBinAddr: 0x4AE20, symSize: 0x310 }
  - { offset: 0x279800, size: 0x8, addend: 0x0, symName: __ZN5godot5Array4makeIJNS_6StringES2_NS_10StringNameEEEES0_DpT_, symObjAddr: 0x5F0, symBinAddr: 0x4B130, symSize: 0xC0 }
  - { offset: 0x27988C, size: 0x8, addend: 0x0, symName: __ZN5godot7ClassDB21add_property_subgroupERKNS_10StringNameERKNS_6StringES6_, symObjAddr: 0x6B0, symBinAddr: 0x4B1F0, symSize: 0x310 }
  - { offset: 0x279C8C, size: 0x8, addend: 0x0, symName: __ZN5godot7ClassDB12add_propertyERKNS_10StringNameERKNS_12PropertyInfoES3_S3_i, symObjAddr: 0x9C0, symBinAddr: 0x4B500, symSize: 0xAB0 }
  - { offset: 0x27A3C6, size: 0x8, addend: 0x0, symName: __ZN5godot5Array4makeIJNS_10StringNameES2_EEES0_DpT_, symObjAddr: 0x1470, symBinAddr: 0x4BFB0, symSize: 0xB0 }
  - { offset: 0x27ABB5, size: 0x8, addend: 0x0, symName: __ZN5godot7ClassDB10get_methodERKNS_10StringNameES3_, symObjAddr: 0x1520, symBinAddr: 0x4C060, symSize: 0x450 }
  - { offset: 0x27B0DD, size: 0x8, addend: 0x0, symName: __ZNSt3__16__treeIN5godot10StringNameENS_4lessIS2_EENS_9allocatorIS2_EEE25__emplace_unique_key_argsIS2_JRKS2_EEENS_4pairINS_15__tree_iteratorIS2_PNS_11__tree_nodeIS2_PvEElEEbEERKT_DpOT0_, symObjAddr: 0x68E0, symBinAddr: 0x505C0, symSize: 0xE0 }
  - { offset: 0x27B3F2, size: 0x8, addend: 0x0, symName: __ZN5godot5Array4makeIJNS_10StringNameES2_S2_S2_EEES0_DpT_, symObjAddr: 0x1970, symBinAddr: 0x4C4B0, symSize: 0xE0 }
  - { offset: 0x27B610, size: 0x8, addend: 0x0, symName: __ZN5godot5Array4makeIJNS_10StringNameEEEES0_DpT_, symObjAddr: 0x1A50, symBinAddr: 0x4C590, symSize: 0xA0 }
  - { offset: 0x27BB67, size: 0x8, addend: 0x0, symName: __ZN5godot7ClassDB13bind_methodfiEjPNS_10MethodBindERKNS_16MethodDefinitionEPPKvi, symObjAddr: 0x1AF0, symBinAddr: 0x4C630, symSize: 0xBC0 }
  - { offset: 0x27CC4C, size: 0x8, addend: 0x0, symName: __ZNSt3__16vectorIN5godot10StringNameENS_9allocatorIS2_EEE8__appendEm, symObjAddr: 0x6B40, symBinAddr: 0x506A0, symSize: 0x1A0 }
  - { offset: 0x27D265, size: 0x8, addend: 0x0, symName: __ZNSt3__16vectorIN5godot7VariantENS_9allocatorIS2_EEE8__appendEm, symObjAddr: 0x6CE0, symBinAddr: 0x50840, symSize: 0x1D0 }
  - { offset: 0x27D87E, size: 0x8, addend: 0x0, symName: __ZNSt3__16vectorIN5godot7VariantENS_9allocatorIS2_EEE18__assign_with_sizeB8nn190102IPS2_S7_EEvT_T0_l, symObjAddr: 0x5410, symBinAddr: 0x4FF50, symSize: 0x240 }
  - { offset: 0x27E20E, size: 0x8, addend: 0x0, symName: __ZNSt3__112__hash_tableINS_17__hash_value_typeIN5godot10StringNameEPNS2_10MethodBindEEENS_22__unordered_map_hasherIS3_S6_NS_4hashIS3_EENS_8equal_toIS3_EELb1EEENS_21__unordered_map_equalIS3_S6_SB_S9_Lb1EEENS_9allocatorIS6_EEE25__emplace_unique_key_argsIS3_JRKNS_21piecewise_construct_tENS_5tupleIJRKS3_EEENSM_IJEEEEEENS_4pairINS_15__hash_iteratorIPNS_11__hash_nodeIS6_PvEEEEbEERKT_DpOT0_, symObjAddr: 0x6EB0, symBinAddr: 0x50A10, symSize: 0x470 }
  - { offset: 0x27E992, size: 0x8, addend: 0x0, symName: __ZN5godot7ClassDB17bind_method_godotERKNS_10StringNameEPNS_10MethodBindE, symObjAddr: 0x26B0, symBinAddr: 0x4D1F0, symSize: 0x470 }
  - { offset: 0x27FFA1, size: 0x8, addend: 0x0, symName: __ZNSt3__16vectorIPvNS_9allocatorIS1_EEE8__appendEm, symObjAddr: 0x7580, symBinAddr: 0x510E0, symSize: 0x150 }
  - { offset: 0x28044E, size: 0x8, addend: 0x0, symName: __ZNK5godot10MethodBind23get_arguments_info_listEv, symObjAddr: 0x2B20, symBinAddr: 0x4D660, symSize: 0x1A0 }
  - { offset: 0x280939, size: 0x8, addend: 0x0, symName: __ZNK5godot10MethodBind27get_arguments_metadata_listEv, symObjAddr: 0x2CC0, symBinAddr: 0x4D800, symSize: 0x1E0 }
  - { offset: 0x2818DB, size: 0x8, addend: 0x0, symName: __ZN5godot7ClassDB10add_signalERKNS_10StringNameERKNS_10MethodInfoE, symObjAddr: 0x2EA0, symBinAddr: 0x4D9E0, symSize: 0x6A0 }
  - { offset: 0x28233A, size: 0x8, addend: 0x0, symName: __ZN5godot7ClassDB21bind_integer_constantERKNS_10StringNameES3_S3_xb, symObjAddr: 0x3540, symBinAddr: 0x4E080, symSize: 0x450 }
  - { offset: 0x282345, size: 0x8, addend: 0x0, symName: __ZN5godot7ClassDB21bind_integer_constantERKNS_10StringNameES3_S3_xb, symObjAddr: 0x3540, symBinAddr: 0x4E080, symSize: 0x450 }
  - { offset: 0x282871, size: 0x8, addend: 0x0, symName: __ZN5godot7ClassDB16get_virtual_funcEPvPKvj, symObjAddr: 0x3990, symBinAddr: 0x4E4D0, symSize: 0x440 }
  - { offset: 0x282EEC, size: 0x8, addend: 0x0, symName: __ZN5godot7ClassDB30get_instance_binding_callbacksERKNS_10StringNameE, symObjAddr: 0x3DD0, symBinAddr: 0x4E910, symSize: 0x310 }
  - { offset: 0x2831C5, size: 0x8, addend: 0x0, symName: __ZNSt3__113unordered_mapIN5godot10StringNameEPK35GDExtensionInstanceBindingCallbacksNS_4hashIS2_EENS_8equal_toIS2_EENS_9allocatorINS_4pairIKS2_S5_EEEEE4findB8nn190102ERSC_, symObjAddr: 0x40E0, symBinAddr: 0x4EC20, symSize: 0x170 }
  - { offset: 0x28340C, size: 0x8, addend: 0x0, symName: __ZN5godot7ClassDB19bind_virtual_methodERKNS_10StringNameES3_PFvPvPKPKvS4_Ej, symObjAddr: 0x4250, symBinAddr: 0x4ED90, symSize: 0x730 }
  - { offset: 0x283C10, size: 0x8, addend: 0x0, symName: __ZNSt3__112__hash_tableINS_17__hash_value_typeIN5godot10StringNameENS2_7ClassDB9ClassInfo13VirtualMethodEEENS_22__unordered_map_hasherIS3_S7_NS_4hashIS3_EENS_8equal_toIS3_EELb1EEENS_21__unordered_map_equalIS3_S7_SC_SA_Lb1EEENS_9allocatorIS7_EEE25__emplace_unique_key_argsIS3_JRKNS_21piecewise_construct_tENS_5tupleIJRKS3_EEENSN_IJEEEEEENS_4pairINS_15__hash_iteratorIPNS_11__hash_nodeIS7_PvEEEEbEERKT_DpOT0_, symObjAddr: 0x76D0, symBinAddr: 0x51230, symSize: 0x470 }
  - { offset: 0x284462, size: 0x8, addend: 0x0, symName: __ZN5godot7ClassDB18add_virtual_methodERKNS_10StringNameERKNS_10MethodInfoERKNS_6VectorIS1_EE, symObjAddr: 0x4980, symBinAddr: 0x4F4C0, symSize: 0x5B0 }
  - { offset: 0x284944, size: 0x8, addend: 0x0, symName: __ZN5godot7ClassDB18add_virtual_methodERKNS_10StringNameERKNS_10MethodInfoERKNS_6VectorIS1_EE.cold.1, symObjAddr: 0x81A0, symBinAddr: 0x122C40, symSize: 0x50 }
  - { offset: 0x2849F0, size: 0x8, addend: 0x0, symName: __ZN5godot7ClassDB33_editor_get_classes_used_callbackEPv, symObjAddr: 0x4F30, symBinAddr: 0x4FA70, symSize: 0xB0 }
  - { offset: 0x284B33, size: 0x8, addend: 0x0, symName: __ZN5godot7ClassDB16initialize_classERKNS0_9ClassInfoE, symObjAddr: 0x4FE0, symBinAddr: 0x4FB20, symSize: 0x10 }
  - { offset: 0x284B5A, size: 0x8, addend: 0x0, symName: __ZN5godot7ClassDB10initializeE30GDExtensionInitializationLevel, symObjAddr: 0x4FF0, symBinAddr: 0x4FB30, symSize: 0x10 }
  - { offset: 0x284D77, size: 0x8, addend: 0x0, symName: __ZN5godot7ClassDB12deinitializeE30GDExtensionInitializationLevel, symObjAddr: 0x5000, symBinAddr: 0x4FB40, symSize: 0x410 }
  - { offset: 0x285E93, size: 0x8, addend: 0x0, symName: __ZNSt3__16vectorIN5godot7VariantENS_9allocatorIS2_EEE18__assign_with_sizeB8nn190102IPS2_S7_EEvT_T0_l, symObjAddr: 0x5410, symBinAddr: 0x4FF50, symSize: 0x240 }
  - { offset: 0x2865A0, size: 0x8, addend: 0x0, symName: __ZNSt3__112__hash_tableINS_17__hash_value_typeIN5godot10StringNameENS2_7ClassDB9ClassInfoEEENS_22__unordered_map_hasherIS3_S6_NS_4hashIS3_EENS_8equal_toIS3_EELb1EEENS_21__unordered_map_equalIS3_S6_SB_S9_Lb1EEENS_9allocatorIS6_EEE14__erase_uniqueIS3_EEmRKT_, symObjAddr: 0x7DE0, symBinAddr: 0x51900, symSize: 0x1D0 }
  - { offset: 0x286EBA, size: 0x8, addend: 0x0, symName: __ZN5godot8internal23EngineClassRegistrationINS_6ObjectEE8callbackEv.cold.1, symObjAddr: 0x81F0, symBinAddr: 0x122C90, symSize: 0x60 }
  - { offset: 0x286F55, size: 0x8, addend: 0x0, symName: __ZN5godot6ObjectD1Ev.cold.1, symObjAddr: 0x8250, symBinAddr: 0x122CF0, symSize: 0x30 }
  - { offset: 0x286FE0, size: 0x8, addend: 0x0, symName: __ZN5godot6ObjectD0Ev.cold.1, symObjAddr: 0x8280, symBinAddr: 0x122D20, symSize: 0x30 }
  - { offset: 0x287067, size: 0x8, addend: 0x0, symName: __ZN5godot7WrappedD1Ev.cold.1, symObjAddr: 0x82B0, symBinAddr: 0x122D50, symSize: 0x30 }
  - { offset: 0x2870DC, size: 0x8, addend: 0x0, symName: __ZN5godot7WrappedD0Ev.cold.1, symObjAddr: 0x82E0, symBinAddr: 0x122D80, symSize: 0x30 }
  - { offset: 0x28714D, size: 0x8, addend: 0x0, symName: __ZN5godot4ListINS_12PropertyInfoENS_16DefaultAllocatorEE5_Data5eraseEPNS3_7ElementE.cold.2, symObjAddr: 0x8340, symBinAddr: 0x122DE0, symSize: 0x30 }
  - { offset: 0x287165, size: 0x8, addend: 0x0, symName: __ZN5godot4ListINS_12PropertyInfoENS_16DefaultAllocatorEE5_Data5eraseEPNS3_7ElementE.cold.1, symObjAddr: 0x8310, symBinAddr: 0x122DB0, symSize: 0x30 }
  - { offset: 0x287184, size: 0x8, addend: 0x0, symName: __ZN5godot8internal23EngineClassRegistrationINS_16ClassDBSingletonEE8callbackEv.cold.1, symObjAddr: 0x8370, symBinAddr: 0x122E10, symSize: 0x5D }
  - { offset: 0x288D25, size: 0x8, addend: 0x0, symName: __ZNSt3__112__hash_tableINS_17__hash_value_typeIN5godot10StringNameEPNS2_10MethodBindEEENS_22__unordered_map_hasherIS3_S6_NS_4hashIS3_EENS_8equal_toIS3_EELb1EEENS_21__unordered_map_equalIS3_S6_SB_S9_Lb1EEENS_9allocatorIS6_EEE11__do_rehashILb1EEEvm, symObjAddr: 0x7320, symBinAddr: 0x50E80, symSize: 0x260 }
  - { offset: 0x2898DF, size: 0x8, addend: 0x0, symName: __ZNSt3__112__hash_tableINS_17__hash_value_typeIN5godot10StringNameENS2_7ClassDB9ClassInfo13VirtualMethodEEENS_22__unordered_map_hasherIS3_S7_NS_4hashIS3_EENS_8equal_toIS3_EELb1EEENS_21__unordered_map_equalIS3_S7_SC_SA_Lb1EEENS_9allocatorIS7_EEE11__do_rehashILb1EEEvm, symObjAddr: 0x7B40, symBinAddr: 0x516A0, symSize: 0x260 }
  - { offset: 0x289F82, size: 0x8, addend: 0x0, symName: __ZNSt3__112__hash_tableINS_17__hash_value_typeIN5godot10StringNameENS2_7ClassDB9ClassInfoEEENS_22__unordered_map_hasherIS3_S6_NS_4hashIS3_EENS_8equal_toIS3_EELb1EEENS_21__unordered_map_equalIS3_S6_SB_S9_Lb1EEENS_9allocatorIS6_EEE6removeENS_21__hash_const_iteratorIPNS_11__hash_nodeIS6_PvEEEE, symObjAddr: 0x7FB0, symBinAddr: 0x51AD0, symSize: 0x1F0 }
  - { offset: 0x28A8AD, size: 0x8, addend: 0x0, symName: __GLOBAL__sub_I_class_db.cpp, symObjAddr: 0x8450, symBinAddr: 0x51D40, symSize: 0xE7 }
  - { offset: 0x28D519, size: 0x8, addend: 0x0, symName: __ZN5godot8internal27get_object_instance_bindingEPv, symObjAddr: 0x0, symBinAddr: 0x51E30, symSize: 0xD0 }
  - { offset: 0x28D5B9, size: 0x8, addend: 0x0, symName: __ZN5godot8internal21convert_property_listERKNSt3__16vectorINS_12PropertyInfoENS1_9allocatorIS3_EEEE, symObjAddr: 0xD0, symBinAddr: 0x51F00, symSize: 0xF0 }
  - { offset: 0x291018, size: 0x8, addend: 0x0, symName: ___cxx_global_var_init, symObjAddr: 0x1FB0, symBinAddr: 0x533C0, symSize: 0x40 }
  - { offset: 0x29109F, size: 0x8, addend: 0x0, symName: ___cxx_global_var_init.1, symObjAddr: 0x1FF0, symBinAddr: 0x53400, symSize: 0x3A }
  - { offset: 0x291325, size: 0x8, addend: 0x0, symName: __ZNK5godot10MethodInfocvNS_10DictionaryEEv, symObjAddr: 0x420, symBinAddr: 0x51FF0, symSize: 0x310 }
  - { offset: 0x291917, size: 0x8, addend: 0x0, symName: __ZN5godot10MethodInfo9from_dictERKNS_10DictionaryE, symObjAddr: 0x730, symBinAddr: 0x52300, symSize: 0x650 }
  - { offset: 0x291F67, size: 0x8, addend: 0x0, symName: __ZN5godot12PropertyInfo9from_dictERKNS_10DictionaryE, symObjAddr: 0xE00, symBinAddr: 0x529D0, symSize: 0x400 }
  - { offset: 0x292463, size: 0x8, addend: 0x0, symName: __ZNSt3__16vectorIN5godot7VariantENS_9allocatorIS2_EEE21__push_back_slow_pathIRKS2_EEPS2_OT_, symObjAddr: 0x1C60, symBinAddr: 0x53250, symSize: 0x170 }
  - { offset: 0x29295F, size: 0x8, addend: 0x0, symName: __ZN5godot10MethodInfoC1Ev, symObjAddr: 0xD80, symBinAddr: 0x52950, symSize: 0x80 }
  - { offset: 0x292A64, size: 0x8, addend: 0x0, symName: __ZN5godot10MethodInfoC2Ev, symObjAddr: 0x1200, symBinAddr: 0x52DD0, symSize: 0x80 }
  - { offset: 0x292B4B, size: 0x8, addend: 0x0, symName: __ZN5godot10MethodInfoC2ENS_10StringNameE, symObjAddr: 0x1280, symBinAddr: 0x52E50, symSize: 0x80 }
  - { offset: 0x292C63, size: 0x8, addend: 0x0, symName: __ZN5godot10MethodInfoC1ENS_10StringNameE, symObjAddr: 0x1300, symBinAddr: 0x52ED0, symSize: 0x80 }
  - { offset: 0x292D8C, size: 0x8, addend: 0x0, symName: __ZN5godot10MethodInfoC2ENS_7Variant4TypeE, symObjAddr: 0x1380, symBinAddr: 0x52F50, symSize: 0x80 }
  - { offset: 0x292EA4, size: 0x8, addend: 0x0, symName: __ZN5godot10MethodInfoC1ENS_7Variant4TypeE, symObjAddr: 0x1400, symBinAddr: 0x52FD0, symSize: 0x80 }
  - { offset: 0x292FCB, size: 0x8, addend: 0x0, symName: __ZN5godot10MethodInfoC2ENS_7Variant4TypeENS_10StringNameE, symObjAddr: 0x1480, symBinAddr: 0x53050, symSize: 0x80 }
  - { offset: 0x2930F8, size: 0x8, addend: 0x0, symName: __ZN5godot10MethodInfoC1ENS_7Variant4TypeENS_10StringNameE, symObjAddr: 0x1500, symBinAddr: 0x530D0, symSize: 0x80 }
  - { offset: 0x29327B, size: 0x8, addend: 0x0, symName: __ZN5godot10MethodInfoC2ERKNS_12PropertyInfoENS_10StringNameE, symObjAddr: 0x1580, symBinAddr: 0x53150, symSize: 0x80 }
  - { offset: 0x2933B8, size: 0x8, addend: 0x0, symName: __ZN5godot10MethodInfoC1ERKNS_12PropertyInfoENS_10StringNameE, symObjAddr: 0x1600, symBinAddr: 0x531D0, symSize: 0x80 }
  - { offset: 0x293576, size: 0x8, addend: 0x0, symName: __ZN5godot6ObjectD1Ev.cold.1, symObjAddr: 0x1DD0, symBinAddr: 0x122E70, symSize: 0x30 }
  - { offset: 0x293601, size: 0x8, addend: 0x0, symName: __ZN5godot6ObjectD0Ev.cold.1, symObjAddr: 0x1E00, symBinAddr: 0x122EA0, symSize: 0x30 }
  - { offset: 0x293688, size: 0x8, addend: 0x0, symName: __ZN5godot7WrappedD1Ev.cold.1, symObjAddr: 0x1E30, symBinAddr: 0x122ED0, symSize: 0x30 }
  - { offset: 0x2936FD, size: 0x8, addend: 0x0, symName: __ZN5godot7WrappedD0Ev.cold.1, symObjAddr: 0x1E60, symBinAddr: 0x122F00, symSize: 0x30 }
  - { offset: 0x29376E, size: 0x8, addend: 0x0, symName: __ZN5godot4ListINS_12PropertyInfoENS_16DefaultAllocatorEE5_Data5eraseEPNS3_7ElementE.cold.2, symObjAddr: 0x1EC0, symBinAddr: 0x122F60, symSize: 0x30 }
  - { offset: 0x293786, size: 0x8, addend: 0x0, symName: __ZN5godot4ListINS_12PropertyInfoENS_16DefaultAllocatorEE5_Data5eraseEPNS3_7ElementE.cold.1, symObjAddr: 0x1E90, symBinAddr: 0x122F30, symSize: 0x30 }
  - { offset: 0x2937A5, size: 0x8, addend: 0x0, symName: __ZN5godot8internal23EngineClassRegistrationINS_6ObjectEE8callbackEv.cold.1, symObjAddr: 0x1EF0, symBinAddr: 0x122F90, symSize: 0x60 }
  - { offset: 0x293A2D, size: 0x8, addend: 0x0, symName: __ZN5godot8internal23EngineClassRegistrationINS_16ClassDBSingletonEE8callbackEv.cold.1, symObjAddr: 0x1F50, symBinAddr: 0x122FF0, symSize: 0x5D }
  - { offset: 0x295BB0, size: 0x8, addend: 0x0, symName: __ZN5godot16_err_print_errorEPKcS1_iS1_bb, symObjAddr: 0x0, symBinAddr: 0x53440, symSize: 0x30 }
  - { offset: 0x295BD6, size: 0x8, addend: 0x0, symName: __ZN5godot16_err_print_errorEPKcS1_iS1_bb, symObjAddr: 0x0, symBinAddr: 0x53440, symSize: 0x30 }
  - { offset: 0x295E7E, size: 0x8, addend: 0x0, symName: __ZN5godot16_err_print_errorEPKcS1_iRKNS_6StringEbb, symObjAddr: 0x30, symBinAddr: 0x53470, symSize: 0xA0 }
  - { offset: 0x2960B7, size: 0x8, addend: 0x0, symName: __ZN5godot16_err_print_errorEPKcS1_iS1_S1_bb, symObjAddr: 0xD0, symBinAddr: 0x53510, symSize: 0x40 }
  - { offset: 0x29617A, size: 0x8, addend: 0x0, symName: __ZN5godot16_err_print_errorEPKcS1_iRKNS_6StringES1_bb, symObjAddr: 0x110, symBinAddr: 0x53550, symSize: 0xA0 }
  - { offset: 0x2963CD, size: 0x8, addend: 0x0, symName: __ZN5godot16_err_print_errorEPKcS1_iS1_RKNS_6StringEbb, symObjAddr: 0x1B0, symBinAddr: 0x535F0, symSize: 0xA0 }
  - { offset: 0x296620, size: 0x8, addend: 0x0, symName: __ZN5godot16_err_print_errorEPKcS1_iRKNS_6StringES4_bb, symObjAddr: 0x250, symBinAddr: 0x53690, symSize: 0xE0 }
  - { offset: 0x2969CA, size: 0x8, addend: 0x0, symName: __ZN5godot22_err_print_index_errorEPKcS1_ixxS1_S1_S1_bb, symObjAddr: 0x330, symBinAddr: 0x53770, symSize: 0x240 }
  - { offset: 0x296CC3, size: 0x8, addend: 0x0, symName: __ZN5godot22_err_print_index_errorEPKcS1_ixxS1_S1_RKNS_6StringEbb, symObjAddr: 0x570, symBinAddr: 0x539B0, symSize: 0xB0 }
  - { offset: 0x296F03, size: 0x8, addend: 0x0, symName: __ZN5godot17_err_flush_stdoutEv, symObjAddr: 0x620, symBinAddr: 0x53A60, symSize: 0x14 }
  - { offset: 0x29990A, size: 0x8, addend: 0x0, symName: __ZN5godot8internal25create_callable_from_ccmpEPNS_31CallableCustomMethodPointerBaseE, symObjAddr: 0x130, symBinAddr: 0x53BB0, symSize: 0xB0 }
  - { offset: 0x2999C8, size: 0x8, addend: 0x0, symName: __ZN5godotL23custom_callable_mp_callEPvPKPKvxS0_P20GDExtensionCallError, symObjAddr: 0x1E0, symBinAddr: 0x53C60, symSize: 0x10 }
  - { offset: 0x299A84, size: 0x8, addend: 0x0, symName: __ZN5godotL27custom_callable_mp_is_validEPv, symObjAddr: 0x1F0, symBinAddr: 0x53C70, symSize: 0x40 }
  - { offset: 0x299B69, size: 0x8, addend: 0x0, symName: __ZN5godotL23custom_callable_mp_freeEPv, symObjAddr: 0x230, symBinAddr: 0x53CB0, symSize: 0x20 }
  - { offset: 0x299BE0, size: 0x8, addend: 0x0, symName: __ZN5godotL23custom_callable_mp_hashEPv, symObjAddr: 0x250, symBinAddr: 0x53CD0, symSize: 0x10 }
  - { offset: 0x299C39, size: 0x8, addend: 0x0, symName: __ZN5godotL29custom_callable_mp_equal_funcEPvS0_, symObjAddr: 0x260, symBinAddr: 0x53CE0, symSize: 0x30 }
  - { offset: 0x299C9B, size: 0x8, addend: 0x0, symName: __ZN5godotL29custom_callable_mp_equal_funcEPvS0_, symObjAddr: 0x260, symBinAddr: 0x53CE0, symSize: 0x30 }
  - { offset: 0x299D00, size: 0x8, addend: 0x0, symName: __ZN5godotL33custom_callable_mp_less_than_funcEPvS0_, symObjAddr: 0x290, symBinAddr: 0x53D10, symSize: 0x30 }
  - { offset: 0x299D62, size: 0x8, addend: 0x0, symName: __ZN5godotL33custom_callable_mp_less_than_funcEPvS0_, symObjAddr: 0x290, symBinAddr: 0x53D10, symSize: 0x30 }
  - { offset: 0x299DC7, size: 0x8, addend: 0x0, symName: __ZN5godotL42custom_callable_mp_get_argument_count_funcEPvPh, symObjAddr: 0x2C0, symBinAddr: 0x53D40, symSize: 0x30 }
  - { offset: 0x29AD0A, size: 0x8, addend: 0x0, symName: ___cxx_global_var_init, symObjAddr: 0x760, symBinAddr: 0x53D70, symSize: 0x3A }
  - { offset: 0x29AD58, size: 0x8, addend: 0x0, symName: __ZN5godot31CallableCustomMethodPointerBase6_setupEPjj, symObjAddr: 0x0, symBinAddr: 0x53A80, symSize: 0x130 }
  - { offset: 0x29AEBB, size: 0x8, addend: 0x0, symName: __ZN5godot8internal23EngineClassRegistrationINS_6ObjectEE8callbackEv.cold.1, symObjAddr: 0x5E0, symBinAddr: 0x123050, symSize: 0x60 }
  - { offset: 0x29AF56, size: 0x8, addend: 0x0, symName: __ZN5godot6ObjectD1Ev.cold.1, symObjAddr: 0x640, symBinAddr: 0x1230B0, symSize: 0x30 }
  - { offset: 0x29AFE1, size: 0x8, addend: 0x0, symName: __ZN5godot6ObjectD0Ev.cold.1, symObjAddr: 0x670, symBinAddr: 0x1230E0, symSize: 0x30 }
  - { offset: 0x29B068, size: 0x8, addend: 0x0, symName: __ZN5godot7WrappedD1Ev.cold.1, symObjAddr: 0x6A0, symBinAddr: 0x123110, symSize: 0x30 }
  - { offset: 0x29B0DD, size: 0x8, addend: 0x0, symName: __ZN5godot7WrappedD0Ev.cold.1, symObjAddr: 0x6D0, symBinAddr: 0x123140, symSize: 0x30 }
  - { offset: 0x29B14E, size: 0x8, addend: 0x0, symName: __ZN5godot4ListINS_12PropertyInfoENS_16DefaultAllocatorEE5_Data5eraseEPNS3_7ElementE.cold.2, symObjAddr: 0x730, symBinAddr: 0x1231A0, symSize: 0x2A }
  - { offset: 0x29B166, size: 0x8, addend: 0x0, symName: __ZN5godot4ListINS_12PropertyInfoENS_16DefaultAllocatorEE5_Data5eraseEPNS3_7ElementE.cold.1, symObjAddr: 0x700, symBinAddr: 0x123170, symSize: 0x30 }
  - { offset: 0x29D013, size: 0x8, addend: 0x0, symName: __ZN5godot15VariantInternal13init_bindingsEv, symObjAddr: 0x0, symBinAddr: 0x53DB0, symSize: 0x3D }
  - { offset: 0x29D02C, size: 0x8, addend: 0x0, symName: __ZN5godot15VariantInternal17get_internal_funcE, symObjAddr: 0x3A0C0, symBinAddr: 0x1EA0C0, symSize: 0x0 }
  - { offset: 0x29E594, size: 0x8, addend: 0x0, symName: __ZN5godot15VariantInternal13init_bindingsEv, symObjAddr: 0x0, symBinAddr: 0x53DB0, symSize: 0x3D }
  - { offset: 0x2A0041, size: 0x8, addend: 0x0, symName: __ZN5godot5Basis6invertEv, symObjAddr: 0x0, symBinAddr: 0x53DF0, symSize: 0x170 }
  - { offset: 0x2A1649, size: 0x8, addend: 0x0, symName: __ZN5godot5Basis9rotate_shEPf, symObjAddr: 0x66B0, symBinAddr: 0x5A4A0, symSize: 0x430 }
  - { offset: 0x2A1A17, size: 0x8, addend: 0x0, symName: __ZN5godot5Basis6invertEv, symObjAddr: 0x0, symBinAddr: 0x53DF0, symSize: 0x170 }
  - { offset: 0x2A1A9C, size: 0x8, addend: 0x0, symName: __ZN5godot5Basis6invertEv.cold.1, symObjAddr: 0x6DF0, symBinAddr: 0x1231D0, symSize: 0x30 }
  - { offset: 0x2A1BEE, size: 0x8, addend: 0x0, symName: __ZN5godot5Basis14orthonormalizeEv, symObjAddr: 0x170, symBinAddr: 0x53F60, symSize: 0x1F0 }
  - { offset: 0x2A1F31, size: 0x8, addend: 0x0, symName: __ZNK5godot5Basis15orthonormalizedEv, symObjAddr: 0x360, symBinAddr: 0x54150, symSize: 0x210 }
  - { offset: 0x2A23CD, size: 0x8, addend: 0x0, symName: __ZN5godot5Basis13orthogonalizeEv, symObjAddr: 0x570, symBinAddr: 0x54360, symSize: 0x3B0 }
  - { offset: 0x2A281A, size: 0x8, addend: 0x0, symName: __ZNK5godot5Basis9get_scaleEv, symObjAddr: 0x920, symBinAddr: 0x54710, symSize: 0xF0 }
  - { offset: 0x2A2952, size: 0x8, addend: 0x0, symName: __ZN5godot5Basis11scale_localERKNS_7Vector3E, symObjAddr: 0xA10, symBinAddr: 0x54800, symSize: 0x100 }
  - { offset: 0x2A2A52, size: 0x8, addend: 0x0, symName: __ZNK5godot5Basis14orthogonalizedEv, symObjAddr: 0xB10, symBinAddr: 0x54900, symSize: 0x30 }
  - { offset: 0x2A2ABE, size: 0x8, addend: 0x0, symName: __ZNK5godot5Basis13is_orthogonalEv, symObjAddr: 0xB40, symBinAddr: 0x54930, symSize: 0xC0 }
  - { offset: 0x2A2C94, size: 0x8, addend: 0x0, symName: __ZNK5godot5Basis14is_orthonormalEv, symObjAddr: 0xC00, symBinAddr: 0x549F0, symSize: 0x200 }
  - { offset: 0x2A3156, size: 0x8, addend: 0x0, symName: __ZNK5godot5Basis12is_conformalEv, symObjAddr: 0xE00, symBinAddr: 0x54BF0, symSize: 0x170 }
  - { offset: 0x2A34BC, size: 0x8, addend: 0x0, symName: __ZNK5godot5Basis11is_diagonalEv, symObjAddr: 0xF70, symBinAddr: 0x54D60, symSize: 0x80 }
  - { offset: 0x2A366F, size: 0x8, addend: 0x0, symName: __ZNK5godot5Basis11is_rotationEv, symObjAddr: 0xFF0, symBinAddr: 0x54DE0, symSize: 0xB0 }
  - { offset: 0x2A36FD, size: 0x8, addend: 0x0, symName: __ZNK5godot5Basis12is_symmetricEv, symObjAddr: 0x10A0, symBinAddr: 0x54E90, symSize: 0xC0 }
  - { offset: 0x2A3A05, size: 0x8, addend: 0x0, symName: __ZN5godot5Basis11diagonalizeEv, symObjAddr: 0x1160, symBinAddr: 0x54F50, symSize: 0x740 }
  - { offset: 0x2A4367, size: 0x8, addend: 0x0, symName: __ZN5godot5Basis11diagonalizeEv.cold.1, symObjAddr: 0x6E20, symBinAddr: 0x123200, symSize: 0x60 }
  - { offset: 0x2A4485, size: 0x8, addend: 0x0, symName: __ZNK5godot5Basis10transposedEv, symObjAddr: 0x18A0, symBinAddr: 0x55690, symSize: 0x60 }
  - { offset: 0x2A4554, size: 0x8, addend: 0x0, symName: __ZNK5godot5Basis7inverseEv, symObjAddr: 0x1900, symBinAddr: 0x556F0, symSize: 0x30 }
  - { offset: 0x2A45A4, size: 0x8, addend: 0x0, symName: __ZN5godot5Basis9transposeEv, symObjAddr: 0x1930, symBinAddr: 0x55720, symSize: 0x50 }
  - { offset: 0x2A474B, size: 0x8, addend: 0x0, symName: __ZN5godot5Basis10from_scaleERKNS_7Vector3E, symObjAddr: 0x1980, symBinAddr: 0x55770, symSize: 0x50 }
  - { offset: 0x2A4888, size: 0x8, addend: 0x0, symName: __ZN5godot5Basis5scaleERKNS_7Vector3E, symObjAddr: 0x19D0, symBinAddr: 0x557C0, symSize: 0x90 }
  - { offset: 0x2A48D4, size: 0x8, addend: 0x0, symName: __ZNK5godot5Basis6scaledERKNS_7Vector3E, symObjAddr: 0x1A60, symBinAddr: 0x55850, symSize: 0x50 }
  - { offset: 0x2A492D, size: 0x8, addend: 0x0, symName: __ZNK5godot5Basis12scaled_localERKNS_7Vector3E, symObjAddr: 0x1AB0, symBinAddr: 0x558A0, symSize: 0x100 }
  - { offset: 0x2A4A74, size: 0x8, addend: 0x0, symName: __ZN5godot5Basis16scale_orthogonalERKNS_7Vector3E, symObjAddr: 0x1BB0, symBinAddr: 0x559A0, symSize: 0x40 }
  - { offset: 0x2A4AD4, size: 0x8, addend: 0x0, symName: __ZNK5godot5Basis17scaled_orthogonalERKNS_7Vector3E, symObjAddr: 0x1BF0, symBinAddr: 0x559E0, symSize: 0x5A0 }
  - { offset: 0x2A508C, size: 0x8, addend: 0x0, symName: __ZNK5godot5Basis17get_uniform_scaleEv, symObjAddr: 0x2190, symBinAddr: 0x55F80, symSize: 0x80 }
  - { offset: 0x2A5133, size: 0x8, addend: 0x0, symName: __ZNK5godot5Basis13get_scale_absEv, symObjAddr: 0x2210, symBinAddr: 0x56000, symSize: 0x50 }
  - { offset: 0x2A51D5, size: 0x8, addend: 0x0, symName: __ZNK5godot5Basis16get_scale_globalEv, symObjAddr: 0x2260, symBinAddr: 0x56050, symSize: 0x110 }
  - { offset: 0x2A5386, size: 0x8, addend: 0x0, symName: __ZNK5godot5Basis29rotref_posscale_decompositionERS0_, symObjAddr: 0x2370, symBinAddr: 0x56160, symSize: 0x3B0 }
  - { offset: 0x2A57EA, size: 0x8, addend: 0x0, symName: __ZNK5godot5Basis29rotref_posscale_decompositionERS0_.cold.1, symObjAddr: 0x6E80, symBinAddr: 0x123260, symSize: 0x30 }
  - { offset: 0x2A5802, size: 0x8, addend: 0x0, symName: __ZNK5godot5Basis29rotref_posscale_decompositionERS0_.cold.2, symObjAddr: 0x6EB0, symBinAddr: 0x123290, symSize: 0x30 }
  - { offset: 0x2A581A, size: 0x8, addend: 0x0, symName: __ZNK5godot5Basis29rotref_posscale_decompositionERS0_.cold.3, symObjAddr: 0x6EE0, symBinAddr: 0x1232C0, symSize: 0x30 }
  - { offset: 0x2A5892, size: 0x8, addend: 0x0, symName: __ZNK5godot5Basis7rotatedERKNS_7Vector3Ef, symObjAddr: 0x2720, symBinAddr: 0x56510, symSize: 0x1A0 }
  - { offset: 0x2A5B50, size: 0x8, addend: 0x0, symName: __ZN5godot5Basis14set_axis_angleERKNS_7Vector3Ef, symObjAddr: 0x5DE0, symBinAddr: 0x59BD0, symSize: 0x170 }
  - { offset: 0x2A5CE3, size: 0x8, addend: 0x0, symName: __ZN5godot5Basis6rotateERKNS_7Vector3Ef, symObjAddr: 0x28C0, symBinAddr: 0x566B0, symSize: 0x190 }
  - { offset: 0x2A5F9B, size: 0x8, addend: 0x0, symName: __ZN5godot5Basis12rotate_localERKNS_7Vector3Ef, symObjAddr: 0x2A50, symBinAddr: 0x56840, symSize: 0x190 }
  - { offset: 0x2A6251, size: 0x8, addend: 0x0, symName: __ZNK5godot5Basis13rotated_localERKNS_7Vector3Ef, symObjAddr: 0x2BE0, symBinAddr: 0x569D0, symSize: 0x1A0 }
  - { offset: 0x2A6552, size: 0x8, addend: 0x0, symName: __ZNK5godot5Basis7rotatedERKNS_7Vector3ENS_10EulerOrderE, symObjAddr: 0x2D80, symBinAddr: 0x56B70, symSize: 0x1A0 }
  - { offset: 0x2A6821, size: 0x8, addend: 0x0, symName: __ZN5godot5Basis9set_eulerERKNS_7Vector3ENS_10EulerOrderE, symObjAddr: 0x4F20, symBinAddr: 0x58D10, symSize: 0xA70 }
  - { offset: 0x2A6FDA, size: 0x8, addend: 0x0, symName: __ZN5godot5Basis6rotateERKNS_7Vector3ENS_10EulerOrderE, symObjAddr: 0x2F20, symBinAddr: 0x56D10, symSize: 0x190 }
  - { offset: 0x2A73D3, size: 0x8, addend: 0x0, symName: __ZNK5godot5Basis7rotatedERKNS_10QuaternionE, symObjAddr: 0x30B0, symBinAddr: 0x56EA0, symSize: 0x220 }
  - { offset: 0x2A758C, size: 0x8, addend: 0x0, symName: __ZN5godot5Basis6rotateERKNS_10QuaternionE, symObjAddr: 0x32D0, symBinAddr: 0x570C0, symSize: 0x220 }
  - { offset: 0x2A76F5, size: 0x8, addend: 0x0, symName: __ZNK5godot5Basis20get_euler_normalizedENS_10EulerOrderE, symObjAddr: 0x34F0, symBinAddr: 0x572E0, symSize: 0x2F0 }
  - { offset: 0x2A7AC4, size: 0x8, addend: 0x0, symName: __ZNK5godot5Basis9get_eulerENS_10EulerOrderE, symObjAddr: 0x37E0, symBinAddr: 0x575D0, symSize: 0x5A0 }
  - { offset: 0x2A818D, size: 0x8, addend: 0x0, symName: __ZNK5godot5Basis23get_rotation_quaternionEv, symObjAddr: 0x3D80, symBinAddr: 0x57B70, symSize: 0x300 }
  - { offset: 0x2A8552, size: 0x8, addend: 0x0, symName: __ZNK5godot5Basis14get_quaternionEv, symObjAddr: 0x4080, symBinAddr: 0x57E70, symSize: 0x300 }
  - { offset: 0x2A87FF, size: 0x8, addend: 0x0, symName: __ZNK5godot5BasiscvNS_6StringEEv, symObjAddr: 0x5B20, symBinAddr: 0x59910, symSize: 0x1B0 }
  - { offset: 0x2A896C, size: 0x8, addend: 0x0, symName: __ZNK5godot5Basis14get_quaternionEv.cold.1, symObjAddr: 0x6F10, symBinAddr: 0x1232F0, symSize: 0x30 }
  - { offset: 0x2A89C8, size: 0x8, addend: 0x0, symName: __ZN5godot5Basis15rotate_to_alignENS_7Vector3ES1_, symObjAddr: 0x4380, symBinAddr: 0x58170, symSize: 0x2B0 }
  - { offset: 0x2A8DC8, size: 0x8, addend: 0x0, symName: __ZNK5godot5Basis23get_rotation_axis_angleERNS_7Vector3ERf, symObjAddr: 0x4630, symBinAddr: 0x58420, symSize: 0x2F0 }
  - { offset: 0x2A91A8, size: 0x8, addend: 0x0, symName: __ZNK5godot5Basis14get_axis_angleERNS_7Vector3ERf, symObjAddr: 0x4920, symBinAddr: 0x58710, symSize: 0x320 }
  - { offset: 0x2A94FC, size: 0x8, addend: 0x0, symName: __ZNK5godot5Basis29get_rotation_axis_angle_localERNS_7Vector3ERf, symObjAddr: 0x4C40, symBinAddr: 0x58A30, symSize: 0x2E0 }
  - { offset: 0x2A992A, size: 0x8, addend: 0x0, symName: __ZNK5godot5Basis15is_equal_approxERKS0_, symObjAddr: 0x5990, symBinAddr: 0x59780, symSize: 0x50 }
  - { offset: 0x2A9965, size: 0x8, addend: 0x0, symName: __ZNK5godot5Basis9is_finiteEv, symObjAddr: 0x59E0, symBinAddr: 0x597D0, symSize: 0x40 }
  - { offset: 0x2A998F, size: 0x8, addend: 0x0, symName: __ZNK5godot5BasiseqERKS0_, symObjAddr: 0x5A20, symBinAddr: 0x59810, symSize: 0x80 }
  - { offset: 0x2A9A2F, size: 0x8, addend: 0x0, symName: __ZNK5godot5BasisneERKS0_, symObjAddr: 0x5AA0, symBinAddr: 0x59890, symSize: 0x80 }
  - { offset: 0x2A9ABF, size: 0x8, addend: 0x0, symName: __ZN5godot5Basis14set_quaternionERKNS_10QuaternionE, symObjAddr: 0x5CD0, symBinAddr: 0x59AC0, symSize: 0x110 }
  - { offset: 0x2A9BE8, size: 0x8, addend: 0x0, symName: __ZN5godot5Basis14set_axis_angleERKNS_7Vector3Ef.cold.1, symObjAddr: 0x6F40, symBinAddr: 0x123320, symSize: 0xC0 }
  - { offset: 0x2A9C56, size: 0x8, addend: 0x0, symName: __ZN5godot5Basis20set_axis_angle_scaleERKNS_7Vector3EfS3_, symObjAddr: 0x5F50, symBinAddr: 0x59D40, symSize: 0x1D0 }
  - { offset: 0x2A9F5D, size: 0x8, addend: 0x0, symName: __ZN5godot5Basis13_set_diagonalERKNS_7Vector3E, symObjAddr: 0x6120, symBinAddr: 0x59F10, symSize: 0x40 }
  - { offset: 0x2A9FB7, size: 0x8, addend: 0x0, symName: __ZN5godot5Basis15set_euler_scaleERKNS_7Vector3ES3_NS_10EulerOrderE, symObjAddr: 0x6160, symBinAddr: 0x59F50, symSize: 0x1D0 }
  - { offset: 0x2AA2CD, size: 0x8, addend: 0x0, symName: __ZN5godot5Basis20set_quaternion_scaleERKNS_10QuaternionERKNS_7Vector3E, symObjAddr: 0x6330, symBinAddr: 0x5A120, symSize: 0x50 }
  - { offset: 0x2AA391, size: 0x8, addend: 0x0, symName: __ZNK5godot5Basis4lerpERKS0_f, symObjAddr: 0x6380, symBinAddr: 0x5A170, symSize: 0xA0 }
  - { offset: 0x2AA597, size: 0x8, addend: 0x0, symName: __ZNK5godot5Basis5slerpERKS0_f, symObjAddr: 0x6420, symBinAddr: 0x5A210, symSize: 0x290 }
  - { offset: 0x2AA916, size: 0x8, addend: 0x0, symName: __ZN5godot5Basis10looking_atERKNS_7Vector3ES3_b, symObjAddr: 0x6AE0, symBinAddr: 0x5A8D0, symSize: 0x310 }
  - { offset: 0x2AAD39, size: 0x8, addend: 0x0, symName: __ZN5godot5Basis10looking_atERKNS_7Vector3ES3_b.cold.3, symObjAddr: 0x70A0, symBinAddr: 0x123480, symSize: 0x5F }
  - { offset: 0x2AAE3B, size: 0x8, addend: 0x0, symName: __ZN5godot5Basis10looking_atERKNS_7Vector3ES3_b.cold.2, symObjAddr: 0x7040, symBinAddr: 0x123420, symSize: 0x60 }
  - { offset: 0x2AAF3D, size: 0x8, addend: 0x0, symName: __ZN5godot5Basis10looking_atERKNS_7Vector3ES3_b.cold.1, symObjAddr: 0x7000, symBinAddr: 0x1233E0, symSize: 0x40 }
  - { offset: 0x2ABFCE, size: 0x8, addend: 0x0, symName: __ZNK5godot7Vector414min_axis_indexEv, symObjAddr: 0x0, symBinAddr: 0x5ABE0, symSize: 0x40 }
  - { offset: 0x2ACC72, size: 0x8, addend: 0x0, symName: __ZNK5godot7Vector414min_axis_indexEv, symObjAddr: 0x0, symBinAddr: 0x5ABE0, symSize: 0x40 }
  - { offset: 0x2ACCD8, size: 0x8, addend: 0x0, symName: __ZNK5godot7Vector414max_axis_indexEv, symObjAddr: 0x40, symBinAddr: 0x5AC20, symSize: 0x40 }
  - { offset: 0x2ACD5A, size: 0x8, addend: 0x0, symName: __ZNK5godot7Vector415is_equal_approxERKS0_, symObjAddr: 0x80, symBinAddr: 0x5AC60, symSize: 0x100 }
  - { offset: 0x2AD041, size: 0x8, addend: 0x0, symName: __ZNK5godot7Vector414is_zero_approxEv, symObjAddr: 0x180, symBinAddr: 0x5AD60, symSize: 0x60 }
  - { offset: 0x2AD174, size: 0x8, addend: 0x0, symName: __ZNK5godot7Vector49is_finiteEv, symObjAddr: 0x1E0, symBinAddr: 0x5ADC0, symSize: 0x50 }
  - { offset: 0x2AD289, size: 0x8, addend: 0x0, symName: __ZNK5godot7Vector46lengthEv, symObjAddr: 0x230, symBinAddr: 0x5AE10, symSize: 0x40 }
  - { offset: 0x2AD30C, size: 0x8, addend: 0x0, symName: __ZN5godot7Vector49normalizeEv, symObjAddr: 0x270, symBinAddr: 0x5AE50, symSize: 0x60 }
  - { offset: 0x2AD3B1, size: 0x8, addend: 0x0, symName: __ZNK5godot7Vector410normalizedEv, symObjAddr: 0x2D0, symBinAddr: 0x5AEB0, symSize: 0x70 }
  - { offset: 0x2AD465, size: 0x8, addend: 0x0, symName: __ZNK5godot7Vector413is_normalizedEv, symObjAddr: 0x340, symBinAddr: 0x5AF20, symSize: 0x70 }
  - { offset: 0x2AD540, size: 0x8, addend: 0x0, symName: __ZNK5godot7Vector411distance_toERKS0_, symObjAddr: 0x3B0, symBinAddr: 0x5AF90, symSize: 0x50 }
  - { offset: 0x2AD5FA, size: 0x8, addend: 0x0, symName: __ZNK5godot7Vector419distance_squared_toERKS0_, symObjAddr: 0x400, symBinAddr: 0x5AFE0, symSize: 0x50 }
  - { offset: 0x2AD680, size: 0x8, addend: 0x0, symName: __ZNK5godot7Vector412direction_toERKS0_, symObjAddr: 0x450, symBinAddr: 0x5B030, symSize: 0x70 }
  - { offset: 0x2AD70B, size: 0x8, addend: 0x0, symName: __ZNK5godot7Vector43absEv, symObjAddr: 0x4C0, symBinAddr: 0x5B0A0, symSize: 0x20 }
  - { offset: 0x2AD763, size: 0x8, addend: 0x0, symName: __ZNK5godot7Vector44signEv, symObjAddr: 0x4E0, symBinAddr: 0x5B0C0, symSize: 0x40 }
  - { offset: 0x2AD79F, size: 0x8, addend: 0x0, symName: __ZNK5godot7Vector45floorEv, symObjAddr: 0x520, symBinAddr: 0x5B100, symSize: 0x20 }
  - { offset: 0x2AD7DB, size: 0x8, addend: 0x0, symName: __ZNK5godot7Vector44ceilEv, symObjAddr: 0x540, symBinAddr: 0x5B120, symSize: 0x20 }
  - { offset: 0x2AD817, size: 0x8, addend: 0x0, symName: __ZNK5godot7Vector45roundEv, symObjAddr: 0x560, symBinAddr: 0x5B140, symSize: 0x100 }
  - { offset: 0x2AD9B6, size: 0x8, addend: 0x0, symName: __ZNK5godot7Vector44lerpERKS0_f, symObjAddr: 0x660, symBinAddr: 0x5B240, symSize: 0x20 }
  - { offset: 0x2ADA26, size: 0x8, addend: 0x0, symName: __ZNK5godot7Vector417cubic_interpolateERKS0_S2_S2_f, symObjAddr: 0x680, symBinAddr: 0x5B260, symSize: 0x90 }
  - { offset: 0x2ADAAA, size: 0x8, addend: 0x0, symName: __ZNK5godot7Vector425cubic_interpolate_in_timeERKS0_S2_S2_ffff, symObjAddr: 0x710, symBinAddr: 0x5B2F0, symSize: 0x120 }
  - { offset: 0x2ADC33, size: 0x8, addend: 0x0, symName: __ZNK5godot7Vector46posmodEf, symObjAddr: 0x830, symBinAddr: 0x5B410, symSize: 0x100 }
  - { offset: 0x2ADDD8, size: 0x8, addend: 0x0, symName: __ZNK5godot7Vector47posmodvERKS0_, symObjAddr: 0x930, symBinAddr: 0x5B510, symSize: 0x120 }
  - { offset: 0x2ADF31, size: 0x8, addend: 0x0, symName: __ZN5godot7Vector44snapERKS0_, symObjAddr: 0xA50, symBinAddr: 0x5B630, symSize: 0x120 }
  - { offset: 0x2ADFFA, size: 0x8, addend: 0x0, symName: __ZN5godot7Vector45snapfEf, symObjAddr: 0xB70, symBinAddr: 0x5B750, symSize: 0x80 }
  - { offset: 0x2AE05E, size: 0x8, addend: 0x0, symName: __ZNK5godot7Vector47snappedERKS0_, symObjAddr: 0xBF0, symBinAddr: 0x5B7D0, symSize: 0x80 }
  - { offset: 0x2AE0EC, size: 0x8, addend: 0x0, symName: __ZNK5godot7Vector48snappedfEf, symObjAddr: 0xC70, symBinAddr: 0x5B850, symSize: 0x80 }
  - { offset: 0x2AE166, size: 0x8, addend: 0x0, symName: __ZNK5godot7Vector47inverseEv, symObjAddr: 0xCF0, symBinAddr: 0x5B8D0, symSize: 0x20 }
  - { offset: 0x2AE18D, size: 0x8, addend: 0x0, symName: __ZNK5godot7Vector45clampERKS0_S2_, symObjAddr: 0xD10, symBinAddr: 0x5B8F0, symSize: 0x30 }
  - { offset: 0x2AE1E5, size: 0x8, addend: 0x0, symName: __ZNK5godot7Vector46clampfEff, symObjAddr: 0xD40, symBinAddr: 0x5B920, symSize: 0x30 }
  - { offset: 0x2AE256, size: 0x8, addend: 0x0, symName: __ZNK5godot7Vector4cvNS_6StringEEv, symObjAddr: 0xD70, symBinAddr: 0x5B950, symSize: 0x1C0 }
  - { offset: 0x2AE32D, size: 0x8, addend: 0x0, symName: __ZNK5godot7Vector4cvNS_8Vector4iEEv, symObjAddr: 0xF30, symBinAddr: 0x5BB10, symSize: 0x27 }
  - { offset: 0x2AF417, size: 0x8, addend: 0x0, symName: __ZN5godot7Vector36rotateERKS0_f, symObjAddr: 0x0, symBinAddr: 0x5BB40, symSize: 0xB0 }
  - { offset: 0x2AFFF9, size: 0x8, addend: 0x0, symName: __ZN5godot7Vector36rotateERKS0_f, symObjAddr: 0x0, symBinAddr: 0x5BB40, symSize: 0xB0 }
  - { offset: 0x2B0206, size: 0x8, addend: 0x0, symName: __ZNK5godot7Vector37rotatedERKS0_f, symObjAddr: 0xB0, symBinAddr: 0x5BBF0, symSize: 0xC0 }
  - { offset: 0x2B041D, size: 0x8, addend: 0x0, symName: __ZNK5godot7Vector35clampERKS0_S2_, symObjAddr: 0x170, symBinAddr: 0x5BCB0, symSize: 0x50 }
  - { offset: 0x2B04A7, size: 0x8, addend: 0x0, symName: __ZNK5godot7Vector36clampfEff, symObjAddr: 0x1C0, symBinAddr: 0x5BD00, symSize: 0x50 }
  - { offset: 0x2B0542, size: 0x8, addend: 0x0, symName: __ZN5godot7Vector34snapERKS0_, symObjAddr: 0x210, symBinAddr: 0x5BD50, symSize: 0xE0 }
  - { offset: 0x2B0606, size: 0x8, addend: 0x0, symName: __ZNK5godot7Vector37snappedERKS0_, symObjAddr: 0x2F0, symBinAddr: 0x5BE30, symSize: 0x80 }
  - { offset: 0x2B06A6, size: 0x8, addend: 0x0, symName: __ZN5godot7Vector35snapfEf, symObjAddr: 0x370, symBinAddr: 0x5BEB0, symSize: 0xA0 }
  - { offset: 0x2B0734, size: 0x8, addend: 0x0, symName: __ZNK5godot7Vector38snappedfEf, symObjAddr: 0x410, symBinAddr: 0x5BF50, symSize: 0x90 }
  - { offset: 0x2B0860, size: 0x8, addend: 0x0, symName: __ZNK5godot7Vector312limit_lengthEf, symObjAddr: 0x4A0, symBinAddr: 0x5BFE0, symSize: 0x60 }
  - { offset: 0x2B09C4, size: 0x8, addend: 0x0, symName: __ZNK5godot7Vector311move_towardERKS0_f, symObjAddr: 0x500, symBinAddr: 0x5C040, symSize: 0x90 }
  - { offset: 0x2B0AFB, size: 0x8, addend: 0x0, symName: __ZNK5godot7Vector317octahedron_encodeEv, symObjAddr: 0x590, symBinAddr: 0x5C0D0, symSize: 0x90 }
  - { offset: 0x2B0C4C, size: 0x8, addend: 0x0, symName: __ZN5godot7Vector317octahedron_decodeERKNS_7Vector2E, symObjAddr: 0x620, symBinAddr: 0x5C160, symSize: 0xB0 }
  - { offset: 0x2B0DC5, size: 0x8, addend: 0x0, symName: __ZNK5godot7Vector325octahedron_tangent_encodeEf, symObjAddr: 0x6D0, symBinAddr: 0x5C210, symSize: 0xD0 }
  - { offset: 0x2B0F30, size: 0x8, addend: 0x0, symName: __ZN5godot7Vector325octahedron_tangent_decodeERKNS_7Vector2EPf, symObjAddr: 0x7A0, symBinAddr: 0x5C2E0, symSize: 0xF0 }
  - { offset: 0x2B1101, size: 0x8, addend: 0x0, symName: __ZNK5godot7Vector35outerERKS0_, symObjAddr: 0x890, symBinAddr: 0x5C3D0, symSize: 0x60 }
  - { offset: 0x2B1146, size: 0x8, addend: 0x0, symName: __ZNK5godot7Vector315is_equal_approxERKS0_, symObjAddr: 0x8F0, symBinAddr: 0x5C430, symSize: 0xC0 }
  - { offset: 0x2B137F, size: 0x8, addend: 0x0, symName: __ZNK5godot7Vector314is_zero_approxEv, symObjAddr: 0x9B0, symBinAddr: 0x5C4F0, symSize: 0x50 }
  - { offset: 0x2B146F, size: 0x8, addend: 0x0, symName: __ZNK5godot7Vector39is_finiteEv, symObjAddr: 0xA00, symBinAddr: 0x5C540, symSize: 0x40 }
  - { offset: 0x2B151A, size: 0x8, addend: 0x0, symName: __ZNK5godot7Vector3cvNS_6StringEEv, symObjAddr: 0xA40, symBinAddr: 0x5C580, symSize: 0x160 }
  - { offset: 0x2B1560, size: 0x8, addend: 0x0, symName: __ZNK5godot7Vector3cvNS_8Vector3iEEv, symObjAddr: 0xBA0, symBinAddr: 0x5C6E0, symSize: 0x1B }
  - { offset: 0x2B2F1D, size: 0x8, addend: 0x0, symName: __ZN5godotL20callable_custom_callEPvPKPKvxS0_P20GDExtensionCallError, symObjAddr: 0xE0, symBinAddr: 0x5C7E0, symSize: 0x10 }
  - { offset: 0x2B2FB9, size: 0x8, addend: 0x0, symName: __ZN5godotL24callable_custom_is_validEPv, symObjAddr: 0xF0, symBinAddr: 0x5C7F0, symSize: 0x10 }
  - { offset: 0x2B3035, size: 0x8, addend: 0x0, symName: __ZN5godotL20callable_custom_freeEPv, symObjAddr: 0x100, symBinAddr: 0x5C800, symSize: 0x20 }
  - { offset: 0x2B30AC, size: 0x8, addend: 0x0, symName: __ZN5godotL20callable_custom_hashEPv, symObjAddr: 0x120, symBinAddr: 0x5C820, symSize: 0x10 }
  - { offset: 0x2B30FC, size: 0x8, addend: 0x0, symName: __ZN5godotL26callable_custom_equal_funcEPvS0_, symObjAddr: 0x130, symBinAddr: 0x5C830, symSize: 0x50 }
  - { offset: 0x2B31BF, size: 0x8, addend: 0x0, symName: __ZN5godotL30callable_custom_less_than_funcEPvS0_, symObjAddr: 0x180, symBinAddr: 0x5C880, symSize: 0x50 }
  - { offset: 0x2B3282, size: 0x8, addend: 0x0, symName: __ZN5godotL25callable_custom_to_stringEPvPhS0_, symObjAddr: 0x1D0, symBinAddr: 0x5C8D0, symSize: 0x70 }
  - { offset: 0x2B32F9, size: 0x8, addend: 0x0, symName: __ZN5godotL39custom_callable_get_argument_count_funcEPvPh, symObjAddr: 0x240, symBinAddr: 0x5C940, symSize: 0x30 }
  - { offset: 0x2B4275, size: 0x8, addend: 0x0, symName: ___cxx_global_var_init, symObjAddr: 0x800, symBinAddr: 0x5CA50, symSize: 0x3A }
  - { offset: 0x2B42C3, size: 0x8, addend: 0x0, symName: __ZNK5godot18CallableCustomBase18get_argument_countERb, symObjAddr: 0x0, symBinAddr: 0x5C700, symSize: 0x10 }
  - { offset: 0x2B4314, size: 0x8, addend: 0x0, symName: __ZNK5godot14CallableCustom8is_validEv, symObjAddr: 0x10, symBinAddr: 0x5C710, symSize: 0x30 }
  - { offset: 0x2B4396, size: 0x8, addend: 0x0, symName: __ZN5godot8CallableC2EPNS_14CallableCustomE, symObjAddr: 0x40, symBinAddr: 0x5C740, symSize: 0xA0 }
  - { offset: 0x2B445B, size: 0x8, addend: 0x0, symName: __ZN5godot8CallableC1EPNS_14CallableCustomE, symObjAddr: 0x270, symBinAddr: 0x5C970, symSize: 0xA0 }
  - { offset: 0x2B450A, size: 0x8, addend: 0x0, symName: __ZNK5godot8Callable10get_customEv, symObjAddr: 0x310, symBinAddr: 0x5CA10, symSize: 0x40 }
  - { offset: 0x2B4558, size: 0x8, addend: 0x0, symName: __ZN5godot18CallableCustomBaseD1Ev, symObjAddr: 0x350, symBinAddr: 0x1234E0, symSize: 0x10 }
  - { offset: 0x2B4581, size: 0x8, addend: 0x0, symName: __ZN5godot18CallableCustomBaseD0Ev, symObjAddr: 0x360, symBinAddr: 0x1234F0, symSize: 0x10 }
  - { offset: 0x2B45AF, size: 0x8, addend: 0x0, symName: __ZN5godot14CallableCustomD1Ev, symObjAddr: 0x370, symBinAddr: 0x123500, symSize: 0x10 }
  - { offset: 0x2B45DA, size: 0x8, addend: 0x0, symName: __ZN5godot14CallableCustomD0Ev, symObjAddr: 0x380, symBinAddr: 0x123510, symSize: 0x10 }
  - { offset: 0x2B460C, size: 0x8, addend: 0x0, symName: __ZN5godot8internal23EngineClassRegistrationINS_6ObjectEE8callbackEv.cold.1, symObjAddr: 0x680, symBinAddr: 0x123520, symSize: 0x60 }
  - { offset: 0x2B46A7, size: 0x8, addend: 0x0, symName: __ZN5godot6ObjectD1Ev.cold.1, symObjAddr: 0x6E0, symBinAddr: 0x123580, symSize: 0x30 }
  - { offset: 0x2B4732, size: 0x8, addend: 0x0, symName: __ZN5godot6ObjectD0Ev.cold.1, symObjAddr: 0x710, symBinAddr: 0x1235B0, symSize: 0x30 }
  - { offset: 0x2B47B9, size: 0x8, addend: 0x0, symName: __ZN5godot7WrappedD1Ev.cold.1, symObjAddr: 0x740, symBinAddr: 0x1235E0, symSize: 0x30 }
  - { offset: 0x2B482E, size: 0x8, addend: 0x0, symName: __ZN5godot7WrappedD0Ev.cold.1, symObjAddr: 0x770, symBinAddr: 0x123610, symSize: 0x30 }
  - { offset: 0x2B489F, size: 0x8, addend: 0x0, symName: __ZN5godot4ListINS_12PropertyInfoENS_16DefaultAllocatorEE5_Data5eraseEPNS3_7ElementE.cold.2, symObjAddr: 0x7D0, symBinAddr: 0x123670, symSize: 0x2A }
  - { offset: 0x2B48B7, size: 0x8, addend: 0x0, symName: __ZN5godot4ListINS_12PropertyInfoENS_16DefaultAllocatorEE5_Data5eraseEPNS3_7ElementE.cold.1, symObjAddr: 0x7A0, symBinAddr: 0x123640, symSize: 0x30 }
  - { offset: 0x2B677B, size: 0x8, addend: 0x0, symName: __ZNK5godot10Projection11determinantEv, symObjAddr: 0x0, symBinAddr: 0x5CA90, symSize: 0x280 }
  - { offset: 0x2B83BA, size: 0x8, addend: 0x0, symName: __ZNK5godot10Projection11determinantEv, symObjAddr: 0x0, symBinAddr: 0x5CA90, symSize: 0x280 }
  - { offset: 0x2B83E1, size: 0x8, addend: 0x0, symName: __ZN5godot10Projection12set_identityEv, symObjAddr: 0x280, symBinAddr: 0x5CD10, symSize: 0x30 }
  - { offset: 0x2B8434, size: 0x8, addend: 0x0, symName: __ZN5godot10Projection8set_zeroEv, symObjAddr: 0x2B0, symBinAddr: 0x5CD40, symSize: 0x20 }
  - { offset: 0x2B8494, size: 0x8, addend: 0x0, symName: __ZNK5godot10Projection6xform4ERKNS_5PlaneE, symObjAddr: 0x2D0, symBinAddr: 0x5CD60, symSize: 0x60 }
  - { offset: 0x2B84D4, size: 0x8, addend: 0x0, symName: __ZNK5godot10Projection5xformERKNS_7Vector4E, symObjAddr: 0x330, symBinAddr: 0x5CDC0, symSize: 0x60 }
  - { offset: 0x2B8509, size: 0x8, addend: 0x0, symName: __ZNK5godot10Projection9xform_invERKNS_7Vector4E, symObjAddr: 0x390, symBinAddr: 0x5CE20, symSize: 0xB0 }
  - { offset: 0x2B8678, size: 0x8, addend: 0x0, symName: __ZN5godot10Projection24adjust_perspective_znearEf, symObjAddr: 0x440, symBinAddr: 0x5CED0, symSize: 0xA0 }
  - { offset: 0x2B8773, size: 0x8, addend: 0x0, symName: __ZNK5godot10Projection9get_z_farEv, symObjAddr: 0x4E0, symBinAddr: 0x5CF70, symSize: 0x60 }
  - { offset: 0x2B8879, size: 0x8, addend: 0x0, symName: __ZN5godot10Projection23create_depth_correctionEb, symObjAddr: 0x540, symBinAddr: 0x5CFD0, symSize: 0x50 }
  - { offset: 0x2B8943, size: 0x8, addend: 0x0, symName: __ZN5godot10ProjectionC1Ev, symObjAddr: 0x590, symBinAddr: 0x5D020, symSize: 0x30 }
  - { offset: 0x2B89D4, size: 0x8, addend: 0x0, symName: __ZN5godot10Projection20set_depth_correctionEbbb, symObjAddr: 0x5C0, symBinAddr: 0x5D050, symSize: 0xA0 }
  - { offset: 0x2B8A39, size: 0x8, addend: 0x0, symName: __ZN5godot10ProjectionD1Ev, symObjAddr: 0x660, symBinAddr: 0x5D0F0, symSize: 0x10 }
  - { offset: 0x2B8A97, size: 0x8, addend: 0x0, symName: __ZN5godot10Projection23create_light_atlas_rectERKNS_5Rect2E, symObjAddr: 0x670, symBinAddr: 0x5D100, symSize: 0x50 }
  - { offset: 0x2B8AFA, size: 0x8, addend: 0x0, symName: __ZN5godot10Projection20set_light_atlas_rectERKNS_5Rect2E, symObjAddr: 0x6C0, symBinAddr: 0x5D150, symSize: 0x50 }
  - { offset: 0x2B8BE9, size: 0x8, addend: 0x0, symName: __ZN5godot10Projection18create_perspectiveEffffb, symObjAddr: 0x710, symBinAddr: 0x5D1A0, symSize: 0x190 }
  - { offset: 0x2B8E8C, size: 0x8, addend: 0x0, symName: __ZN5godot10Projection15set_perspectiveEffffb, symObjAddr: 0x8A0, symBinAddr: 0x5D330, symSize: 0x170 }
  - { offset: 0x2B9057, size: 0x8, addend: 0x0, symName: __ZN5godot10Projection22create_perspective_hmdEffffbiff, symObjAddr: 0xA10, symBinAddr: 0x5D4A0, symSize: 0x50 }
  - { offset: 0x2B91E3, size: 0x8, addend: 0x0, symName: __ZN5godot10Projection15set_perspectiveEffffbiff, symObjAddr: 0xA60, symBinAddr: 0x5D4F0, symSize: 0x1E0 }
  - { offset: 0x2B94C0, size: 0x8, addend: 0x0, symName: __ZN5godot10Projection11set_frustumEffffff, symObjAddr: 0x1100, symBinAddr: 0x5DB90, symSize: 0xD0 }
  - { offset: 0x2B9696, size: 0x8, addend: 0x0, symName: __ZN5godot10Projection14create_for_hmdEifffffff, symObjAddr: 0xC40, symBinAddr: 0x5D6D0, symSize: 0x110 }
  - { offset: 0x2B9819, size: 0x8, addend: 0x0, symName: __ZN5godot10Projection11set_for_hmdEifffffff, symObjAddr: 0xD50, symBinAddr: 0x5D7E0, symSize: 0xC0 }
  - { offset: 0x2B9915, size: 0x8, addend: 0x0, symName: __ZN5godot10Projection17create_orthogonalEffffff, symObjAddr: 0xE10, symBinAddr: 0x5D8A0, symSize: 0x90 }
  - { offset: 0x2B9A43, size: 0x8, addend: 0x0, symName: __ZN5godot10Projection14set_orthogonalEffffff, symObjAddr: 0xEA0, symBinAddr: 0x5D930, symSize: 0x90 }
  - { offset: 0x2B9B44, size: 0x8, addend: 0x0, symName: __ZN5godot10Projection24create_orthogonal_aspectEffffb, symObjAddr: 0xF30, symBinAddr: 0x5D9C0, symSize: 0xC0 }
  - { offset: 0x2B9C6B, size: 0x8, addend: 0x0, symName: __ZN5godot10Projection14set_orthogonalEffffb, symObjAddr: 0xFF0, symBinAddr: 0x5DA80, symSize: 0xC0 }
  - { offset: 0x2B9D2C, size: 0x8, addend: 0x0, symName: __ZN5godot10Projection14create_frustumEffffff, symObjAddr: 0x10B0, symBinAddr: 0x5DB40, symSize: 0x50 }
  - { offset: 0x2B9E88, size: 0x8, addend: 0x0, symName: __ZN5godot10Projection11set_frustumEffffff.cold.1, symObjAddr: 0x4750, symBinAddr: 0x1236A0, symSize: 0x30 }
  - { offset: 0x2B9EA0, size: 0x8, addend: 0x0, symName: __ZN5godot10Projection11set_frustumEffffff.cold.2, symObjAddr: 0x4780, symBinAddr: 0x1236D0, symSize: 0x30 }
  - { offset: 0x2B9EB8, size: 0x8, addend: 0x0, symName: __ZN5godot10Projection11set_frustumEffffff.cold.3, symObjAddr: 0x47B0, symBinAddr: 0x123700, symSize: 0x30 }
  - { offset: 0x2B9F31, size: 0x8, addend: 0x0, symName: __ZN5godot10Projection21create_frustum_aspectEffNS_7Vector2Effb, symObjAddr: 0x11D0, symBinAddr: 0x5DC60, symSize: 0x90 }
  - { offset: 0x2BA099, size: 0x8, addend: 0x0, symName: __ZN5godot10Projection11set_frustumEffNS_7Vector2Effb, symObjAddr: 0x1260, symBinAddr: 0x5DCF0, symSize: 0x60 }
  - { offset: 0x2BA16D, size: 0x8, addend: 0x0, symName: __ZN5godot10Projection15create_fit_aabbERKNS_4AABBE, symObjAddr: 0x12C0, symBinAddr: 0x5DD50, symSize: 0xA0 }
  - { offset: 0x2BA1F3, size: 0x8, addend: 0x0, symName: __ZN5godot10Projection22scale_translate_to_fitERKNS_4AABBE, symObjAddr: 0x1360, symBinAddr: 0x5DDF0, symSize: 0xA0 }
  - { offset: 0x2BA28B, size: 0x8, addend: 0x0, symName: __ZNK5godot10Projection26perspective_znear_adjustedEf, symObjAddr: 0x1400, symBinAddr: 0x5DE90, symSize: 0xC0 }
  - { offset: 0x2BA44A, size: 0x8, addend: 0x0, symName: __ZNK5godot10Projection20get_projection_planeENS0_6PlanesE, symObjAddr: 0x14C0, symBinAddr: 0x5DF50, symSize: 0x1B0 }
  - { offset: 0x2BA611, size: 0x8, addend: 0x0, symName: __ZNK5godot10Projection9flipped_yEv, symObjAddr: 0x1670, symBinAddr: 0x5E100, symSize: 0x40 }
  - { offset: 0x2BA67F, size: 0x8, addend: 0x0, symName: __ZN5godot10Projection6flip_yEv, symObjAddr: 0x16B0, symBinAddr: 0x5E140, symSize: 0x20 }
  - { offset: 0x2BA6DE, size: 0x8, addend: 0x0, symName: __ZNK5godot10Projection15jitter_offsetedERKNS_7Vector2E, symObjAddr: 0x16D0, symBinAddr: 0x5E160, symSize: 0x40 }
  - { offset: 0x2BA749, size: 0x8, addend: 0x0, symName: __ZN5godot10Projection17add_jitter_offsetERKNS_7Vector2E, symObjAddr: 0x1710, symBinAddr: 0x5E1A0, symSize: 0x30 }
  - { offset: 0x2BA772, size: 0x8, addend: 0x0, symName: __ZNK5godot10ProjectionmlERKS0_, symObjAddr: 0x1740, symBinAddr: 0x5E1D0, symSize: 0x200 }
  - { offset: 0x2BA871, size: 0x8, addend: 0x0, symName: __ZNK5godot10Projection10get_z_nearEv, symObjAddr: 0x1940, symBinAddr: 0x5E3D0, symSize: 0x60 }
  - { offset: 0x2BA958, size: 0x8, addend: 0x0, symName: __ZNK5godot10Projection25get_viewport_half_extentsEv, symObjAddr: 0x19A0, symBinAddr: 0x5E430, symSize: 0x120 }
  - { offset: 0x2BABD1, size: 0x8, addend: 0x0, symName: __ZNK5godot10Projection26get_far_plane_half_extentsEv, symObjAddr: 0x1AC0, symBinAddr: 0x5E550, symSize: 0x110 }
  - { offset: 0x2BB04B, size: 0x8, addend: 0x0, symName: __ZNK5godot10Projection13get_endpointsERKNS_11Transform3DEPNS_7Vector3E, symObjAddr: 0x1BD0, symBinAddr: 0x5E660, symSize: 0x280 }
  - { offset: 0x2BB6B9, size: 0x8, addend: 0x0, symName: __ZNK5godot10Projection21get_projection_planesERKNS_11Transform3DE, symObjAddr: 0x1E50, symBinAddr: 0x5E8E0, symSize: 0xC70 }
  - { offset: 0x2BC601, size: 0x8, addend: 0x0, symName: __ZNK5godot10Projection13get_endpointsERKNS_11Transform3DEPNS_7Vector3E.cold.1, symObjAddr: 0x47E0, symBinAddr: 0x123730, symSize: 0x50 }
  - { offset: 0x2BC646, size: 0x8, addend: 0x0, symName: __ZNK5godot10Projection13get_endpointsERKNS_11Transform3DEPNS_7Vector3E.cold.2, symObjAddr: 0x4830, symBinAddr: 0x123780, symSize: 0x50 }
  - { offset: 0x2BC68B, size: 0x8, addend: 0x0, symName: __ZNK5godot10Projection13get_endpointsERKNS_11Transform3DEPNS_7Vector3E.cold.3, symObjAddr: 0x4880, symBinAddr: 0x1237D0, symSize: 0x50 }
  - { offset: 0x2BC933, size: 0x8, addend: 0x0, symName: __ZN5godot7CowDataINS_5PlaneEE6resizeILb0EEENS_5ErrorEx, symObjAddr: 0x4420, symBinAddr: 0x60EB0, symSize: 0x2F0 }
  - { offset: 0x2BCFDC, size: 0x8, addend: 0x0, symName: __ZN5godot7CowDataINS_5PlaneEE14_copy_on_writeEv, symObjAddr: 0x4710, symBinAddr: 0x611A0, symSize: 0x40 }
  - { offset: 0x2BD112, size: 0x8, addend: 0x0, symName: __ZNK5godot10Projection21get_projection_planesERKNS_11Transform3DE.cold.6, symObjAddr: 0x4A60, symBinAddr: 0x1239B0, symSize: 0x60 }
  - { offset: 0x2BD141, size: 0x8, addend: 0x0, symName: __ZNK5godot10Projection21get_projection_planesERKNS_11Transform3DE.cold.5, symObjAddr: 0x4A10, symBinAddr: 0x123960, symSize: 0x50 }
  - { offset: 0x2BD170, size: 0x8, addend: 0x0, symName: __ZNK5godot10Projection21get_projection_planesERKNS_11Transform3DE.cold.4, symObjAddr: 0x49C0, symBinAddr: 0x123910, symSize: 0x50 }
  - { offset: 0x2BD19F, size: 0x8, addend: 0x0, symName: __ZNK5godot10Projection21get_projection_planesERKNS_11Transform3DE.cold.3, symObjAddr: 0x4970, symBinAddr: 0x1238C0, symSize: 0x50 }
  - { offset: 0x2BD1CE, size: 0x8, addend: 0x0, symName: __ZNK5godot10Projection21get_projection_planesERKNS_11Transform3DE.cold.2, symObjAddr: 0x4920, symBinAddr: 0x123870, symSize: 0x50 }
  - { offset: 0x2BD1FD, size: 0x8, addend: 0x0, symName: __ZNK5godot10Projection21get_projection_planesERKNS_11Transform3DE.cold.1, symObjAddr: 0x48D0, symBinAddr: 0x123820, symSize: 0x50 }
  - { offset: 0x2BD22C, size: 0x8, addend: 0x0, symName: __ZNK5godot10Projection7inverseEv, symObjAddr: 0x2AC0, symBinAddr: 0x5F550, symSize: 0x40 }
  - { offset: 0x2BD27E, size: 0x8, addend: 0x0, symName: __ZN5godot10Projection6invertEv, symObjAddr: 0x2B00, symBinAddr: 0x5F590, symSize: 0x1090 }
  - { offset: 0x2BD5D3, size: 0x8, addend: 0x0, symName: __ZN5godot10Projection6invertEv.cold.4, symObjAddr: 0x4B50, symBinAddr: 0x123AA0, symSize: 0x30 }
  - { offset: 0x2BD5EB, size: 0x8, addend: 0x0, symName: __ZN5godot10Projection6invertEv.cold.3, symObjAddr: 0x4B20, symBinAddr: 0x123A70, symSize: 0x30 }
  - { offset: 0x2BD603, size: 0x8, addend: 0x0, symName: __ZN5godot10Projection6invertEv.cold.2, symObjAddr: 0x4AF0, symBinAddr: 0x123A40, symSize: 0x30 }
  - { offset: 0x2BD61B, size: 0x8, addend: 0x0, symName: __ZN5godot10Projection6invertEv.cold.1, symObjAddr: 0x4AC0, symBinAddr: 0x123A10, symSize: 0x30 }
  - { offset: 0x2BD633, size: 0x8, addend: 0x0, symName: __ZN5godot10ProjectionC2Ev, symObjAddr: 0x3B90, symBinAddr: 0x60620, symSize: 0x30 }
  - { offset: 0x2BD6A5, size: 0x8, addend: 0x0, symName: __ZN5godot10Projection14set_light_biasEv, symObjAddr: 0x3BC0, symBinAddr: 0x60650, symSize: 0x40 }
  - { offset: 0x2BD6DC, size: 0x8, addend: 0x0, symName: __ZNK5godot10ProjectioncvNS_6StringEEv, symObjAddr: 0x3C00, symBinAddr: 0x60690, symSize: 0x1A0 }
  - { offset: 0x2BD723, size: 0x8, addend: 0x0, symName: __ZNK5godot10Projection10get_aspectEv, symObjAddr: 0x3DA0, symBinAddr: 0x60830, symSize: 0x20 }
  - { offset: 0x2BD7CD, size: 0x8, addend: 0x0, symName: __ZNK5godot10Projection20get_pixels_per_meterEi, symObjAddr: 0x3DC0, symBinAddr: 0x60850, symSize: 0x80 }
  - { offset: 0x2BD83D, size: 0x8, addend: 0x0, symName: __ZNK5godot10Projection13is_orthogonalEv, symObjAddr: 0x3E40, symBinAddr: 0x608D0, symSize: 0x20 }
  - { offset: 0x2BD85E, size: 0x8, addend: 0x0, symName: __ZNK5godot10Projection7get_fovEv, symObjAddr: 0x3E60, symBinAddr: 0x608F0, symSize: 0x110 }
  - { offset: 0x2BDB40, size: 0x8, addend: 0x0, symName: __ZNK5godot10Projection18get_lod_multiplierEv, symObjAddr: 0x3F70, symBinAddr: 0x60A00, symSize: 0xA0 }
  - { offset: 0x2BDCC3, size: 0x8, addend: 0x0, symName: __ZN5godot10Projection10make_scaleERKNS_7Vector3E, symObjAddr: 0x4010, symBinAddr: 0x60AA0, symSize: 0x50 }
  - { offset: 0x2BDD4B, size: 0x8, addend: 0x0, symName: __ZNK5godot10ProjectioncvNS_11Transform3DEEv, symObjAddr: 0x4060, symBinAddr: 0x60AF0, symSize: 0x70 }
  - { offset: 0x2BDDC7, size: 0x8, addend: 0x0, symName: __ZN5godot10ProjectionC2ERKNS_7Vector4ES3_S3_S3_, symObjAddr: 0x40D0, symBinAddr: 0x60B60, symSize: 0x40 }
  - { offset: 0x2BDE81, size: 0x8, addend: 0x0, symName: __ZN5godot10ProjectionC1ERKNS_7Vector4ES3_S3_S3_, symObjAddr: 0x4110, symBinAddr: 0x60BA0, symSize: 0x40 }
  - { offset: 0x2BDF54, size: 0x8, addend: 0x0, symName: __ZN5godot10ProjectionC2Effffffffffffffff, symObjAddr: 0x4150, symBinAddr: 0x60BE0, symSize: 0x90 }
  - { offset: 0x2BE0DC, size: 0x8, addend: 0x0, symName: __ZN5godot10ProjectionC1Effffffffffffffff, symObjAddr: 0x41E0, symBinAddr: 0x60C70, symSize: 0x90 }
  - { offset: 0x2BE2AB, size: 0x8, addend: 0x0, symName: __ZN5godot10ProjectionC2ERKNS_11Transform3DE, symObjAddr: 0x4270, symBinAddr: 0x60D00, symSize: 0xB0 }
  - { offset: 0x2BE365, size: 0x8, addend: 0x0, symName: __ZN5godot10ProjectionC1ERKNS_11Transform3DE, symObjAddr: 0x4320, symBinAddr: 0x60DB0, symSize: 0xB0 }
  - { offset: 0x2BE412, size: 0x8, addend: 0x0, symName: __ZN5godot10ProjectionD2Ev, symObjAddr: 0x43D0, symBinAddr: 0x60E60, symSize: 0x10 }
  - { offset: 0x2BE43E, size: 0x8, addend: 0x0, symName: __ZN5godot7CowDataINS_5PlaneEE6_unrefEv, symObjAddr: 0x43E0, symBinAddr: 0x60E70, symSize: 0x40 }
  - { offset: 0x2BE670, size: 0x8, addend: 0x0, symName: __ZN5godot7CowDataINS_5PlaneEE6resizeILb0EEENS_5ErrorEx.cold.4, symObjAddr: 0x4C10, symBinAddr: 0x123B60, symSize: 0x30 }
  - { offset: 0x2BE688, size: 0x8, addend: 0x0, symName: __ZN5godot7CowDataINS_5PlaneEE6resizeILb0EEENS_5ErrorEx.cold.5, symObjAddr: 0x4C40, symBinAddr: 0x123B90, symSize: 0x30 }
  - { offset: 0x2BE6A0, size: 0x8, addend: 0x0, symName: __ZN5godot7CowDataINS_5PlaneEE6resizeILb0EEENS_5ErrorEx.cold.2, symObjAddr: 0x4BB0, symBinAddr: 0x123B00, symSize: 0x30 }
  - { offset: 0x2BE6CF, size: 0x8, addend: 0x0, symName: __ZN5godot7CowDataINS_5PlaneEE6resizeILb0EEENS_5ErrorEx.cold.1, symObjAddr: 0x4B80, symBinAddr: 0x123AD0, symSize: 0x30 }
  - { offset: 0x2BE6FE, size: 0x8, addend: 0x0, symName: __ZN5godot7CowDataINS_5PlaneEE6resizeILb0EEENS_5ErrorEx.cold.3, symObjAddr: 0x4BE0, symBinAddr: 0x123B30, symSize: 0x30 }
  - { offset: 0x2BE761, size: 0x8, addend: 0x0, symName: __ZN5godot7CowDataINS_5PlaneEE14_copy_on_writeEv.cold.1, symObjAddr: 0x4C70, symBinAddr: 0x123BC0, symSize: 0xE3 }
  - { offset: 0x2C0BD0, size: 0x8, addend: 0x0, symName: __ZN5godot7Variant21from_type_constructorE, symObjAddr: 0x58F20, symBinAddr: 0x1EA200, symSize: 0x0 }
  - { offset: 0x2C0BE4, size: 0x8, addend: 0x0, symName: __ZN5godot7Variant19to_type_constructorE, symObjAddr: 0x59060, symBinAddr: 0x1EA340, symSize: 0x0 }
  - { offset: 0x2C1CCA, size: 0x8, addend: 0x0, symName: __ZN5godot7Variant5clearEv, symObjAddr: 0x1620, symBinAddr: 0x62800, symSize: 0x50 }
  - { offset: 0x2C1CEF, size: 0x8, addend: 0x0, symName: __ZZN5godot7Variant5clearEvE12needs_deinit, symObjAddr: 0x2610, symBinAddr: 0x1AF990, symSize: 0x0 }
  - { offset: 0x2C1D9D, size: 0x8, addend: 0x0, symName: ___cxx_global_var_init, symObjAddr: 0x2530, symBinAddr: 0x63180, symSize: 0x40 }
  - { offset: 0x2C1E24, size: 0x8, addend: 0x0, symName: ___cxx_global_var_init.1, symObjAddr: 0x2570, symBinAddr: 0x631C0, symSize: 0x3A }
  - { offset: 0x2C1E72, size: 0x8, addend: 0x0, symName: __ZN5godot7Variant13init_bindingsEv, symObjAddr: 0x0, symBinAddr: 0x611E0, symSize: 0xC0 }
  - { offset: 0x2C1ECE, size: 0x8, addend: 0x0, symName: __ZN5godot7VariantC2Ev, symObjAddr: 0xC0, symBinAddr: 0x612A0, symSize: 0x20 }
  - { offset: 0x2C1F20, size: 0x8, addend: 0x0, symName: __ZN5godot7VariantC1Ev, symObjAddr: 0xE0, symBinAddr: 0x612C0, symSize: 0x20 }
  - { offset: 0x2C1F74, size: 0x8, addend: 0x0, symName: __ZN5godot7VariantC2EPKv, symObjAddr: 0x100, symBinAddr: 0x612E0, symSize: 0x20 }
  - { offset: 0x2C1FE1, size: 0x8, addend: 0x0, symName: __ZN5godot7VariantC1EPKv, symObjAddr: 0x120, symBinAddr: 0x61300, symSize: 0x20 }
  - { offset: 0x2C205D, size: 0x8, addend: 0x0, symName: __ZN5godot7VariantC2ERKS0_, symObjAddr: 0x140, symBinAddr: 0x61320, symSize: 0x20 }
  - { offset: 0x2C20CA, size: 0x8, addend: 0x0, symName: __ZN5godot7VariantC1ERKS0_, symObjAddr: 0x160, symBinAddr: 0x61340, symSize: 0x20 }
  - { offset: 0x2C215C, size: 0x8, addend: 0x0, symName: __ZN5godot7VariantC2EOS0_, symObjAddr: 0x180, symBinAddr: 0x61360, symSize: 0xA0 }
  - { offset: 0x2C21F7, size: 0x8, addend: 0x0, symName: __ZN5godot7VariantC1EOS0_, symObjAddr: 0x220, symBinAddr: 0x61400, symSize: 0xA0 }
  - { offset: 0x2C22BB, size: 0x8, addend: 0x0, symName: __ZN5godot7VariantC2Eb, symObjAddr: 0x2C0, symBinAddr: 0x614A0, symSize: 0x30 }
  - { offset: 0x2C2379, size: 0x8, addend: 0x0, symName: __ZN5godot7VariantC1Eb, symObjAddr: 0x2F0, symBinAddr: 0x614D0, symSize: 0x30 }
  - { offset: 0x2C2458, size: 0x8, addend: 0x0, symName: __ZN5godot7VariantC2Ex, symObjAddr: 0x320, symBinAddr: 0x61500, symSize: 0x30 }
  - { offset: 0x2C2516, size: 0x8, addend: 0x0, symName: __ZN5godot7VariantC1Ex, symObjAddr: 0x350, symBinAddr: 0x61530, symSize: 0x30 }
  - { offset: 0x2C25E5, size: 0x8, addend: 0x0, symName: __ZN5godot7VariantC2Ed, symObjAddr: 0x380, symBinAddr: 0x61560, symSize: 0x30 }
  - { offset: 0x2C26A3, size: 0x8, addend: 0x0, symName: __ZN5godot7VariantC1Ed, symObjAddr: 0x3B0, symBinAddr: 0x61590, symSize: 0x30 }
  - { offset: 0x2C2762, size: 0x8, addend: 0x0, symName: __ZN5godot7VariantC2ERKNS_6StringE, symObjAddr: 0x3E0, symBinAddr: 0x615C0, symSize: 0x20 }
  - { offset: 0x2C27CF, size: 0x8, addend: 0x0, symName: __ZN5godot7VariantC1ERKNS_6StringE, symObjAddr: 0x400, symBinAddr: 0x615E0, symSize: 0x20 }
  - { offset: 0x2C284B, size: 0x8, addend: 0x0, symName: __ZN5godot7VariantC2ERKNS_7Vector2E, symObjAddr: 0x420, symBinAddr: 0x61600, symSize: 0x20 }
  - { offset: 0x2C28B8, size: 0x8, addend: 0x0, symName: __ZN5godot7VariantC1ERKNS_7Vector2E, symObjAddr: 0x440, symBinAddr: 0x61620, symSize: 0x20 }
  - { offset: 0x2C2934, size: 0x8, addend: 0x0, symName: __ZN5godot7VariantC2ERKNS_8Vector2iE, symObjAddr: 0x460, symBinAddr: 0x61640, symSize: 0x20 }
  - { offset: 0x2C29A1, size: 0x8, addend: 0x0, symName: __ZN5godot7VariantC1ERKNS_8Vector2iE, symObjAddr: 0x480, symBinAddr: 0x61660, symSize: 0x20 }
  - { offset: 0x2C2A1D, size: 0x8, addend: 0x0, symName: __ZN5godot7VariantC2ERKNS_5Rect2E, symObjAddr: 0x4A0, symBinAddr: 0x61680, symSize: 0x20 }
  - { offset: 0x2C2A8A, size: 0x8, addend: 0x0, symName: __ZN5godot7VariantC1ERKNS_5Rect2E, symObjAddr: 0x4C0, symBinAddr: 0x616A0, symSize: 0x20 }
  - { offset: 0x2C2B06, size: 0x8, addend: 0x0, symName: __ZN5godot7VariantC2ERKNS_6Rect2iE, symObjAddr: 0x4E0, symBinAddr: 0x616C0, symSize: 0x20 }
  - { offset: 0x2C2B73, size: 0x8, addend: 0x0, symName: __ZN5godot7VariantC1ERKNS_6Rect2iE, symObjAddr: 0x500, symBinAddr: 0x616E0, symSize: 0x20 }
  - { offset: 0x2C2BEF, size: 0x8, addend: 0x0, symName: __ZN5godot7VariantC2ERKNS_7Vector3E, symObjAddr: 0x520, symBinAddr: 0x61700, symSize: 0x20 }
  - { offset: 0x2C2C5C, size: 0x8, addend: 0x0, symName: __ZN5godot7VariantC1ERKNS_7Vector3E, symObjAddr: 0x540, symBinAddr: 0x61720, symSize: 0x20 }
  - { offset: 0x2C2CD8, size: 0x8, addend: 0x0, symName: __ZN5godot7VariantC2ERKNS_8Vector3iE, symObjAddr: 0x560, symBinAddr: 0x61740, symSize: 0x20 }
  - { offset: 0x2C2D45, size: 0x8, addend: 0x0, symName: __ZN5godot7VariantC1ERKNS_8Vector3iE, symObjAddr: 0x580, symBinAddr: 0x61760, symSize: 0x20 }
  - { offset: 0x2C2DC1, size: 0x8, addend: 0x0, symName: __ZN5godot7VariantC2ERKNS_11Transform2DE, symObjAddr: 0x5A0, symBinAddr: 0x61780, symSize: 0x20 }
  - { offset: 0x2C2E2E, size: 0x8, addend: 0x0, symName: __ZN5godot7VariantC1ERKNS_11Transform2DE, symObjAddr: 0x5C0, symBinAddr: 0x617A0, symSize: 0x20 }
  - { offset: 0x2C2EAA, size: 0x8, addend: 0x0, symName: __ZN5godot7VariantC2ERKNS_7Vector4E, symObjAddr: 0x5E0, symBinAddr: 0x617C0, symSize: 0x20 }
  - { offset: 0x2C2F17, size: 0x8, addend: 0x0, symName: __ZN5godot7VariantC1ERKNS_7Vector4E, symObjAddr: 0x600, symBinAddr: 0x617E0, symSize: 0x20 }
  - { offset: 0x2C2F93, size: 0x8, addend: 0x0, symName: __ZN5godot7VariantC2ERKNS_8Vector4iE, symObjAddr: 0x620, symBinAddr: 0x61800, symSize: 0x20 }
  - { offset: 0x2C3000, size: 0x8, addend: 0x0, symName: __ZN5godot7VariantC1ERKNS_8Vector4iE, symObjAddr: 0x640, symBinAddr: 0x61820, symSize: 0x20 }
  - { offset: 0x2C307C, size: 0x8, addend: 0x0, symName: __ZN5godot7VariantC2ERKNS_5PlaneE, symObjAddr: 0x660, symBinAddr: 0x61840, symSize: 0x20 }
  - { offset: 0x2C30E9, size: 0x8, addend: 0x0, symName: __ZN5godot7VariantC1ERKNS_5PlaneE, symObjAddr: 0x680, symBinAddr: 0x61860, symSize: 0x20 }
  - { offset: 0x2C3165, size: 0x8, addend: 0x0, symName: __ZN5godot7VariantC2ERKNS_10QuaternionE, symObjAddr: 0x6A0, symBinAddr: 0x61880, symSize: 0x20 }
  - { offset: 0x2C31D2, size: 0x8, addend: 0x0, symName: __ZN5godot7VariantC1ERKNS_10QuaternionE, symObjAddr: 0x6C0, symBinAddr: 0x618A0, symSize: 0x20 }
  - { offset: 0x2C324E, size: 0x8, addend: 0x0, symName: __ZN5godot7VariantC2ERKNS_4AABBE, symObjAddr: 0x6E0, symBinAddr: 0x618C0, symSize: 0x20 }
  - { offset: 0x2C32BB, size: 0x8, addend: 0x0, symName: __ZN5godot7VariantC1ERKNS_4AABBE, symObjAddr: 0x700, symBinAddr: 0x618E0, symSize: 0x20 }
  - { offset: 0x2C3337, size: 0x8, addend: 0x0, symName: __ZN5godot7VariantC2ERKNS_5BasisE, symObjAddr: 0x720, symBinAddr: 0x61900, symSize: 0x20 }
  - { offset: 0x2C33A4, size: 0x8, addend: 0x0, symName: __ZN5godot7VariantC1ERKNS_5BasisE, symObjAddr: 0x740, symBinAddr: 0x61920, symSize: 0x20 }
  - { offset: 0x2C3420, size: 0x8, addend: 0x0, symName: __ZN5godot7VariantC2ERKNS_11Transform3DE, symObjAddr: 0x760, symBinAddr: 0x61940, symSize: 0x20 }
  - { offset: 0x2C348D, size: 0x8, addend: 0x0, symName: __ZN5godot7VariantC1ERKNS_11Transform3DE, symObjAddr: 0x780, symBinAddr: 0x61960, symSize: 0x20 }
  - { offset: 0x2C3509, size: 0x8, addend: 0x0, symName: __ZN5godot7VariantC2ERKNS_10ProjectionE, symObjAddr: 0x7A0, symBinAddr: 0x61980, symSize: 0x20 }
  - { offset: 0x2C3576, size: 0x8, addend: 0x0, symName: __ZN5godot7VariantC1ERKNS_10ProjectionE, symObjAddr: 0x7C0, symBinAddr: 0x619A0, symSize: 0x20 }
  - { offset: 0x2C35F2, size: 0x8, addend: 0x0, symName: __ZN5godot7VariantC2ERKNS_5ColorE, symObjAddr: 0x7E0, symBinAddr: 0x619C0, symSize: 0x20 }
  - { offset: 0x2C365F, size: 0x8, addend: 0x0, symName: __ZN5godot7VariantC1ERKNS_5ColorE, symObjAddr: 0x800, symBinAddr: 0x619E0, symSize: 0x20 }
  - { offset: 0x2C36DB, size: 0x8, addend: 0x0, symName: __ZN5godot7VariantC2ERKNS_10StringNameE, symObjAddr: 0x820, symBinAddr: 0x61A00, symSize: 0x20 }
  - { offset: 0x2C3748, size: 0x8, addend: 0x0, symName: __ZN5godot7VariantC1ERKNS_10StringNameE, symObjAddr: 0x840, symBinAddr: 0x61A20, symSize: 0x20 }
  - { offset: 0x2C37C4, size: 0x8, addend: 0x0, symName: __ZN5godot7VariantC2ERKNS_8NodePathE, symObjAddr: 0x860, symBinAddr: 0x61A40, symSize: 0x20 }
  - { offset: 0x2C3831, size: 0x8, addend: 0x0, symName: __ZN5godot7VariantC1ERKNS_8NodePathE, symObjAddr: 0x880, symBinAddr: 0x61A60, symSize: 0x20 }
  - { offset: 0x2C38AD, size: 0x8, addend: 0x0, symName: __ZN5godot7VariantC2ERKNS_3RIDE, symObjAddr: 0x8A0, symBinAddr: 0x61A80, symSize: 0x20 }
  - { offset: 0x2C391A, size: 0x8, addend: 0x0, symName: __ZN5godot7VariantC1ERKNS_3RIDE, symObjAddr: 0x8C0, symBinAddr: 0x61AA0, symSize: 0x20 }
  - { offset: 0x2C3996, size: 0x8, addend: 0x0, symName: __ZN5godot7VariantC2EPKNS_6ObjectE, symObjAddr: 0x8E0, symBinAddr: 0x61AC0, symSize: 0x40 }
  - { offset: 0x2C3A31, size: 0x8, addend: 0x0, symName: __ZN5godot7VariantC1EPKNS_6ObjectE, symObjAddr: 0x920, symBinAddr: 0x61B00, symSize: 0x40 }
  - { offset: 0x2C3A71, size: 0x8, addend: 0x0, symName: __ZN5godot7VariantC1EPKNS_6ObjectE, symObjAddr: 0x920, symBinAddr: 0x61B00, symSize: 0x40 }
  - { offset: 0x2C3B0F, size: 0x8, addend: 0x0, symName: __ZN5godot7VariantC2ERKNS_8ObjectIDE, symObjAddr: 0x960, symBinAddr: 0x61B40, symSize: 0x30 }
  - { offset: 0x2C3C5E, size: 0x8, addend: 0x0, symName: __ZN5godot7VariantC1ERKNS_8ObjectIDE, symObjAddr: 0x990, symBinAddr: 0x61B70, symSize: 0x30 }
  - { offset: 0x2C3D87, size: 0x8, addend: 0x0, symName: __ZN5godot7VariantC2ERKNS_8CallableE, symObjAddr: 0x9C0, symBinAddr: 0x61BA0, symSize: 0x20 }
  - { offset: 0x2C3DF4, size: 0x8, addend: 0x0, symName: __ZN5godot7VariantC1ERKNS_8CallableE, symObjAddr: 0x9E0, symBinAddr: 0x61BC0, symSize: 0x20 }
  - { offset: 0x2C3E70, size: 0x8, addend: 0x0, symName: __ZN5godot7VariantC2ERKNS_6SignalE, symObjAddr: 0xA00, symBinAddr: 0x61BE0, symSize: 0x20 }
  - { offset: 0x2C3EDD, size: 0x8, addend: 0x0, symName: __ZN5godot7VariantC1ERKNS_6SignalE, symObjAddr: 0xA20, symBinAddr: 0x61C00, symSize: 0x20 }
  - { offset: 0x2C3F59, size: 0x8, addend: 0x0, symName: __ZN5godot7VariantC2ERKNS_10DictionaryE, symObjAddr: 0xA40, symBinAddr: 0x61C20, symSize: 0x20 }
  - { offset: 0x2C3FC6, size: 0x8, addend: 0x0, symName: __ZN5godot7VariantC1ERKNS_10DictionaryE, symObjAddr: 0xA60, symBinAddr: 0x61C40, symSize: 0x20 }
  - { offset: 0x2C4042, size: 0x8, addend: 0x0, symName: __ZN5godot7VariantC2ERKNS_5ArrayE, symObjAddr: 0xA80, symBinAddr: 0x61C60, symSize: 0x20 }
  - { offset: 0x2C40AF, size: 0x8, addend: 0x0, symName: __ZN5godot7VariantC1ERKNS_5ArrayE, symObjAddr: 0xAA0, symBinAddr: 0x61C80, symSize: 0x20 }
  - { offset: 0x2C412B, size: 0x8, addend: 0x0, symName: __ZN5godot7VariantC2ERKNS_15PackedByteArrayE, symObjAddr: 0xAC0, symBinAddr: 0x61CA0, symSize: 0x20 }
  - { offset: 0x2C4198, size: 0x8, addend: 0x0, symName: __ZN5godot7VariantC1ERKNS_15PackedByteArrayE, symObjAddr: 0xAE0, symBinAddr: 0x61CC0, symSize: 0x20 }
  - { offset: 0x2C4214, size: 0x8, addend: 0x0, symName: __ZN5godot7VariantC2ERKNS_16PackedInt32ArrayE, symObjAddr: 0xB00, symBinAddr: 0x61CE0, symSize: 0x20 }
  - { offset: 0x2C4281, size: 0x8, addend: 0x0, symName: __ZN5godot7VariantC1ERKNS_16PackedInt32ArrayE, symObjAddr: 0xB20, symBinAddr: 0x61D00, symSize: 0x20 }
  - { offset: 0x2C42FD, size: 0x8, addend: 0x0, symName: __ZN5godot7VariantC2ERKNS_16PackedInt64ArrayE, symObjAddr: 0xB40, symBinAddr: 0x61D20, symSize: 0x20 }
  - { offset: 0x2C436A, size: 0x8, addend: 0x0, symName: __ZN5godot7VariantC1ERKNS_16PackedInt64ArrayE, symObjAddr: 0xB60, symBinAddr: 0x61D40, symSize: 0x20 }
  - { offset: 0x2C43E6, size: 0x8, addend: 0x0, symName: __ZN5godot7VariantC2ERKNS_18PackedFloat32ArrayE, symObjAddr: 0xB80, symBinAddr: 0x61D60, symSize: 0x20 }
  - { offset: 0x2C4453, size: 0x8, addend: 0x0, symName: __ZN5godot7VariantC1ERKNS_18PackedFloat32ArrayE, symObjAddr: 0xBA0, symBinAddr: 0x61D80, symSize: 0x20 }
  - { offset: 0x2C44CF, size: 0x8, addend: 0x0, symName: __ZN5godot7VariantC2ERKNS_18PackedFloat64ArrayE, symObjAddr: 0xBC0, symBinAddr: 0x61DA0, symSize: 0x20 }
  - { offset: 0x2C453C, size: 0x8, addend: 0x0, symName: __ZN5godot7VariantC1ERKNS_18PackedFloat64ArrayE, symObjAddr: 0xBE0, symBinAddr: 0x61DC0, symSize: 0x20 }
  - { offset: 0x2C45B8, size: 0x8, addend: 0x0, symName: __ZN5godot7VariantC2ERKNS_17PackedStringArrayE, symObjAddr: 0xC00, symBinAddr: 0x61DE0, symSize: 0x20 }
  - { offset: 0x2C4625, size: 0x8, addend: 0x0, symName: __ZN5godot7VariantC1ERKNS_17PackedStringArrayE, symObjAddr: 0xC20, symBinAddr: 0x61E00, symSize: 0x20 }
  - { offset: 0x2C46A1, size: 0x8, addend: 0x0, symName: __ZN5godot7VariantC2ERKNS_18PackedVector2ArrayE, symObjAddr: 0xC40, symBinAddr: 0x61E20, symSize: 0x20 }
  - { offset: 0x2C470E, size: 0x8, addend: 0x0, symName: __ZN5godot7VariantC1ERKNS_18PackedVector2ArrayE, symObjAddr: 0xC60, symBinAddr: 0x61E40, symSize: 0x20 }
  - { offset: 0x2C478A, size: 0x8, addend: 0x0, symName: __ZN5godot7VariantC2ERKNS_18PackedVector3ArrayE, symObjAddr: 0xC80, symBinAddr: 0x61E60, symSize: 0x20 }
  - { offset: 0x2C47F7, size: 0x8, addend: 0x0, symName: __ZN5godot7VariantC1ERKNS_18PackedVector3ArrayE, symObjAddr: 0xCA0, symBinAddr: 0x61E80, symSize: 0x20 }
  - { offset: 0x2C4873, size: 0x8, addend: 0x0, symName: __ZN5godot7VariantC2ERKNS_16PackedColorArrayE, symObjAddr: 0xCC0, symBinAddr: 0x61EA0, symSize: 0x20 }
  - { offset: 0x2C48E0, size: 0x8, addend: 0x0, symName: __ZN5godot7VariantC1ERKNS_16PackedColorArrayE, symObjAddr: 0xCE0, symBinAddr: 0x61EC0, symSize: 0x20 }
  - { offset: 0x2C495C, size: 0x8, addend: 0x0, symName: __ZN5godot7VariantC2ERKNS_18PackedVector4ArrayE, symObjAddr: 0xD00, symBinAddr: 0x61EE0, symSize: 0x20 }
  - { offset: 0x2C49C9, size: 0x8, addend: 0x0, symName: __ZN5godot7VariantC1ERKNS_18PackedVector4ArrayE, symObjAddr: 0xD20, symBinAddr: 0x61F00, symSize: 0x20 }
  - { offset: 0x2C4A45, size: 0x8, addend: 0x0, symName: __ZN5godot7VariantD2Ev, symObjAddr: 0xD40, symBinAddr: 0x61F20, symSize: 0x10 }
  - { offset: 0x2C4A98, size: 0x8, addend: 0x0, symName: __ZN5godot7VariantD1Ev, symObjAddr: 0xD50, symBinAddr: 0x61F30, symSize: 0x10 }
  - { offset: 0x2C4B00, size: 0x8, addend: 0x0, symName: __ZNK5godot7VariantcvbEv, symObjAddr: 0xD60, symBinAddr: 0x61F40, symSize: 0x30 }
  - { offset: 0x2C4B7C, size: 0x8, addend: 0x0, symName: __ZNK5godot7VariantcvxEv, symObjAddr: 0xD90, symBinAddr: 0x61F70, symSize: 0x20 }
  - { offset: 0x2C4C0B, size: 0x8, addend: 0x0, symName: __ZNK5godot7VariantcviEv, symObjAddr: 0xDB0, symBinAddr: 0x61F90, symSize: 0x20 }
  - { offset: 0x2C4C9C, size: 0x8, addend: 0x0, symName: __ZNK5godot7VariantcvsEv, symObjAddr: 0xDD0, symBinAddr: 0x61FB0, symSize: 0x20 }
  - { offset: 0x2C4D2D, size: 0x8, addend: 0x0, symName: __ZNK5godot7VariantcvaEv, symObjAddr: 0xDF0, symBinAddr: 0x61FD0, symSize: 0x20 }
  - { offset: 0x2C4DBE, size: 0x8, addend: 0x0, symName: __ZNK5godot7VariantcvyEv, symObjAddr: 0xE10, symBinAddr: 0x61FF0, symSize: 0x20 }
  - { offset: 0x2C4E48, size: 0x8, addend: 0x0, symName: __ZNK5godot7VariantcvjEv, symObjAddr: 0xE30, symBinAddr: 0x62010, symSize: 0x20 }
  - { offset: 0x2C4ED9, size: 0x8, addend: 0x0, symName: __ZNK5godot7VariantcvtEv, symObjAddr: 0xE50, symBinAddr: 0x62030, symSize: 0x20 }
  - { offset: 0x2C4F6A, size: 0x8, addend: 0x0, symName: __ZNK5godot7VariantcvhEv, symObjAddr: 0xE70, symBinAddr: 0x62050, symSize: 0x20 }
  - { offset: 0x2C500E, size: 0x8, addend: 0x0, symName: __ZNK5godot7VariantcvdEv, symObjAddr: 0xE90, symBinAddr: 0x62070, symSize: 0x20 }
  - { offset: 0x2C509D, size: 0x8, addend: 0x0, symName: __ZNK5godot7VariantcvfEv, symObjAddr: 0xEB0, symBinAddr: 0x62090, symSize: 0x30 }
  - { offset: 0x2C512E, size: 0x8, addend: 0x0, symName: __ZNK5godot7VariantcvNS_6StringEEv, symObjAddr: 0xEE0, symBinAddr: 0x620C0, symSize: 0x20 }
  - { offset: 0x2C518C, size: 0x8, addend: 0x0, symName: __ZNK5godot7VariantcvNS_7Vector2EEv, symObjAddr: 0xF00, symBinAddr: 0x620E0, symSize: 0x30 }
  - { offset: 0x2C525C, size: 0x8, addend: 0x0, symName: __ZNK5godot7VariantcvNS_8Vector2iEEv, symObjAddr: 0xF30, symBinAddr: 0x62110, symSize: 0x30 }
  - { offset: 0x2C532C, size: 0x8, addend: 0x0, symName: __ZNK5godot7VariantcvNS_5Rect2EEv, symObjAddr: 0xF60, symBinAddr: 0x62140, symSize: 0x30 }
  - { offset: 0x2C543E, size: 0x8, addend: 0x0, symName: __ZNK5godot7VariantcvNS_6Rect2iEEv, symObjAddr: 0xF90, symBinAddr: 0x62170, symSize: 0x30 }
  - { offset: 0x2C5549, size: 0x8, addend: 0x0, symName: __ZNK5godot7VariantcvNS_7Vector3EEv, symObjAddr: 0xFC0, symBinAddr: 0x621A0, symSize: 0x40 }
  - { offset: 0x2C5619, size: 0x8, addend: 0x0, symName: __ZNK5godot7VariantcvNS_8Vector3iEEv, symObjAddr: 0x1000, symBinAddr: 0x621E0, symSize: 0x40 }
  - { offset: 0x2C56E9, size: 0x8, addend: 0x0, symName: __ZNK5godot7VariantcvNS_11Transform2DEEv, symObjAddr: 0x1040, symBinAddr: 0x62220, symSize: 0x40 }
  - { offset: 0x2C57F2, size: 0x8, addend: 0x0, symName: __ZNK5godot7VariantcvNS_7Vector4EEv, symObjAddr: 0x1080, symBinAddr: 0x62260, symSize: 0x30 }
  - { offset: 0x2C58C2, size: 0x8, addend: 0x0, symName: __ZNK5godot7VariantcvNS_8Vector4iEEv, symObjAddr: 0x10B0, symBinAddr: 0x62290, symSize: 0x30 }
  - { offset: 0x2C5992, size: 0x8, addend: 0x0, symName: __ZNK5godot7VariantcvNS_5PlaneEEv, symObjAddr: 0x10E0, symBinAddr: 0x622C0, symSize: 0x30 }
  - { offset: 0x2C5AA2, size: 0x8, addend: 0x0, symName: __ZNK5godot7VariantcvNS_10QuaternionEEv, symObjAddr: 0x1110, symBinAddr: 0x622F0, symSize: 0x30 }
  - { offset: 0x2C5B70, size: 0x8, addend: 0x0, symName: __ZNK5godot7VariantcvNS_4AABBEEv, symObjAddr: 0x1140, symBinAddr: 0x62320, symSize: 0x30 }
  - { offset: 0x2C5CF0, size: 0x8, addend: 0x0, symName: __ZNK5godot7VariantcvNS_5BasisEEv, symObjAddr: 0x1170, symBinAddr: 0x62350, symSize: 0x50 }
  - { offset: 0x2C5E9E, size: 0x8, addend: 0x0, symName: __ZNK5godot7VariantcvNS_11Transform3DEEv, symObjAddr: 0x11C0, symBinAddr: 0x623A0, symSize: 0x60 }
  - { offset: 0x2C608F, size: 0x8, addend: 0x0, symName: __ZNK5godot7VariantcvNS_10ProjectionEEv, symObjAddr: 0x1220, symBinAddr: 0x62400, symSize: 0x30 }
  - { offset: 0x2C6119, size: 0x8, addend: 0x0, symName: __ZNK5godot7VariantcvNS_5ColorEEv, symObjAddr: 0x1250, symBinAddr: 0x62430, symSize: 0x30 }
  - { offset: 0x2C61B0, size: 0x8, addend: 0x0, symName: __ZNK5godot7VariantcvNS_10StringNameEEv, symObjAddr: 0x1280, symBinAddr: 0x62460, symSize: 0x20 }
  - { offset: 0x2C61DA, size: 0x8, addend: 0x0, symName: __ZNK5godot7VariantcvNS_8NodePathEEv, symObjAddr: 0x12A0, symBinAddr: 0x62480, symSize: 0x20 }
  - { offset: 0x2C6204, size: 0x8, addend: 0x0, symName: __ZNK5godot7VariantcvNS_3RIDEEv, symObjAddr: 0x12C0, symBinAddr: 0x624A0, symSize: 0x20 }
  - { offset: 0x2C622E, size: 0x8, addend: 0x0, symName: __ZNK5godot7VariantcvPNS_6ObjectEEv, symObjAddr: 0x12E0, symBinAddr: 0x624C0, symSize: 0x30 }
  - { offset: 0x2C62C5, size: 0x8, addend: 0x0, symName: __ZNK5godot7VariantcvNS_8ObjectIDEEv, symObjAddr: 0x1310, symBinAddr: 0x624F0, symSize: 0x60 }
  - { offset: 0x2C63DE, size: 0x8, addend: 0x0, symName: __ZNK5godot7Variant8get_typeEv, symObjAddr: 0x1370, symBinAddr: 0x62550, symSize: 0x10 }
  - { offset: 0x2C6414, size: 0x8, addend: 0x0, symName: __ZNK5godot7VariantcvNS_8CallableEEv, symObjAddr: 0x1380, symBinAddr: 0x62560, symSize: 0x20 }
  - { offset: 0x2C643E, size: 0x8, addend: 0x0, symName: __ZNK5godot7VariantcvNS_6SignalEEv, symObjAddr: 0x13A0, symBinAddr: 0x62580, symSize: 0x20 }
  - { offset: 0x2C6468, size: 0x8, addend: 0x0, symName: __ZNK5godot7VariantcvNS_10DictionaryEEv, symObjAddr: 0x13C0, symBinAddr: 0x625A0, symSize: 0x20 }
  - { offset: 0x2C6492, size: 0x8, addend: 0x0, symName: __ZNK5godot7VariantcvNS_5ArrayEEv, symObjAddr: 0x13E0, symBinAddr: 0x625C0, symSize: 0x20 }
  - { offset: 0x2C64BC, size: 0x8, addend: 0x0, symName: __ZNK5godot7VariantcvNS_15PackedByteArrayEEv, symObjAddr: 0x1400, symBinAddr: 0x625E0, symSize: 0x20 }
  - { offset: 0x2C64E6, size: 0x8, addend: 0x0, symName: __ZNK5godot7VariantcvNS_16PackedInt32ArrayEEv, symObjAddr: 0x1420, symBinAddr: 0x62600, symSize: 0x20 }
  - { offset: 0x2C6510, size: 0x8, addend: 0x0, symName: __ZNK5godot7VariantcvNS_16PackedInt64ArrayEEv, symObjAddr: 0x1440, symBinAddr: 0x62620, symSize: 0x20 }
  - { offset: 0x2C653A, size: 0x8, addend: 0x0, symName: __ZNK5godot7VariantcvNS_18PackedFloat32ArrayEEv, symObjAddr: 0x1460, symBinAddr: 0x62640, symSize: 0x20 }
  - { offset: 0x2C6564, size: 0x8, addend: 0x0, symName: __ZNK5godot7VariantcvNS_18PackedFloat64ArrayEEv, symObjAddr: 0x1480, symBinAddr: 0x62660, symSize: 0x20 }
  - { offset: 0x2C658E, size: 0x8, addend: 0x0, symName: __ZNK5godot7VariantcvNS_17PackedStringArrayEEv, symObjAddr: 0x14A0, symBinAddr: 0x62680, symSize: 0x20 }
  - { offset: 0x2C65B8, size: 0x8, addend: 0x0, symName: __ZNK5godot7VariantcvNS_18PackedVector2ArrayEEv, symObjAddr: 0x14C0, symBinAddr: 0x626A0, symSize: 0x20 }
  - { offset: 0x2C65E2, size: 0x8, addend: 0x0, symName: __ZNK5godot7VariantcvNS_18PackedVector3ArrayEEv, symObjAddr: 0x14E0, symBinAddr: 0x626C0, symSize: 0x20 }
  - { offset: 0x2C660C, size: 0x8, addend: 0x0, symName: __ZNK5godot7VariantcvNS_16PackedColorArrayEEv, symObjAddr: 0x1500, symBinAddr: 0x626E0, symSize: 0x20 }
  - { offset: 0x2C6636, size: 0x8, addend: 0x0, symName: __ZNK5godot7VariantcvNS_18PackedVector4ArrayEEv, symObjAddr: 0x1520, symBinAddr: 0x62700, symSize: 0x20 }
  - { offset: 0x2C6697, size: 0x8, addend: 0x0, symName: __ZNK5godot7Variant20get_validated_objectEv, symObjAddr: 0x1540, symBinAddr: 0x62720, symSize: 0x80 }
  - { offset: 0x2C683C, size: 0x8, addend: 0x0, symName: __ZN5godot7VariantaSERKS0_, symObjAddr: 0x15C0, symBinAddr: 0x627A0, symSize: 0x60 }
  - { offset: 0x2C6907, size: 0x8, addend: 0x0, symName: __ZN5godot7VariantaSEOS0_, symObjAddr: 0x1670, symBinAddr: 0x62850, symSize: 0xA0 }
  - { offset: 0x2C6A53, size: 0x8, addend: 0x0, symName: __ZNK5godot7VarianteqERKS0_, symObjAddr: 0x1710, symBinAddr: 0x628F0, symSize: 0xC0 }
  - { offset: 0x2C6C95, size: 0x8, addend: 0x0, symName: __ZN5godot7Variant8evaluateERKNS0_8OperatorERKS0_S5_RS0_Rb, symObjAddr: 0x17D0, symBinAddr: 0x629B0, symSize: 0x30 }
  - { offset: 0x2C6D33, size: 0x8, addend: 0x0, symName: __ZNK5godot7VariantneERKS0_, symObjAddr: 0x1800, symBinAddr: 0x629E0, symSize: 0xC0 }
  - { offset: 0x2C6F75, size: 0x8, addend: 0x0, symName: __ZNK5godot7VariantltERKS0_, symObjAddr: 0x18C0, symBinAddr: 0x62AA0, symSize: 0xE0 }
  - { offset: 0x2C721D, size: 0x8, addend: 0x0, symName: __ZN5godot7Variant5callpERKNS_10StringNameEPPKS0_iRS0_R20GDExtensionCallError, symObjAddr: 0x19A0, symBinAddr: 0x62B80, symSize: 0x20 }
  - { offset: 0x2C72C7, size: 0x8, addend: 0x0, symName: __ZN5godot7Variant12callp_staticENS0_4TypeERKNS_10StringNameEPPKS0_iRS0_R20GDExtensionCallError, symObjAddr: 0x19C0, symBinAddr: 0x62BA0, symSize: 0x20 }
  - { offset: 0x2C7370, size: 0x8, addend: 0x0, symName: __ZN5godot7Variant3setERKS0_S2_Pb, symObjAddr: 0x19E0, symBinAddr: 0x62BC0, symSize: 0x30 }
  - { offset: 0x2C742B, size: 0x8, addend: 0x0, symName: __ZN5godot7Variant9set_namedERKNS_10StringNameERKS0_Rb, symObjAddr: 0x1A10, symBinAddr: 0x62BF0, symSize: 0x30 }
  - { offset: 0x2C74E6, size: 0x8, addend: 0x0, symName: __ZN5godot7Variant11set_indexedExRKS0_RbS3_, symObjAddr: 0x1A40, symBinAddr: 0x62C20, symSize: 0x40 }
  - { offset: 0x2C75EB, size: 0x8, addend: 0x0, symName: __ZN5godot7Variant9set_keyedERKS0_S2_Rb, symObjAddr: 0x1A80, symBinAddr: 0x62C60, symSize: 0x30 }
  - { offset: 0x2C76A6, size: 0x8, addend: 0x0, symName: __ZNK5godot7Variant3getERKS0_Pb, symObjAddr: 0x1AB0, symBinAddr: 0x62C90, symSize: 0x70 }
  - { offset: 0x2C77B0, size: 0x8, addend: 0x0, symName: __ZNK5godot7Variant9get_namedERKNS_10StringNameERb, symObjAddr: 0x1B20, symBinAddr: 0x62D00, symSize: 0x60 }
  - { offset: 0x2C78BA, size: 0x8, addend: 0x0, symName: __ZNK5godot7Variant11get_indexedExRbS1_, symObjAddr: 0x1B80, symBinAddr: 0x62D60, symSize: 0x70 }
  - { offset: 0x2C7A0E, size: 0x8, addend: 0x0, symName: __ZNK5godot7Variant9get_keyedERKS0_Rb, symObjAddr: 0x1BF0, symBinAddr: 0x62DD0, symSize: 0x60 }
  - { offset: 0x2C7B18, size: 0x8, addend: 0x0, symName: __ZNK5godot7Variant2inERKS0_Pb, symObjAddr: 0x1C50, symBinAddr: 0x62E30, symSize: 0xC0 }
  - { offset: 0x2C7D1A, size: 0x8, addend: 0x0, symName: __ZNK5godot7Variant9iter_initERS0_Rb, symObjAddr: 0x1D10, symBinAddr: 0x62EF0, symSize: 0x30 }
  - { offset: 0x2C7DD8, size: 0x8, addend: 0x0, symName: __ZNK5godot7Variant9iter_nextERS0_Rb, symObjAddr: 0x1D40, symBinAddr: 0x62F20, symSize: 0x30 }
  - { offset: 0x2C7E96, size: 0x8, addend: 0x0, symName: __ZNK5godot7Variant8iter_getERKS0_Rb, symObjAddr: 0x1D70, symBinAddr: 0x62F50, symSize: 0x60 }
  - { offset: 0x2C7FA0, size: 0x8, addend: 0x0, symName: __ZNK5godot7Variant10has_methodERKNS_10StringNameE, symObjAddr: 0x1DD0, symBinAddr: 0x62FB0, symSize: 0x20 }
  - { offset: 0x2C801F, size: 0x8, addend: 0x0, symName: __ZNK5godot7Variant7has_keyERKS0_Pb, symObjAddr: 0x1DF0, symBinAddr: 0x62FD0, symSize: 0x30 }
  - { offset: 0x2C80E8, size: 0x8, addend: 0x0, symName: __ZN5godot7Variant10has_memberENS0_4TypeERKNS_10StringNameE, symObjAddr: 0x1E20, symBinAddr: 0x63000, symSize: 0x20 }
  - { offset: 0x2C8166, size: 0x8, addend: 0x0, symName: __ZNK5godot7Variant4hashEv, symObjAddr: 0x1E40, symBinAddr: 0x63020, symSize: 0x10 }
  - { offset: 0x2C81B0, size: 0x8, addend: 0x0, symName: __ZNK5godot7Variant14recursive_hashEi, symObjAddr: 0x1E50, symBinAddr: 0x63030, symSize: 0x20 }
  - { offset: 0x2C820B, size: 0x8, addend: 0x0, symName: __ZNK5godot7Variant12hash_compareERKS0_, symObjAddr: 0x1E70, symBinAddr: 0x63050, symSize: 0x20 }
  - { offset: 0x2C828A, size: 0x8, addend: 0x0, symName: __ZNK5godot7Variant10booleanizeEv, symObjAddr: 0x1E90, symBinAddr: 0x63070, symSize: 0x20 }
  - { offset: 0x2C82F0, size: 0x8, addend: 0x0, symName: __ZNK5godot7Variant9stringifyEv, symObjAddr: 0x1EB0, symBinAddr: 0x63090, symSize: 0x30 }
  - { offset: 0x2C8346, size: 0x8, addend: 0x0, symName: __ZNK5godot7Variant9duplicateEb, symObjAddr: 0x1EE0, symBinAddr: 0x630C0, symSize: 0x50 }
  - { offset: 0x2C8417, size: 0x8, addend: 0x0, symName: __ZN5godot7Variant13get_type_nameENS0_4TypeE, symObjAddr: 0x1F30, symBinAddr: 0x63110, symSize: 0x30 }
  - { offset: 0x2C846C, size: 0x8, addend: 0x0, symName: __ZN5godot7Variant11can_convertENS0_4TypeES1_, symObjAddr: 0x1F60, symBinAddr: 0x63140, symSize: 0x20 }
  - { offset: 0x2C84EA, size: 0x8, addend: 0x0, symName: __ZN5godot7Variant18can_convert_strictENS0_4TypeES1_, symObjAddr: 0x1F80, symBinAddr: 0x63160, symSize: 0x20 }
  - { offset: 0x2C856F, size: 0x8, addend: 0x0, symName: __ZN5godot8internal23EngineClassRegistrationINS_6ObjectEE8callbackEv.cold.1, symObjAddr: 0x2350, symBinAddr: 0x123CB0, symSize: 0x60 }
  - { offset: 0x2C860A, size: 0x8, addend: 0x0, symName: __ZN5godot6ObjectD1Ev.cold.1, symObjAddr: 0x23B0, symBinAddr: 0x123D10, symSize: 0x30 }
  - { offset: 0x2C8695, size: 0x8, addend: 0x0, symName: __ZN5godot6ObjectD0Ev.cold.1, symObjAddr: 0x23E0, symBinAddr: 0x123D40, symSize: 0x30 }
  - { offset: 0x2C871C, size: 0x8, addend: 0x0, symName: __ZN5godot7WrappedD1Ev.cold.1, symObjAddr: 0x2410, symBinAddr: 0x123D70, symSize: 0x30 }
  - { offset: 0x2C8791, size: 0x8, addend: 0x0, symName: __ZN5godot7WrappedD0Ev.cold.1, symObjAddr: 0x2440, symBinAddr: 0x123DA0, symSize: 0x30 }
  - { offset: 0x2C8802, size: 0x8, addend: 0x0, symName: __ZN5godot4ListINS_12PropertyInfoENS_16DefaultAllocatorEE5_Data5eraseEPNS3_7ElementE.cold.2, symObjAddr: 0x24A0, symBinAddr: 0x123E00, symSize: 0x30 }
  - { offset: 0x2C881A, size: 0x8, addend: 0x0, symName: __ZN5godot4ListINS_12PropertyInfoENS_16DefaultAllocatorEE5_Data5eraseEPNS3_7ElementE.cold.1, symObjAddr: 0x2470, symBinAddr: 0x123DD0, symSize: 0x30 }
  - { offset: 0x2C8839, size: 0x8, addend: 0x0, symName: __ZN5godot8internal23EngineClassRegistrationINS_16ClassDBSingletonEE8callbackEv.cold.1, symObjAddr: 0x24D0, symBinAddr: 0x123E30, symSize: 0x5D }
  - { offset: 0x2CA709, size: 0x8, addend: 0x0, symName: __ZNK5godot10Quaternion8angle_toERKS0_, symObjAddr: 0x0, symBinAddr: 0x63200, symSize: 0x50 }
  - { offset: 0x2CB391, size: 0x8, addend: 0x0, symName: __ZNK5godot10Quaternion8angle_toERKS0_, symObjAddr: 0x0, symBinAddr: 0x63200, symSize: 0x50 }
  - { offset: 0x2CB513, size: 0x8, addend: 0x0, symName: __ZNK5godot10Quaternion9get_eulerENS_10EulerOrderE, symObjAddr: 0x50, symBinAddr: 0x63250, symSize: 0xC0 }
  - { offset: 0x2CB728, size: 0x8, addend: 0x0, symName: __ZNK5godot10Quaternion9get_eulerENS_10EulerOrderE.cold.1, symObjAddr: 0x3420, symBinAddr: 0x123E90, symSize: 0xC0 }
  - { offset: 0x2CB740, size: 0x8, addend: 0x0, symName: __ZNK5godot10Quaternion13is_normalizedEv, symObjAddr: 0x110, symBinAddr: 0x63310, symSize: 0x70 }
  - { offset: 0x2CB7DB, size: 0x8, addend: 0x0, symName: __ZNK5godot10QuaternioncvNS_6StringEEv, symObjAddr: 0x180, symBinAddr: 0x63380, symSize: 0x1C0 }
  - { offset: 0x2CB822, size: 0x8, addend: 0x0, symName: __ZN5godot10QuaternionmLERKS0_, symObjAddr: 0x340, symBinAddr: 0x63540, symSize: 0x80 }
  - { offset: 0x2CB8F0, size: 0x8, addend: 0x0, symName: __ZNK5godot10QuaternionmlERKS0_, symObjAddr: 0x3C0, symBinAddr: 0x635C0, symSize: 0x80 }
  - { offset: 0x2CB9AB, size: 0x8, addend: 0x0, symName: __ZNK5godot10Quaternion15is_equal_approxERKS0_, symObjAddr: 0x440, symBinAddr: 0x63640, symSize: 0x100 }
  - { offset: 0x2CBC92, size: 0x8, addend: 0x0, symName: __ZNK5godot10Quaternion9is_finiteEv, symObjAddr: 0x540, symBinAddr: 0x63740, symSize: 0x50 }
  - { offset: 0x2CBD69, size: 0x8, addend: 0x0, symName: __ZNK5godot10Quaternion6lengthEv, symObjAddr: 0x590, symBinAddr: 0x63790, symSize: 0x40 }
  - { offset: 0x2CBE48, size: 0x8, addend: 0x0, symName: __ZN5godot10Quaternion9normalizeEv, symObjAddr: 0x5D0, symBinAddr: 0x637D0, symSize: 0x60 }
  - { offset: 0x2CC00D, size: 0x8, addend: 0x0, symName: __ZNK5godot10Quaternion10normalizedEv, symObjAddr: 0x630, symBinAddr: 0x63830, symSize: 0x60 }
  - { offset: 0x2CC13E, size: 0x8, addend: 0x0, symName: __ZNK5godot10Quaternion7inverseEv, symObjAddr: 0x690, symBinAddr: 0x63890, symSize: 0xB0 }
  - { offset: 0x2CC20B, size: 0x8, addend: 0x0, symName: __ZNK5godot10Quaternion7inverseEv.cold.1, symObjAddr: 0x34E0, symBinAddr: 0x123F50, symSize: 0xC0 }
  - { offset: 0x2CC28B, size: 0x8, addend: 0x0, symName: __ZNK5godot10Quaternion3logEv, symObjAddr: 0x740, symBinAddr: 0x63940, symSize: 0xB0 }
  - { offset: 0x2CC42A, size: 0x8, addend: 0x0, symName: __ZNK5godot10Quaternion8get_axisEv, symObjAddr: 0x7F0, symBinAddr: 0x639F0, symSize: 0x70 }
  - { offset: 0x2CC4DC, size: 0x8, addend: 0x0, symName: __ZNK5godot10Quaternion9get_angleEv, symObjAddr: 0x860, symBinAddr: 0x63A60, symSize: 0x20 }
  - { offset: 0x2CC643, size: 0x8, addend: 0x0, symName: __ZNK5godot10Quaternion3expEv, symObjAddr: 0x880, symBinAddr: 0x63A80, symSize: 0xE0 }
  - { offset: 0x2CC8E5, size: 0x8, addend: 0x0, symName: __ZN5godot10QuaternionC2ERKNS_7Vector3Ef, symObjAddr: 0x3250, symBinAddr: 0x66450, symSize: 0xF0 }
  - { offset: 0x2CCA79, size: 0x8, addend: 0x0, symName: __ZN5godot10QuaternionC1ERKNS_7Vector3Ef, symObjAddr: 0x960, symBinAddr: 0x63B60, symSize: 0x10 }
  - { offset: 0x2CCAD1, size: 0x8, addend: 0x0, symName: __ZNK5godot10Quaternion5slerpERKS0_f, symObjAddr: 0x970, symBinAddr: 0x63B70, symSize: 0x210 }
  - { offset: 0x2CCD56, size: 0x8, addend: 0x0, symName: __ZNK5godot10Quaternion5slerpERKS0_f.cold.1, symObjAddr: 0x35A0, symBinAddr: 0x124010, symSize: 0xC0 }
  - { offset: 0x2CCD6E, size: 0x8, addend: 0x0, symName: __ZNK5godot10Quaternion5slerpERKS0_f.cold.2, symObjAddr: 0x3660, symBinAddr: 0x1240D0, symSize: 0xC0 }
  - { offset: 0x2CCD86, size: 0x8, addend: 0x0, symName: __ZNK5godot10Quaternion7slerpniERKS0_f, symObjAddr: 0xB80, symBinAddr: 0x63D80, symSize: 0x1E0 }
  - { offset: 0x2CD02A, size: 0x8, addend: 0x0, symName: __ZNK5godot10Quaternion7slerpniERKS0_f.cold.1, symObjAddr: 0x3720, symBinAddr: 0x124190, symSize: 0xC0 }
  - { offset: 0x2CD042, size: 0x8, addend: 0x0, symName: __ZNK5godot10Quaternion7slerpniERKS0_f.cold.2, symObjAddr: 0x37E0, symBinAddr: 0x124250, symSize: 0xC0 }
  - { offset: 0x2CD166, size: 0x8, addend: 0x0, symName: __ZNK5godot10Quaternion27spherical_cubic_interpolateERKS0_S2_S2_f, symObjAddr: 0xD60, symBinAddr: 0x63F60, symSize: 0x1220 }
  - { offset: 0x2CECC4, size: 0x8, addend: 0x0, symName: __ZNK5godot10Quaternion35spherical_cubic_interpolate_in_timeERKS0_S2_S2_ffff, symObjAddr: 0x1F80, symBinAddr: 0x65180, symSize: 0x12D0 }
  - { offset: 0x2D0A8B, size: 0x8, addend: 0x0, symName: __ZN5godot10QuaternionC2ERKNS_7Vector3Ef.cold.1, symObjAddr: 0x38A0, symBinAddr: 0x124310, symSize: 0xB7 }
  - { offset: 0x2D0AA3, size: 0x8, addend: 0x0, symName: __ZN5godot10Quaternion10from_eulerERKNS_7Vector3E, symObjAddr: 0x3340, symBinAddr: 0x66540, symSize: 0xE0 }
  - { offset: 0x2D1C3B, size: 0x8, addend: 0x0, symName: __ZN5godot11CharStringTIcE4ptrwEv, symObjAddr: 0x0, symBinAddr: 0x66620, symSize: 0x20 }
  - { offset: 0x2D1C4F, size: 0x8, addend: 0x0, symName: __ZN5godot11CharStringTIcE5_nullE, symObjAddr: 0x4F60, symBinAddr: 0x1AFA30, symSize: 0x0 }
  - { offset: 0x2D368B, size: 0x8, addend: 0x0, symName: __ZN5godot4itosEx, symObjAddr: 0x2530, symBinAddr: 0x68B50, symSize: 0x20 }
  - { offset: 0x2D36BA, size: 0x8, addend: 0x0, symName: __ZN5godot5uitosEy, symObjAddr: 0x2550, symBinAddr: 0x68B70, symSize: 0x20 }
  - { offset: 0x2D36E9, size: 0x8, addend: 0x0, symName: __ZN5godot4rtosEd, symObjAddr: 0x2570, symBinAddr: 0x68B90, symSize: 0x20 }
  - { offset: 0x2D3718, size: 0x8, addend: 0x0, symName: __ZN5godot5rtossEd, symObjAddr: 0x2590, symBinAddr: 0x68BB0, symSize: 0x20 }
